ARM GAS  C:\Users\ADMINI~1\AppData\Local\Temp\cc8DJu9v.s 			page 1


   1              		.cpu cortex-m4
   2              		.eabi_attribute 27, 1
   3              		.eabi_attribute 28, 1
   4              		.eabi_attribute 20, 1
   5              		.eabi_attribute 21, 1
   6              		.eabi_attribute 23, 3
   7              		.eabi_attribute 24, 1
   8              		.eabi_attribute 25, 1
   9              		.eabi_attribute 26, 1
  10              		.eabi_attribute 30, 6
  11              		.eabi_attribute 34, 1
  12              		.eabi_attribute 18, 4
  13              		.file	"er-coap-13.c"
  14              		.text
  15              	.Ltext0:
  16              		.cfi_sections	.debug_frame
  17              		.section	.bss.current_mid,"aw",%nobits
  18              		.align	1
  21              	current_mid:
  22 0000 0000     		.space	2
  23              		.global	coap_error_code
  24              		.section	.bss.coap_error_code,"aw",%nobits
  27              	coap_error_code:
  28 0000 00       		.space	1
  29              		.global	coap_error_message
  30              		.section	.rodata
  31              		.align	2
  32              	.LC0:
  33 0000 00       		.ascii	"\000"
  34              		.section	.data.coap_error_message,"aw"
  35              		.align	2
  38              	coap_error_message:
  39 0000 00000000 		.word	.LC0
  40              		.section	.text.coap_log_2,"ax",%progbits
  41              		.align	1
  42              		.arch armv7e-m
  43              		.syntax unified
  44              		.thumb
  45              		.thumb_func
  46              		.fpu fpv4-sp-d16
  48              	coap_log_2:
  49              	.LFB4:
  50              		.file 1 "g:/iot/IoT_Device_Demo/iot_link/network/lwm2m/wakaama_lwm2m/wakaama-master/core/er-coap-1
   1:g:/iot/IoT_Device_Demo/iot_link/network/lwm2m/wakaama_lwm2m/wakaama-master/core/er-coap-13\er-coap-13.c **** /*----------------------------------------------------------------------------
   2:g:/iot/IoT_Device_Demo/iot_link/network/lwm2m/wakaama_lwm2m/wakaama-master/core/er-coap-13\er-coap-13.c ****  * Copyright (c) <2016-2018>, <Huawei Technologies Co., Ltd>
   3:g:/iot/IoT_Device_Demo/iot_link/network/lwm2m/wakaama_lwm2m/wakaama-master/core/er-coap-13\er-coap-13.c ****  * All rights reserved.
   4:g:/iot/IoT_Device_Demo/iot_link/network/lwm2m/wakaama_lwm2m/wakaama-master/core/er-coap-13\er-coap-13.c ****  * Redistribution and use in source and binary forms, with or without modification,
   5:g:/iot/IoT_Device_Demo/iot_link/network/lwm2m/wakaama_lwm2m/wakaama-master/core/er-coap-13\er-coap-13.c ****  * are permitted provided that the following conditions are met:
   6:g:/iot/IoT_Device_Demo/iot_link/network/lwm2m/wakaama_lwm2m/wakaama-master/core/er-coap-13\er-coap-13.c ****  * 1. Redistributions of source code must retain the above copyright notice, this list of
   7:g:/iot/IoT_Device_Demo/iot_link/network/lwm2m/wakaama_lwm2m/wakaama-master/core/er-coap-13\er-coap-13.c ****  * conditions and the following disclaimer.
   8:g:/iot/IoT_Device_Demo/iot_link/network/lwm2m/wakaama_lwm2m/wakaama-master/core/er-coap-13\er-coap-13.c ****  * 2. Redistributions in binary form must reproduce the above copyright notice, this list
   9:g:/iot/IoT_Device_Demo/iot_link/network/lwm2m/wakaama_lwm2m/wakaama-master/core/er-coap-13\er-coap-13.c ****  * of conditions and the following disclaimer in the documentation and/or other materials
  10:g:/iot/IoT_Device_Demo/iot_link/network/lwm2m/wakaama_lwm2m/wakaama-master/core/er-coap-13\er-coap-13.c ****  * provided with the distribution.
  11:g:/iot/IoT_Device_Demo/iot_link/network/lwm2m/wakaama_lwm2m/wakaama-master/core/er-coap-13\er-coap-13.c ****  * 3. Neither the name of the copyright holder nor the names of its contributors may be used
  12:g:/iot/IoT_Device_Demo/iot_link/network/lwm2m/wakaama_lwm2m/wakaama-master/core/er-coap-13\er-coap-13.c ****  * to endorse or promote products derived from this software without specific prior written
  13:g:/iot/IoT_Device_Demo/iot_link/network/lwm2m/wakaama_lwm2m/wakaama-master/core/er-coap-13\er-coap-13.c ****  * permission.
  14:g:/iot/IoT_Device_Demo/iot_link/network/lwm2m/wakaama_lwm2m/wakaama-master/core/er-coap-13\er-coap-13.c ****  * THIS SOFTWARE IS PROVIDED BY THE COPYRIGHT HOLDERS AND CONTRIBUTORS
ARM GAS  C:\Users\ADMINI~1\AppData\Local\Temp\cc8DJu9v.s 			page 2


  15:g:/iot/IoT_Device_Demo/iot_link/network/lwm2m/wakaama_lwm2m/wakaama-master/core/er-coap-13\er-coap-13.c ****  * "AS IS" AND ANY EXPRESS OR IMPLIED WARRANTIES, INCLUDING, BUT NOT LIMITED TO,
  16:g:/iot/IoT_Device_Demo/iot_link/network/lwm2m/wakaama_lwm2m/wakaama-master/core/er-coap-13\er-coap-13.c ****  * THE IMPLIED WARRANTIES OF MERCHANTABILITY AND FITNESS FOR A PARTICULAR
  17:g:/iot/IoT_Device_Demo/iot_link/network/lwm2m/wakaama_lwm2m/wakaama-master/core/er-coap-13\er-coap-13.c ****  * PURPOSE ARE DISCLAIMED. IN NO EVENT SHALL THE COPYRIGHT HOLDER OR
  18:g:/iot/IoT_Device_Demo/iot_link/network/lwm2m/wakaama_lwm2m/wakaama-master/core/er-coap-13\er-coap-13.c ****  * CONTRIBUTORS BE LIABLE FOR ANY DIRECT, INDIRECT, INCIDENTAL, SPECIAL,
  19:g:/iot/IoT_Device_Demo/iot_link/network/lwm2m/wakaama_lwm2m/wakaama-master/core/er-coap-13\er-coap-13.c ****  * EXEMPLARY, OR CONSEQUENTIAL DAMAGES (INCLUDING, BUT NOT LIMITED TO,
  20:g:/iot/IoT_Device_Demo/iot_link/network/lwm2m/wakaama_lwm2m/wakaama-master/core/er-coap-13\er-coap-13.c ****  * PROCUREMENT OF SUBSTITUTE GOODS OR SERVICES; LOSS OF USE, DATA, OR PROFITS;
  21:g:/iot/IoT_Device_Demo/iot_link/network/lwm2m/wakaama_lwm2m/wakaama-master/core/er-coap-13\er-coap-13.c ****  * OR BUSINESS INTERRUPTION) HOWEVER CAUSED AND ON ANY THEORY OF LIABILITY,
  22:g:/iot/IoT_Device_Demo/iot_link/network/lwm2m/wakaama_lwm2m/wakaama-master/core/er-coap-13\er-coap-13.c ****  * WHETHER IN CONTRACT, STRICT LIABILITY, OR TORT (INCLUDING NEGLIGENCE OR
  23:g:/iot/IoT_Device_Demo/iot_link/network/lwm2m/wakaama_lwm2m/wakaama-master/core/er-coap-13\er-coap-13.c ****  * OTHERWISE) ARISING IN ANY WAY OUT OF THE USE OF THIS SOFTWARE, EVEN IF
  24:g:/iot/IoT_Device_Demo/iot_link/network/lwm2m/wakaama_lwm2m/wakaama-master/core/er-coap-13\er-coap-13.c ****  * ADVISED OF THE POSSIBILITY OF SUCH DAMAGE.
  25:g:/iot/IoT_Device_Demo/iot_link/network/lwm2m/wakaama_lwm2m/wakaama-master/core/er-coap-13\er-coap-13.c ****  *---------------------------------------------------------------------------*/
  26:g:/iot/IoT_Device_Demo/iot_link/network/lwm2m/wakaama_lwm2m/wakaama-master/core/er-coap-13\er-coap-13.c **** /*----------------------------------------------------------------------------
  27:g:/iot/IoT_Device_Demo/iot_link/network/lwm2m/wakaama_lwm2m/wakaama-master/core/er-coap-13\er-coap-13.c ****  * Notice of Export Control Law
  28:g:/iot/IoT_Device_Demo/iot_link/network/lwm2m/wakaama_lwm2m/wakaama-master/core/er-coap-13\er-coap-13.c ****  * ===============================================
  29:g:/iot/IoT_Device_Demo/iot_link/network/lwm2m/wakaama_lwm2m/wakaama-master/core/er-coap-13\er-coap-13.c ****  * Huawei LiteOS may be subject to applicable export control laws and regulations, which might
  30:g:/iot/IoT_Device_Demo/iot_link/network/lwm2m/wakaama_lwm2m/wakaama-master/core/er-coap-13\er-coap-13.c ****  * include those applicable to Huawei LiteOS of U.S. and the country in which you are located.
  31:g:/iot/IoT_Device_Demo/iot_link/network/lwm2m/wakaama_lwm2m/wakaama-master/core/er-coap-13\er-coap-13.c ****  * Import, export and usage of Huawei LiteOS in any manner by you shall be in compliance with such
  32:g:/iot/IoT_Device_Demo/iot_link/network/lwm2m/wakaama_lwm2m/wakaama-master/core/er-coap-13\er-coap-13.c ****  * applicable export control laws and regulations.
  33:g:/iot/IoT_Device_Demo/iot_link/network/lwm2m/wakaama_lwm2m/wakaama-master/core/er-coap-13\er-coap-13.c ****  *---------------------------------------------------------------------------*/
  34:g:/iot/IoT_Device_Demo/iot_link/network/lwm2m/wakaama_lwm2m/wakaama-master/core/er-coap-13\er-coap-13.c **** 
  35:g:/iot/IoT_Device_Demo/iot_link/network/lwm2m/wakaama_lwm2m/wakaama-master/core/er-coap-13\er-coap-13.c **** /*
  36:g:/iot/IoT_Device_Demo/iot_link/network/lwm2m/wakaama_lwm2m/wakaama-master/core/er-coap-13\er-coap-13.c ****  * Copyright (c) 2013, Institute for Pervasive Computing, ETH Zurich
  37:g:/iot/IoT_Device_Demo/iot_link/network/lwm2m/wakaama_lwm2m/wakaama-master/core/er-coap-13\er-coap-13.c ****  * All rights reserved.
  38:g:/iot/IoT_Device_Demo/iot_link/network/lwm2m/wakaama_lwm2m/wakaama-master/core/er-coap-13\er-coap-13.c ****  *
  39:g:/iot/IoT_Device_Demo/iot_link/network/lwm2m/wakaama_lwm2m/wakaama-master/core/er-coap-13\er-coap-13.c ****  * Redistribution and use in source and binary forms, with or without
  40:g:/iot/IoT_Device_Demo/iot_link/network/lwm2m/wakaama_lwm2m/wakaama-master/core/er-coap-13\er-coap-13.c ****  * modification, are permitted provided that the following conditions
  41:g:/iot/IoT_Device_Demo/iot_link/network/lwm2m/wakaama_lwm2m/wakaama-master/core/er-coap-13\er-coap-13.c ****  * are met:
  42:g:/iot/IoT_Device_Demo/iot_link/network/lwm2m/wakaama_lwm2m/wakaama-master/core/er-coap-13\er-coap-13.c ****  * 1. Redistributions of source code must retain the above copyright
  43:g:/iot/IoT_Device_Demo/iot_link/network/lwm2m/wakaama_lwm2m/wakaama-master/core/er-coap-13\er-coap-13.c ****  *    notice, this list of conditions and the following disclaimer.
  44:g:/iot/IoT_Device_Demo/iot_link/network/lwm2m/wakaama_lwm2m/wakaama-master/core/er-coap-13\er-coap-13.c ****  * 2. Redistributions in binary form must reproduce the above copyright
  45:g:/iot/IoT_Device_Demo/iot_link/network/lwm2m/wakaama_lwm2m/wakaama-master/core/er-coap-13\er-coap-13.c ****  *    notice, this list of conditions and the following disclaimer in the
  46:g:/iot/IoT_Device_Demo/iot_link/network/lwm2m/wakaama_lwm2m/wakaama-master/core/er-coap-13\er-coap-13.c ****  *    documentation and/or other materials provided with the distribution.
  47:g:/iot/IoT_Device_Demo/iot_link/network/lwm2m/wakaama_lwm2m/wakaama-master/core/er-coap-13\er-coap-13.c ****  * 3. Neither the name of the Institute nor the names of its contributors
  48:g:/iot/IoT_Device_Demo/iot_link/network/lwm2m/wakaama_lwm2m/wakaama-master/core/er-coap-13\er-coap-13.c ****  *    may be used to endorse or promote products derived from this software
  49:g:/iot/IoT_Device_Demo/iot_link/network/lwm2m/wakaama_lwm2m/wakaama-master/core/er-coap-13\er-coap-13.c ****  *    without specific prior written permission.
  50:g:/iot/IoT_Device_Demo/iot_link/network/lwm2m/wakaama_lwm2m/wakaama-master/core/er-coap-13\er-coap-13.c ****  *
  51:g:/iot/IoT_Device_Demo/iot_link/network/lwm2m/wakaama_lwm2m/wakaama-master/core/er-coap-13\er-coap-13.c ****  * THIS SOFTWARE IS PROVIDED BY THE INSTITUTE AND CONTRIBUTORS ``AS IS'' AND
  52:g:/iot/IoT_Device_Demo/iot_link/network/lwm2m/wakaama_lwm2m/wakaama-master/core/er-coap-13\er-coap-13.c ****  * ANY EXPRESS OR IMPLIED WARRANTIES, INCLUDING, BUT NOT LIMITED TO, THE
  53:g:/iot/IoT_Device_Demo/iot_link/network/lwm2m/wakaama_lwm2m/wakaama-master/core/er-coap-13\er-coap-13.c ****  * IMPLIED WARRANTIES OF MERCHANTABILITY AND FITNESS FOR A PARTICULAR PURPOSE
  54:g:/iot/IoT_Device_Demo/iot_link/network/lwm2m/wakaama_lwm2m/wakaama-master/core/er-coap-13\er-coap-13.c ****  * ARE DISCLAIMED.  IN NO EVENT SHALL THE INSTITUTE OR CONTRIBUTORS BE LIABLE
  55:g:/iot/IoT_Device_Demo/iot_link/network/lwm2m/wakaama_lwm2m/wakaama-master/core/er-coap-13\er-coap-13.c ****  * FOR ANY DIRECT, INDIRECT, INCIDENTAL, SPECIAL, EXEMPLARY, OR CONSEQUENTIAL
  56:g:/iot/IoT_Device_Demo/iot_link/network/lwm2m/wakaama_lwm2m/wakaama-master/core/er-coap-13\er-coap-13.c ****  * DAMAGES (INCLUDING, BUT NOT LIMITED TO, PROCUREMENT OF SUBSTITUTE GOODS
  57:g:/iot/IoT_Device_Demo/iot_link/network/lwm2m/wakaama_lwm2m/wakaama-master/core/er-coap-13\er-coap-13.c ****  * OR SERVICES; LOSS OF USE, DATA, OR PROFITS; OR BUSINESS INTERRUPTION)
  58:g:/iot/IoT_Device_Demo/iot_link/network/lwm2m/wakaama_lwm2m/wakaama-master/core/er-coap-13\er-coap-13.c ****  * HOWEVER CAUSED AND ON ANY THEORY OF LIABILITY, WHETHER IN CONTRACT, STRICT
  59:g:/iot/IoT_Device_Demo/iot_link/network/lwm2m/wakaama_lwm2m/wakaama-master/core/er-coap-13\er-coap-13.c ****  * LIABILITY, OR TORT (INCLUDING NEGLIGENCE OR OTHERWISE) ARISING IN ANY WAY
  60:g:/iot/IoT_Device_Demo/iot_link/network/lwm2m/wakaama_lwm2m/wakaama-master/core/er-coap-13\er-coap-13.c ****  * OUT OF THE USE OF THIS SOFTWARE, EVEN IF ADVISED OF THE POSSIBILITY OF
  61:g:/iot/IoT_Device_Demo/iot_link/network/lwm2m/wakaama_lwm2m/wakaama-master/core/er-coap-13\er-coap-13.c ****  * SUCH DAMAGE.
  62:g:/iot/IoT_Device_Demo/iot_link/network/lwm2m/wakaama_lwm2m/wakaama-master/core/er-coap-13\er-coap-13.c ****  *
  63:g:/iot/IoT_Device_Demo/iot_link/network/lwm2m/wakaama_lwm2m/wakaama-master/core/er-coap-13\er-coap-13.c ****  * This file is part of the Contiki operating system.
  64:g:/iot/IoT_Device_Demo/iot_link/network/lwm2m/wakaama_lwm2m/wakaama-master/core/er-coap-13\er-coap-13.c ****  */
  65:g:/iot/IoT_Device_Demo/iot_link/network/lwm2m/wakaama_lwm2m/wakaama-master/core/er-coap-13\er-coap-13.c **** 
  66:g:/iot/IoT_Device_Demo/iot_link/network/lwm2m/wakaama_lwm2m/wakaama-master/core/er-coap-13\er-coap-13.c **** /**
  67:g:/iot/IoT_Device_Demo/iot_link/network/lwm2m/wakaama_lwm2m/wakaama-master/core/er-coap-13\er-coap-13.c ****  * \file
  68:g:/iot/IoT_Device_Demo/iot_link/network/lwm2m/wakaama_lwm2m/wakaama-master/core/er-coap-13\er-coap-13.c ****  *      An implementation of the Constrained Application Protocol (draft 12)
  69:g:/iot/IoT_Device_Demo/iot_link/network/lwm2m/wakaama_lwm2m/wakaama-master/core/er-coap-13\er-coap-13.c ****  * \author
  70:g:/iot/IoT_Device_Demo/iot_link/network/lwm2m/wakaama_lwm2m/wakaama-master/core/er-coap-13\er-coap-13.c ****  *      Matthias Kovatsch <kovatsch@inf.ethz.ch>
  71:g:/iot/IoT_Device_Demo/iot_link/network/lwm2m/wakaama_lwm2m/wakaama-master/core/er-coap-13\er-coap-13.c ****  * \contributors
ARM GAS  C:\Users\ADMINI~1\AppData\Local\Temp\cc8DJu9v.s 			page 3


  72:g:/iot/IoT_Device_Demo/iot_link/network/lwm2m/wakaama_lwm2m/wakaama-master/core/er-coap-13\er-coap-13.c ****  *    David Navarro, Intel Corporation - Adapt to usage in liblwm2m
  73:g:/iot/IoT_Device_Demo/iot_link/network/lwm2m/wakaama_lwm2m/wakaama-master/core/er-coap-13\er-coap-13.c ****  */
  74:g:/iot/IoT_Device_Demo/iot_link/network/lwm2m/wakaama_lwm2m/wakaama-master/core/er-coap-13\er-coap-13.c **** 
  75:g:/iot/IoT_Device_Demo/iot_link/network/lwm2m/wakaama_lwm2m/wakaama-master/core/er-coap-13\er-coap-13.c **** 
  76:g:/iot/IoT_Device_Demo/iot_link/network/lwm2m/wakaama_lwm2m/wakaama-master/core/er-coap-13\er-coap-13.c **** #include <stdlib.h>
  77:g:/iot/IoT_Device_Demo/iot_link/network/lwm2m/wakaama_lwm2m/wakaama-master/core/er-coap-13\er-coap-13.c **** 
  78:g:/iot/IoT_Device_Demo/iot_link/network/lwm2m/wakaama_lwm2m/wakaama-master/core/er-coap-13\er-coap-13.c **** #include <string.h>
  79:g:/iot/IoT_Device_Demo/iot_link/network/lwm2m/wakaama_lwm2m/wakaama-master/core/er-coap-13\er-coap-13.c **** #include <stdio.h>
  80:g:/iot/IoT_Device_Demo/iot_link/network/lwm2m/wakaama_lwm2m/wakaama-master/core/er-coap-13\er-coap-13.c **** 
  81:g:/iot/IoT_Device_Demo/iot_link/network/lwm2m/wakaama_lwm2m/wakaama-master/core/er-coap-13\er-coap-13.c **** #include "er-coap-13.h"
  82:g:/iot/IoT_Device_Demo/iot_link/network/lwm2m/wakaama_lwm2m/wakaama-master/core/er-coap-13\er-coap-13.c **** #include "internals.h"
  83:g:/iot/IoT_Device_Demo/iot_link/network/lwm2m/wakaama_lwm2m/wakaama-master/core/er-coap-13\er-coap-13.c **** #include "liblwm2m.h" /* for lwm2m_malloc() and lwm2m_free() */
  84:g:/iot/IoT_Device_Demo/iot_link/network/lwm2m/wakaama_lwm2m/wakaama-master/core/er-coap-13\er-coap-13.c **** 
  85:g:/iot/IoT_Device_Demo/iot_link/network/lwm2m/wakaama_lwm2m/wakaama-master/core/er-coap-13\er-coap-13.c **** #define DEBUG 0
  86:g:/iot/IoT_Device_Demo/iot_link/network/lwm2m/wakaama_lwm2m/wakaama-master/core/er-coap-13\er-coap-13.c **** #if DEBUG
  87:g:/iot/IoT_Device_Demo/iot_link/network/lwm2m/wakaama_lwm2m/wakaama-master/core/er-coap-13\er-coap-13.c **** #include <stdio.h>
  88:g:/iot/IoT_Device_Demo/iot_link/network/lwm2m/wakaama_lwm2m/wakaama-master/core/er-coap-13\er-coap-13.c **** #define PRINTF(...) printf(__VA_ARGS__)
  89:g:/iot/IoT_Device_Demo/iot_link/network/lwm2m/wakaama_lwm2m/wakaama-master/core/er-coap-13\er-coap-13.c **** #define PRINT6ADDR(addr) PRINTF("[%02x%02x:%02x%02x:%02x%02x:%02x%02x:%02x%02x:%02x%02x:%02x%02x:%0
  90:g:/iot/IoT_Device_Demo/iot_link/network/lwm2m/wakaama_lwm2m/wakaama-master/core/er-coap-13\er-coap-13.c **** #define PRINTLLADDR(lladdr) PRINTF("[%02x:%02x:%02x:%02x:%02x:%02x]",(lladdr)->addr[0], (lladdr)->a
  91:g:/iot/IoT_Device_Demo/iot_link/network/lwm2m/wakaama_lwm2m/wakaama-master/core/er-coap-13\er-coap-13.c **** #else
  92:g:/iot/IoT_Device_Demo/iot_link/network/lwm2m/wakaama_lwm2m/wakaama-master/core/er-coap-13\er-coap-13.c **** #define PRINTF(...)
  93:g:/iot/IoT_Device_Demo/iot_link/network/lwm2m/wakaama_lwm2m/wakaama-master/core/er-coap-13\er-coap-13.c **** #define PRINT6ADDR(addr)
  94:g:/iot/IoT_Device_Demo/iot_link/network/lwm2m/wakaama_lwm2m/wakaama-master/core/er-coap-13\er-coap-13.c **** #define PRINTLLADDR(addr)
  95:g:/iot/IoT_Device_Demo/iot_link/network/lwm2m/wakaama_lwm2m/wakaama-master/core/er-coap-13\er-coap-13.c **** #endif
  96:g:/iot/IoT_Device_Demo/iot_link/network/lwm2m/wakaama_lwm2m/wakaama-master/core/er-coap-13\er-coap-13.c **** 
  97:g:/iot/IoT_Device_Demo/iot_link/network/lwm2m/wakaama_lwm2m/wakaama-master/core/er-coap-13\er-coap-13.c **** /*-----------------------------------------------------------------------------------*/
  98:g:/iot/IoT_Device_Demo/iot_link/network/lwm2m/wakaama_lwm2m/wakaama-master/core/er-coap-13\er-coap-13.c **** /*- Variables -----------------------------------------------------------------------*/
  99:g:/iot/IoT_Device_Demo/iot_link/network/lwm2m/wakaama_lwm2m/wakaama-master/core/er-coap-13\er-coap-13.c **** /*-----------------------------------------------------------------------------------*/
 100:g:/iot/IoT_Device_Demo/iot_link/network/lwm2m/wakaama_lwm2m/wakaama-master/core/er-coap-13\er-coap-13.c **** static uint16_t current_mid = 0;
 101:g:/iot/IoT_Device_Demo/iot_link/network/lwm2m/wakaama_lwm2m/wakaama-master/core/er-coap-13\er-coap-13.c **** 
 102:g:/iot/IoT_Device_Demo/iot_link/network/lwm2m/wakaama_lwm2m/wakaama-master/core/er-coap-13\er-coap-13.c **** coap_status_t coap_error_code = NO_ERROR;
 103:g:/iot/IoT_Device_Demo/iot_link/network/lwm2m/wakaama_lwm2m/wakaama-master/core/er-coap-13\er-coap-13.c **** const char *coap_error_message = "";
 104:g:/iot/IoT_Device_Demo/iot_link/network/lwm2m/wakaama_lwm2m/wakaama-master/core/er-coap-13\er-coap-13.c **** /*-----------------------------------------------------------------------------------*/
 105:g:/iot/IoT_Device_Demo/iot_link/network/lwm2m/wakaama_lwm2m/wakaama-master/core/er-coap-13\er-coap-13.c **** /*- LOCAL HELP FUNCTIONS ------------------------------------------------------------*/
 106:g:/iot/IoT_Device_Demo/iot_link/network/lwm2m/wakaama_lwm2m/wakaama-master/core/er-coap-13\er-coap-13.c **** /*-----------------------------------------------------------------------------------*/
 107:g:/iot/IoT_Device_Demo/iot_link/network/lwm2m/wakaama_lwm2m/wakaama-master/core/er-coap-13\er-coap-13.c **** static
 108:g:/iot/IoT_Device_Demo/iot_link/network/lwm2m/wakaama_lwm2m/wakaama-master/core/er-coap-13\er-coap-13.c **** uint16_t
 109:g:/iot/IoT_Device_Demo/iot_link/network/lwm2m/wakaama_lwm2m/wakaama-master/core/er-coap-13\er-coap-13.c **** coap_log_2(uint16_t value)
 110:g:/iot/IoT_Device_Demo/iot_link/network/lwm2m/wakaama_lwm2m/wakaama-master/core/er-coap-13\er-coap-13.c **** {
  51              		.loc 1 110 1
  52              		.cfi_startproc
  53              		@ args = 0, pretend = 0, frame = 16
  54              		@ frame_needed = 1, uses_anonymous_args = 0
  55              		@ link register save eliminated.
  56 0000 80B4     		push	{r7}
  57              	.LCFI0:
  58              		.cfi_def_cfa_offset 4
  59              		.cfi_offset 7, -4
  60 0002 85B0     		sub	sp, sp, #20
  61              	.LCFI1:
  62              		.cfi_def_cfa_offset 24
  63 0004 00AF     		add	r7, sp, #0
  64              	.LCFI2:
  65              		.cfi_def_cfa_register 7
  66 0006 0346     		mov	r3, r0
  67 0008 FB80     		strh	r3, [r7, #6]	@ movhi
 111:g:/iot/IoT_Device_Demo/iot_link/network/lwm2m/wakaama_lwm2m/wakaama-master/core/er-coap-13\er-coap-13.c ****     uint16_t result = 0;
ARM GAS  C:\Users\ADMINI~1\AppData\Local\Temp\cc8DJu9v.s 			page 4


  68              		.loc 1 111 14
  69 000a 0023     		movs	r3, #0
  70 000c FB81     		strh	r3, [r7, #14]	@ movhi
  71              	.L2:
 112:g:/iot/IoT_Device_Demo/iot_link/network/lwm2m/wakaama_lwm2m/wakaama-master/core/er-coap-13\er-coap-13.c ****     do
 113:g:/iot/IoT_Device_Demo/iot_link/network/lwm2m/wakaama_lwm2m/wakaama-master/core/er-coap-13\er-coap-13.c ****     {
 114:g:/iot/IoT_Device_Demo/iot_link/network/lwm2m/wakaama_lwm2m/wakaama-master/core/er-coap-13\er-coap-13.c ****         value = value >> 1;
  72              		.loc 1 114 15 discriminator 1
  73 000e FB88     		ldrh	r3, [r7, #6]
  74 0010 5B08     		lsrs	r3, r3, #1
  75 0012 FB80     		strh	r3, [r7, #6]	@ movhi
 115:g:/iot/IoT_Device_Demo/iot_link/network/lwm2m/wakaama_lwm2m/wakaama-master/core/er-coap-13\er-coap-13.c ****         result++;
  76              		.loc 1 115 15 discriminator 1
  77 0014 FB89     		ldrh	r3, [r7, #14]
  78 0016 0133     		adds	r3, r3, #1
  79 0018 FB81     		strh	r3, [r7, #14]	@ movhi
 116:g:/iot/IoT_Device_Demo/iot_link/network/lwm2m/wakaama_lwm2m/wakaama-master/core/er-coap-13\er-coap-13.c ****     }
 117:g:/iot/IoT_Device_Demo/iot_link/network/lwm2m/wakaama_lwm2m/wakaama-master/core/er-coap-13\er-coap-13.c ****     while (value);
  80              		.loc 1 117 5 discriminator 1
  81 001a FB88     		ldrh	r3, [r7, #6]
  82 001c 002B     		cmp	r3, #0
  83 001e F6D1     		bne	.L2
 118:g:/iot/IoT_Device_Demo/iot_link/network/lwm2m/wakaama_lwm2m/wakaama-master/core/er-coap-13\er-coap-13.c **** 
 119:g:/iot/IoT_Device_Demo/iot_link/network/lwm2m/wakaama_lwm2m/wakaama-master/core/er-coap-13\er-coap-13.c ****     return result ? result - 1 : result;
  84              		.loc 1 119 32
  85 0020 FB89     		ldrh	r3, [r7, #14]
  86 0022 002B     		cmp	r3, #0
  87 0024 03D0     		beq	.L3
  88              		.loc 1 119 32 is_stmt 0 discriminator 1
  89 0026 FB89     		ldrh	r3, [r7, #14]	@ movhi
  90 0028 013B     		subs	r3, r3, #1
  91 002a 9BB2     		uxth	r3, r3
  92 002c 00E0     		b	.L4
  93              	.L3:
  94              		.loc 1 119 32 discriminator 2
  95 002e FB89     		ldrh	r3, [r7, #14]
  96              	.L4:
 120:g:/iot/IoT_Device_Demo/iot_link/network/lwm2m/wakaama_lwm2m/wakaama-master/core/er-coap-13\er-coap-13.c **** }
  97              		.loc 1 120 1 is_stmt 1 discriminator 4
  98 0030 1846     		mov	r0, r3
  99 0032 1437     		adds	r7, r7, #20
 100              	.LCFI3:
 101              		.cfi_def_cfa_offset 4
 102 0034 BD46     		mov	sp, r7
 103              	.LCFI4:
 104              		.cfi_def_cfa_register 13
 105              		@ sp needed
 106 0036 5DF8047B 		ldr	r7, [sp], #4
 107              	.LCFI5:
 108              		.cfi_restore 7
 109              		.cfi_def_cfa_offset 0
 110 003a 7047     		bx	lr
 111              		.cfi_endproc
 112              	.LFE4:
 114              		.section	.text.coap_parse_int_option,"ax",%progbits
 115              		.align	1
 116              		.syntax unified
ARM GAS  C:\Users\ADMINI~1\AppData\Local\Temp\cc8DJu9v.s 			page 5


 117              		.thumb
 118              		.thumb_func
 119              		.fpu fpv4-sp-d16
 121              	coap_parse_int_option:
 122              	.LFB5:
 121:g:/iot/IoT_Device_Demo/iot_link/network/lwm2m/wakaama_lwm2m/wakaama-master/core/er-coap-13\er-coap-13.c **** /*-----------------------------------------------------------------------------------*/
 122:g:/iot/IoT_Device_Demo/iot_link/network/lwm2m/wakaama_lwm2m/wakaama-master/core/er-coap-13\er-coap-13.c **** static
 123:g:/iot/IoT_Device_Demo/iot_link/network/lwm2m/wakaama_lwm2m/wakaama-master/core/er-coap-13\er-coap-13.c **** uint32_t
 124:g:/iot/IoT_Device_Demo/iot_link/network/lwm2m/wakaama_lwm2m/wakaama-master/core/er-coap-13\er-coap-13.c **** coap_parse_int_option(uint8_t *bytes, size_t length)
 125:g:/iot/IoT_Device_Demo/iot_link/network/lwm2m/wakaama_lwm2m/wakaama-master/core/er-coap-13\er-coap-13.c **** {
 123              		.loc 1 125 1
 124              		.cfi_startproc
 125              		@ args = 0, pretend = 0, frame = 16
 126              		@ frame_needed = 1, uses_anonymous_args = 0
 127              		@ link register save eliminated.
 128 0000 80B4     		push	{r7}
 129              	.LCFI6:
 130              		.cfi_def_cfa_offset 4
 131              		.cfi_offset 7, -4
 132 0002 85B0     		sub	sp, sp, #20
 133              	.LCFI7:
 134              		.cfi_def_cfa_offset 24
 135 0004 00AF     		add	r7, sp, #0
 136              	.LCFI8:
 137              		.cfi_def_cfa_register 7
 138 0006 7860     		str	r0, [r7, #4]
 139 0008 3960     		str	r1, [r7]
 126:g:/iot/IoT_Device_Demo/iot_link/network/lwm2m/wakaama_lwm2m/wakaama-master/core/er-coap-13\er-coap-13.c ****     uint32_t var = 0;
 140              		.loc 1 126 14
 141 000a 0023     		movs	r3, #0
 142 000c FB60     		str	r3, [r7, #12]
 127:g:/iot/IoT_Device_Demo/iot_link/network/lwm2m/wakaama_lwm2m/wakaama-master/core/er-coap-13\er-coap-13.c ****     size_t i = 0;
 143              		.loc 1 127 12
 144 000e 0023     		movs	r3, #0
 145 0010 BB60     		str	r3, [r7, #8]
 128:g:/iot/IoT_Device_Demo/iot_link/network/lwm2m/wakaama_lwm2m/wakaama-master/core/er-coap-13\er-coap-13.c ****     while (i < length)
 146              		.loc 1 128 11
 147 0012 0CE0     		b	.L7
 148              	.L8:
 129:g:/iot/IoT_Device_Demo/iot_link/network/lwm2m/wakaama_lwm2m/wakaama-master/core/er-coap-13\er-coap-13.c ****     {
 130:g:/iot/IoT_Device_Demo/iot_link/network/lwm2m/wakaama_lwm2m/wakaama-master/core/er-coap-13\er-coap-13.c ****         var <<= 8;
 149              		.loc 1 130 13
 150 0014 FB68     		ldr	r3, [r7, #12]
 151 0016 1B02     		lsls	r3, r3, #8
 152 0018 FB60     		str	r3, [r7, #12]
 131:g:/iot/IoT_Device_Demo/iot_link/network/lwm2m/wakaama_lwm2m/wakaama-master/core/er-coap-13\er-coap-13.c ****         var |= bytes[i++];
 153              		.loc 1 131 23
 154 001a BB68     		ldr	r3, [r7, #8]
 155 001c 5A1C     		adds	r2, r3, #1
 156 001e BA60     		str	r2, [r7, #8]
 157              		.loc 1 131 21
 158 0020 7A68     		ldr	r2, [r7, #4]
 159 0022 1344     		add	r3, r3, r2
 160 0024 1B78     		ldrb	r3, [r3]	@ zero_extendqisi2
 161 0026 1A46     		mov	r2, r3
 162              		.loc 1 131 13
 163 0028 FB68     		ldr	r3, [r7, #12]
ARM GAS  C:\Users\ADMINI~1\AppData\Local\Temp\cc8DJu9v.s 			page 6


 164 002a 1343     		orrs	r3, r3, r2
 165 002c FB60     		str	r3, [r7, #12]
 166              	.L7:
 128:g:/iot/IoT_Device_Demo/iot_link/network/lwm2m/wakaama_lwm2m/wakaama-master/core/er-coap-13\er-coap-13.c ****     while (i < length)
 167              		.loc 1 128 11
 168 002e BA68     		ldr	r2, [r7, #8]
 169 0030 3B68     		ldr	r3, [r7]
 170 0032 9A42     		cmp	r2, r3
 171 0034 EED3     		bcc	.L8
 132:g:/iot/IoT_Device_Demo/iot_link/network/lwm2m/wakaama_lwm2m/wakaama-master/core/er-coap-13\er-coap-13.c ****     }
 133:g:/iot/IoT_Device_Demo/iot_link/network/lwm2m/wakaama_lwm2m/wakaama-master/core/er-coap-13\er-coap-13.c ****     return var;
 172              		.loc 1 133 12
 173 0036 FB68     		ldr	r3, [r7, #12]
 134:g:/iot/IoT_Device_Demo/iot_link/network/lwm2m/wakaama_lwm2m/wakaama-master/core/er-coap-13\er-coap-13.c **** }
 174              		.loc 1 134 1
 175 0038 1846     		mov	r0, r3
 176 003a 1437     		adds	r7, r7, #20
 177              	.LCFI9:
 178              		.cfi_def_cfa_offset 4
 179 003c BD46     		mov	sp, r7
 180              	.LCFI10:
 181              		.cfi_def_cfa_register 13
 182              		@ sp needed
 183 003e 5DF8047B 		ldr	r7, [sp], #4
 184              	.LCFI11:
 185              		.cfi_restore 7
 186              		.cfi_def_cfa_offset 0
 187 0042 7047     		bx	lr
 188              		.cfi_endproc
 189              	.LFE5:
 191              		.section	.text.coap_option_nibble,"ax",%progbits
 192              		.align	1
 193              		.syntax unified
 194              		.thumb
 195              		.thumb_func
 196              		.fpu fpv4-sp-d16
 198              	coap_option_nibble:
 199              	.LFB6:
 135:g:/iot/IoT_Device_Demo/iot_link/network/lwm2m/wakaama_lwm2m/wakaama-master/core/er-coap-13\er-coap-13.c **** /*-----------------------------------------------------------------------------------*/
 136:g:/iot/IoT_Device_Demo/iot_link/network/lwm2m/wakaama_lwm2m/wakaama-master/core/er-coap-13\er-coap-13.c **** static
 137:g:/iot/IoT_Device_Demo/iot_link/network/lwm2m/wakaama_lwm2m/wakaama-master/core/er-coap-13\er-coap-13.c **** uint8_t
 138:g:/iot/IoT_Device_Demo/iot_link/network/lwm2m/wakaama_lwm2m/wakaama-master/core/er-coap-13\er-coap-13.c **** coap_option_nibble(unsigned int value)
 139:g:/iot/IoT_Device_Demo/iot_link/network/lwm2m/wakaama_lwm2m/wakaama-master/core/er-coap-13\er-coap-13.c **** {
 200              		.loc 1 139 1
 201              		.cfi_startproc
 202              		@ args = 0, pretend = 0, frame = 8
 203              		@ frame_needed = 1, uses_anonymous_args = 0
 204              		@ link register save eliminated.
 205 0000 80B4     		push	{r7}
 206              	.LCFI12:
 207              		.cfi_def_cfa_offset 4
 208              		.cfi_offset 7, -4
 209 0002 83B0     		sub	sp, sp, #12
 210              	.LCFI13:
 211              		.cfi_def_cfa_offset 16
 212 0004 00AF     		add	r7, sp, #0
 213              	.LCFI14:
ARM GAS  C:\Users\ADMINI~1\AppData\Local\Temp\cc8DJu9v.s 			page 7


 214              		.cfi_def_cfa_register 7
 215 0006 7860     		str	r0, [r7, #4]
 140:g:/iot/IoT_Device_Demo/iot_link/network/lwm2m/wakaama_lwm2m/wakaama-master/core/er-coap-13\er-coap-13.c ****     if (value < 13)
 216              		.loc 1 140 8
 217 0008 7B68     		ldr	r3, [r7, #4]
 218 000a 0C2B     		cmp	r3, #12
 219 000c 02D8     		bhi	.L11
 141:g:/iot/IoT_Device_Demo/iot_link/network/lwm2m/wakaama_lwm2m/wakaama-master/core/er-coap-13\er-coap-13.c ****     {
 142:g:/iot/IoT_Device_Demo/iot_link/network/lwm2m/wakaama_lwm2m/wakaama-master/core/er-coap-13\er-coap-13.c ****         return value;
 220              		.loc 1 142 16
 221 000e 7B68     		ldr	r3, [r7, #4]
 222 0010 DBB2     		uxtb	r3, r3
 223 0012 06E0     		b	.L12
 224              	.L11:
 143:g:/iot/IoT_Device_Demo/iot_link/network/lwm2m/wakaama_lwm2m/wakaama-master/core/er-coap-13\er-coap-13.c ****     }
 144:g:/iot/IoT_Device_Demo/iot_link/network/lwm2m/wakaama_lwm2m/wakaama-master/core/er-coap-13\er-coap-13.c ****     else if (value <= 0xFF + 13)
 225              		.loc 1 144 13
 226 0014 7B68     		ldr	r3, [r7, #4]
 227 0016 B3F5867F 		cmp	r3, #268
 228 001a 01D8     		bhi	.L13
 145:g:/iot/IoT_Device_Demo/iot_link/network/lwm2m/wakaama_lwm2m/wakaama-master/core/er-coap-13\er-coap-13.c ****     {
 146:g:/iot/IoT_Device_Demo/iot_link/network/lwm2m/wakaama_lwm2m/wakaama-master/core/er-coap-13\er-coap-13.c ****         return 13;
 229              		.loc 1 146 16
 230 001c 0D23     		movs	r3, #13
 231 001e 00E0     		b	.L12
 232              	.L13:
 147:g:/iot/IoT_Device_Demo/iot_link/network/lwm2m/wakaama_lwm2m/wakaama-master/core/er-coap-13\er-coap-13.c ****     }
 148:g:/iot/IoT_Device_Demo/iot_link/network/lwm2m/wakaama_lwm2m/wakaama-master/core/er-coap-13\er-coap-13.c ****     else
 149:g:/iot/IoT_Device_Demo/iot_link/network/lwm2m/wakaama_lwm2m/wakaama-master/core/er-coap-13\er-coap-13.c ****     {
 150:g:/iot/IoT_Device_Demo/iot_link/network/lwm2m/wakaama_lwm2m/wakaama-master/core/er-coap-13\er-coap-13.c ****         return 14;
 233              		.loc 1 150 16
 234 0020 0E23     		movs	r3, #14
 235              	.L12:
 151:g:/iot/IoT_Device_Demo/iot_link/network/lwm2m/wakaama_lwm2m/wakaama-master/core/er-coap-13\er-coap-13.c ****     }
 152:g:/iot/IoT_Device_Demo/iot_link/network/lwm2m/wakaama_lwm2m/wakaama-master/core/er-coap-13\er-coap-13.c **** }
 236              		.loc 1 152 1
 237 0022 1846     		mov	r0, r3
 238 0024 0C37     		adds	r7, r7, #12
 239              	.LCFI15:
 240              		.cfi_def_cfa_offset 4
 241 0026 BD46     		mov	sp, r7
 242              	.LCFI16:
 243              		.cfi_def_cfa_register 13
 244              		@ sp needed
 245 0028 5DF8047B 		ldr	r7, [sp], #4
 246              	.LCFI17:
 247              		.cfi_restore 7
 248              		.cfi_def_cfa_offset 0
 249 002c 7047     		bx	lr
 250              		.cfi_endproc
 251              	.LFE6:
 253              		.section	.text.coap_set_option_header,"ax",%progbits
 254              		.align	1
 255              		.syntax unified
 256              		.thumb
 257              		.thumb_func
 258              		.fpu fpv4-sp-d16
ARM GAS  C:\Users\ADMINI~1\AppData\Local\Temp\cc8DJu9v.s 			page 8


 260              	coap_set_option_header:
 261              	.LFB7:
 153:g:/iot/IoT_Device_Demo/iot_link/network/lwm2m/wakaama_lwm2m/wakaama-master/core/er-coap-13\er-coap-13.c **** /*-----------------------------------------------------------------------------------*/
 154:g:/iot/IoT_Device_Demo/iot_link/network/lwm2m/wakaama_lwm2m/wakaama-master/core/er-coap-13\er-coap-13.c **** static
 155:g:/iot/IoT_Device_Demo/iot_link/network/lwm2m/wakaama_lwm2m/wakaama-master/core/er-coap-13\er-coap-13.c **** size_t
 156:g:/iot/IoT_Device_Demo/iot_link/network/lwm2m/wakaama_lwm2m/wakaama-master/core/er-coap-13\er-coap-13.c **** coap_set_option_header(unsigned int delta, size_t length, uint8_t *buffer)
 157:g:/iot/IoT_Device_Demo/iot_link/network/lwm2m/wakaama_lwm2m/wakaama-master/core/er-coap-13\er-coap-13.c **** {
 262              		.loc 1 157 1
 263              		.cfi_startproc
 264              		@ args = 0, pretend = 0, frame = 24
 265              		@ frame_needed = 1, uses_anonymous_args = 0
 266 0000 90B5     		push	{r4, r7, lr}
 267              	.LCFI18:
 268              		.cfi_def_cfa_offset 12
 269              		.cfi_offset 4, -12
 270              		.cfi_offset 7, -8
 271              		.cfi_offset 14, -4
 272 0002 87B0     		sub	sp, sp, #28
 273              	.LCFI19:
 274              		.cfi_def_cfa_offset 40
 275 0004 00AF     		add	r7, sp, #0
 276              	.LCFI20:
 277              		.cfi_def_cfa_register 7
 278 0006 F860     		str	r0, [r7, #12]
 279 0008 B960     		str	r1, [r7, #8]
 280 000a 7A60     		str	r2, [r7, #4]
 158:g:/iot/IoT_Device_Demo/iot_link/network/lwm2m/wakaama_lwm2m/wakaama-master/core/er-coap-13\er-coap-13.c ****     size_t written = 0;
 281              		.loc 1 158 12
 282 000c 0023     		movs	r3, #0
 283 000e 7B61     		str	r3, [r7, #20]
 159:g:/iot/IoT_Device_Demo/iot_link/network/lwm2m/wakaama_lwm2m/wakaama-master/core/er-coap-13\er-coap-13.c ****     unsigned int *x = &delta;
 284              		.loc 1 159 19
 285 0010 07F10C03 		add	r3, r7, #12
 286 0014 3B61     		str	r3, [r7, #16]
 160:g:/iot/IoT_Device_Demo/iot_link/network/lwm2m/wakaama_lwm2m/wakaama-master/core/er-coap-13\er-coap-13.c **** 
 161:g:/iot/IoT_Device_Demo/iot_link/network/lwm2m/wakaama_lwm2m/wakaama-master/core/er-coap-13\er-coap-13.c ****     buffer[0] = coap_option_nibble(delta) << 4 | coap_option_nibble(length);
 287              		.loc 1 161 17
 288 0016 FB68     		ldr	r3, [r7, #12]
 289 0018 1846     		mov	r0, r3
 290 001a FFF7FEFF 		bl	coap_option_nibble
 291 001e 0346     		mov	r3, r0
 292              		.loc 1 161 43
 293 0020 1B01     		lsls	r3, r3, #4
 294              		.loc 1 161 48
 295 0022 5CB2     		sxtb	r4, r3
 296              		.loc 1 161 50
 297 0024 BB68     		ldr	r3, [r7, #8]
 298 0026 1846     		mov	r0, r3
 299 0028 FFF7FEFF 		bl	coap_option_nibble
 300 002c 0346     		mov	r3, r0
 301 002e 5BB2     		sxtb	r3, r3
 302              		.loc 1 161 48
 303 0030 2343     		orrs	r3, r3, r4
 304 0032 5BB2     		sxtb	r3, r3
 305 0034 DAB2     		uxtb	r2, r3
 306              		.loc 1 161 15
 307 0036 7B68     		ldr	r3, [r7, #4]
ARM GAS  C:\Users\ADMINI~1\AppData\Local\Temp\cc8DJu9v.s 			page 9


 308 0038 1A70     		strb	r2, [r3]
 309              	.L18:
 162:g:/iot/IoT_Device_Demo/iot_link/network/lwm2m/wakaama_lwm2m/wakaama-master/core/er-coap-13\er-coap-13.c **** 
 163:g:/iot/IoT_Device_Demo/iot_link/network/lwm2m/wakaama_lwm2m/wakaama-master/core/er-coap-13\er-coap-13.c ****     /* avoids code duplication without function overhead */
 164:g:/iot/IoT_Device_Demo/iot_link/network/lwm2m/wakaama_lwm2m/wakaama-master/core/er-coap-13\er-coap-13.c ****     do
 165:g:/iot/IoT_Device_Demo/iot_link/network/lwm2m/wakaama_lwm2m/wakaama-master/core/er-coap-13\er-coap-13.c ****     {
 166:g:/iot/IoT_Device_Demo/iot_link/network/lwm2m/wakaama_lwm2m/wakaama-master/core/er-coap-13\er-coap-13.c ****         if (*x > 268)
 310              		.loc 1 166 13
 311 003a 3B69     		ldr	r3, [r7, #16]
 312 003c 1B68     		ldr	r3, [r3]
 313              		.loc 1 166 12
 314 003e B3F5867F 		cmp	r3, #268
 315 0042 19D9     		bls	.L15
 167:g:/iot/IoT_Device_Demo/iot_link/network/lwm2m/wakaama_lwm2m/wakaama-master/core/er-coap-13\er-coap-13.c ****         {
 168:g:/iot/IoT_Device_Demo/iot_link/network/lwm2m/wakaama_lwm2m/wakaama-master/core/er-coap-13\er-coap-13.c ****             buffer[++written] = (*x - 269) >> 8;
 316              		.loc 1 168 34
 317 0044 3B69     		ldr	r3, [r7, #16]
 318 0046 1B68     		ldr	r3, [r3]
 319              		.loc 1 168 37
 320 0048 A3F20D13 		subw	r3, r3, #269
 321              		.loc 1 168 44
 322 004c 190A     		lsrs	r1, r3, #8
 323              		.loc 1 168 31
 324 004e 7B69     		ldr	r3, [r7, #20]
 325 0050 0133     		adds	r3, r3, #1
 326 0052 7B61     		str	r3, [r7, #20]
 327              		.loc 1 168 19
 328 0054 7A68     		ldr	r2, [r7, #4]
 329 0056 7B69     		ldr	r3, [r7, #20]
 330 0058 1344     		add	r3, r3, r2
 331              		.loc 1 168 31
 332 005a CAB2     		uxtb	r2, r1
 333 005c 1A70     		strb	r2, [r3]
 169:g:/iot/IoT_Device_Demo/iot_link/network/lwm2m/wakaama_lwm2m/wakaama-master/core/er-coap-13\er-coap-13.c ****             buffer[++written] = (*x - 269);
 334              		.loc 1 169 34
 335 005e 3B69     		ldr	r3, [r7, #16]
 336 0060 1B68     		ldr	r3, [r3]
 337              		.loc 1 169 37
 338 0062 DAB2     		uxtb	r2, r3
 339              		.loc 1 169 31
 340 0064 7B69     		ldr	r3, [r7, #20]
 341 0066 0133     		adds	r3, r3, #1
 342 0068 7B61     		str	r3, [r7, #20]
 343              		.loc 1 169 19
 344 006a 7968     		ldr	r1, [r7, #4]
 345 006c 7B69     		ldr	r3, [r7, #20]
 346 006e 0B44     		add	r3, r3, r1
 347              		.loc 1 169 37
 348 0070 0D3A     		subs	r2, r2, #13
 349 0072 D2B2     		uxtb	r2, r2
 350              		.loc 1 169 31
 351 0074 1A70     		strb	r2, [r3]
 352 0076 0FE0     		b	.L16
 353              	.L15:
 170:g:/iot/IoT_Device_Demo/iot_link/network/lwm2m/wakaama_lwm2m/wakaama-master/core/er-coap-13\er-coap-13.c ****         }
 171:g:/iot/IoT_Device_Demo/iot_link/network/lwm2m/wakaama_lwm2m/wakaama-master/core/er-coap-13\er-coap-13.c ****         else if (*x > 12)
 354              		.loc 1 171 18
ARM GAS  C:\Users\ADMINI~1\AppData\Local\Temp\cc8DJu9v.s 			page 10


 355 0078 3B69     		ldr	r3, [r7, #16]
 356 007a 1B68     		ldr	r3, [r3]
 357              		.loc 1 171 17
 358 007c 0C2B     		cmp	r3, #12
 359 007e 0BD9     		bls	.L16
 172:g:/iot/IoT_Device_Demo/iot_link/network/lwm2m/wakaama_lwm2m/wakaama-master/core/er-coap-13\er-coap-13.c ****         {
 173:g:/iot/IoT_Device_Demo/iot_link/network/lwm2m/wakaama_lwm2m/wakaama-master/core/er-coap-13\er-coap-13.c ****             buffer[++written] = (*x - 13);
 360              		.loc 1 173 34
 361 0080 3B69     		ldr	r3, [r7, #16]
 362 0082 1B68     		ldr	r3, [r3]
 363              		.loc 1 173 37
 364 0084 DAB2     		uxtb	r2, r3
 365              		.loc 1 173 31
 366 0086 7B69     		ldr	r3, [r7, #20]
 367 0088 0133     		adds	r3, r3, #1
 368 008a 7B61     		str	r3, [r7, #20]
 369              		.loc 1 173 19
 370 008c 7968     		ldr	r1, [r7, #4]
 371 008e 7B69     		ldr	r3, [r7, #20]
 372 0090 0B44     		add	r3, r3, r1
 373              		.loc 1 173 37
 374 0092 0D3A     		subs	r2, r2, #13
 375 0094 D2B2     		uxtb	r2, r2
 376              		.loc 1 173 31
 377 0096 1A70     		strb	r2, [r3]
 378              	.L16:
 174:g:/iot/IoT_Device_Demo/iot_link/network/lwm2m/wakaama_lwm2m/wakaama-master/core/er-coap-13\er-coap-13.c ****         }
 175:g:/iot/IoT_Device_Demo/iot_link/network/lwm2m/wakaama_lwm2m/wakaama-master/core/er-coap-13\er-coap-13.c ****     }
 176:g:/iot/IoT_Device_Demo/iot_link/network/lwm2m/wakaama_lwm2m/wakaama-master/core/er-coap-13\er-coap-13.c ****     while (x != (unsigned int *)&length && NULL != (x = (unsigned int *)&length));
 379              		.loc 1 176 5
 380 0098 07F10803 		add	r3, r7, #8
 381 009c 3A69     		ldr	r2, [r7, #16]
 382 009e 9A42     		cmp	r2, r3
 383 00a0 03D0     		beq	.L17
 384              		.loc 1 176 55 discriminator 1
 385 00a2 07F10803 		add	r3, r7, #8
 386 00a6 3B61     		str	r3, [r7, #16]
 387 00a8 C7E7     		b	.L18
 388              	.L17:
 177:g:/iot/IoT_Device_Demo/iot_link/network/lwm2m/wakaama_lwm2m/wakaama-master/core/er-coap-13\er-coap-13.c **** 
 178:g:/iot/IoT_Device_Demo/iot_link/network/lwm2m/wakaama_lwm2m/wakaama-master/core/er-coap-13\er-coap-13.c ****     PRINTF("WRITTEN %u B opt header\n", written);
 179:g:/iot/IoT_Device_Demo/iot_link/network/lwm2m/wakaama_lwm2m/wakaama-master/core/er-coap-13\er-coap-13.c **** 
 180:g:/iot/IoT_Device_Demo/iot_link/network/lwm2m/wakaama_lwm2m/wakaama-master/core/er-coap-13\er-coap-13.c ****     return ++written;
 389              		.loc 1 180 12
 390 00aa 7B69     		ldr	r3, [r7, #20]
 391 00ac 0133     		adds	r3, r3, #1
 392 00ae 7B61     		str	r3, [r7, #20]
 393 00b0 7B69     		ldr	r3, [r7, #20]
 181:g:/iot/IoT_Device_Demo/iot_link/network/lwm2m/wakaama_lwm2m/wakaama-master/core/er-coap-13\er-coap-13.c **** }
 394              		.loc 1 181 1
 395 00b2 1846     		mov	r0, r3
 396 00b4 1C37     		adds	r7, r7, #28
 397              	.LCFI21:
 398              		.cfi_def_cfa_offset 12
 399 00b6 BD46     		mov	sp, r7
 400              	.LCFI22:
 401              		.cfi_def_cfa_register 13
ARM GAS  C:\Users\ADMINI~1\AppData\Local\Temp\cc8DJu9v.s 			page 11


 402              		@ sp needed
 403 00b8 90BD     		pop	{r4, r7, pc}
 404              		.cfi_endproc
 405              	.LFE7:
 407              		.section	.text.coap_serialize_int_option,"ax",%progbits
 408              		.align	1
 409              		.syntax unified
 410              		.thumb
 411              		.thumb_func
 412              		.fpu fpv4-sp-d16
 414              	coap_serialize_int_option:
 415              	.LFB8:
 182:g:/iot/IoT_Device_Demo/iot_link/network/lwm2m/wakaama_lwm2m/wakaama-master/core/er-coap-13\er-coap-13.c **** /*-----------------------------------------------------------------------------------*/
 183:g:/iot/IoT_Device_Demo/iot_link/network/lwm2m/wakaama_lwm2m/wakaama-master/core/er-coap-13\er-coap-13.c **** static
 184:g:/iot/IoT_Device_Demo/iot_link/network/lwm2m/wakaama_lwm2m/wakaama-master/core/er-coap-13\er-coap-13.c **** size_t
 185:g:/iot/IoT_Device_Demo/iot_link/network/lwm2m/wakaama_lwm2m/wakaama-master/core/er-coap-13\er-coap-13.c **** coap_serialize_int_option(unsigned int number, unsigned int current_number, uint8_t *buffer, uint32
 186:g:/iot/IoT_Device_Demo/iot_link/network/lwm2m/wakaama_lwm2m/wakaama-master/core/er-coap-13\er-coap-13.c **** {
 416              		.loc 1 186 1
 417              		.cfi_startproc
 418              		@ args = 0, pretend = 0, frame = 24
 419              		@ frame_needed = 1, uses_anonymous_args = 0
 420 0000 80B5     		push	{r7, lr}
 421              	.LCFI23:
 422              		.cfi_def_cfa_offset 8
 423              		.cfi_offset 7, -8
 424              		.cfi_offset 14, -4
 425 0002 86B0     		sub	sp, sp, #24
 426              	.LCFI24:
 427              		.cfi_def_cfa_offset 32
 428 0004 00AF     		add	r7, sp, #0
 429              	.LCFI25:
 430              		.cfi_def_cfa_register 7
 431 0006 F860     		str	r0, [r7, #12]
 432 0008 B960     		str	r1, [r7, #8]
 433 000a 7A60     		str	r2, [r7, #4]
 434 000c 3B60     		str	r3, [r7]
 187:g:/iot/IoT_Device_Demo/iot_link/network/lwm2m/wakaama_lwm2m/wakaama-master/core/er-coap-13\er-coap-13.c ****     size_t i = 0;
 435              		.loc 1 187 12
 436 000e 0023     		movs	r3, #0
 437 0010 7B61     		str	r3, [r7, #20]
 188:g:/iot/IoT_Device_Demo/iot_link/network/lwm2m/wakaama_lwm2m/wakaama-master/core/er-coap-13\er-coap-13.c **** 
 189:g:/iot/IoT_Device_Demo/iot_link/network/lwm2m/wakaama_lwm2m/wakaama-master/core/er-coap-13\er-coap-13.c ****     if (0xFF000000 & value) ++i;
 438              		.loc 1 189 20
 439 0012 3B68     		ldr	r3, [r7]
 440 0014 03F07F43 		and	r3, r3, #-16777216
 441              		.loc 1 189 8
 442 0018 002B     		cmp	r3, #0
 443 001a 02D0     		beq	.L21
 444              		.loc 1 189 29 discriminator 1
 445 001c 7B69     		ldr	r3, [r7, #20]
 446 001e 0133     		adds	r3, r3, #1
 447 0020 7B61     		str	r3, [r7, #20]
 448              	.L21:
 190:g:/iot/IoT_Device_Demo/iot_link/network/lwm2m/wakaama_lwm2m/wakaama-master/core/er-coap-13\er-coap-13.c ****     if (0xFFFF0000 & value) ++i;
 449              		.loc 1 190 20
 450 0022 3B68     		ldr	r3, [r7]
 451 0024 1B0C     		lsrs	r3, r3, #16
ARM GAS  C:\Users\ADMINI~1\AppData\Local\Temp\cc8DJu9v.s 			page 12


 452 0026 1B04     		lsls	r3, r3, #16
 453              		.loc 1 190 8
 454 0028 002B     		cmp	r3, #0
 455 002a 02D0     		beq	.L22
 456              		.loc 1 190 29 discriminator 1
 457 002c 7B69     		ldr	r3, [r7, #20]
 458 002e 0133     		adds	r3, r3, #1
 459 0030 7B61     		str	r3, [r7, #20]
 460              	.L22:
 191:g:/iot/IoT_Device_Demo/iot_link/network/lwm2m/wakaama_lwm2m/wakaama-master/core/er-coap-13\er-coap-13.c ****     if (0xFFFFFF00 & value) ++i;
 461              		.loc 1 191 20
 462 0032 3B68     		ldr	r3, [r7]
 463 0034 23F0FF03 		bic	r3, r3, #255
 464              		.loc 1 191 8
 465 0038 002B     		cmp	r3, #0
 466 003a 02D0     		beq	.L23
 467              		.loc 1 191 29 discriminator 1
 468 003c 7B69     		ldr	r3, [r7, #20]
 469 003e 0133     		adds	r3, r3, #1
 470 0040 7B61     		str	r3, [r7, #20]
 471              	.L23:
 192:g:/iot/IoT_Device_Demo/iot_link/network/lwm2m/wakaama_lwm2m/wakaama-master/core/er-coap-13\er-coap-13.c ****     if (0xFFFFFFFF & value) ++i;
 472              		.loc 1 192 8
 473 0042 3B68     		ldr	r3, [r7]
 474 0044 002B     		cmp	r3, #0
 475 0046 02D0     		beq	.L24
 476              		.loc 1 192 29 discriminator 1
 477 0048 7B69     		ldr	r3, [r7, #20]
 478 004a 0133     		adds	r3, r3, #1
 479 004c 7B61     		str	r3, [r7, #20]
 480              	.L24:
 193:g:/iot/IoT_Device_Demo/iot_link/network/lwm2m/wakaama_lwm2m/wakaama-master/core/er-coap-13\er-coap-13.c **** 
 194:g:/iot/IoT_Device_Demo/iot_link/network/lwm2m/wakaama_lwm2m/wakaama-master/core/er-coap-13\er-coap-13.c ****     PRINTF("OPTION %u (delta %u, len %u)\n", number, number - current_number, i);
 195:g:/iot/IoT_Device_Demo/iot_link/network/lwm2m/wakaama_lwm2m/wakaama-master/core/er-coap-13\er-coap-13.c **** 
 196:g:/iot/IoT_Device_Demo/iot_link/network/lwm2m/wakaama_lwm2m/wakaama-master/core/er-coap-13\er-coap-13.c ****     i = coap_set_option_header(number - current_number, i, buffer);
 481              		.loc 1 196 9
 482 004e FA68     		ldr	r2, [r7, #12]
 483 0050 BB68     		ldr	r3, [r7, #8]
 484 0052 D31A     		subs	r3, r2, r3
 485 0054 7A68     		ldr	r2, [r7, #4]
 486 0056 7969     		ldr	r1, [r7, #20]
 487 0058 1846     		mov	r0, r3
 488 005a FFF7FEFF 		bl	coap_set_option_header
 489 005e 7861     		str	r0, [r7, #20]
 197:g:/iot/IoT_Device_Demo/iot_link/network/lwm2m/wakaama_lwm2m/wakaama-master/core/er-coap-13\er-coap-13.c **** 
 198:g:/iot/IoT_Device_Demo/iot_link/network/lwm2m/wakaama_lwm2m/wakaama-master/core/er-coap-13\er-coap-13.c ****     if (0xFF000000 & value) buffer[i++] = (uint8_t) (value >> 24);
 490              		.loc 1 198 20
 491 0060 3B68     		ldr	r3, [r7]
 492 0062 03F07F43 		and	r3, r3, #-16777216
 493              		.loc 1 198 8
 494 0066 002B     		cmp	r3, #0
 495 0068 08D0     		beq	.L25
 496              		.loc 1 198 60 discriminator 1
 497 006a 3B68     		ldr	r3, [r7]
 498 006c 190E     		lsrs	r1, r3, #24
 499              		.loc 1 198 37 discriminator 1
 500 006e 7B69     		ldr	r3, [r7, #20]
ARM GAS  C:\Users\ADMINI~1\AppData\Local\Temp\cc8DJu9v.s 			page 13


 501 0070 5A1C     		adds	r2, r3, #1
 502 0072 7A61     		str	r2, [r7, #20]
 503              		.loc 1 198 35 discriminator 1
 504 0074 7A68     		ldr	r2, [r7, #4]
 505 0076 1344     		add	r3, r3, r2
 506              		.loc 1 198 43 discriminator 1
 507 0078 CAB2     		uxtb	r2, r1
 508              		.loc 1 198 41 discriminator 1
 509 007a 1A70     		strb	r2, [r3]
 510              	.L25:
 199:g:/iot/IoT_Device_Demo/iot_link/network/lwm2m/wakaama_lwm2m/wakaama-master/core/er-coap-13\er-coap-13.c ****     if (0xFFFF0000 & value) buffer[i++] = (uint8_t) (value >> 16);
 511              		.loc 1 199 20
 512 007c 3B68     		ldr	r3, [r7]
 513 007e 1B0C     		lsrs	r3, r3, #16
 514 0080 1B04     		lsls	r3, r3, #16
 515              		.loc 1 199 8
 516 0082 002B     		cmp	r3, #0
 517 0084 08D0     		beq	.L26
 518              		.loc 1 199 60 discriminator 1
 519 0086 3B68     		ldr	r3, [r7]
 520 0088 190C     		lsrs	r1, r3, #16
 521              		.loc 1 199 37 discriminator 1
 522 008a 7B69     		ldr	r3, [r7, #20]
 523 008c 5A1C     		adds	r2, r3, #1
 524 008e 7A61     		str	r2, [r7, #20]
 525              		.loc 1 199 35 discriminator 1
 526 0090 7A68     		ldr	r2, [r7, #4]
 527 0092 1344     		add	r3, r3, r2
 528              		.loc 1 199 43 discriminator 1
 529 0094 CAB2     		uxtb	r2, r1
 530              		.loc 1 199 41 discriminator 1
 531 0096 1A70     		strb	r2, [r3]
 532              	.L26:
 200:g:/iot/IoT_Device_Demo/iot_link/network/lwm2m/wakaama_lwm2m/wakaama-master/core/er-coap-13\er-coap-13.c ****     if (0xFFFFFF00 & value) buffer[i++] = (uint8_t) (value >> 8);
 533              		.loc 1 200 20
 534 0098 3B68     		ldr	r3, [r7]
 535 009a 23F0FF03 		bic	r3, r3, #255
 536              		.loc 1 200 8
 537 009e 002B     		cmp	r3, #0
 538 00a0 08D0     		beq	.L27
 539              		.loc 1 200 60 discriminator 1
 540 00a2 3B68     		ldr	r3, [r7]
 541 00a4 190A     		lsrs	r1, r3, #8
 542              		.loc 1 200 37 discriminator 1
 543 00a6 7B69     		ldr	r3, [r7, #20]
 544 00a8 5A1C     		adds	r2, r3, #1
 545 00aa 7A61     		str	r2, [r7, #20]
 546              		.loc 1 200 35 discriminator 1
 547 00ac 7A68     		ldr	r2, [r7, #4]
 548 00ae 1344     		add	r3, r3, r2
 549              		.loc 1 200 43 discriminator 1
 550 00b0 CAB2     		uxtb	r2, r1
 551              		.loc 1 200 41 discriminator 1
 552 00b2 1A70     		strb	r2, [r3]
 553              	.L27:
 201:g:/iot/IoT_Device_Demo/iot_link/network/lwm2m/wakaama_lwm2m/wakaama-master/core/er-coap-13\er-coap-13.c ****     if (0xFFFFFFFF & value) buffer[i++] = (uint8_t) (value);
 554              		.loc 1 201 8
ARM GAS  C:\Users\ADMINI~1\AppData\Local\Temp\cc8DJu9v.s 			page 14


 555 00b4 3B68     		ldr	r3, [r7]
 556 00b6 002B     		cmp	r3, #0
 557 00b8 07D0     		beq	.L28
 558              		.loc 1 201 37 discriminator 1
 559 00ba 7B69     		ldr	r3, [r7, #20]
 560 00bc 5A1C     		adds	r2, r3, #1
 561 00be 7A61     		str	r2, [r7, #20]
 562              		.loc 1 201 35 discriminator 1
 563 00c0 7A68     		ldr	r2, [r7, #4]
 564 00c2 1344     		add	r3, r3, r2
 565              		.loc 1 201 43 discriminator 1
 566 00c4 3A68     		ldr	r2, [r7]
 567 00c6 D2B2     		uxtb	r2, r2
 568              		.loc 1 201 41 discriminator 1
 569 00c8 1A70     		strb	r2, [r3]
 570              	.L28:
 202:g:/iot/IoT_Device_Demo/iot_link/network/lwm2m/wakaama_lwm2m/wakaama-master/core/er-coap-13\er-coap-13.c **** 
 203:g:/iot/IoT_Device_Demo/iot_link/network/lwm2m/wakaama_lwm2m/wakaama-master/core/er-coap-13\er-coap-13.c ****     return i;
 571              		.loc 1 203 12
 572 00ca 7B69     		ldr	r3, [r7, #20]
 204:g:/iot/IoT_Device_Demo/iot_link/network/lwm2m/wakaama_lwm2m/wakaama-master/core/er-coap-13\er-coap-13.c **** }
 573              		.loc 1 204 1
 574 00cc 1846     		mov	r0, r3
 575 00ce 1837     		adds	r7, r7, #24
 576              	.LCFI26:
 577              		.cfi_def_cfa_offset 8
 578 00d0 BD46     		mov	sp, r7
 579              	.LCFI27:
 580              		.cfi_def_cfa_register 13
 581              		@ sp needed
 582 00d2 80BD     		pop	{r7, pc}
 583              		.cfi_endproc
 584              	.LFE8:
 586              		.section	.text.coap_serialize_array_option,"ax",%progbits
 587              		.align	1
 588              		.syntax unified
 589              		.thumb
 590              		.thumb_func
 591              		.fpu fpv4-sp-d16
 593              	coap_serialize_array_option:
 594              	.LFB9:
 205:g:/iot/IoT_Device_Demo/iot_link/network/lwm2m/wakaama_lwm2m/wakaama-master/core/er-coap-13\er-coap-13.c **** /*-----------------------------------------------------------------------------------*/
 206:g:/iot/IoT_Device_Demo/iot_link/network/lwm2m/wakaama_lwm2m/wakaama-master/core/er-coap-13\er-coap-13.c **** static
 207:g:/iot/IoT_Device_Demo/iot_link/network/lwm2m/wakaama_lwm2m/wakaama-master/core/er-coap-13\er-coap-13.c **** size_t
 208:g:/iot/IoT_Device_Demo/iot_link/network/lwm2m/wakaama_lwm2m/wakaama-master/core/er-coap-13\er-coap-13.c **** coap_serialize_array_option(unsigned int number, unsigned int current_number, uint8_t *buffer, uint
 209:g:/iot/IoT_Device_Demo/iot_link/network/lwm2m/wakaama_lwm2m/wakaama-master/core/er-coap-13\er-coap-13.c **** {
 595              		.loc 1 209 1
 596              		.cfi_startproc
 597              		@ args = 8, pretend = 0, frame = 40
 598              		@ frame_needed = 1, uses_anonymous_args = 0
 599 0000 80B5     		push	{r7, lr}
 600              	.LCFI28:
 601              		.cfi_def_cfa_offset 8
 602              		.cfi_offset 7, -8
 603              		.cfi_offset 14, -4
 604 0002 8AB0     		sub	sp, sp, #40
 605              	.LCFI29:
ARM GAS  C:\Users\ADMINI~1\AppData\Local\Temp\cc8DJu9v.s 			page 15


 606              		.cfi_def_cfa_offset 48
 607 0004 00AF     		add	r7, sp, #0
 608              	.LCFI30:
 609              		.cfi_def_cfa_register 7
 610 0006 F860     		str	r0, [r7, #12]
 611 0008 B960     		str	r1, [r7, #8]
 612 000a 7A60     		str	r2, [r7, #4]
 613 000c 3B60     		str	r3, [r7]
 210:g:/iot/IoT_Device_Demo/iot_link/network/lwm2m/wakaama_lwm2m/wakaama-master/core/er-coap-13\er-coap-13.c ****     size_t i = 0;
 614              		.loc 1 210 12
 615 000e 0023     		movs	r3, #0
 616 0010 7B62     		str	r3, [r7, #36]
 211:g:/iot/IoT_Device_Demo/iot_link/network/lwm2m/wakaama_lwm2m/wakaama-master/core/er-coap-13\er-coap-13.c **** 
 212:g:/iot/IoT_Device_Demo/iot_link/network/lwm2m/wakaama_lwm2m/wakaama-master/core/er-coap-13\er-coap-13.c ****     if (split_char != '\0')
 617              		.loc 1 212 8
 618 0012 97F83430 		ldrb	r3, [r7, #52]	@ zero_extendqisi2
 619 0016 002B     		cmp	r3, #0
 620 0018 45D0     		beq	.L31
 621              	.LBB2:
 213:g:/iot/IoT_Device_Demo/iot_link/network/lwm2m/wakaama_lwm2m/wakaama-master/core/er-coap-13\er-coap-13.c ****     {
 214:g:/iot/IoT_Device_Demo/iot_link/network/lwm2m/wakaama_lwm2m/wakaama-master/core/er-coap-13\er-coap-13.c ****         size_t j;
 215:g:/iot/IoT_Device_Demo/iot_link/network/lwm2m/wakaama_lwm2m/wakaama-master/core/er-coap-13\er-coap-13.c ****         uint8_t *part_start = array;
 622              		.loc 1 215 18
 623 001a 3B68     		ldr	r3, [r7]
 624 001c FB61     		str	r3, [r7, #28]
 216:g:/iot/IoT_Device_Demo/iot_link/network/lwm2m/wakaama_lwm2m/wakaama-master/core/er-coap-13\er-coap-13.c ****         uint8_t *part_end = NULL;
 625              		.loc 1 216 18
 626 001e 0023     		movs	r3, #0
 627 0020 BB61     		str	r3, [r7, #24]
 217:g:/iot/IoT_Device_Demo/iot_link/network/lwm2m/wakaama_lwm2m/wakaama-master/core/er-coap-13\er-coap-13.c ****         size_t temp_length;
 218:g:/iot/IoT_Device_Demo/iot_link/network/lwm2m/wakaama_lwm2m/wakaama-master/core/er-coap-13\er-coap-13.c **** 
 219:g:/iot/IoT_Device_Demo/iot_link/network/lwm2m/wakaama_lwm2m/wakaama-master/core/er-coap-13\er-coap-13.c ****         for (j = 0; j <= length; ++j)
 628              		.loc 1 219 16
 629 0022 0023     		movs	r3, #0
 630 0024 3B62     		str	r3, [r7, #32]
 631              		.loc 1 219 9
 632 0026 39E0     		b	.L32
 633              	.L35:
 220:g:/iot/IoT_Device_Demo/iot_link/network/lwm2m/wakaama_lwm2m/wakaama-master/core/er-coap-13\er-coap-13.c ****         {
 221:g:/iot/IoT_Device_Demo/iot_link/network/lwm2m/wakaama_lwm2m/wakaama-master/core/er-coap-13\er-coap-13.c ****             if (array[j] == split_char || j == length)
 634              		.loc 1 221 22
 635 0028 3A68     		ldr	r2, [r7]
 636 002a 3B6A     		ldr	r3, [r7, #32]
 637 002c 1344     		add	r3, r3, r2
 638 002e 1B78     		ldrb	r3, [r3]	@ zero_extendqisi2
 639              		.loc 1 221 16
 640 0030 97F83420 		ldrb	r2, [r7, #52]	@ zero_extendqisi2
 641 0034 9A42     		cmp	r2, r3
 642 0036 03D0     		beq	.L33
 643              		.loc 1 221 40 discriminator 1
 644 0038 3A6A     		ldr	r2, [r7, #32]
 645 003a 3B6B     		ldr	r3, [r7, #48]
 646 003c 9A42     		cmp	r2, r3
 647 003e 2AD1     		bne	.L34
 648              	.L33:
 222:g:/iot/IoT_Device_Demo/iot_link/network/lwm2m/wakaama_lwm2m/wakaama-master/core/er-coap-13\er-coap-13.c ****             {
 223:g:/iot/IoT_Device_Demo/iot_link/network/lwm2m/wakaama_lwm2m/wakaama-master/core/er-coap-13\er-coap-13.c ****                 part_end = array + j;
ARM GAS  C:\Users\ADMINI~1\AppData\Local\Temp\cc8DJu9v.s 			page 16


 649              		.loc 1 223 26
 650 0040 3A68     		ldr	r2, [r7]
 651 0042 3B6A     		ldr	r3, [r7, #32]
 652 0044 1344     		add	r3, r3, r2
 653 0046 BB61     		str	r3, [r7, #24]
 224:g:/iot/IoT_Device_Demo/iot_link/network/lwm2m/wakaama_lwm2m/wakaama-master/core/er-coap-13\er-coap-13.c ****                 temp_length = part_end - part_start;
 654              		.loc 1 224 40
 655 0048 BA69     		ldr	r2, [r7, #24]
 656 004a FB69     		ldr	r3, [r7, #28]
 657 004c D31A     		subs	r3, r2, r3
 658              		.loc 1 224 29
 659 004e 7B61     		str	r3, [r7, #20]
 225:g:/iot/IoT_Device_Demo/iot_link/network/lwm2m/wakaama_lwm2m/wakaama-master/core/er-coap-13\er-coap-13.c **** 
 226:g:/iot/IoT_Device_Demo/iot_link/network/lwm2m/wakaama_lwm2m/wakaama-master/core/er-coap-13\er-coap-13.c ****                 i += coap_set_option_header(number - current_number, temp_length, &buffer[i]);
 660              		.loc 1 226 22
 661 0050 FA68     		ldr	r2, [r7, #12]
 662 0052 BB68     		ldr	r3, [r7, #8]
 663 0054 D01A     		subs	r0, r2, r3
 664 0056 7A68     		ldr	r2, [r7, #4]
 665 0058 7B6A     		ldr	r3, [r7, #36]
 666 005a 1344     		add	r3, r3, r2
 667 005c 1A46     		mov	r2, r3
 668 005e 7969     		ldr	r1, [r7, #20]
 669 0060 FFF7FEFF 		bl	coap_set_option_header
 670 0064 0246     		mov	r2, r0
 671              		.loc 1 226 19
 672 0066 7B6A     		ldr	r3, [r7, #36]
 673 0068 1344     		add	r3, r3, r2
 674 006a 7B62     		str	r3, [r7, #36]
 227:g:/iot/IoT_Device_Demo/iot_link/network/lwm2m/wakaama_lwm2m/wakaama-master/core/er-coap-13\er-coap-13.c ****                 memcpy(&buffer[i], part_start, temp_length);
 675              		.loc 1 227 24
 676 006c 7A68     		ldr	r2, [r7, #4]
 677 006e 7B6A     		ldr	r3, [r7, #36]
 678 0070 1344     		add	r3, r3, r2
 679              		.loc 1 227 17
 680 0072 7A69     		ldr	r2, [r7, #20]
 681 0074 F969     		ldr	r1, [r7, #28]
 682 0076 1846     		mov	r0, r3
 683 0078 FFF7FEFF 		bl	memcpy
 228:g:/iot/IoT_Device_Demo/iot_link/network/lwm2m/wakaama_lwm2m/wakaama-master/core/er-coap-13\er-coap-13.c ****                 i += temp_length;
 684              		.loc 1 228 19
 685 007c 7A6A     		ldr	r2, [r7, #36]
 686 007e 7B69     		ldr	r3, [r7, #20]
 687 0080 1344     		add	r3, r3, r2
 688 0082 7B62     		str	r3, [r7, #36]
 229:g:/iot/IoT_Device_Demo/iot_link/network/lwm2m/wakaama_lwm2m/wakaama-master/core/er-coap-13\er-coap-13.c **** 
 230:g:/iot/IoT_Device_Demo/iot_link/network/lwm2m/wakaama_lwm2m/wakaama-master/core/er-coap-13\er-coap-13.c ****                 PRINTF("OPTION type %u, delta %u, len %u, part [%.*s]\n", number, number - current_
 231:g:/iot/IoT_Device_Demo/iot_link/network/lwm2m/wakaama_lwm2m/wakaama-master/core/er-coap-13\er-coap-13.c **** 
 232:g:/iot/IoT_Device_Demo/iot_link/network/lwm2m/wakaama_lwm2m/wakaama-master/core/er-coap-13\er-coap-13.c ****                 ++j; /* skip the splitter */
 689              		.loc 1 232 17
 690 0084 3B6A     		ldr	r3, [r7, #32]
 691 0086 0133     		adds	r3, r3, #1
 692 0088 3B62     		str	r3, [r7, #32]
 233:g:/iot/IoT_Device_Demo/iot_link/network/lwm2m/wakaama_lwm2m/wakaama-master/core/er-coap-13\er-coap-13.c ****                 current_number = number;
 693              		.loc 1 233 32
 694 008a FB68     		ldr	r3, [r7, #12]
 695 008c BB60     		str	r3, [r7, #8]
ARM GAS  C:\Users\ADMINI~1\AppData\Local\Temp\cc8DJu9v.s 			page 17


 234:g:/iot/IoT_Device_Demo/iot_link/network/lwm2m/wakaama_lwm2m/wakaama-master/core/er-coap-13\er-coap-13.c ****                 part_start = array + j;
 696              		.loc 1 234 28
 697 008e 3A68     		ldr	r2, [r7]
 698 0090 3B6A     		ldr	r3, [r7, #32]
 699 0092 1344     		add	r3, r3, r2
 700 0094 FB61     		str	r3, [r7, #28]
 701              	.L34:
 219:g:/iot/IoT_Device_Demo/iot_link/network/lwm2m/wakaama_lwm2m/wakaama-master/core/er-coap-13\er-coap-13.c ****         {
 702              		.loc 1 219 34 discriminator 2
 703 0096 3B6A     		ldr	r3, [r7, #32]
 704 0098 0133     		adds	r3, r3, #1
 705 009a 3B62     		str	r3, [r7, #32]
 706              	.L32:
 219:g:/iot/IoT_Device_Demo/iot_link/network/lwm2m/wakaama_lwm2m/wakaama-master/core/er-coap-13\er-coap-13.c ****         {
 707              		.loc 1 219 9 discriminator 1
 708 009c 3A6A     		ldr	r2, [r7, #32]
 709 009e 3B6B     		ldr	r3, [r7, #48]
 710 00a0 9A42     		cmp	r2, r3
 711 00a2 C1D9     		bls	.L35
 712 00a4 19E0     		b	.L36
 713              	.L31:
 714              	.LBE2:
 235:g:/iot/IoT_Device_Demo/iot_link/network/lwm2m/wakaama_lwm2m/wakaama-master/core/er-coap-13\er-coap-13.c ****             }
 236:g:/iot/IoT_Device_Demo/iot_link/network/lwm2m/wakaama_lwm2m/wakaama-master/core/er-coap-13\er-coap-13.c ****         } /* for */
 237:g:/iot/IoT_Device_Demo/iot_link/network/lwm2m/wakaama_lwm2m/wakaama-master/core/er-coap-13\er-coap-13.c ****     }
 238:g:/iot/IoT_Device_Demo/iot_link/network/lwm2m/wakaama_lwm2m/wakaama-master/core/er-coap-13\er-coap-13.c ****     else
 239:g:/iot/IoT_Device_Demo/iot_link/network/lwm2m/wakaama_lwm2m/wakaama-master/core/er-coap-13\er-coap-13.c ****     {
 240:g:/iot/IoT_Device_Demo/iot_link/network/lwm2m/wakaama_lwm2m/wakaama-master/core/er-coap-13\er-coap-13.c ****         i += coap_set_option_header(number - current_number, length, &buffer[i]);
 715              		.loc 1 240 14
 716 00a6 FA68     		ldr	r2, [r7, #12]
 717 00a8 BB68     		ldr	r3, [r7, #8]
 718 00aa D01A     		subs	r0, r2, r3
 719 00ac 7A68     		ldr	r2, [r7, #4]
 720 00ae 7B6A     		ldr	r3, [r7, #36]
 721 00b0 1344     		add	r3, r3, r2
 722 00b2 1A46     		mov	r2, r3
 723 00b4 396B     		ldr	r1, [r7, #48]
 724 00b6 FFF7FEFF 		bl	coap_set_option_header
 725 00ba 0246     		mov	r2, r0
 726              		.loc 1 240 11
 727 00bc 7B6A     		ldr	r3, [r7, #36]
 728 00be 1344     		add	r3, r3, r2
 729 00c0 7B62     		str	r3, [r7, #36]
 241:g:/iot/IoT_Device_Demo/iot_link/network/lwm2m/wakaama_lwm2m/wakaama-master/core/er-coap-13\er-coap-13.c ****         memcpy(&buffer[i], array, length);
 730              		.loc 1 241 16
 731 00c2 7A68     		ldr	r2, [r7, #4]
 732 00c4 7B6A     		ldr	r3, [r7, #36]
 733 00c6 1344     		add	r3, r3, r2
 734              		.loc 1 241 9
 735 00c8 3A6B     		ldr	r2, [r7, #48]
 736 00ca 3968     		ldr	r1, [r7]
 737 00cc 1846     		mov	r0, r3
 738 00ce FFF7FEFF 		bl	memcpy
 242:g:/iot/IoT_Device_Demo/iot_link/network/lwm2m/wakaama_lwm2m/wakaama-master/core/er-coap-13\er-coap-13.c ****         i += length;
 739              		.loc 1 242 11
 740 00d2 7A6A     		ldr	r2, [r7, #36]
 741 00d4 3B6B     		ldr	r3, [r7, #48]
ARM GAS  C:\Users\ADMINI~1\AppData\Local\Temp\cc8DJu9v.s 			page 18


 742 00d6 1344     		add	r3, r3, r2
 743 00d8 7B62     		str	r3, [r7, #36]
 744              	.L36:
 243:g:/iot/IoT_Device_Demo/iot_link/network/lwm2m/wakaama_lwm2m/wakaama-master/core/er-coap-13\er-coap-13.c **** 
 244:g:/iot/IoT_Device_Demo/iot_link/network/lwm2m/wakaama_lwm2m/wakaama-master/core/er-coap-13\er-coap-13.c ****         PRINTF("OPTION type %u, delta %u, len %u\n", number, number - current_number, length);
 245:g:/iot/IoT_Device_Demo/iot_link/network/lwm2m/wakaama_lwm2m/wakaama-master/core/er-coap-13\er-coap-13.c ****     }
 246:g:/iot/IoT_Device_Demo/iot_link/network/lwm2m/wakaama_lwm2m/wakaama-master/core/er-coap-13\er-coap-13.c **** 
 247:g:/iot/IoT_Device_Demo/iot_link/network/lwm2m/wakaama_lwm2m/wakaama-master/core/er-coap-13\er-coap-13.c ****     return i;
 745              		.loc 1 247 12
 746 00da 7B6A     		ldr	r3, [r7, #36]
 248:g:/iot/IoT_Device_Demo/iot_link/network/lwm2m/wakaama_lwm2m/wakaama-master/core/er-coap-13\er-coap-13.c **** }
 747              		.loc 1 248 1
 748 00dc 1846     		mov	r0, r3
 749 00de 2837     		adds	r7, r7, #40
 750              	.LCFI31:
 751              		.cfi_def_cfa_offset 8
 752 00e0 BD46     		mov	sp, r7
 753              	.LCFI32:
 754              		.cfi_def_cfa_register 13
 755              		@ sp needed
 756 00e2 80BD     		pop	{r7, pc}
 757              		.cfi_endproc
 758              	.LFE9:
 760              		.section	.text.coap_serialize_multi_option,"ax",%progbits
 761              		.align	1
 762              		.syntax unified
 763              		.thumb
 764              		.thumb_func
 765              		.fpu fpv4-sp-d16
 767              	coap_serialize_multi_option:
 768              	.LFB10:
 249:g:/iot/IoT_Device_Demo/iot_link/network/lwm2m/wakaama_lwm2m/wakaama-master/core/er-coap-13\er-coap-13.c **** /*-----------------------------------------------------------------------------------*/
 250:g:/iot/IoT_Device_Demo/iot_link/network/lwm2m/wakaama_lwm2m/wakaama-master/core/er-coap-13\er-coap-13.c **** static
 251:g:/iot/IoT_Device_Demo/iot_link/network/lwm2m/wakaama_lwm2m/wakaama-master/core/er-coap-13\er-coap-13.c **** size_t
 252:g:/iot/IoT_Device_Demo/iot_link/network/lwm2m/wakaama_lwm2m/wakaama-master/core/er-coap-13\er-coap-13.c **** coap_serialize_multi_option(unsigned int number, unsigned int current_number, uint8_t *buffer, mult
 253:g:/iot/IoT_Device_Demo/iot_link/network/lwm2m/wakaama_lwm2m/wakaama-master/core/er-coap-13\er-coap-13.c **** {
 769              		.loc 1 253 1
 770              		.cfi_startproc
 771              		@ args = 0, pretend = 0, frame = 24
 772              		@ frame_needed = 1, uses_anonymous_args = 0
 773 0000 80B5     		push	{r7, lr}
 774              	.LCFI33:
 775              		.cfi_def_cfa_offset 8
 776              		.cfi_offset 7, -8
 777              		.cfi_offset 14, -4
 778 0002 86B0     		sub	sp, sp, #24
 779              	.LCFI34:
 780              		.cfi_def_cfa_offset 32
 781 0004 00AF     		add	r7, sp, #0
 782              	.LCFI35:
 783              		.cfi_def_cfa_register 7
 784 0006 F860     		str	r0, [r7, #12]
 785 0008 B960     		str	r1, [r7, #8]
 786 000a 7A60     		str	r2, [r7, #4]
 787 000c 3B60     		str	r3, [r7]
 254:g:/iot/IoT_Device_Demo/iot_link/network/lwm2m/wakaama_lwm2m/wakaama-master/core/er-coap-13\er-coap-13.c ****     size_t i = 0;
 788              		.loc 1 254 12
ARM GAS  C:\Users\ADMINI~1\AppData\Local\Temp\cc8DJu9v.s 			page 19


 789 000e 0023     		movs	r3, #0
 790 0010 7B61     		str	r3, [r7, #20]
 255:g:/iot/IoT_Device_Demo/iot_link/network/lwm2m/wakaama_lwm2m/wakaama-master/core/er-coap-13\er-coap-13.c ****     multi_option_t *j;
 256:g:/iot/IoT_Device_Demo/iot_link/network/lwm2m/wakaama_lwm2m/wakaama-master/core/er-coap-13\er-coap-13.c **** 
 257:g:/iot/IoT_Device_Demo/iot_link/network/lwm2m/wakaama_lwm2m/wakaama-master/core/er-coap-13\er-coap-13.c ****     for (j = array; j != NULL; j = j->next)
 791              		.loc 1 257 12
 792 0012 3B68     		ldr	r3, [r7]
 793 0014 3B61     		str	r3, [r7, #16]
 794              		.loc 1 257 5
 795 0016 24E0     		b	.L39
 796              	.L40:
 258:g:/iot/IoT_Device_Demo/iot_link/network/lwm2m/wakaama_lwm2m/wakaama-master/core/er-coap-13\er-coap-13.c ****     {
 259:g:/iot/IoT_Device_Demo/iot_link/network/lwm2m/wakaama_lwm2m/wakaama-master/core/er-coap-13\er-coap-13.c ****         i += coap_set_option_header(number - current_number, j->len, &buffer[i]);
 797              		.loc 1 259 14 discriminator 3
 798 0018 FA68     		ldr	r2, [r7, #12]
 799 001a BB68     		ldr	r3, [r7, #8]
 800 001c D01A     		subs	r0, r2, r3
 801              		.loc 1 259 63 discriminator 3
 802 001e 3B69     		ldr	r3, [r7, #16]
 803 0020 5B79     		ldrb	r3, [r3, #5]	@ zero_extendqisi2
 804              		.loc 1 259 14 discriminator 3
 805 0022 1946     		mov	r1, r3
 806 0024 7A68     		ldr	r2, [r7, #4]
 807 0026 7B69     		ldr	r3, [r7, #20]
 808 0028 1344     		add	r3, r3, r2
 809 002a 1A46     		mov	r2, r3
 810 002c FFF7FEFF 		bl	coap_set_option_header
 811 0030 0246     		mov	r2, r0
 812              		.loc 1 259 11 discriminator 3
 813 0032 7B69     		ldr	r3, [r7, #20]
 814 0034 1344     		add	r3, r3, r2
 815 0036 7B61     		str	r3, [r7, #20]
 260:g:/iot/IoT_Device_Demo/iot_link/network/lwm2m/wakaama_lwm2m/wakaama-master/core/er-coap-13\er-coap-13.c ****         current_number = number;
 816              		.loc 1 260 24 discriminator 3
 817 0038 FB68     		ldr	r3, [r7, #12]
 818 003a BB60     		str	r3, [r7, #8]
 261:g:/iot/IoT_Device_Demo/iot_link/network/lwm2m/wakaama_lwm2m/wakaama-master/core/er-coap-13\er-coap-13.c ****         memcpy(&buffer[i], j->data, j->len);
 819              		.loc 1 261 16 discriminator 3
 820 003c 7A68     		ldr	r2, [r7, #4]
 821 003e 7B69     		ldr	r3, [r7, #20]
 822 0040 D018     		adds	r0, r2, r3
 823              		.loc 1 261 29 discriminator 3
 824 0042 3B69     		ldr	r3, [r7, #16]
 825 0044 9968     		ldr	r1, [r3, #8]
 826              		.loc 1 261 38 discriminator 3
 827 0046 3B69     		ldr	r3, [r7, #16]
 828 0048 5B79     		ldrb	r3, [r3, #5]	@ zero_extendqisi2
 829              		.loc 1 261 9 discriminator 3
 830 004a 1A46     		mov	r2, r3
 831 004c FFF7FEFF 		bl	memcpy
 262:g:/iot/IoT_Device_Demo/iot_link/network/lwm2m/wakaama_lwm2m/wakaama-master/core/er-coap-13\er-coap-13.c ****         i += j->len;
 832              		.loc 1 262 15 discriminator 3
 833 0050 3B69     		ldr	r3, [r7, #16]
 834 0052 5B79     		ldrb	r3, [r3, #5]	@ zero_extendqisi2
 835 0054 1A46     		mov	r2, r3
 836              		.loc 1 262 11 discriminator 3
 837 0056 7B69     		ldr	r3, [r7, #20]
ARM GAS  C:\Users\ADMINI~1\AppData\Local\Temp\cc8DJu9v.s 			page 20


 838 0058 1344     		add	r3, r3, r2
 839 005a 7B61     		str	r3, [r7, #20]
 257:g:/iot/IoT_Device_Demo/iot_link/network/lwm2m/wakaama_lwm2m/wakaama-master/core/er-coap-13\er-coap-13.c ****     {
 840              		.loc 1 257 34 discriminator 3
 841 005c 3B69     		ldr	r3, [r7, #16]
 842 005e 1B68     		ldr	r3, [r3]
 843 0060 3B61     		str	r3, [r7, #16]
 844              	.L39:
 257:g:/iot/IoT_Device_Demo/iot_link/network/lwm2m/wakaama_lwm2m/wakaama-master/core/er-coap-13\er-coap-13.c ****     {
 845              		.loc 1 257 5 discriminator 1
 846 0062 3B69     		ldr	r3, [r7, #16]
 847 0064 002B     		cmp	r3, #0
 848 0066 D7D1     		bne	.L40
 263:g:/iot/IoT_Device_Demo/iot_link/network/lwm2m/wakaama_lwm2m/wakaama-master/core/er-coap-13\er-coap-13.c ****     } /* for */
 264:g:/iot/IoT_Device_Demo/iot_link/network/lwm2m/wakaama_lwm2m/wakaama-master/core/er-coap-13\er-coap-13.c **** 
 265:g:/iot/IoT_Device_Demo/iot_link/network/lwm2m/wakaama_lwm2m/wakaama-master/core/er-coap-13\er-coap-13.c ****     return i;
 849              		.loc 1 265 12
 850 0068 7B69     		ldr	r3, [r7, #20]
 266:g:/iot/IoT_Device_Demo/iot_link/network/lwm2m/wakaama_lwm2m/wakaama-master/core/er-coap-13\er-coap-13.c **** }
 851              		.loc 1 266 1
 852 006a 1846     		mov	r0, r3
 853 006c 1837     		adds	r7, r7, #24
 854              	.LCFI36:
 855              		.cfi_def_cfa_offset 8
 856 006e BD46     		mov	sp, r7
 857              	.LCFI37:
 858              		.cfi_def_cfa_register 13
 859              		@ sp needed
 860 0070 80BD     		pop	{r7, pc}
 861              		.cfi_endproc
 862              	.LFE10:
 864              		.section	.text.coap_merge_multi_option,"ax",%progbits
 865              		.align	1
 866              		.syntax unified
 867              		.thumb
 868              		.thumb_func
 869              		.fpu fpv4-sp-d16
 871              	coap_merge_multi_option:
 872              	.LFB11:
 267:g:/iot/IoT_Device_Demo/iot_link/network/lwm2m/wakaama_lwm2m/wakaama-master/core/er-coap-13\er-coap-13.c **** /*-----------------------------------------------------------------------------------*/
 268:g:/iot/IoT_Device_Demo/iot_link/network/lwm2m/wakaama_lwm2m/wakaama-master/core/er-coap-13\er-coap-13.c **** static
 269:g:/iot/IoT_Device_Demo/iot_link/network/lwm2m/wakaama_lwm2m/wakaama-master/core/er-coap-13\er-coap-13.c **** void
 270:g:/iot/IoT_Device_Demo/iot_link/network/lwm2m/wakaama_lwm2m/wakaama-master/core/er-coap-13\er-coap-13.c **** coap_merge_multi_option(uint8_t **dst, size_t *dst_len, uint8_t *option, size_t option_len, char se
 271:g:/iot/IoT_Device_Demo/iot_link/network/lwm2m/wakaama_lwm2m/wakaama-master/core/er-coap-13\er-coap-13.c **** {
 873              		.loc 1 271 1
 874              		.cfi_startproc
 875              		@ args = 4, pretend = 0, frame = 16
 876              		@ frame_needed = 1, uses_anonymous_args = 0
 877 0000 80B5     		push	{r7, lr}
 878              	.LCFI38:
 879              		.cfi_def_cfa_offset 8
 880              		.cfi_offset 7, -8
 881              		.cfi_offset 14, -4
 882 0002 84B0     		sub	sp, sp, #16
 883              	.LCFI39:
 884              		.cfi_def_cfa_offset 24
 885 0004 00AF     		add	r7, sp, #0
ARM GAS  C:\Users\ADMINI~1\AppData\Local\Temp\cc8DJu9v.s 			page 21


 886              	.LCFI40:
 887              		.cfi_def_cfa_register 7
 888 0006 F860     		str	r0, [r7, #12]
 889 0008 B960     		str	r1, [r7, #8]
 890 000a 7A60     		str	r2, [r7, #4]
 891 000c 3B60     		str	r3, [r7]
 272:g:/iot/IoT_Device_Demo/iot_link/network/lwm2m/wakaama_lwm2m/wakaama-master/core/er-coap-13\er-coap-13.c ****     /* Merge multiple options. */
 273:g:/iot/IoT_Device_Demo/iot_link/network/lwm2m/wakaama_lwm2m/wakaama-master/core/er-coap-13\er-coap-13.c ****     if (*dst_len > 0)
 892              		.loc 1 273 9
 893 000e BB68     		ldr	r3, [r7, #8]
 894 0010 1B68     		ldr	r3, [r3]
 895              		.loc 1 273 8
 896 0012 002B     		cmp	r3, #0
 897 0014 1CD0     		beq	.L43
 274:g:/iot/IoT_Device_Demo/iot_link/network/lwm2m/wakaama_lwm2m/wakaama-master/core/er-coap-13\er-coap-13.c ****     {
 275:g:/iot/IoT_Device_Demo/iot_link/network/lwm2m/wakaama_lwm2m/wakaama-master/core/er-coap-13\er-coap-13.c ****         /* dst already contains an option: concatenate */
 276:g:/iot/IoT_Device_Demo/iot_link/network/lwm2m/wakaama_lwm2m/wakaama-master/core/er-coap-13\er-coap-13.c ****         (*dst)[*dst_len] = separator;
 898              		.loc 1 276 10
 899 0016 FB68     		ldr	r3, [r7, #12]
 900 0018 1A68     		ldr	r2, [r3]
 901              		.loc 1 276 16
 902 001a BB68     		ldr	r3, [r7, #8]
 903 001c 1B68     		ldr	r3, [r3]
 904              		.loc 1 276 15
 905 001e 1344     		add	r3, r3, r2
 906              		.loc 1 276 26
 907 0020 3A7E     		ldrb	r2, [r7, #24]
 908 0022 1A70     		strb	r2, [r3]
 277:g:/iot/IoT_Device_Demo/iot_link/network/lwm2m/wakaama_lwm2m/wakaama-master/core/er-coap-13\er-coap-13.c ****         *dst_len += 1;
 909              		.loc 1 277 18
 910 0024 BB68     		ldr	r3, [r7, #8]
 911 0026 1B68     		ldr	r3, [r3]
 912 0028 5A1C     		adds	r2, r3, #1
 913 002a BB68     		ldr	r3, [r7, #8]
 914 002c 1A60     		str	r2, [r3]
 278:g:/iot/IoT_Device_Demo/iot_link/network/lwm2m/wakaama_lwm2m/wakaama-master/core/er-coap-13\er-coap-13.c **** 
 279:g:/iot/IoT_Device_Demo/iot_link/network/lwm2m/wakaama_lwm2m/wakaama-master/core/er-coap-13\er-coap-13.c ****         /* memmove handles 2-byte option headers */
 280:g:/iot/IoT_Device_Demo/iot_link/network/lwm2m/wakaama_lwm2m/wakaama-master/core/er-coap-13\er-coap-13.c ****         memmove((*dst) + (*dst_len), option, option_len);
 915              		.loc 1 280 18
 916 002e FB68     		ldr	r3, [r7, #12]
 917 0030 1A68     		ldr	r2, [r3]
 918              		.loc 1 280 27
 919 0032 BB68     		ldr	r3, [r7, #8]
 920 0034 1B68     		ldr	r3, [r3]
 921              		.loc 1 280 24
 922 0036 1344     		add	r3, r3, r2
 923              		.loc 1 280 9
 924 0038 3A68     		ldr	r2, [r7]
 925 003a 7968     		ldr	r1, [r7, #4]
 926 003c 1846     		mov	r0, r3
 927 003e FFF7FEFF 		bl	memmove
 281:g:/iot/IoT_Device_Demo/iot_link/network/lwm2m/wakaama_lwm2m/wakaama-master/core/er-coap-13\er-coap-13.c **** 
 282:g:/iot/IoT_Device_Demo/iot_link/network/lwm2m/wakaama_lwm2m/wakaama-master/core/er-coap-13\er-coap-13.c ****         *dst_len += option_len;
 928              		.loc 1 282 18
 929 0042 BB68     		ldr	r3, [r7, #8]
 930 0044 1A68     		ldr	r2, [r3]
 931 0046 3B68     		ldr	r3, [r7]
ARM GAS  C:\Users\ADMINI~1\AppData\Local\Temp\cc8DJu9v.s 			page 22


 932 0048 1A44     		add	r2, r2, r3
 933 004a BB68     		ldr	r3, [r7, #8]
 934 004c 1A60     		str	r2, [r3]
 283:g:/iot/IoT_Device_Demo/iot_link/network/lwm2m/wakaama_lwm2m/wakaama-master/core/er-coap-13\er-coap-13.c ****     }
 284:g:/iot/IoT_Device_Demo/iot_link/network/lwm2m/wakaama_lwm2m/wakaama-master/core/er-coap-13\er-coap-13.c ****     else
 285:g:/iot/IoT_Device_Demo/iot_link/network/lwm2m/wakaama_lwm2m/wakaama-master/core/er-coap-13\er-coap-13.c ****     {
 286:g:/iot/IoT_Device_Demo/iot_link/network/lwm2m/wakaama_lwm2m/wakaama-master/core/er-coap-13\er-coap-13.c ****         /* dst is empty: set to option */
 287:g:/iot/IoT_Device_Demo/iot_link/network/lwm2m/wakaama_lwm2m/wakaama-master/core/er-coap-13\er-coap-13.c ****         *dst = option;
 288:g:/iot/IoT_Device_Demo/iot_link/network/lwm2m/wakaama_lwm2m/wakaama-master/core/er-coap-13\er-coap-13.c ****         *dst_len = option_len;
 289:g:/iot/IoT_Device_Demo/iot_link/network/lwm2m/wakaama_lwm2m/wakaama-master/core/er-coap-13\er-coap-13.c ****     }
 290:g:/iot/IoT_Device_Demo/iot_link/network/lwm2m/wakaama_lwm2m/wakaama-master/core/er-coap-13\er-coap-13.c **** }
 935              		.loc 1 290 1
 936 004e 05E0     		b	.L45
 937              	.L43:
 287:g:/iot/IoT_Device_Demo/iot_link/network/lwm2m/wakaama_lwm2m/wakaama-master/core/er-coap-13\er-coap-13.c ****         *dst_len = option_len;
 938              		.loc 1 287 14
 939 0050 FB68     		ldr	r3, [r7, #12]
 940 0052 7A68     		ldr	r2, [r7, #4]
 941 0054 1A60     		str	r2, [r3]
 288:g:/iot/IoT_Device_Demo/iot_link/network/lwm2m/wakaama_lwm2m/wakaama-master/core/er-coap-13\er-coap-13.c ****     }
 942              		.loc 1 288 18
 943 0056 BB68     		ldr	r3, [r7, #8]
 944 0058 3A68     		ldr	r2, [r7]
 945 005a 1A60     		str	r2, [r3]
 946              	.L45:
 947              		.loc 1 290 1
 948 005c 00BF     		nop
 949 005e 1037     		adds	r7, r7, #16
 950              	.LCFI41:
 951              		.cfi_def_cfa_offset 8
 952 0060 BD46     		mov	sp, r7
 953              	.LCFI42:
 954              		.cfi_def_cfa_register 13
 955              		@ sp needed
 956 0062 80BD     		pop	{r7, pc}
 957              		.cfi_endproc
 958              	.LFE11:
 960              		.section	.text.coap_add_multi_option,"ax",%progbits
 961              		.align	1
 962              		.global	coap_add_multi_option
 963              		.syntax unified
 964              		.thumb
 965              		.thumb_func
 966              		.fpu fpv4-sp-d16
 968              	coap_add_multi_option:
 969              	.LFB12:
 291:g:/iot/IoT_Device_Demo/iot_link/network/lwm2m/wakaama_lwm2m/wakaama-master/core/er-coap-13\er-coap-13.c **** 
 292:g:/iot/IoT_Device_Demo/iot_link/network/lwm2m/wakaama_lwm2m/wakaama-master/core/er-coap-13\er-coap-13.c **** void
 293:g:/iot/IoT_Device_Demo/iot_link/network/lwm2m/wakaama_lwm2m/wakaama-master/core/er-coap-13\er-coap-13.c **** coap_add_multi_option(multi_option_t **dst, uint8_t *option, size_t option_len, uint8_t is_static)
 294:g:/iot/IoT_Device_Demo/iot_link/network/lwm2m/wakaama_lwm2m/wakaama-master/core/er-coap-13\er-coap-13.c **** {
 970              		.loc 1 294 1
 971              		.cfi_startproc
 972              		@ args = 0, pretend = 0, frame = 24
 973              		@ frame_needed = 1, uses_anonymous_args = 0
 974 0000 80B5     		push	{r7, lr}
 975              	.LCFI43:
 976              		.cfi_def_cfa_offset 8
ARM GAS  C:\Users\ADMINI~1\AppData\Local\Temp\cc8DJu9v.s 			page 23


 977              		.cfi_offset 7, -8
 978              		.cfi_offset 14, -4
 979 0002 86B0     		sub	sp, sp, #24
 980              	.LCFI44:
 981              		.cfi_def_cfa_offset 32
 982 0004 00AF     		add	r7, sp, #0
 983              	.LCFI45:
 984              		.cfi_def_cfa_register 7
 985 0006 F860     		str	r0, [r7, #12]
 986 0008 B960     		str	r1, [r7, #8]
 987 000a 7A60     		str	r2, [r7, #4]
 988 000c FB70     		strb	r3, [r7, #3]
 295:g:/iot/IoT_Device_Demo/iot_link/network/lwm2m/wakaama_lwm2m/wakaama-master/core/er-coap-13\er-coap-13.c ****     multi_option_t *opt = (multi_option_t *)lwm2m_malloc(sizeof(multi_option_t));
 989              		.loc 1 295 45
 990 000e 0C20     		movs	r0, #12
 991 0010 FFF7FEFF 		bl	lwm2m_malloc
 992 0014 3861     		str	r0, [r7, #16]
 296:g:/iot/IoT_Device_Demo/iot_link/network/lwm2m/wakaama_lwm2m/wakaama-master/core/er-coap-13\er-coap-13.c **** 
 297:g:/iot/IoT_Device_Demo/iot_link/network/lwm2m/wakaama_lwm2m/wakaama-master/core/er-coap-13\er-coap-13.c ****     if (opt)
 993              		.loc 1 297 8
 994 0016 3B69     		ldr	r3, [r7, #16]
 995 0018 002B     		cmp	r3, #0
 996 001a 3ED0     		beq	.L46
 298:g:/iot/IoT_Device_Demo/iot_link/network/lwm2m/wakaama_lwm2m/wakaama-master/core/er-coap-13\er-coap-13.c ****     {
 299:g:/iot/IoT_Device_Demo/iot_link/network/lwm2m/wakaama_lwm2m/wakaama-master/core/er-coap-13\er-coap-13.c ****         opt->next = NULL;
 997              		.loc 1 299 19
 998 001c 3B69     		ldr	r3, [r7, #16]
 999 001e 0022     		movs	r2, #0
 1000 0020 1A60     		str	r2, [r3]
 300:g:/iot/IoT_Device_Demo/iot_link/network/lwm2m/wakaama_lwm2m/wakaama-master/core/er-coap-13\er-coap-13.c ****         opt->len = (uint8_t)option_len;
 1001              		.loc 1 300 20
 1002 0022 7B68     		ldr	r3, [r7, #4]
 1003 0024 DAB2     		uxtb	r2, r3
 1004              		.loc 1 300 18
 1005 0026 3B69     		ldr	r3, [r7, #16]
 1006 0028 5A71     		strb	r2, [r3, #5]
 301:g:/iot/IoT_Device_Demo/iot_link/network/lwm2m/wakaama_lwm2m/wakaama-master/core/er-coap-13\er-coap-13.c ****         if (is_static)
 1007              		.loc 1 301 12
 1008 002a FB78     		ldrb	r3, [r7, #3]	@ zero_extendqisi2
 1009 002c 002B     		cmp	r3, #0
 1010 002e 06D0     		beq	.L48
 302:g:/iot/IoT_Device_Demo/iot_link/network/lwm2m/wakaama_lwm2m/wakaama-master/core/er-coap-13\er-coap-13.c ****         {
 303:g:/iot/IoT_Device_Demo/iot_link/network/lwm2m/wakaama_lwm2m/wakaama-master/core/er-coap-13\er-coap-13.c ****             opt->data = option;
 1011              		.loc 1 303 23
 1012 0030 3B69     		ldr	r3, [r7, #16]
 1013 0032 BA68     		ldr	r2, [r7, #8]
 1014 0034 9A60     		str	r2, [r3, #8]
 304:g:/iot/IoT_Device_Demo/iot_link/network/lwm2m/wakaama_lwm2m/wakaama-master/core/er-coap-13\er-coap-13.c ****             opt->is_static = 1;
 1015              		.loc 1 304 28
 1016 0036 3B69     		ldr	r3, [r7, #16]
 1017 0038 0122     		movs	r2, #1
 1018 003a 1A71     		strb	r2, [r3, #4]
 1019 003c 17E0     		b	.L49
 1020              	.L48:
 305:g:/iot/IoT_Device_Demo/iot_link/network/lwm2m/wakaama_lwm2m/wakaama-master/core/er-coap-13\er-coap-13.c ****         }
 306:g:/iot/IoT_Device_Demo/iot_link/network/lwm2m/wakaama_lwm2m/wakaama-master/core/er-coap-13\er-coap-13.c ****         else
 307:g:/iot/IoT_Device_Demo/iot_link/network/lwm2m/wakaama_lwm2m/wakaama-master/core/er-coap-13\er-coap-13.c ****         {
ARM GAS  C:\Users\ADMINI~1\AppData\Local\Temp\cc8DJu9v.s 			page 24


 308:g:/iot/IoT_Device_Demo/iot_link/network/lwm2m/wakaama_lwm2m/wakaama-master/core/er-coap-13\er-coap-13.c ****             opt->is_static = 0;
 1021              		.loc 1 308 28
 1022 003e 3B69     		ldr	r3, [r7, #16]
 1023 0040 0022     		movs	r2, #0
 1024 0042 1A71     		strb	r2, [r3, #4]
 309:g:/iot/IoT_Device_Demo/iot_link/network/lwm2m/wakaama_lwm2m/wakaama-master/core/er-coap-13\er-coap-13.c ****             opt->data = (uint8_t *)lwm2m_malloc(option_len);
 1025              		.loc 1 309 36
 1026 0044 7868     		ldr	r0, [r7, #4]
 1027 0046 FFF7FEFF 		bl	lwm2m_malloc
 1028 004a 0246     		mov	r2, r0
 1029              		.loc 1 309 23
 1030 004c 3B69     		ldr	r3, [r7, #16]
 1031 004e 9A60     		str	r2, [r3, #8]
 310:g:/iot/IoT_Device_Demo/iot_link/network/lwm2m/wakaama_lwm2m/wakaama-master/core/er-coap-13\er-coap-13.c ****             if (opt->data == NULL)
 1032              		.loc 1 310 20
 1033 0050 3B69     		ldr	r3, [r7, #16]
 1034 0052 9B68     		ldr	r3, [r3, #8]
 1035              		.loc 1 310 16
 1036 0054 002B     		cmp	r3, #0
 1037 0056 03D1     		bne	.L50
 311:g:/iot/IoT_Device_Demo/iot_link/network/lwm2m/wakaama_lwm2m/wakaama-master/core/er-coap-13\er-coap-13.c ****             {
 312:g:/iot/IoT_Device_Demo/iot_link/network/lwm2m/wakaama_lwm2m/wakaama-master/core/er-coap-13\er-coap-13.c ****                 lwm2m_free(opt);
 1038              		.loc 1 312 17
 1039 0058 3869     		ldr	r0, [r7, #16]
 1040 005a FFF7FEFF 		bl	lwm2m_free
 313:g:/iot/IoT_Device_Demo/iot_link/network/lwm2m/wakaama_lwm2m/wakaama-master/core/er-coap-13\er-coap-13.c ****                 return;
 1041              		.loc 1 313 17
 1042 005e 1CE0     		b	.L46
 1043              	.L50:
 314:g:/iot/IoT_Device_Demo/iot_link/network/lwm2m/wakaama_lwm2m/wakaama-master/core/er-coap-13\er-coap-13.c ****             }
 315:g:/iot/IoT_Device_Demo/iot_link/network/lwm2m/wakaama_lwm2m/wakaama-master/core/er-coap-13\er-coap-13.c ****             memcpy(opt->data, option, option_len);
 1044              		.loc 1 315 23
 1045 0060 3B69     		ldr	r3, [r7, #16]
 1046 0062 9B68     		ldr	r3, [r3, #8]
 1047              		.loc 1 315 13
 1048 0064 7A68     		ldr	r2, [r7, #4]
 1049 0066 B968     		ldr	r1, [r7, #8]
 1050 0068 1846     		mov	r0, r3
 1051 006a FFF7FEFF 		bl	memcpy
 1052              	.L49:
 316:g:/iot/IoT_Device_Demo/iot_link/network/lwm2m/wakaama_lwm2m/wakaama-master/core/er-coap-13\er-coap-13.c ****         }
 317:g:/iot/IoT_Device_Demo/iot_link/network/lwm2m/wakaama_lwm2m/wakaama-master/core/er-coap-13\er-coap-13.c **** 
 318:g:/iot/IoT_Device_Demo/iot_link/network/lwm2m/wakaama_lwm2m/wakaama-master/core/er-coap-13\er-coap-13.c ****         if (*dst)
 1053              		.loc 1 318 13
 1054 006e FB68     		ldr	r3, [r7, #12]
 1055 0070 1B68     		ldr	r3, [r3]
 1056              		.loc 1 318 12
 1057 0072 002B     		cmp	r3, #0
 1058 0074 0ED0     		beq	.L51
 1059              	.LBB3:
 319:g:/iot/IoT_Device_Demo/iot_link/network/lwm2m/wakaama_lwm2m/wakaama-master/core/er-coap-13\er-coap-13.c ****         {
 320:g:/iot/IoT_Device_Demo/iot_link/network/lwm2m/wakaama_lwm2m/wakaama-master/core/er-coap-13\er-coap-13.c ****             multi_option_t *i = *dst;
 1060              		.loc 1 320 29
 1061 0076 FB68     		ldr	r3, [r7, #12]
 1062 0078 1B68     		ldr	r3, [r3]
 1063 007a 7B61     		str	r3, [r7, #20]
 321:g:/iot/IoT_Device_Demo/iot_link/network/lwm2m/wakaama_lwm2m/wakaama-master/core/er-coap-13\er-coap-13.c ****             while (i->next)
ARM GAS  C:\Users\ADMINI~1\AppData\Local\Temp\cc8DJu9v.s 			page 25


 1064              		.loc 1 321 19
 1065 007c 02E0     		b	.L52
 1066              	.L53:
 322:g:/iot/IoT_Device_Demo/iot_link/network/lwm2m/wakaama_lwm2m/wakaama-master/core/er-coap-13\er-coap-13.c ****             {
 323:g:/iot/IoT_Device_Demo/iot_link/network/lwm2m/wakaama_lwm2m/wakaama-master/core/er-coap-13\er-coap-13.c ****                 i = i->next;
 1067              		.loc 1 323 19
 1068 007e 7B69     		ldr	r3, [r7, #20]
 1069 0080 1B68     		ldr	r3, [r3]
 1070 0082 7B61     		str	r3, [r7, #20]
 1071              	.L52:
 321:g:/iot/IoT_Device_Demo/iot_link/network/lwm2m/wakaama_lwm2m/wakaama-master/core/er-coap-13\er-coap-13.c ****             while (i->next)
 1072              		.loc 1 321 21
 1073 0084 7B69     		ldr	r3, [r7, #20]
 1074 0086 1B68     		ldr	r3, [r3]
 321:g:/iot/IoT_Device_Demo/iot_link/network/lwm2m/wakaama_lwm2m/wakaama-master/core/er-coap-13\er-coap-13.c ****             while (i->next)
 1075              		.loc 1 321 19
 1076 0088 002B     		cmp	r3, #0
 1077 008a F8D1     		bne	.L53
 324:g:/iot/IoT_Device_Demo/iot_link/network/lwm2m/wakaama_lwm2m/wakaama-master/core/er-coap-13\er-coap-13.c ****             }
 325:g:/iot/IoT_Device_Demo/iot_link/network/lwm2m/wakaama_lwm2m/wakaama-master/core/er-coap-13\er-coap-13.c ****             i->next = opt;
 1078              		.loc 1 325 21
 1079 008c 7B69     		ldr	r3, [r7, #20]
 1080 008e 3A69     		ldr	r2, [r7, #16]
 1081 0090 1A60     		str	r2, [r3]
 1082              	.LBE3:
 1083 0092 02E0     		b	.L46
 1084              	.L51:
 326:g:/iot/IoT_Device_Demo/iot_link/network/lwm2m/wakaama_lwm2m/wakaama-master/core/er-coap-13\er-coap-13.c ****         }
 327:g:/iot/IoT_Device_Demo/iot_link/network/lwm2m/wakaama_lwm2m/wakaama-master/core/er-coap-13\er-coap-13.c ****         else
 328:g:/iot/IoT_Device_Demo/iot_link/network/lwm2m/wakaama_lwm2m/wakaama-master/core/er-coap-13\er-coap-13.c ****         {
 329:g:/iot/IoT_Device_Demo/iot_link/network/lwm2m/wakaama_lwm2m/wakaama-master/core/er-coap-13\er-coap-13.c ****             *dst = opt;
 1085              		.loc 1 329 18
 1086 0094 FB68     		ldr	r3, [r7, #12]
 1087 0096 3A69     		ldr	r2, [r7, #16]
 1088 0098 1A60     		str	r2, [r3]
 1089              	.L46:
 330:g:/iot/IoT_Device_Demo/iot_link/network/lwm2m/wakaama_lwm2m/wakaama-master/core/er-coap-13\er-coap-13.c ****         }
 331:g:/iot/IoT_Device_Demo/iot_link/network/lwm2m/wakaama_lwm2m/wakaama-master/core/er-coap-13\er-coap-13.c ****     }
 332:g:/iot/IoT_Device_Demo/iot_link/network/lwm2m/wakaama_lwm2m/wakaama-master/core/er-coap-13\er-coap-13.c **** }
 1090              		.loc 1 332 1
 1091 009a 1837     		adds	r7, r7, #24
 1092              	.LCFI46:
 1093              		.cfi_def_cfa_offset 8
 1094 009c BD46     		mov	sp, r7
 1095              	.LCFI47:
 1096              		.cfi_def_cfa_register 13
 1097              		@ sp needed
 1098 009e 80BD     		pop	{r7, pc}
 1099              		.cfi_endproc
 1100              	.LFE12:
 1102              		.section	.text.free_multi_option,"ax",%progbits
 1103              		.align	1
 1104              		.global	free_multi_option
 1105              		.syntax unified
 1106              		.thumb
 1107              		.thumb_func
 1108              		.fpu fpv4-sp-d16
ARM GAS  C:\Users\ADMINI~1\AppData\Local\Temp\cc8DJu9v.s 			page 26


 1110              	free_multi_option:
 1111              	.LFB13:
 333:g:/iot/IoT_Device_Demo/iot_link/network/lwm2m/wakaama_lwm2m/wakaama-master/core/er-coap-13\er-coap-13.c **** 
 334:g:/iot/IoT_Device_Demo/iot_link/network/lwm2m/wakaama_lwm2m/wakaama-master/core/er-coap-13\er-coap-13.c **** void
 335:g:/iot/IoT_Device_Demo/iot_link/network/lwm2m/wakaama_lwm2m/wakaama-master/core/er-coap-13\er-coap-13.c **** free_multi_option(multi_option_t *dst)
 336:g:/iot/IoT_Device_Demo/iot_link/network/lwm2m/wakaama_lwm2m/wakaama-master/core/er-coap-13\er-coap-13.c **** {
 1112              		.loc 1 336 1
 1113              		.cfi_startproc
 1114              		@ args = 0, pretend = 0, frame = 16
 1115              		@ frame_needed = 1, uses_anonymous_args = 0
 1116 0000 80B5     		push	{r7, lr}
 1117              	.LCFI48:
 1118              		.cfi_def_cfa_offset 8
 1119              		.cfi_offset 7, -8
 1120              		.cfi_offset 14, -4
 1121 0002 84B0     		sub	sp, sp, #16
 1122              	.LCFI49:
 1123              		.cfi_def_cfa_offset 24
 1124 0004 00AF     		add	r7, sp, #0
 1125              	.LCFI50:
 1126              		.cfi_def_cfa_register 7
 1127 0006 7860     		str	r0, [r7, #4]
 337:g:/iot/IoT_Device_Demo/iot_link/network/lwm2m/wakaama_lwm2m/wakaama-master/core/er-coap-13\er-coap-13.c ****     if (dst)
 1128              		.loc 1 337 8
 1129 0008 7B68     		ldr	r3, [r7, #4]
 1130 000a 002B     		cmp	r3, #0
 1131 000c 14D0     		beq	.L57
 1132              	.LBB4:
 338:g:/iot/IoT_Device_Demo/iot_link/network/lwm2m/wakaama_lwm2m/wakaama-master/core/er-coap-13\er-coap-13.c ****     {
 339:g:/iot/IoT_Device_Demo/iot_link/network/lwm2m/wakaama_lwm2m/wakaama-master/core/er-coap-13\er-coap-13.c ****         multi_option_t *n = dst->next;
 1133              		.loc 1 339 25
 1134 000e 7B68     		ldr	r3, [r7, #4]
 1135 0010 1B68     		ldr	r3, [r3]
 1136 0012 FB60     		str	r3, [r7, #12]
 340:g:/iot/IoT_Device_Demo/iot_link/network/lwm2m/wakaama_lwm2m/wakaama-master/core/er-coap-13\er-coap-13.c ****         dst->next = NULL;
 1137              		.loc 1 340 19
 1138 0014 7B68     		ldr	r3, [r7, #4]
 1139 0016 0022     		movs	r2, #0
 1140 0018 1A60     		str	r2, [r3]
 341:g:/iot/IoT_Device_Demo/iot_link/network/lwm2m/wakaama_lwm2m/wakaama-master/core/er-coap-13\er-coap-13.c ****         if (dst->is_static == 0)
 1141              		.loc 1 341 16
 1142 001a 7B68     		ldr	r3, [r7, #4]
 1143 001c 1B79     		ldrb	r3, [r3, #4]	@ zero_extendqisi2
 1144              		.loc 1 341 12
 1145 001e 002B     		cmp	r3, #0
 1146 0020 04D1     		bne	.L56
 342:g:/iot/IoT_Device_Demo/iot_link/network/lwm2m/wakaama_lwm2m/wakaama-master/core/er-coap-13\er-coap-13.c ****         {
 343:g:/iot/IoT_Device_Demo/iot_link/network/lwm2m/wakaama_lwm2m/wakaama-master/core/er-coap-13\er-coap-13.c ****             lwm2m_free(dst->data);
 1147              		.loc 1 343 27
 1148 0022 7B68     		ldr	r3, [r7, #4]
 1149 0024 9B68     		ldr	r3, [r3, #8]
 1150              		.loc 1 343 13
 1151 0026 1846     		mov	r0, r3
 1152 0028 FFF7FEFF 		bl	lwm2m_free
 1153              	.L56:
 344:g:/iot/IoT_Device_Demo/iot_link/network/lwm2m/wakaama_lwm2m/wakaama-master/core/er-coap-13\er-coap-13.c ****         }
 345:g:/iot/IoT_Device_Demo/iot_link/network/lwm2m/wakaama_lwm2m/wakaama-master/core/er-coap-13\er-coap-13.c ****         lwm2m_free(dst);
ARM GAS  C:\Users\ADMINI~1\AppData\Local\Temp\cc8DJu9v.s 			page 27


 1154              		.loc 1 345 9
 1155 002c 7868     		ldr	r0, [r7, #4]
 1156 002e FFF7FEFF 		bl	lwm2m_free
 346:g:/iot/IoT_Device_Demo/iot_link/network/lwm2m/wakaama_lwm2m/wakaama-master/core/er-coap-13\er-coap-13.c ****         free_multi_option(n);
 1157              		.loc 1 346 9
 1158 0032 F868     		ldr	r0, [r7, #12]
 1159 0034 FFF7FEFF 		bl	free_multi_option
 1160              	.L57:
 1161              	.LBE4:
 347:g:/iot/IoT_Device_Demo/iot_link/network/lwm2m/wakaama_lwm2m/wakaama-master/core/er-coap-13\er-coap-13.c ****     }
 348:g:/iot/IoT_Device_Demo/iot_link/network/lwm2m/wakaama_lwm2m/wakaama-master/core/er-coap-13\er-coap-13.c **** }
 1162              		.loc 1 348 1
 1163 0038 00BF     		nop
 1164 003a 1037     		adds	r7, r7, #16
 1165              	.LCFI51:
 1166              		.cfi_def_cfa_offset 8
 1167 003c BD46     		mov	sp, r7
 1168              	.LCFI52:
 1169              		.cfi_def_cfa_register 13
 1170              		@ sp needed
 1171 003e 80BD     		pop	{r7, pc}
 1172              		.cfi_endproc
 1173              	.LFE13:
 1175              		.section	.text.coap_get_multi_option_as_string,"ax",%progbits
 1176              		.align	1
 1177              		.global	coap_get_multi_option_as_string
 1178              		.syntax unified
 1179              		.thumb
 1180              		.thumb_func
 1181              		.fpu fpv4-sp-d16
 1183              	coap_get_multi_option_as_string:
 1184              	.LFB14:
 349:g:/iot/IoT_Device_Demo/iot_link/network/lwm2m/wakaama_lwm2m/wakaama-master/core/er-coap-13\er-coap-13.c **** 
 350:g:/iot/IoT_Device_Demo/iot_link/network/lwm2m/wakaama_lwm2m/wakaama-master/core/er-coap-13\er-coap-13.c **** char *coap_get_multi_option_as_string(multi_option_t *option)
 351:g:/iot/IoT_Device_Demo/iot_link/network/lwm2m/wakaama_lwm2m/wakaama-master/core/er-coap-13\er-coap-13.c **** {
 1185              		.loc 1 351 1
 1186              		.cfi_startproc
 1187              		@ args = 0, pretend = 0, frame = 24
 1188              		@ frame_needed = 1, uses_anonymous_args = 0
 1189 0000 80B5     		push	{r7, lr}
 1190              	.LCFI53:
 1191              		.cfi_def_cfa_offset 8
 1192              		.cfi_offset 7, -8
 1193              		.cfi_offset 14, -4
 1194 0002 86B0     		sub	sp, sp, #24
 1195              	.LCFI54:
 1196              		.cfi_def_cfa_offset 32
 1197 0004 00AF     		add	r7, sp, #0
 1198              	.LCFI55:
 1199              		.cfi_def_cfa_register 7
 1200 0006 7860     		str	r0, [r7, #4]
 352:g:/iot/IoT_Device_Demo/iot_link/network/lwm2m/wakaama_lwm2m/wakaama-master/core/er-coap-13\er-coap-13.c ****     size_t len = 0;
 1201              		.loc 1 352 12
 1202 0008 0023     		movs	r3, #0
 1203 000a 7B61     		str	r3, [r7, #20]
 353:g:/iot/IoT_Device_Demo/iot_link/network/lwm2m/wakaama_lwm2m/wakaama-master/core/er-coap-13\er-coap-13.c ****     multi_option_t *opt;
 354:g:/iot/IoT_Device_Demo/iot_link/network/lwm2m/wakaama_lwm2m/wakaama-master/core/er-coap-13\er-coap-13.c ****     char *output;
ARM GAS  C:\Users\ADMINI~1\AppData\Local\Temp\cc8DJu9v.s 			page 28


 355:g:/iot/IoT_Device_Demo/iot_link/network/lwm2m/wakaama_lwm2m/wakaama-master/core/er-coap-13\er-coap-13.c **** 
 356:g:/iot/IoT_Device_Demo/iot_link/network/lwm2m/wakaama_lwm2m/wakaama-master/core/er-coap-13\er-coap-13.c ****     for (opt = option; opt != NULL; opt = opt->next)
 1204              		.loc 1 356 14
 1205 000c 7B68     		ldr	r3, [r7, #4]
 1206 000e 3B61     		str	r3, [r7, #16]
 1207              		.loc 1 356 5
 1208 0010 09E0     		b	.L59
 1209              	.L60:
 357:g:/iot/IoT_Device_Demo/iot_link/network/lwm2m/wakaama_lwm2m/wakaama-master/core/er-coap-13\er-coap-13.c ****     {
 358:g:/iot/IoT_Device_Demo/iot_link/network/lwm2m/wakaama_lwm2m/wakaama-master/core/er-coap-13\er-coap-13.c ****         len += opt->len + 1;     // for separator
 1210              		.loc 1 358 19 discriminator 3
 1211 0012 3B69     		ldr	r3, [r7, #16]
 1212 0014 5B79     		ldrb	r3, [r3, #5]	@ zero_extendqisi2
 1213              		.loc 1 358 13 discriminator 3
 1214 0016 1A46     		mov	r2, r3
 1215 0018 7B69     		ldr	r3, [r7, #20]
 1216 001a 1344     		add	r3, r3, r2
 1217 001c 0133     		adds	r3, r3, #1
 1218 001e 7B61     		str	r3, [r7, #20]
 356:g:/iot/IoT_Device_Demo/iot_link/network/lwm2m/wakaama_lwm2m/wakaama-master/core/er-coap-13\er-coap-13.c ****     {
 1219              		.loc 1 356 41 discriminator 3
 1220 0020 3B69     		ldr	r3, [r7, #16]
 1221 0022 1B68     		ldr	r3, [r3]
 1222 0024 3B61     		str	r3, [r7, #16]
 1223              	.L59:
 356:g:/iot/IoT_Device_Demo/iot_link/network/lwm2m/wakaama_lwm2m/wakaama-master/core/er-coap-13\er-coap-13.c ****     {
 1224              		.loc 1 356 5 discriminator 1
 1225 0026 3B69     		ldr	r3, [r7, #16]
 1226 0028 002B     		cmp	r3, #0
 1227 002a F2D1     		bne	.L60
 359:g:/iot/IoT_Device_Demo/iot_link/network/lwm2m/wakaama_lwm2m/wakaama-master/core/er-coap-13\er-coap-13.c ****     }
 360:g:/iot/IoT_Device_Demo/iot_link/network/lwm2m/wakaama_lwm2m/wakaama-master/core/er-coap-13\er-coap-13.c **** 
 361:g:/iot/IoT_Device_Demo/iot_link/network/lwm2m/wakaama_lwm2m/wakaama-master/core/er-coap-13\er-coap-13.c ****     output = lwm2m_malloc(len + 1); // for String terminator
 1228              		.loc 1 361 14
 1229 002c 7B69     		ldr	r3, [r7, #20]
 1230 002e 0133     		adds	r3, r3, #1
 1231 0030 1846     		mov	r0, r3
 1232 0032 FFF7FEFF 		bl	lwm2m_malloc
 1233 0036 B860     		str	r0, [r7, #8]
 362:g:/iot/IoT_Device_Demo/iot_link/network/lwm2m/wakaama_lwm2m/wakaama-master/core/er-coap-13\er-coap-13.c ****     if (output != NULL)
 1234              		.loc 1 362 8
 1235 0038 BB68     		ldr	r3, [r7, #8]
 1236 003a 002B     		cmp	r3, #0
 1237 003c 27D0     		beq	.L61
 1238              	.LBB5:
 363:g:/iot/IoT_Device_Demo/iot_link/network/lwm2m/wakaama_lwm2m/wakaama-master/core/er-coap-13\er-coap-13.c ****     {
 364:g:/iot/IoT_Device_Demo/iot_link/network/lwm2m/wakaama_lwm2m/wakaama-master/core/er-coap-13\er-coap-13.c ****         size_t i = 0;
 1239              		.loc 1 364 16
 1240 003e 0023     		movs	r3, #0
 1241 0040 FB60     		str	r3, [r7, #12]
 365:g:/iot/IoT_Device_Demo/iot_link/network/lwm2m/wakaama_lwm2m/wakaama-master/core/er-coap-13\er-coap-13.c **** 
 366:g:/iot/IoT_Device_Demo/iot_link/network/lwm2m/wakaama_lwm2m/wakaama-master/core/er-coap-13\er-coap-13.c ****         for (opt = option; opt != NULL; opt = opt->next)
 1242              		.loc 1 366 18
 1243 0042 7B68     		ldr	r3, [r7, #4]
 1244 0044 3B61     		str	r3, [r7, #16]
 1245              		.loc 1 366 9
 1246 0046 1AE0     		b	.L62
ARM GAS  C:\Users\ADMINI~1\AppData\Local\Temp\cc8DJu9v.s 			page 29


 1247              	.L63:
 367:g:/iot/IoT_Device_Demo/iot_link/network/lwm2m/wakaama_lwm2m/wakaama-master/core/er-coap-13\er-coap-13.c ****         {
 368:g:/iot/IoT_Device_Demo/iot_link/network/lwm2m/wakaama_lwm2m/wakaama-master/core/er-coap-13\er-coap-13.c ****             output[i] = '/';
 1248              		.loc 1 368 19 discriminator 3
 1249 0048 BA68     		ldr	r2, [r7, #8]
 1250 004a FB68     		ldr	r3, [r7, #12]
 1251 004c 1344     		add	r3, r3, r2
 1252              		.loc 1 368 23 discriminator 3
 1253 004e 2F22     		movs	r2, #47
 1254 0050 1A70     		strb	r2, [r3]
 369:g:/iot/IoT_Device_Demo/iot_link/network/lwm2m/wakaama_lwm2m/wakaama-master/core/er-coap-13\er-coap-13.c ****             i += 1;
 1255              		.loc 1 369 15 discriminator 3
 1256 0052 FB68     		ldr	r3, [r7, #12]
 1257 0054 0133     		adds	r3, r3, #1
 1258 0056 FB60     		str	r3, [r7, #12]
 370:g:/iot/IoT_Device_Demo/iot_link/network/lwm2m/wakaama_lwm2m/wakaama-master/core/er-coap-13\er-coap-13.c **** 
 371:g:/iot/IoT_Device_Demo/iot_link/network/lwm2m/wakaama_lwm2m/wakaama-master/core/er-coap-13\er-coap-13.c ****             memmove(output + i, opt->data, opt->len);
 1259              		.loc 1 371 28 discriminator 3
 1260 0058 BA68     		ldr	r2, [r7, #8]
 1261 005a FB68     		ldr	r3, [r7, #12]
 1262 005c D018     		adds	r0, r2, r3
 1263              		.loc 1 371 36 discriminator 3
 1264 005e 3B69     		ldr	r3, [r7, #16]
 1265 0060 9968     		ldr	r1, [r3, #8]
 1266              		.loc 1 371 47 discriminator 3
 1267 0062 3B69     		ldr	r3, [r7, #16]
 1268 0064 5B79     		ldrb	r3, [r3, #5]	@ zero_extendqisi2
 1269              		.loc 1 371 13 discriminator 3
 1270 0066 1A46     		mov	r2, r3
 1271 0068 FFF7FEFF 		bl	memmove
 372:g:/iot/IoT_Device_Demo/iot_link/network/lwm2m/wakaama_lwm2m/wakaama-master/core/er-coap-13\er-coap-13.c ****             i += opt->len;
 1272              		.loc 1 372 21 discriminator 3
 1273 006c 3B69     		ldr	r3, [r7, #16]
 1274 006e 5B79     		ldrb	r3, [r3, #5]	@ zero_extendqisi2
 1275 0070 1A46     		mov	r2, r3
 1276              		.loc 1 372 15 discriminator 3
 1277 0072 FB68     		ldr	r3, [r7, #12]
 1278 0074 1344     		add	r3, r3, r2
 1279 0076 FB60     		str	r3, [r7, #12]
 366:g:/iot/IoT_Device_Demo/iot_link/network/lwm2m/wakaama_lwm2m/wakaama-master/core/er-coap-13\er-coap-13.c ****         {
 1280              		.loc 1 366 45 discriminator 3
 1281 0078 3B69     		ldr	r3, [r7, #16]
 1282 007a 1B68     		ldr	r3, [r3]
 1283 007c 3B61     		str	r3, [r7, #16]
 1284              	.L62:
 366:g:/iot/IoT_Device_Demo/iot_link/network/lwm2m/wakaama_lwm2m/wakaama-master/core/er-coap-13\er-coap-13.c ****         {
 1285              		.loc 1 366 9 discriminator 1
 1286 007e 3B69     		ldr	r3, [r7, #16]
 1287 0080 002B     		cmp	r3, #0
 1288 0082 E1D1     		bne	.L63
 373:g:/iot/IoT_Device_Demo/iot_link/network/lwm2m/wakaama_lwm2m/wakaama-master/core/er-coap-13\er-coap-13.c ****         }
 374:g:/iot/IoT_Device_Demo/iot_link/network/lwm2m/wakaama_lwm2m/wakaama-master/core/er-coap-13\er-coap-13.c ****         output[i] = 0;
 1289              		.loc 1 374 15
 1290 0084 BA68     		ldr	r2, [r7, #8]
 1291 0086 FB68     		ldr	r3, [r7, #12]
 1292 0088 1344     		add	r3, r3, r2
 1293              		.loc 1 374 19
ARM GAS  C:\Users\ADMINI~1\AppData\Local\Temp\cc8DJu9v.s 			page 30


 1294 008a 0022     		movs	r2, #0
 1295 008c 1A70     		strb	r2, [r3]
 1296              	.L61:
 1297              	.LBE5:
 375:g:/iot/IoT_Device_Demo/iot_link/network/lwm2m/wakaama_lwm2m/wakaama-master/core/er-coap-13\er-coap-13.c ****     }
 376:g:/iot/IoT_Device_Demo/iot_link/network/lwm2m/wakaama_lwm2m/wakaama-master/core/er-coap-13\er-coap-13.c **** 
 377:g:/iot/IoT_Device_Demo/iot_link/network/lwm2m/wakaama_lwm2m/wakaama-master/core/er-coap-13\er-coap-13.c ****     return output;
 1298              		.loc 1 377 12
 1299 008e BB68     		ldr	r3, [r7, #8]
 378:g:/iot/IoT_Device_Demo/iot_link/network/lwm2m/wakaama_lwm2m/wakaama-master/core/er-coap-13\er-coap-13.c **** }
 1300              		.loc 1 378 1
 1301 0090 1846     		mov	r0, r3
 1302 0092 1837     		adds	r7, r7, #24
 1303              	.LCFI56:
 1304              		.cfi_def_cfa_offset 8
 1305 0094 BD46     		mov	sp, r7
 1306              	.LCFI57:
 1307              		.cfi_def_cfa_register 13
 1308              		@ sp needed
 1309 0096 80BD     		pop	{r7, pc}
 1310              		.cfi_endproc
 1311              	.LFE14:
 1313              		.section	.text.coap_get_variable,"ax",%progbits
 1314              		.align	1
 1315              		.syntax unified
 1316              		.thumb
 1317              		.thumb_func
 1318              		.fpu fpv4-sp-d16
 1320              	coap_get_variable:
 1321              	.LFB15:
 379:g:/iot/IoT_Device_Demo/iot_link/network/lwm2m/wakaama_lwm2m/wakaama-master/core/er-coap-13\er-coap-13.c **** 
 380:g:/iot/IoT_Device_Demo/iot_link/network/lwm2m/wakaama_lwm2m/wakaama-master/core/er-coap-13\er-coap-13.c **** /*-----------------------------------------------------------------------------------*/
 381:g:/iot/IoT_Device_Demo/iot_link/network/lwm2m/wakaama_lwm2m/wakaama-master/core/er-coap-13\er-coap-13.c **** static
 382:g:/iot/IoT_Device_Demo/iot_link/network/lwm2m/wakaama_lwm2m/wakaama-master/core/er-coap-13\er-coap-13.c **** int
 383:g:/iot/IoT_Device_Demo/iot_link/network/lwm2m/wakaama_lwm2m/wakaama-master/core/er-coap-13\er-coap-13.c **** coap_get_variable(const uint8_t *buffer, size_t length, const char *name, const char **output)
 384:g:/iot/IoT_Device_Demo/iot_link/network/lwm2m/wakaama_lwm2m/wakaama-master/core/er-coap-13\er-coap-13.c **** {
 1322              		.loc 1 384 1
 1323              		.cfi_startproc
 1324              		@ args = 0, pretend = 0, frame = 32
 1325              		@ frame_needed = 1, uses_anonymous_args = 0
 1326 0000 80B5     		push	{r7, lr}
 1327              	.LCFI58:
 1328              		.cfi_def_cfa_offset 8
 1329              		.cfi_offset 7, -8
 1330              		.cfi_offset 14, -4
 1331 0002 88B0     		sub	sp, sp, #32
 1332              	.LCFI59:
 1333              		.cfi_def_cfa_offset 40
 1334 0004 00AF     		add	r7, sp, #0
 1335              	.LCFI60:
 1336              		.cfi_def_cfa_register 7
 1337 0006 F860     		str	r0, [r7, #12]
 1338 0008 B960     		str	r1, [r7, #8]
 1339 000a 7A60     		str	r2, [r7, #4]
 1340 000c 3B60     		str	r3, [r7]
 385:g:/iot/IoT_Device_Demo/iot_link/network/lwm2m/wakaama_lwm2m/wakaama-master/core/er-coap-13\er-coap-13.c ****     const uint8_t *start = NULL;
 1341              		.loc 1 385 20
ARM GAS  C:\Users\ADMINI~1\AppData\Local\Temp\cc8DJu9v.s 			page 31


 1342 000e 0023     		movs	r3, #0
 1343 0010 FB61     		str	r3, [r7, #28]
 386:g:/iot/IoT_Device_Demo/iot_link/network/lwm2m/wakaama_lwm2m/wakaama-master/core/er-coap-13\er-coap-13.c ****     const uint8_t *end = NULL;
 1344              		.loc 1 386 20
 1345 0012 0023     		movs	r3, #0
 1346 0014 7B61     		str	r3, [r7, #20]
 387:g:/iot/IoT_Device_Demo/iot_link/network/lwm2m/wakaama_lwm2m/wakaama-master/core/er-coap-13\er-coap-13.c ****     const uint8_t *value_end = NULL;
 1347              		.loc 1 387 20
 1348 0016 0023     		movs	r3, #0
 1349 0018 BB61     		str	r3, [r7, #24]
 388:g:/iot/IoT_Device_Demo/iot_link/network/lwm2m/wakaama_lwm2m/wakaama-master/core/er-coap-13\er-coap-13.c ****     size_t name_len = 0;
 1350              		.loc 1 388 12
 1351 001a 0023     		movs	r3, #0
 1352 001c 3B61     		str	r3, [r7, #16]
 389:g:/iot/IoT_Device_Demo/iot_link/network/lwm2m/wakaama_lwm2m/wakaama-master/core/er-coap-13\er-coap-13.c **** 
 390:g:/iot/IoT_Device_Demo/iot_link/network/lwm2m/wakaama_lwm2m/wakaama-master/core/er-coap-13\er-coap-13.c ****     /*initialize the output buffer first*/
 391:g:/iot/IoT_Device_Demo/iot_link/network/lwm2m/wakaama_lwm2m/wakaama-master/core/er-coap-13\er-coap-13.c ****     *output = 0;
 1353              		.loc 1 391 13
 1354 001e 3B68     		ldr	r3, [r7]
 1355 0020 0022     		movs	r2, #0
 1356 0022 1A60     		str	r2, [r3]
 392:g:/iot/IoT_Device_Demo/iot_link/network/lwm2m/wakaama_lwm2m/wakaama-master/core/er-coap-13\er-coap-13.c **** 
 393:g:/iot/IoT_Device_Demo/iot_link/network/lwm2m/wakaama_lwm2m/wakaama-master/core/er-coap-13\er-coap-13.c ****     name_len = strlen(name);
 1357              		.loc 1 393 16
 1358 0024 7868     		ldr	r0, [r7, #4]
 1359 0026 FFF7FEFF 		bl	strlen
 1360 002a 3861     		str	r0, [r7, #16]
 394:g:/iot/IoT_Device_Demo/iot_link/network/lwm2m/wakaama_lwm2m/wakaama-master/core/er-coap-13\er-coap-13.c ****     end = buffer + length;
 1361              		.loc 1 394 9
 1362 002c FA68     		ldr	r2, [r7, #12]
 1363 002e BB68     		ldr	r3, [r7, #8]
 1364 0030 1344     		add	r3, r3, r2
 1365 0032 7B61     		str	r3, [r7, #20]
 395:g:/iot/IoT_Device_Demo/iot_link/network/lwm2m/wakaama_lwm2m/wakaama-master/core/er-coap-13\er-coap-13.c **** 
 396:g:/iot/IoT_Device_Demo/iot_link/network/lwm2m/wakaama_lwm2m/wakaama-master/core/er-coap-13\er-coap-13.c ****     for (start = buffer; start + name_len < end; ++start)
 1366              		.loc 1 396 16
 1367 0034 FB68     		ldr	r3, [r7, #12]
 1368 0036 FB61     		str	r3, [r7, #28]
 1369              		.loc 1 396 5
 1370 0038 33E0     		b	.L66
 1371              	.L71:
 397:g:/iot/IoT_Device_Demo/iot_link/network/lwm2m/wakaama_lwm2m/wakaama-master/core/er-coap-13\er-coap-13.c ****     {
 398:g:/iot/IoT_Device_Demo/iot_link/network/lwm2m/wakaama_lwm2m/wakaama-master/core/er-coap-13\er-coap-13.c ****         if ((start == buffer || start[-1] == '&') && start[name_len] == '=' &&
 1372              		.loc 1 398 12
 1373 003a FA69     		ldr	r2, [r7, #28]
 1374 003c FB68     		ldr	r3, [r7, #12]
 1375 003e 9A42     		cmp	r2, r3
 1376 0040 04D0     		beq	.L67
 1377              		.loc 1 398 38 discriminator 2
 1378 0042 FB69     		ldr	r3, [r7, #28]
 1379 0044 013B     		subs	r3, r3, #1
 1380 0046 1B78     		ldrb	r3, [r3]	@ zero_extendqisi2
 1381              		.loc 1 398 30 discriminator 2
 1382 0048 262B     		cmp	r3, #38
 1383 004a 27D1     		bne	.L68
 1384              	.L67:
 1385              		.loc 1 398 59 discriminator 3
ARM GAS  C:\Users\ADMINI~1\AppData\Local\Temp\cc8DJu9v.s 			page 32


 1386 004c FA69     		ldr	r2, [r7, #28]
 1387 004e 3B69     		ldr	r3, [r7, #16]
 1388 0050 1344     		add	r3, r3, r2
 1389 0052 1B78     		ldrb	r3, [r3]	@ zero_extendqisi2
 1390              		.loc 1 398 51 discriminator 3
 1391 0054 3D2B     		cmp	r3, #61
 1392 0056 21D1     		bne	.L68
 399:g:/iot/IoT_Device_Demo/iot_link/network/lwm2m/wakaama_lwm2m/wakaama-master/core/er-coap-13\er-coap-13.c ****                 strncmp(name, (char *)start, name_len) == 0)
 1393              		.loc 1 399 17 discriminator 4
 1394 0058 3A69     		ldr	r2, [r7, #16]
 1395 005a F969     		ldr	r1, [r7, #28]
 1396 005c 7868     		ldr	r0, [r7, #4]
 1397 005e FFF7FEFF 		bl	strncmp
 1398 0062 0346     		mov	r3, r0
 398:g:/iot/IoT_Device_Demo/iot_link/network/lwm2m/wakaama_lwm2m/wakaama-master/core/er-coap-13\er-coap-13.c ****                 strncmp(name, (char *)start, name_len) == 0)
 1399              		.loc 1 398 77 discriminator 4
 1400 0064 002B     		cmp	r3, #0
 1401 0066 19D1     		bne	.L68
 400:g:/iot/IoT_Device_Demo/iot_link/network/lwm2m/wakaama_lwm2m/wakaama-master/core/er-coap-13\er-coap-13.c ****         {
 401:g:/iot/IoT_Device_Demo/iot_link/network/lwm2m/wakaama_lwm2m/wakaama-master/core/er-coap-13\er-coap-13.c **** 
 402:g:/iot/IoT_Device_Demo/iot_link/network/lwm2m/wakaama_lwm2m/wakaama-master/core/er-coap-13\er-coap-13.c ****             /* Point start to variable value */
 403:g:/iot/IoT_Device_Demo/iot_link/network/lwm2m/wakaama_lwm2m/wakaama-master/core/er-coap-13\er-coap-13.c ****             start += name_len + 1;
 1402              		.loc 1 403 19
 1403 0068 3B69     		ldr	r3, [r7, #16]
 1404 006a 0133     		adds	r3, r3, #1
 1405 006c FA69     		ldr	r2, [r7, #28]
 1406 006e 1344     		add	r3, r3, r2
 1407 0070 FB61     		str	r3, [r7, #28]
 404:g:/iot/IoT_Device_Demo/iot_link/network/lwm2m/wakaama_lwm2m/wakaama-master/core/er-coap-13\er-coap-13.c **** 
 405:g:/iot/IoT_Device_Demo/iot_link/network/lwm2m/wakaama_lwm2m/wakaama-master/core/er-coap-13\er-coap-13.c ****             /* Point end to the end of the value */
 406:g:/iot/IoT_Device_Demo/iot_link/network/lwm2m/wakaama_lwm2m/wakaama-master/core/er-coap-13\er-coap-13.c ****             value_end = (const uint8_t *) memchr(start, '&', end - start);
 1408              		.loc 1 406 66
 1409 0072 7A69     		ldr	r2, [r7, #20]
 1410 0074 FB69     		ldr	r3, [r7, #28]
 1411 0076 D31A     		subs	r3, r2, r3
 1412              		.loc 1 406 43
 1413 0078 1A46     		mov	r2, r3
 1414 007a 2621     		movs	r1, #38
 1415 007c F869     		ldr	r0, [r7, #28]
 1416 007e FFF7FEFF 		bl	memchr
 1417 0082 B861     		str	r0, [r7, #24]
 407:g:/iot/IoT_Device_Demo/iot_link/network/lwm2m/wakaama_lwm2m/wakaama-master/core/er-coap-13\er-coap-13.c ****             if (value_end == NULL)
 1418              		.loc 1 407 16
 1419 0084 BB69     		ldr	r3, [r7, #24]
 1420 0086 002B     		cmp	r3, #0
 1421 0088 01D1     		bne	.L69
 408:g:/iot/IoT_Device_Demo/iot_link/network/lwm2m/wakaama_lwm2m/wakaama-master/core/er-coap-13\er-coap-13.c ****             {
 409:g:/iot/IoT_Device_Demo/iot_link/network/lwm2m/wakaama_lwm2m/wakaama-master/core/er-coap-13\er-coap-13.c ****                 value_end = end;
 1422              		.loc 1 409 27
 1423 008a 7B69     		ldr	r3, [r7, #20]
 1424 008c BB61     		str	r3, [r7, #24]
 1425              	.L69:
 410:g:/iot/IoT_Device_Demo/iot_link/network/lwm2m/wakaama_lwm2m/wakaama-master/core/er-coap-13\er-coap-13.c ****             }
 411:g:/iot/IoT_Device_Demo/iot_link/network/lwm2m/wakaama_lwm2m/wakaama-master/core/er-coap-13\er-coap-13.c **** 
 412:g:/iot/IoT_Device_Demo/iot_link/network/lwm2m/wakaama_lwm2m/wakaama-master/core/er-coap-13\er-coap-13.c ****             *output = (char *)start;
 1426              		.loc 1 412 21
 1427 008e 3B68     		ldr	r3, [r7]
ARM GAS  C:\Users\ADMINI~1\AppData\Local\Temp\cc8DJu9v.s 			page 33


 1428 0090 FA69     		ldr	r2, [r7, #28]
 1429 0092 1A60     		str	r2, [r3]
 413:g:/iot/IoT_Device_Demo/iot_link/network/lwm2m/wakaama_lwm2m/wakaama-master/core/er-coap-13\er-coap-13.c **** 
 414:g:/iot/IoT_Device_Demo/iot_link/network/lwm2m/wakaama_lwm2m/wakaama-master/core/er-coap-13\er-coap-13.c ****             return (value_end - start);
 1430              		.loc 1 414 31
 1431 0094 BA69     		ldr	r2, [r7, #24]
 1432 0096 FB69     		ldr	r3, [r7, #28]
 1433 0098 D31A     		subs	r3, r2, r3
 1434 009a 09E0     		b	.L70
 1435              	.L68:
 396:g:/iot/IoT_Device_Demo/iot_link/network/lwm2m/wakaama_lwm2m/wakaama-master/core/er-coap-13\er-coap-13.c ****     {
 1436              		.loc 1 396 50 discriminator 2
 1437 009c FB69     		ldr	r3, [r7, #28]
 1438 009e 0133     		adds	r3, r3, #1
 1439 00a0 FB61     		str	r3, [r7, #28]
 1440              	.L66:
 396:g:/iot/IoT_Device_Demo/iot_link/network/lwm2m/wakaama_lwm2m/wakaama-master/core/er-coap-13\er-coap-13.c ****     {
 1441              		.loc 1 396 32 discriminator 1
 1442 00a2 FA69     		ldr	r2, [r7, #28]
 1443 00a4 3B69     		ldr	r3, [r7, #16]
 1444 00a6 1344     		add	r3, r3, r2
 396:g:/iot/IoT_Device_Demo/iot_link/network/lwm2m/wakaama_lwm2m/wakaama-master/core/er-coap-13\er-coap-13.c ****     {
 1445              		.loc 1 396 5 discriminator 1
 1446 00a8 7A69     		ldr	r2, [r7, #20]
 1447 00aa 9A42     		cmp	r2, r3
 1448 00ac C5D8     		bhi	.L71
 415:g:/iot/IoT_Device_Demo/iot_link/network/lwm2m/wakaama_lwm2m/wakaama-master/core/er-coap-13\er-coap-13.c ****         }
 416:g:/iot/IoT_Device_Demo/iot_link/network/lwm2m/wakaama_lwm2m/wakaama-master/core/er-coap-13\er-coap-13.c ****     }
 417:g:/iot/IoT_Device_Demo/iot_link/network/lwm2m/wakaama_lwm2m/wakaama-master/core/er-coap-13\er-coap-13.c **** 
 418:g:/iot/IoT_Device_Demo/iot_link/network/lwm2m/wakaama_lwm2m/wakaama-master/core/er-coap-13\er-coap-13.c ****     return 0;
 1449              		.loc 1 418 12
 1450 00ae 0023     		movs	r3, #0
 1451              	.L70:
 419:g:/iot/IoT_Device_Demo/iot_link/network/lwm2m/wakaama_lwm2m/wakaama-master/core/er-coap-13\er-coap-13.c **** }
 1452              		.loc 1 419 1
 1453 00b0 1846     		mov	r0, r3
 1454 00b2 2037     		adds	r7, r7, #32
 1455              	.LCFI61:
 1456              		.cfi_def_cfa_offset 8
 1457 00b4 BD46     		mov	sp, r7
 1458              	.LCFI62:
 1459              		.cfi_def_cfa_register 13
 1460              		@ sp needed
 1461 00b6 80BD     		pop	{r7, pc}
 1462              		.cfi_endproc
 1463              	.LFE15:
 1465              		.section	.text.coap_get_mid,"ax",%progbits
 1466              		.align	1
 1467              		.global	coap_get_mid
 1468              		.syntax unified
 1469              		.thumb
 1470              		.thumb_func
 1471              		.fpu fpv4-sp-d16
 1473              	coap_get_mid:
 1474              	.LFB16:
 420:g:/iot/IoT_Device_Demo/iot_link/network/lwm2m/wakaama_lwm2m/wakaama-master/core/er-coap-13\er-coap-13.c **** 
 421:g:/iot/IoT_Device_Demo/iot_link/network/lwm2m/wakaama_lwm2m/wakaama-master/core/er-coap-13\er-coap-13.c **** /*-----------------------------------------------------------------------------------*/
ARM GAS  C:\Users\ADMINI~1\AppData\Local\Temp\cc8DJu9v.s 			page 34


 422:g:/iot/IoT_Device_Demo/iot_link/network/lwm2m/wakaama_lwm2m/wakaama-master/core/er-coap-13\er-coap-13.c **** uint16_t
 423:g:/iot/IoT_Device_Demo/iot_link/network/lwm2m/wakaama_lwm2m/wakaama-master/core/er-coap-13\er-coap-13.c **** coap_get_mid()
 424:g:/iot/IoT_Device_Demo/iot_link/network/lwm2m/wakaama_lwm2m/wakaama-master/core/er-coap-13\er-coap-13.c **** {
 1475              		.loc 1 424 1
 1476              		.cfi_startproc
 1477              		@ args = 0, pretend = 0, frame = 0
 1478              		@ frame_needed = 1, uses_anonymous_args = 0
 1479              		@ link register save eliminated.
 1480 0000 80B4     		push	{r7}
 1481              	.LCFI63:
 1482              		.cfi_def_cfa_offset 4
 1483              		.cfi_offset 7, -4
 1484 0002 00AF     		add	r7, sp, #0
 1485              	.LCFI64:
 1486              		.cfi_def_cfa_register 7
 425:g:/iot/IoT_Device_Demo/iot_link/network/lwm2m/wakaama_lwm2m/wakaama-master/core/er-coap-13\er-coap-13.c ****     return ++current_mid;
 1487              		.loc 1 425 12
 1488 0004 064B     		ldr	r3, .L74
 1489 0006 1B88     		ldrh	r3, [r3]
 1490 0008 0133     		adds	r3, r3, #1
 1491 000a 9AB2     		uxth	r2, r3
 1492 000c 044B     		ldr	r3, .L74
 1493 000e 1A80     		strh	r2, [r3]	@ movhi
 1494 0010 034B     		ldr	r3, .L74
 1495 0012 1B88     		ldrh	r3, [r3]
 426:g:/iot/IoT_Device_Demo/iot_link/network/lwm2m/wakaama_lwm2m/wakaama-master/core/er-coap-13\er-coap-13.c **** }
 1496              		.loc 1 426 1
 1497 0014 1846     		mov	r0, r3
 1498 0016 BD46     		mov	sp, r7
 1499              	.LCFI65:
 1500              		.cfi_def_cfa_register 13
 1501              		@ sp needed
 1502 0018 5DF8047B 		ldr	r7, [sp], #4
 1503              	.LCFI66:
 1504              		.cfi_restore 7
 1505              		.cfi_def_cfa_offset 0
 1506 001c 7047     		bx	lr
 1507              	.L75:
 1508 001e 00BF     		.align	2
 1509              	.L74:
 1510 0020 00000000 		.word	current_mid
 1511              		.cfi_endproc
 1512              	.LFE16:
 1514              		.section	.text.coap_init_message,"ax",%progbits
 1515              		.align	1
 1516              		.global	coap_init_message
 1517              		.syntax unified
 1518              		.thumb
 1519              		.thumb_func
 1520              		.fpu fpv4-sp-d16
 1522              	coap_init_message:
 1523              	.LFB17:
 427:g:/iot/IoT_Device_Demo/iot_link/network/lwm2m/wakaama_lwm2m/wakaama-master/core/er-coap-13\er-coap-13.c **** /*-----------------------------------------------------------------------------------*/
 428:g:/iot/IoT_Device_Demo/iot_link/network/lwm2m/wakaama_lwm2m/wakaama-master/core/er-coap-13\er-coap-13.c **** /*- MEASSAGE PROCESSING -------------------------------------------------------------*/
 429:g:/iot/IoT_Device_Demo/iot_link/network/lwm2m/wakaama_lwm2m/wakaama-master/core/er-coap-13\er-coap-13.c **** /*-----------------------------------------------------------------------------------*/
 430:g:/iot/IoT_Device_Demo/iot_link/network/lwm2m/wakaama_lwm2m/wakaama-master/core/er-coap-13\er-coap-13.c **** void
 431:g:/iot/IoT_Device_Demo/iot_link/network/lwm2m/wakaama_lwm2m/wakaama-master/core/er-coap-13\er-coap-13.c **** coap_init_message(void *packet, coap_message_type_t type, uint8_t code, uint16_t mid)
ARM GAS  C:\Users\ADMINI~1\AppData\Local\Temp\cc8DJu9v.s 			page 35


 432:g:/iot/IoT_Device_Demo/iot_link/network/lwm2m/wakaama_lwm2m/wakaama-master/core/er-coap-13\er-coap-13.c **** {
 1524              		.loc 1 432 1
 1525              		.cfi_startproc
 1526              		@ args = 0, pretend = 0, frame = 16
 1527              		@ frame_needed = 1, uses_anonymous_args = 0
 1528 0000 80B5     		push	{r7, lr}
 1529              	.LCFI67:
 1530              		.cfi_def_cfa_offset 8
 1531              		.cfi_offset 7, -8
 1532              		.cfi_offset 14, -4
 1533 0002 84B0     		sub	sp, sp, #16
 1534              	.LCFI68:
 1535              		.cfi_def_cfa_offset 24
 1536 0004 00AF     		add	r7, sp, #0
 1537              	.LCFI69:
 1538              		.cfi_def_cfa_register 7
 1539 0006 7860     		str	r0, [r7, #4]
 1540 0008 0846     		mov	r0, r1
 1541 000a 1146     		mov	r1, r2
 1542 000c 1A46     		mov	r2, r3
 1543 000e 0346     		mov	r3, r0
 1544 0010 FB70     		strb	r3, [r7, #3]
 1545 0012 0B46     		mov	r3, r1
 1546 0014 BB70     		strb	r3, [r7, #2]
 1547 0016 1346     		mov	r3, r2	@ movhi
 1548 0018 3B80     		strh	r3, [r7]	@ movhi
 433:g:/iot/IoT_Device_Demo/iot_link/network/lwm2m/wakaama_lwm2m/wakaama-master/core/er-coap-13\er-coap-13.c ****     coap_packet_t *const coap_pkt = (coap_packet_t *) packet;
 1549              		.loc 1 433 26
 1550 001a 7B68     		ldr	r3, [r7, #4]
 1551 001c FB60     		str	r3, [r7, #12]
 434:g:/iot/IoT_Device_Demo/iot_link/network/lwm2m/wakaama_lwm2m/wakaama-master/core/er-coap-13\er-coap-13.c **** 
 435:g:/iot/IoT_Device_Demo/iot_link/network/lwm2m/wakaama_lwm2m/wakaama-master/core/er-coap-13\er-coap-13.c ****     /* Important thing */
 436:g:/iot/IoT_Device_Demo/iot_link/network/lwm2m/wakaama_lwm2m/wakaama-master/core/er-coap-13\er-coap-13.c ****     memset(coap_pkt, 0, sizeof(coap_packet_t));
 1552              		.loc 1 436 5
 1553 001e 8C22     		movs	r2, #140
 1554 0020 0021     		movs	r1, #0
 1555 0022 F868     		ldr	r0, [r7, #12]
 1556 0024 FFF7FEFF 		bl	memset
 437:g:/iot/IoT_Device_Demo/iot_link/network/lwm2m/wakaama_lwm2m/wakaama-master/core/er-coap-13\er-coap-13.c **** 
 438:g:/iot/IoT_Device_Demo/iot_link/network/lwm2m/wakaama_lwm2m/wakaama-master/core/er-coap-13\er-coap-13.c ****     coap_pkt->type = type;
 1557              		.loc 1 438 20
 1558 0028 FB68     		ldr	r3, [r7, #12]
 1559 002a FA78     		ldrb	r2, [r7, #3]
 1560 002c 5A71     		strb	r2, [r3, #5]
 439:g:/iot/IoT_Device_Demo/iot_link/network/lwm2m/wakaama_lwm2m/wakaama-master/core/er-coap-13\er-coap-13.c ****     coap_pkt->code = code;
 1561              		.loc 1 439 20
 1562 002e FB68     		ldr	r3, [r7, #12]
 1563 0030 BA78     		ldrb	r2, [r7, #2]
 1564 0032 9A71     		strb	r2, [r3, #6]
 440:g:/iot/IoT_Device_Demo/iot_link/network/lwm2m/wakaama_lwm2m/wakaama-master/core/er-coap-13\er-coap-13.c ****     coap_pkt->mid = mid;
 1565              		.loc 1 440 19
 1566 0034 FB68     		ldr	r3, [r7, #12]
 1567 0036 3A88     		ldrh	r2, [r7]	@ movhi
 1568 0038 1A81     		strh	r2, [r3, #8]	@ movhi
 441:g:/iot/IoT_Device_Demo/iot_link/network/lwm2m/wakaama_lwm2m/wakaama-master/core/er-coap-13\er-coap-13.c **** }
 1569              		.loc 1 441 1
 1570 003a 00BF     		nop
ARM GAS  C:\Users\ADMINI~1\AppData\Local\Temp\cc8DJu9v.s 			page 36


 1571 003c 1037     		adds	r7, r7, #16
 1572              	.LCFI70:
 1573              		.cfi_def_cfa_offset 8
 1574 003e BD46     		mov	sp, r7
 1575              	.LCFI71:
 1576              		.cfi_def_cfa_register 13
 1577              		@ sp needed
 1578 0040 80BD     		pop	{r7, pc}
 1579              		.cfi_endproc
 1580              	.LFE17:
 1582              		.section	.text.coap_free_header,"ax",%progbits
 1583              		.align	1
 1584              		.global	coap_free_header
 1585              		.syntax unified
 1586              		.thumb
 1587              		.thumb_func
 1588              		.fpu fpv4-sp-d16
 1590              	coap_free_header:
 1591              	.LFB18:
 442:g:/iot/IoT_Device_Demo/iot_link/network/lwm2m/wakaama_lwm2m/wakaama-master/core/er-coap-13\er-coap-13.c **** 
 443:g:/iot/IoT_Device_Demo/iot_link/network/lwm2m/wakaama_lwm2m/wakaama-master/core/er-coap-13\er-coap-13.c **** void
 444:g:/iot/IoT_Device_Demo/iot_link/network/lwm2m/wakaama_lwm2m/wakaama-master/core/er-coap-13\er-coap-13.c **** coap_free_header(void *packet)
 445:g:/iot/IoT_Device_Demo/iot_link/network/lwm2m/wakaama_lwm2m/wakaama-master/core/er-coap-13\er-coap-13.c **** {
 1592              		.loc 1 445 1
 1593              		.cfi_startproc
 1594              		@ args = 0, pretend = 0, frame = 16
 1595              		@ frame_needed = 1, uses_anonymous_args = 0
 1596 0000 80B5     		push	{r7, lr}
 1597              	.LCFI72:
 1598              		.cfi_def_cfa_offset 8
 1599              		.cfi_offset 7, -8
 1600              		.cfi_offset 14, -4
 1601 0002 84B0     		sub	sp, sp, #16
 1602              	.LCFI73:
 1603              		.cfi_def_cfa_offset 24
 1604 0004 00AF     		add	r7, sp, #0
 1605              	.LCFI74:
 1606              		.cfi_def_cfa_register 7
 1607 0006 7860     		str	r0, [r7, #4]
 446:g:/iot/IoT_Device_Demo/iot_link/network/lwm2m/wakaama_lwm2m/wakaama-master/core/er-coap-13\er-coap-13.c ****     coap_packet_t *const coap_pkt = (coap_packet_t *) packet;
 1608              		.loc 1 446 26
 1609 0008 7B68     		ldr	r3, [r7, #4]
 1610 000a FB60     		str	r3, [r7, #12]
 447:g:/iot/IoT_Device_Demo/iot_link/network/lwm2m/wakaama_lwm2m/wakaama-master/core/er-coap-13\er-coap-13.c **** 
 448:g:/iot/IoT_Device_Demo/iot_link/network/lwm2m/wakaama_lwm2m/wakaama-master/core/er-coap-13\er-coap-13.c ****     free_multi_option(coap_pkt->uri_path);
 1611              		.loc 1 448 5
 1612 000c FB68     		ldr	r3, [r7, #12]
 1613 000e 5B6C     		ldr	r3, [r3, #68]
 1614 0010 1846     		mov	r0, r3
 1615 0012 FFF7FEFF 		bl	free_multi_option
 449:g:/iot/IoT_Device_Demo/iot_link/network/lwm2m/wakaama_lwm2m/wakaama-master/core/er-coap-13\er-coap-13.c ****     free_multi_option(coap_pkt->uri_query);
 1616              		.loc 1 449 5
 1617 0016 FB68     		ldr	r3, [r7, #12]
 1618 0018 D3F88030 		ldr	r3, [r3, #128]
 1619 001c 1846     		mov	r0, r3
 1620 001e FFF7FEFF 		bl	free_multi_option
 450:g:/iot/IoT_Device_Demo/iot_link/network/lwm2m/wakaama_lwm2m/wakaama-master/core/er-coap-13\er-coap-13.c ****     free_multi_option(coap_pkt->location_path);
ARM GAS  C:\Users\ADMINI~1\AppData\Local\Temp\cc8DJu9v.s 			page 37


 1621              		.loc 1 450 5
 1622 0022 FB68     		ldr	r3, [r7, #12]
 1623 0024 5B6B     		ldr	r3, [r3, #52]
 1624 0026 1846     		mov	r0, r3
 1625 0028 FFF7FEFF 		bl	free_multi_option
 451:g:/iot/IoT_Device_Demo/iot_link/network/lwm2m/wakaama_lwm2m/wakaama-master/core/er-coap-13\er-coap-13.c ****     coap_pkt->uri_path = NULL;
 1626              		.loc 1 451 24
 1627 002c FB68     		ldr	r3, [r7, #12]
 1628 002e 0022     		movs	r2, #0
 1629 0030 5A64     		str	r2, [r3, #68]
 452:g:/iot/IoT_Device_Demo/iot_link/network/lwm2m/wakaama_lwm2m/wakaama-master/core/er-coap-13\er-coap-13.c ****     coap_pkt->uri_query = NULL;
 1630              		.loc 1 452 25
 1631 0032 FB68     		ldr	r3, [r7, #12]
 1632 0034 0022     		movs	r2, #0
 1633 0036 C3F88020 		str	r2, [r3, #128]
 453:g:/iot/IoT_Device_Demo/iot_link/network/lwm2m/wakaama_lwm2m/wakaama-master/core/er-coap-13\er-coap-13.c ****     coap_pkt->location_path = NULL;
 1634              		.loc 1 453 29
 1635 003a FB68     		ldr	r3, [r7, #12]
 1636 003c 0022     		movs	r2, #0
 1637 003e 5A63     		str	r2, [r3, #52]
 454:g:/iot/IoT_Device_Demo/iot_link/network/lwm2m/wakaama_lwm2m/wakaama-master/core/er-coap-13\er-coap-13.c **** }
 1638              		.loc 1 454 1
 1639 0040 00BF     		nop
 1640 0042 1037     		adds	r7, r7, #16
 1641              	.LCFI75:
 1642              		.cfi_def_cfa_offset 8
 1643 0044 BD46     		mov	sp, r7
 1644              	.LCFI76:
 1645              		.cfi_def_cfa_register 13
 1646              		@ sp needed
 1647 0046 80BD     		pop	{r7, pc}
 1648              		.cfi_endproc
 1649              	.LFE18:
 1651              		.section	.text.coap_serialize_get_size,"ax",%progbits
 1652              		.align	1
 1653              		.global	coap_serialize_get_size
 1654              		.syntax unified
 1655              		.thumb
 1656              		.thumb_func
 1657              		.fpu fpv4-sp-d16
 1659              	coap_serialize_get_size:
 1660              	.LFB19:
 455:g:/iot/IoT_Device_Demo/iot_link/network/lwm2m/wakaama_lwm2m/wakaama-master/core/er-coap-13\er-coap-13.c **** 
 456:g:/iot/IoT_Device_Demo/iot_link/network/lwm2m/wakaama_lwm2m/wakaama-master/core/er-coap-13\er-coap-13.c **** /*-----------------------------------------------------------------------------------*/
 457:g:/iot/IoT_Device_Demo/iot_link/network/lwm2m/wakaama_lwm2m/wakaama-master/core/er-coap-13\er-coap-13.c **** size_t coap_serialize_get_size(void *packet)
 458:g:/iot/IoT_Device_Demo/iot_link/network/lwm2m/wakaama_lwm2m/wakaama-master/core/er-coap-13\er-coap-13.c **** {
 1661              		.loc 1 458 1
 1662              		.cfi_startproc
 1663              		@ args = 0, pretend = 0, frame = 32
 1664              		@ frame_needed = 1, uses_anonymous_args = 0
 1665              		@ link register save eliminated.
 1666 0000 80B4     		push	{r7}
 1667              	.LCFI77:
 1668              		.cfi_def_cfa_offset 4
 1669              		.cfi_offset 7, -4
 1670 0002 89B0     		sub	sp, sp, #36
 1671              	.LCFI78:
ARM GAS  C:\Users\ADMINI~1\AppData\Local\Temp\cc8DJu9v.s 			page 38


 1672              		.cfi_def_cfa_offset 40
 1673 0004 00AF     		add	r7, sp, #0
 1674              	.LCFI79:
 1675              		.cfi_def_cfa_register 7
 1676 0006 7860     		str	r0, [r7, #4]
 459:g:/iot/IoT_Device_Demo/iot_link/network/lwm2m/wakaama_lwm2m/wakaama-master/core/er-coap-13\er-coap-13.c ****     coap_packet_t *const coap_pkt = (coap_packet_t *) packet;
 1677              		.loc 1 459 26
 1678 0008 7B68     		ldr	r3, [r7, #4]
 1679 000a FB60     		str	r3, [r7, #12]
 460:g:/iot/IoT_Device_Demo/iot_link/network/lwm2m/wakaama_lwm2m/wakaama-master/core/er-coap-13\er-coap-13.c ****     size_t length = 0;
 1680              		.loc 1 460 12
 1681 000c 0023     		movs	r3, #0
 1682 000e FB61     		str	r3, [r7, #28]
 461:g:/iot/IoT_Device_Demo/iot_link/network/lwm2m/wakaama_lwm2m/wakaama-master/core/er-coap-13\er-coap-13.c **** 
 462:g:/iot/IoT_Device_Demo/iot_link/network/lwm2m/wakaama_lwm2m/wakaama-master/core/er-coap-13\er-coap-13.c ****     length = COAP_HEADER_LEN + coap_pkt->payload_len + coap_pkt->token_len;
 1683              		.loc 1 462 40
 1684 0010 FB68     		ldr	r3, [r7, #12]
 1685 0012 B3F88630 		ldrh	r3, [r3, #134]
 1686              		.loc 1 462 30
 1687 0016 0433     		adds	r3, r3, #4
 1688              		.loc 1 462 64
 1689 0018 FA68     		ldr	r2, [r7, #12]
 1690 001a 92F84C20 		ldrb	r2, [r2, #76]	@ zero_extendqisi2
 1691              		.loc 1 462 54
 1692 001e 1344     		add	r3, r3, r2
 1693              		.loc 1 462 12
 1694 0020 FB61     		str	r3, [r7, #28]
 463:g:/iot/IoT_Device_Demo/iot_link/network/lwm2m/wakaama_lwm2m/wakaama-master/core/er-coap-13\er-coap-13.c **** 
 464:g:/iot/IoT_Device_Demo/iot_link/network/lwm2m/wakaama_lwm2m/wakaama-master/core/er-coap-13\er-coap-13.c ****     if (IS_OPTION(coap_pkt, COAP_OPTION_IF_MATCH))
 1695              		.loc 1 464 9
 1696 0022 FB68     		ldr	r3, [r7, #12]
 1697 0024 9B7A     		ldrb	r3, [r3, #10]	@ zero_extendqisi2
 1698 0026 03F00203 		and	r3, r3, #2
 1699              		.loc 1 464 8
 1700 002a 002B     		cmp	r3, #0
 1701 002c 07D0     		beq	.L79
 465:g:/iot/IoT_Device_Demo/iot_link/network/lwm2m/wakaama_lwm2m/wakaama-master/core/er-coap-13\er-coap-13.c ****     {
 466:g:/iot/IoT_Device_Demo/iot_link/network/lwm2m/wakaama_lwm2m/wakaama-master/core/er-coap-13\er-coap-13.c ****         length += COAP_MAX_OPTION_HEADER_LEN + coap_pkt->if_match_len;
 1702              		.loc 1 466 56
 1703 002e FB68     		ldr	r3, [r7, #12]
 1704 0030 93F85A30 		ldrb	r3, [r3, #90]	@ zero_extendqisi2
 1705              		.loc 1 466 16
 1706 0034 1A46     		mov	r2, r3
 1707 0036 FB69     		ldr	r3, [r7, #28]
 1708 0038 1344     		add	r3, r3, r2
 1709 003a 0533     		adds	r3, r3, #5
 1710 003c FB61     		str	r3, [r7, #28]
 1711              	.L79:
 467:g:/iot/IoT_Device_Demo/iot_link/network/lwm2m/wakaama_lwm2m/wakaama-master/core/er-coap-13\er-coap-13.c ****     }
 468:g:/iot/IoT_Device_Demo/iot_link/network/lwm2m/wakaama_lwm2m/wakaama-master/core/er-coap-13\er-coap-13.c ****     if (IS_OPTION(coap_pkt, COAP_OPTION_URI_HOST))
 1712              		.loc 1 468 9
 1713 003e FB68     		ldr	r3, [r7, #12]
 1714 0040 9B7A     		ldrb	r3, [r3, #10]	@ zero_extendqisi2
 1715 0042 03F00803 		and	r3, r3, #8
 1716              		.loc 1 468 8
 1717 0046 002B     		cmp	r3, #0
 1718 0048 05D0     		beq	.L80
ARM GAS  C:\Users\ADMINI~1\AppData\Local\Temp\cc8DJu9v.s 			page 39


 469:g:/iot/IoT_Device_Demo/iot_link/network/lwm2m/wakaama_lwm2m/wakaama-master/core/er-coap-13\er-coap-13.c ****     {
 470:g:/iot/IoT_Device_Demo/iot_link/network/lwm2m/wakaama_lwm2m/wakaama-master/core/er-coap-13\er-coap-13.c ****         length += COAP_MAX_OPTION_HEADER_LEN + coap_pkt->uri_host_len;
 1719              		.loc 1 470 56
 1720 004a FB68     		ldr	r3, [r7, #12]
 1721 004c DA6A     		ldr	r2, [r3, #44]
 1722              		.loc 1 470 16
 1723 004e FB69     		ldr	r3, [r7, #28]
 1724 0050 1344     		add	r3, r3, r2
 1725 0052 0533     		adds	r3, r3, #5
 1726 0054 FB61     		str	r3, [r7, #28]
 1727              	.L80:
 471:g:/iot/IoT_Device_Demo/iot_link/network/lwm2m/wakaama_lwm2m/wakaama-master/core/er-coap-13\er-coap-13.c ****     }
 472:g:/iot/IoT_Device_Demo/iot_link/network/lwm2m/wakaama_lwm2m/wakaama-master/core/er-coap-13\er-coap-13.c ****     if (IS_OPTION(coap_pkt, COAP_OPTION_ETAG))
 1728              		.loc 1 472 9
 1729 0056 FB68     		ldr	r3, [r7, #12]
 1730 0058 9B7A     		ldrb	r3, [r3, #10]	@ zero_extendqisi2
 1731 005a 03F01003 		and	r3, r3, #16
 1732              		.loc 1 472 8
 1733 005e 002B     		cmp	r3, #0
 1734 0060 07D0     		beq	.L81
 473:g:/iot/IoT_Device_Demo/iot_link/network/lwm2m/wakaama_lwm2m/wakaama-master/core/er-coap-13\er-coap-13.c ****     {
 474:g:/iot/IoT_Device_Demo/iot_link/network/lwm2m/wakaama_lwm2m/wakaama-master/core/er-coap-13\er-coap-13.c ****         length += COAP_MAX_OPTION_HEADER_LEN + coap_pkt->etag_len;
 1735              		.loc 1 474 56
 1736 0062 FB68     		ldr	r3, [r7, #12]
 1737 0064 93F82030 		ldrb	r3, [r3, #32]	@ zero_extendqisi2
 1738              		.loc 1 474 16
 1739 0068 1A46     		mov	r2, r3
 1740 006a FB69     		ldr	r3, [r7, #28]
 1741 006c 1344     		add	r3, r3, r2
 1742 006e 0533     		adds	r3, r3, #5
 1743 0070 FB61     		str	r3, [r7, #28]
 1744              	.L81:
 475:g:/iot/IoT_Device_Demo/iot_link/network/lwm2m/wakaama_lwm2m/wakaama-master/core/er-coap-13\er-coap-13.c ****     }
 476:g:/iot/IoT_Device_Demo/iot_link/network/lwm2m/wakaama_lwm2m/wakaama-master/core/er-coap-13\er-coap-13.c ****     if (IS_OPTION(coap_pkt, COAP_OPTION_IF_NONE_MATCH))
 1745              		.loc 1 476 9
 1746 0072 FB68     		ldr	r3, [r7, #12]
 1747 0074 9B7A     		ldrb	r3, [r3, #10]	@ zero_extendqisi2
 1748 0076 03F02003 		and	r3, r3, #32
 1749              		.loc 1 476 8
 1750 007a 002B     		cmp	r3, #0
 1751 007c 02D0     		beq	.L82
 477:g:/iot/IoT_Device_Demo/iot_link/network/lwm2m/wakaama_lwm2m/wakaama-master/core/er-coap-13\er-coap-13.c ****     {
 478:g:/iot/IoT_Device_Demo/iot_link/network/lwm2m/wakaama_lwm2m/wakaama-master/core/er-coap-13\er-coap-13.c ****         // can be stored in extended fields
 479:g:/iot/IoT_Device_Demo/iot_link/network/lwm2m/wakaama_lwm2m/wakaama-master/core/er-coap-13\er-coap-13.c ****         length += COAP_MAX_OPTION_HEADER_LEN;
 1752              		.loc 1 479 16
 1753 007e FB69     		ldr	r3, [r7, #28]
 1754 0080 0533     		adds	r3, r3, #5
 1755 0082 FB61     		str	r3, [r7, #28]
 1756              	.L82:
 480:g:/iot/IoT_Device_Demo/iot_link/network/lwm2m/wakaama_lwm2m/wakaama-master/core/er-coap-13\er-coap-13.c ****     }
 481:g:/iot/IoT_Device_Demo/iot_link/network/lwm2m/wakaama_lwm2m/wakaama-master/core/er-coap-13\er-coap-13.c ****     if (IS_OPTION(coap_pkt, COAP_OPTION_OBSERVE))
 1757              		.loc 1 481 9
 1758 0084 FB68     		ldr	r3, [r7, #12]
 1759 0086 9B7A     		ldrb	r3, [r3, #10]	@ zero_extendqisi2
 1760 0088 03F04003 		and	r3, r3, #64
 1761              		.loc 1 481 8
 1762 008c 002B     		cmp	r3, #0
ARM GAS  C:\Users\ADMINI~1\AppData\Local\Temp\cc8DJu9v.s 			page 40


 1763 008e 02D0     		beq	.L83
 482:g:/iot/IoT_Device_Demo/iot_link/network/lwm2m/wakaama_lwm2m/wakaama-master/core/er-coap-13\er-coap-13.c ****     {
 483:g:/iot/IoT_Device_Demo/iot_link/network/lwm2m/wakaama_lwm2m/wakaama-master/core/er-coap-13\er-coap-13.c ****         // can be stored in extended fields
 484:g:/iot/IoT_Device_Demo/iot_link/network/lwm2m/wakaama_lwm2m/wakaama-master/core/er-coap-13\er-coap-13.c ****         length += COAP_MAX_OPTION_HEADER_LEN;
 1764              		.loc 1 484 16
 1765 0090 FB69     		ldr	r3, [r7, #28]
 1766 0092 0533     		adds	r3, r3, #5
 1767 0094 FB61     		str	r3, [r7, #28]
 1768              	.L83:
 485:g:/iot/IoT_Device_Demo/iot_link/network/lwm2m/wakaama_lwm2m/wakaama-master/core/er-coap-13\er-coap-13.c ****     }
 486:g:/iot/IoT_Device_Demo/iot_link/network/lwm2m/wakaama_lwm2m/wakaama-master/core/er-coap-13\er-coap-13.c ****     if (IS_OPTION(coap_pkt, COAP_OPTION_URI_PORT))
 1769              		.loc 1 486 9
 1770 0096 FB68     		ldr	r3, [r7, #12]
 1771 0098 9B7A     		ldrb	r3, [r3, #10]	@ zero_extendqisi2
 1772 009a 5BB2     		sxtb	r3, r3
 1773              		.loc 1 486 8
 1774 009c 002B     		cmp	r3, #0
 1775 009e 02DA     		bge	.L84
 487:g:/iot/IoT_Device_Demo/iot_link/network/lwm2m/wakaama_lwm2m/wakaama-master/core/er-coap-13\er-coap-13.c ****     {
 488:g:/iot/IoT_Device_Demo/iot_link/network/lwm2m/wakaama_lwm2m/wakaama-master/core/er-coap-13\er-coap-13.c ****         // can be stored in extended fields
 489:g:/iot/IoT_Device_Demo/iot_link/network/lwm2m/wakaama_lwm2m/wakaama-master/core/er-coap-13\er-coap-13.c ****         length += COAP_MAX_OPTION_HEADER_LEN;
 1776              		.loc 1 489 16
 1777 00a0 FB69     		ldr	r3, [r7, #28]
 1778 00a2 0533     		adds	r3, r3, #5
 1779 00a4 FB61     		str	r3, [r7, #28]
 1780              	.L84:
 490:g:/iot/IoT_Device_Demo/iot_link/network/lwm2m/wakaama_lwm2m/wakaama-master/core/er-coap-13\er-coap-13.c ****     }
 491:g:/iot/IoT_Device_Demo/iot_link/network/lwm2m/wakaama_lwm2m/wakaama-master/core/er-coap-13\er-coap-13.c ****     if (IS_OPTION(coap_pkt, COAP_OPTION_LOCATION_PATH))
 1781              		.loc 1 491 9
 1782 00a6 FB68     		ldr	r3, [r7, #12]
 1783 00a8 DB7A     		ldrb	r3, [r3, #11]	@ zero_extendqisi2
 1784 00aa 03F00103 		and	r3, r3, #1
 1785              		.loc 1 491 8
 1786 00ae 002B     		cmp	r3, #0
 1787 00b0 10D0     		beq	.L85
 1788              	.LBB6:
 492:g:/iot/IoT_Device_Demo/iot_link/network/lwm2m/wakaama_lwm2m/wakaama-master/core/er-coap-13\er-coap-13.c ****     {
 493:g:/iot/IoT_Device_Demo/iot_link/network/lwm2m/wakaama_lwm2m/wakaama-master/core/er-coap-13\er-coap-13.c ****         multi_option_t *optP;
 494:g:/iot/IoT_Device_Demo/iot_link/network/lwm2m/wakaama_lwm2m/wakaama-master/core/er-coap-13\er-coap-13.c **** 
 495:g:/iot/IoT_Device_Demo/iot_link/network/lwm2m/wakaama_lwm2m/wakaama-master/core/er-coap-13\er-coap-13.c ****         for (optP = coap_pkt->location_path ; optP != NULL ; optP = optP->next)
 1789              		.loc 1 495 19
 1790 00b2 FB68     		ldr	r3, [r7, #12]
 1791 00b4 5B6B     		ldr	r3, [r3, #52]
 1792 00b6 BB61     		str	r3, [r7, #24]
 1793              		.loc 1 495 9
 1794 00b8 09E0     		b	.L86
 1795              	.L87:
 496:g:/iot/IoT_Device_Demo/iot_link/network/lwm2m/wakaama_lwm2m/wakaama-master/core/er-coap-13\er-coap-13.c ****         {
 497:g:/iot/IoT_Device_Demo/iot_link/network/lwm2m/wakaama_lwm2m/wakaama-master/core/er-coap-13\er-coap-13.c ****             length += COAP_MAX_OPTION_HEADER_LEN + optP->len;
 1796              		.loc 1 497 56 discriminator 3
 1797 00ba BB69     		ldr	r3, [r7, #24]
 1798 00bc 5B79     		ldrb	r3, [r3, #5]	@ zero_extendqisi2
 1799              		.loc 1 497 20 discriminator 3
 1800 00be 1A46     		mov	r2, r3
 1801 00c0 FB69     		ldr	r3, [r7, #28]
 1802 00c2 1344     		add	r3, r3, r2
 1803 00c4 0533     		adds	r3, r3, #5
ARM GAS  C:\Users\ADMINI~1\AppData\Local\Temp\cc8DJu9v.s 			page 41


 1804 00c6 FB61     		str	r3, [r7, #28]
 495:g:/iot/IoT_Device_Demo/iot_link/network/lwm2m/wakaama_lwm2m/wakaama-master/core/er-coap-13\er-coap-13.c ****         {
 1805              		.loc 1 495 67 discriminator 3
 1806 00c8 BB69     		ldr	r3, [r7, #24]
 1807 00ca 1B68     		ldr	r3, [r3]
 1808 00cc BB61     		str	r3, [r7, #24]
 1809              	.L86:
 495:g:/iot/IoT_Device_Demo/iot_link/network/lwm2m/wakaama_lwm2m/wakaama-master/core/er-coap-13\er-coap-13.c ****         {
 1810              		.loc 1 495 9 discriminator 1
 1811 00ce BB69     		ldr	r3, [r7, #24]
 1812 00d0 002B     		cmp	r3, #0
 1813 00d2 F2D1     		bne	.L87
 1814              	.L85:
 1815              	.LBE6:
 498:g:/iot/IoT_Device_Demo/iot_link/network/lwm2m/wakaama_lwm2m/wakaama-master/core/er-coap-13\er-coap-13.c ****         }
 499:g:/iot/IoT_Device_Demo/iot_link/network/lwm2m/wakaama_lwm2m/wakaama-master/core/er-coap-13\er-coap-13.c ****     }
 500:g:/iot/IoT_Device_Demo/iot_link/network/lwm2m/wakaama_lwm2m/wakaama-master/core/er-coap-13\er-coap-13.c ****     if (IS_OPTION(coap_pkt, COAP_OPTION_URI_PATH))
 1816              		.loc 1 500 9
 1817 00d4 FB68     		ldr	r3, [r7, #12]
 1818 00d6 DB7A     		ldrb	r3, [r3, #11]	@ zero_extendqisi2
 1819 00d8 03F00803 		and	r3, r3, #8
 1820              		.loc 1 500 8
 1821 00dc 002B     		cmp	r3, #0
 1822 00de 10D0     		beq	.L88
 1823              	.LBB7:
 501:g:/iot/IoT_Device_Demo/iot_link/network/lwm2m/wakaama_lwm2m/wakaama-master/core/er-coap-13\er-coap-13.c ****     {
 502:g:/iot/IoT_Device_Demo/iot_link/network/lwm2m/wakaama_lwm2m/wakaama-master/core/er-coap-13\er-coap-13.c ****         multi_option_t *optP;
 503:g:/iot/IoT_Device_Demo/iot_link/network/lwm2m/wakaama_lwm2m/wakaama-master/core/er-coap-13\er-coap-13.c **** 
 504:g:/iot/IoT_Device_Demo/iot_link/network/lwm2m/wakaama_lwm2m/wakaama-master/core/er-coap-13\er-coap-13.c ****         for (optP = coap_pkt->uri_path ; optP != NULL ; optP = optP->next)
 1824              		.loc 1 504 19
 1825 00e0 FB68     		ldr	r3, [r7, #12]
 1826 00e2 5B6C     		ldr	r3, [r3, #68]
 1827 00e4 7B61     		str	r3, [r7, #20]
 1828              		.loc 1 504 9
 1829 00e6 09E0     		b	.L89
 1830              	.L90:
 505:g:/iot/IoT_Device_Demo/iot_link/network/lwm2m/wakaama_lwm2m/wakaama-master/core/er-coap-13\er-coap-13.c ****         {
 506:g:/iot/IoT_Device_Demo/iot_link/network/lwm2m/wakaama_lwm2m/wakaama-master/core/er-coap-13\er-coap-13.c ****             length += COAP_MAX_OPTION_HEADER_LEN + optP->len;
 1831              		.loc 1 506 56 discriminator 3
 1832 00e8 7B69     		ldr	r3, [r7, #20]
 1833 00ea 5B79     		ldrb	r3, [r3, #5]	@ zero_extendqisi2
 1834              		.loc 1 506 20 discriminator 3
 1835 00ec 1A46     		mov	r2, r3
 1836 00ee FB69     		ldr	r3, [r7, #28]
 1837 00f0 1344     		add	r3, r3, r2
 1838 00f2 0533     		adds	r3, r3, #5
 1839 00f4 FB61     		str	r3, [r7, #28]
 504:g:/iot/IoT_Device_Demo/iot_link/network/lwm2m/wakaama_lwm2m/wakaama-master/core/er-coap-13\er-coap-13.c ****         {
 1840              		.loc 1 504 62 discriminator 3
 1841 00f6 7B69     		ldr	r3, [r7, #20]
 1842 00f8 1B68     		ldr	r3, [r3]
 1843 00fa 7B61     		str	r3, [r7, #20]
 1844              	.L89:
 504:g:/iot/IoT_Device_Demo/iot_link/network/lwm2m/wakaama_lwm2m/wakaama-master/core/er-coap-13\er-coap-13.c ****         {
 1845              		.loc 1 504 9 discriminator 1
 1846 00fc 7B69     		ldr	r3, [r7, #20]
 1847 00fe 002B     		cmp	r3, #0
ARM GAS  C:\Users\ADMINI~1\AppData\Local\Temp\cc8DJu9v.s 			page 42


 1848 0100 F2D1     		bne	.L90
 1849              	.L88:
 1850              	.LBE7:
 507:g:/iot/IoT_Device_Demo/iot_link/network/lwm2m/wakaama_lwm2m/wakaama-master/core/er-coap-13\er-coap-13.c ****         }
 508:g:/iot/IoT_Device_Demo/iot_link/network/lwm2m/wakaama_lwm2m/wakaama-master/core/er-coap-13\er-coap-13.c ****     }
 509:g:/iot/IoT_Device_Demo/iot_link/network/lwm2m/wakaama_lwm2m/wakaama-master/core/er-coap-13\er-coap-13.c ****     if (IS_OPTION(coap_pkt, COAP_OPTION_CONTENT_TYPE))
 1851              		.loc 1 509 9
 1852 0102 FB68     		ldr	r3, [r7, #12]
 1853 0104 DB7A     		ldrb	r3, [r3, #11]	@ zero_extendqisi2
 1854 0106 03F01003 		and	r3, r3, #16
 1855              		.loc 1 509 8
 1856 010a 002B     		cmp	r3, #0
 1857 010c 02D0     		beq	.L91
 510:g:/iot/IoT_Device_Demo/iot_link/network/lwm2m/wakaama_lwm2m/wakaama-master/core/er-coap-13\er-coap-13.c ****     {
 511:g:/iot/IoT_Device_Demo/iot_link/network/lwm2m/wakaama_lwm2m/wakaama-master/core/er-coap-13\er-coap-13.c ****         // can be stored in extended fields
 512:g:/iot/IoT_Device_Demo/iot_link/network/lwm2m/wakaama_lwm2m/wakaama-master/core/er-coap-13\er-coap-13.c ****         length += COAP_MAX_OPTION_HEADER_LEN;
 1858              		.loc 1 512 16
 1859 010e FB69     		ldr	r3, [r7, #28]
 1860 0110 0533     		adds	r3, r3, #5
 1861 0112 FB61     		str	r3, [r7, #28]
 1862              	.L91:
 513:g:/iot/IoT_Device_Demo/iot_link/network/lwm2m/wakaama_lwm2m/wakaama-master/core/er-coap-13\er-coap-13.c ****     }
 514:g:/iot/IoT_Device_Demo/iot_link/network/lwm2m/wakaama_lwm2m/wakaama-master/core/er-coap-13\er-coap-13.c ****     if (IS_OPTION(coap_pkt, COAP_OPTION_MAX_AGE))
 1863              		.loc 1 514 9
 1864 0114 FB68     		ldr	r3, [r7, #12]
 1865 0116 DB7A     		ldrb	r3, [r3, #11]	@ zero_extendqisi2
 1866 0118 03F04003 		and	r3, r3, #64
 1867              		.loc 1 514 8
 1868 011c 002B     		cmp	r3, #0
 1869 011e 02D0     		beq	.L92
 515:g:/iot/IoT_Device_Demo/iot_link/network/lwm2m/wakaama_lwm2m/wakaama-master/core/er-coap-13\er-coap-13.c ****     {
 516:g:/iot/IoT_Device_Demo/iot_link/network/lwm2m/wakaama_lwm2m/wakaama-master/core/er-coap-13\er-coap-13.c ****         // can be stored in extended fields
 517:g:/iot/IoT_Device_Demo/iot_link/network/lwm2m/wakaama_lwm2m/wakaama-master/core/er-coap-13\er-coap-13.c ****         length += COAP_MAX_OPTION_HEADER_LEN;
 1870              		.loc 1 517 16
 1871 0120 FB69     		ldr	r3, [r7, #28]
 1872 0122 0533     		adds	r3, r3, #5
 1873 0124 FB61     		str	r3, [r7, #28]
 1874              	.L92:
 518:g:/iot/IoT_Device_Demo/iot_link/network/lwm2m/wakaama_lwm2m/wakaama-master/core/er-coap-13\er-coap-13.c ****     }
 519:g:/iot/IoT_Device_Demo/iot_link/network/lwm2m/wakaama_lwm2m/wakaama-master/core/er-coap-13\er-coap-13.c ****     if (IS_OPTION(coap_pkt, COAP_OPTION_URI_QUERY))
 1875              		.loc 1 519 9
 1876 0126 FB68     		ldr	r3, [r7, #12]
 1877 0128 DB7A     		ldrb	r3, [r3, #11]	@ zero_extendqisi2
 1878 012a 5BB2     		sxtb	r3, r3
 1879              		.loc 1 519 8
 1880 012c 002B     		cmp	r3, #0
 1881 012e 11DA     		bge	.L93
 1882              	.LBB8:
 520:g:/iot/IoT_Device_Demo/iot_link/network/lwm2m/wakaama_lwm2m/wakaama-master/core/er-coap-13\er-coap-13.c ****     {
 521:g:/iot/IoT_Device_Demo/iot_link/network/lwm2m/wakaama_lwm2m/wakaama-master/core/er-coap-13\er-coap-13.c ****         multi_option_t *optP;
 522:g:/iot/IoT_Device_Demo/iot_link/network/lwm2m/wakaama_lwm2m/wakaama-master/core/er-coap-13\er-coap-13.c **** 
 523:g:/iot/IoT_Device_Demo/iot_link/network/lwm2m/wakaama_lwm2m/wakaama-master/core/er-coap-13\er-coap-13.c ****         for (optP = coap_pkt->uri_query ; optP != NULL ; optP = optP->next)
 1883              		.loc 1 523 19
 1884 0130 FB68     		ldr	r3, [r7, #12]
 1885 0132 D3F88030 		ldr	r3, [r3, #128]
 1886 0136 3B61     		str	r3, [r7, #16]
 1887              		.loc 1 523 9
ARM GAS  C:\Users\ADMINI~1\AppData\Local\Temp\cc8DJu9v.s 			page 43


 1888 0138 09E0     		b	.L94
 1889              	.L95:
 524:g:/iot/IoT_Device_Demo/iot_link/network/lwm2m/wakaama_lwm2m/wakaama-master/core/er-coap-13\er-coap-13.c ****         {
 525:g:/iot/IoT_Device_Demo/iot_link/network/lwm2m/wakaama_lwm2m/wakaama-master/core/er-coap-13\er-coap-13.c ****             length += COAP_MAX_OPTION_HEADER_LEN + optP->len;
 1890              		.loc 1 525 56 discriminator 3
 1891 013a 3B69     		ldr	r3, [r7, #16]
 1892 013c 5B79     		ldrb	r3, [r3, #5]	@ zero_extendqisi2
 1893              		.loc 1 525 20 discriminator 3
 1894 013e 1A46     		mov	r2, r3
 1895 0140 FB69     		ldr	r3, [r7, #28]
 1896 0142 1344     		add	r3, r3, r2
 1897 0144 0533     		adds	r3, r3, #5
 1898 0146 FB61     		str	r3, [r7, #28]
 523:g:/iot/IoT_Device_Demo/iot_link/network/lwm2m/wakaama_lwm2m/wakaama-master/core/er-coap-13\er-coap-13.c ****         {
 1899              		.loc 1 523 63 discriminator 3
 1900 0148 3B69     		ldr	r3, [r7, #16]
 1901 014a 1B68     		ldr	r3, [r3]
 1902 014c 3B61     		str	r3, [r7, #16]
 1903              	.L94:
 523:g:/iot/IoT_Device_Demo/iot_link/network/lwm2m/wakaama_lwm2m/wakaama-master/core/er-coap-13\er-coap-13.c ****         {
 1904              		.loc 1 523 9 discriminator 1
 1905 014e 3B69     		ldr	r3, [r7, #16]
 1906 0150 002B     		cmp	r3, #0
 1907 0152 F2D1     		bne	.L95
 1908              	.L93:
 1909              	.LBE8:
 526:g:/iot/IoT_Device_Demo/iot_link/network/lwm2m/wakaama_lwm2m/wakaama-master/core/er-coap-13\er-coap-13.c ****         }
 527:g:/iot/IoT_Device_Demo/iot_link/network/lwm2m/wakaama_lwm2m/wakaama-master/core/er-coap-13\er-coap-13.c ****     }
 528:g:/iot/IoT_Device_Demo/iot_link/network/lwm2m/wakaama_lwm2m/wakaama-master/core/er-coap-13\er-coap-13.c ****     if (IS_OPTION(coap_pkt, COAP_OPTION_ACCEPT))
 1910              		.loc 1 528 9
 1911 0154 FB68     		ldr	r3, [r7, #12]
 1912 0156 1B7B     		ldrb	r3, [r3, #12]	@ zero_extendqisi2
 1913 0158 03F00203 		and	r3, r3, #2
 1914              		.loc 1 528 8
 1915 015c 002B     		cmp	r3, #0
 1916 015e 0AD0     		beq	.L96
 529:g:/iot/IoT_Device_Demo/iot_link/network/lwm2m/wakaama_lwm2m/wakaama-master/core/er-coap-13\er-coap-13.c ****     {
 530:g:/iot/IoT_Device_Demo/iot_link/network/lwm2m/wakaama_lwm2m/wakaama-master/core/er-coap-13\er-coap-13.c ****         length += coap_pkt->accept_num * COAP_MAX_OPTION_HEADER_LEN;
 1917              		.loc 1 530 27
 1918 0160 FB68     		ldr	r3, [r7, #12]
 1919 0162 93F85530 		ldrb	r3, [r3, #85]	@ zero_extendqisi2
 1920 0166 1A46     		mov	r2, r3
 1921              		.loc 1 530 40
 1922 0168 1346     		mov	r3, r2
 1923 016a 9B00     		lsls	r3, r3, #2
 1924 016c 1344     		add	r3, r3, r2
 1925 016e 1A46     		mov	r2, r3
 1926              		.loc 1 530 16
 1927 0170 FB69     		ldr	r3, [r7, #28]
 1928 0172 1344     		add	r3, r3, r2
 1929 0174 FB61     		str	r3, [r7, #28]
 1930              	.L96:
 531:g:/iot/IoT_Device_Demo/iot_link/network/lwm2m/wakaama_lwm2m/wakaama-master/core/er-coap-13\er-coap-13.c ****     }
 532:g:/iot/IoT_Device_Demo/iot_link/network/lwm2m/wakaama_lwm2m/wakaama-master/core/er-coap-13\er-coap-13.c ****     if (IS_OPTION(coap_pkt, COAP_OPTION_LOCATION_QUERY))
 1931              		.loc 1 532 9
 1932 0176 FB68     		ldr	r3, [r7, #12]
 1933 0178 1B7B     		ldrb	r3, [r3, #12]	@ zero_extendqisi2
ARM GAS  C:\Users\ADMINI~1\AppData\Local\Temp\cc8DJu9v.s 			page 44


 1934 017a 03F01003 		and	r3, r3, #16
 1935              		.loc 1 532 8
 1936 017e 002B     		cmp	r3, #0
 1937 0180 05D0     		beq	.L97
 533:g:/iot/IoT_Device_Demo/iot_link/network/lwm2m/wakaama_lwm2m/wakaama-master/core/er-coap-13\er-coap-13.c ****     {
 534:g:/iot/IoT_Device_Demo/iot_link/network/lwm2m/wakaama_lwm2m/wakaama-master/core/er-coap-13\er-coap-13.c ****         length += COAP_MAX_OPTION_HEADER_LEN + coap_pkt->location_query_len;
 1938              		.loc 1 534 56
 1939 0182 FB68     		ldr	r3, [r7, #12]
 1940 0184 DA6B     		ldr	r2, [r3, #60]
 1941              		.loc 1 534 16
 1942 0186 FB69     		ldr	r3, [r7, #28]
 1943 0188 1344     		add	r3, r3, r2
 1944 018a 0533     		adds	r3, r3, #5
 1945 018c FB61     		str	r3, [r7, #28]
 1946              	.L97:
 535:g:/iot/IoT_Device_Demo/iot_link/network/lwm2m/wakaama_lwm2m/wakaama-master/core/er-coap-13\er-coap-13.c ****     }
 536:g:/iot/IoT_Device_Demo/iot_link/network/lwm2m/wakaama_lwm2m/wakaama-master/core/er-coap-13\er-coap-13.c ****     if (IS_OPTION(coap_pkt, COAP_OPTION_BLOCK2))
 1947              		.loc 1 536 9
 1948 018e FB68     		ldr	r3, [r7, #12]
 1949 0190 1B7B     		ldrb	r3, [r3, #12]	@ zero_extendqisi2
 1950 0192 5BB2     		sxtb	r3, r3
 1951              		.loc 1 536 8
 1952 0194 002B     		cmp	r3, #0
 1953 0196 02DA     		bge	.L98
 537:g:/iot/IoT_Device_Demo/iot_link/network/lwm2m/wakaama_lwm2m/wakaama-master/core/er-coap-13\er-coap-13.c ****     {
 538:g:/iot/IoT_Device_Demo/iot_link/network/lwm2m/wakaama_lwm2m/wakaama-master/core/er-coap-13\er-coap-13.c ****         // can be stored in extended fields
 539:g:/iot/IoT_Device_Demo/iot_link/network/lwm2m/wakaama_lwm2m/wakaama-master/core/er-coap-13\er-coap-13.c ****         length += COAP_MAX_OPTION_HEADER_LEN;
 1954              		.loc 1 539 16
 1955 0198 FB69     		ldr	r3, [r7, #28]
 1956 019a 0533     		adds	r3, r3, #5
 1957 019c FB61     		str	r3, [r7, #28]
 1958              	.L98:
 540:g:/iot/IoT_Device_Demo/iot_link/network/lwm2m/wakaama_lwm2m/wakaama-master/core/er-coap-13\er-coap-13.c ****     }
 541:g:/iot/IoT_Device_Demo/iot_link/network/lwm2m/wakaama_lwm2m/wakaama-master/core/er-coap-13\er-coap-13.c ****     if (IS_OPTION(coap_pkt, COAP_OPTION_BLOCK1))
 1959              		.loc 1 541 9
 1960 019e FB68     		ldr	r3, [r7, #12]
 1961 01a0 5B7B     		ldrb	r3, [r3, #13]	@ zero_extendqisi2
 1962 01a2 03F00803 		and	r3, r3, #8
 1963              		.loc 1 541 8
 1964 01a6 002B     		cmp	r3, #0
 1965 01a8 02D0     		beq	.L99
 542:g:/iot/IoT_Device_Demo/iot_link/network/lwm2m/wakaama_lwm2m/wakaama-master/core/er-coap-13\er-coap-13.c ****     {
 543:g:/iot/IoT_Device_Demo/iot_link/network/lwm2m/wakaama_lwm2m/wakaama-master/core/er-coap-13\er-coap-13.c ****         // can be stored in extended fields
 544:g:/iot/IoT_Device_Demo/iot_link/network/lwm2m/wakaama_lwm2m/wakaama-master/core/er-coap-13\er-coap-13.c ****         length += COAP_MAX_OPTION_HEADER_LEN;
 1966              		.loc 1 544 16
 1967 01aa FB69     		ldr	r3, [r7, #28]
 1968 01ac 0533     		adds	r3, r3, #5
 1969 01ae FB61     		str	r3, [r7, #28]
 1970              	.L99:
 545:g:/iot/IoT_Device_Demo/iot_link/network/lwm2m/wakaama_lwm2m/wakaama-master/core/er-coap-13\er-coap-13.c ****     }
 546:g:/iot/IoT_Device_Demo/iot_link/network/lwm2m/wakaama_lwm2m/wakaama-master/core/er-coap-13\er-coap-13.c ****     if (IS_OPTION(coap_pkt, COAP_OPTION_SIZE))
 1971              		.loc 1 546 9
 1972 01b0 FB68     		ldr	r3, [r7, #12]
 1973 01b2 5B7B     		ldrb	r3, [r3, #13]	@ zero_extendqisi2
 1974 01b4 03F01003 		and	r3, r3, #16
 1975              		.loc 1 546 8
 1976 01b8 002B     		cmp	r3, #0
ARM GAS  C:\Users\ADMINI~1\AppData\Local\Temp\cc8DJu9v.s 			page 45


 1977 01ba 02D0     		beq	.L100
 547:g:/iot/IoT_Device_Demo/iot_link/network/lwm2m/wakaama_lwm2m/wakaama-master/core/er-coap-13\er-coap-13.c ****     {
 548:g:/iot/IoT_Device_Demo/iot_link/network/lwm2m/wakaama_lwm2m/wakaama-master/core/er-coap-13\er-coap-13.c ****         // can be stored in extended fields
 549:g:/iot/IoT_Device_Demo/iot_link/network/lwm2m/wakaama_lwm2m/wakaama-master/core/er-coap-13\er-coap-13.c ****         length += COAP_MAX_OPTION_HEADER_LEN;
 1978              		.loc 1 549 16
 1979 01bc FB69     		ldr	r3, [r7, #28]
 1980 01be 0533     		adds	r3, r3, #5
 1981 01c0 FB61     		str	r3, [r7, #28]
 1982              	.L100:
 550:g:/iot/IoT_Device_Demo/iot_link/network/lwm2m/wakaama_lwm2m/wakaama-master/core/er-coap-13\er-coap-13.c ****     }
 551:g:/iot/IoT_Device_Demo/iot_link/network/lwm2m/wakaama_lwm2m/wakaama-master/core/er-coap-13\er-coap-13.c ****     if (IS_OPTION(coap_pkt, COAP_OPTION_PROXY_URI))
 1983              		.loc 1 551 9
 1984 01c2 FB68     		ldr	r3, [r7, #12]
 1985 01c4 9B7B     		ldrb	r3, [r3, #14]	@ zero_extendqisi2
 1986 01c6 03F00803 		and	r3, r3, #8
 1987              		.loc 1 551 8
 1988 01ca 002B     		cmp	r3, #0
 1989 01cc 05D0     		beq	.L101
 552:g:/iot/IoT_Device_Demo/iot_link/network/lwm2m/wakaama_lwm2m/wakaama-master/core/er-coap-13\er-coap-13.c ****     {
 553:g:/iot/IoT_Device_Demo/iot_link/network/lwm2m/wakaama_lwm2m/wakaama-master/core/er-coap-13\er-coap-13.c ****         length += COAP_MAX_OPTION_HEADER_LEN + coap_pkt->proxy_uri_len;
 1990              		.loc 1 553 56
 1991 01ce FB68     		ldr	r3, [r7, #12]
 1992 01d0 9A69     		ldr	r2, [r3, #24]
 1993              		.loc 1 553 16
 1994 01d2 FB69     		ldr	r3, [r7, #28]
 1995 01d4 1344     		add	r3, r3, r2
 1996 01d6 0533     		adds	r3, r3, #5
 1997 01d8 FB61     		str	r3, [r7, #28]
 1998              	.L101:
 554:g:/iot/IoT_Device_Demo/iot_link/network/lwm2m/wakaama_lwm2m/wakaama-master/core/er-coap-13\er-coap-13.c ****     }
 555:g:/iot/IoT_Device_Demo/iot_link/network/lwm2m/wakaama_lwm2m/wakaama-master/core/er-coap-13\er-coap-13.c **** 
 556:g:/iot/IoT_Device_Demo/iot_link/network/lwm2m/wakaama_lwm2m/wakaama-master/core/er-coap-13\er-coap-13.c ****     if (coap_pkt->payload_len)
 1999              		.loc 1 556 17
 2000 01da FB68     		ldr	r3, [r7, #12]
 2001 01dc B3F88630 		ldrh	r3, [r3, #134]
 2002              		.loc 1 556 8
 2003 01e0 002B     		cmp	r3, #0
 2004 01e2 02D0     		beq	.L102
 557:g:/iot/IoT_Device_Demo/iot_link/network/lwm2m/wakaama_lwm2m/wakaama-master/core/er-coap-13\er-coap-13.c ****     {
 558:g:/iot/IoT_Device_Demo/iot_link/network/lwm2m/wakaama_lwm2m/wakaama-master/core/er-coap-13\er-coap-13.c ****         // Account for the payload marker.
 559:g:/iot/IoT_Device_Demo/iot_link/network/lwm2m/wakaama_lwm2m/wakaama-master/core/er-coap-13\er-coap-13.c ****         length += 1;
 2005              		.loc 1 559 16
 2006 01e4 FB69     		ldr	r3, [r7, #28]
 2007 01e6 0133     		adds	r3, r3, #1
 2008 01e8 FB61     		str	r3, [r7, #28]
 2009              	.L102:
 560:g:/iot/IoT_Device_Demo/iot_link/network/lwm2m/wakaama_lwm2m/wakaama-master/core/er-coap-13\er-coap-13.c ****     }
 561:g:/iot/IoT_Device_Demo/iot_link/network/lwm2m/wakaama_lwm2m/wakaama-master/core/er-coap-13\er-coap-13.c **** 
 562:g:/iot/IoT_Device_Demo/iot_link/network/lwm2m/wakaama_lwm2m/wakaama-master/core/er-coap-13\er-coap-13.c ****     return length;
 2010              		.loc 1 562 12
 2011 01ea FB69     		ldr	r3, [r7, #28]
 563:g:/iot/IoT_Device_Demo/iot_link/network/lwm2m/wakaama_lwm2m/wakaama-master/core/er-coap-13\er-coap-13.c **** }
 2012              		.loc 1 563 1
 2013 01ec 1846     		mov	r0, r3
 2014 01ee 2437     		adds	r7, r7, #36
 2015              	.LCFI80:
 2016              		.cfi_def_cfa_offset 4
ARM GAS  C:\Users\ADMINI~1\AppData\Local\Temp\cc8DJu9v.s 			page 46


 2017 01f0 BD46     		mov	sp, r7
 2018              	.LCFI81:
 2019              		.cfi_def_cfa_register 13
 2020              		@ sp needed
 2021 01f2 5DF8047B 		ldr	r7, [sp], #4
 2022              	.LCFI82:
 2023              		.cfi_restore 7
 2024              		.cfi_def_cfa_offset 0
 2025 01f6 7047     		bx	lr
 2026              		.cfi_endproc
 2027              	.LFE19:
 2029              		.section	.text.coap_serialize_message,"ax",%progbits
 2030              		.align	1
 2031              		.global	coap_serialize_message
 2032              		.syntax unified
 2033              		.thumb
 2034              		.thumb_func
 2035              		.fpu fpv4-sp-d16
 2037              	coap_serialize_message:
 2038              	.LFB20:
 564:g:/iot/IoT_Device_Demo/iot_link/network/lwm2m/wakaama_lwm2m/wakaama-master/core/er-coap-13\er-coap-13.c **** 
 565:g:/iot/IoT_Device_Demo/iot_link/network/lwm2m/wakaama_lwm2m/wakaama-master/core/er-coap-13\er-coap-13.c **** /*-----------------------------------------------------------------------------------*/
 566:g:/iot/IoT_Device_Demo/iot_link/network/lwm2m/wakaama_lwm2m/wakaama-master/core/er-coap-13\er-coap-13.c **** size_t
 567:g:/iot/IoT_Device_Demo/iot_link/network/lwm2m/wakaama_lwm2m/wakaama-master/core/er-coap-13\er-coap-13.c **** coap_serialize_message(void *packet, uint8_t *buffer)
 568:g:/iot/IoT_Device_Demo/iot_link/network/lwm2m/wakaama_lwm2m/wakaama-master/core/er-coap-13\er-coap-13.c **** {
 2039              		.loc 1 568 1
 2040              		.cfi_startproc
 2041              		@ args = 0, pretend = 0, frame = 32
 2042              		@ frame_needed = 1, uses_anonymous_args = 0
 2043 0000 80B5     		push	{r7, lr}
 2044              	.LCFI83:
 2045              		.cfi_def_cfa_offset 8
 2046              		.cfi_offset 7, -8
 2047              		.cfi_offset 14, -4
 2048 0002 8AB0     		sub	sp, sp, #40
 2049              	.LCFI84:
 2050              		.cfi_def_cfa_offset 48
 2051 0004 02AF     		add	r7, sp, #8
 2052              	.LCFI85:
 2053              		.cfi_def_cfa 7, 40
 2054 0006 7860     		str	r0, [r7, #4]
 2055 0008 3960     		str	r1, [r7]
 569:g:/iot/IoT_Device_Demo/iot_link/network/lwm2m/wakaama_lwm2m/wakaama-master/core/er-coap-13\er-coap-13.c ****     coap_packet_t *const coap_pkt = (coap_packet_t *) packet;
 2056              		.loc 1 569 26
 2057 000a 7B68     		ldr	r3, [r7, #4]
 2058 000c BB60     		str	r3, [r7, #8]
 570:g:/iot/IoT_Device_Demo/iot_link/network/lwm2m/wakaama_lwm2m/wakaama-master/core/er-coap-13\er-coap-13.c ****     uint8_t *option;
 571:g:/iot/IoT_Device_Demo/iot_link/network/lwm2m/wakaama_lwm2m/wakaama-master/core/er-coap-13\er-coap-13.c ****     unsigned int current_number = 0;
 2059              		.loc 1 571 18
 2060 000e 0023     		movs	r3, #0
 2061 0010 BB61     		str	r3, [r7, #24]
 572:g:/iot/IoT_Device_Demo/iot_link/network/lwm2m/wakaama_lwm2m/wakaama-master/core/er-coap-13\er-coap-13.c **** 
 573:g:/iot/IoT_Device_Demo/iot_link/network/lwm2m/wakaama_lwm2m/wakaama-master/core/er-coap-13\er-coap-13.c ****     /* Initialize */
 574:g:/iot/IoT_Device_Demo/iot_link/network/lwm2m/wakaama_lwm2m/wakaama-master/core/er-coap-13\er-coap-13.c ****     coap_pkt->buffer = buffer;
 2062              		.loc 1 574 22
 2063 0012 BB68     		ldr	r3, [r7, #8]
 2064 0014 3A68     		ldr	r2, [r7]
ARM GAS  C:\Users\ADMINI~1\AppData\Local\Temp\cc8DJu9v.s 			page 47


 2065 0016 1A60     		str	r2, [r3]
 575:g:/iot/IoT_Device_Demo/iot_link/network/lwm2m/wakaama_lwm2m/wakaama-master/core/er-coap-13\er-coap-13.c ****     coap_pkt->version = 1;
 2066              		.loc 1 575 23
 2067 0018 BB68     		ldr	r3, [r7, #8]
 2068 001a 0122     		movs	r2, #1
 2069 001c 1A71     		strb	r2, [r3, #4]
 576:g:/iot/IoT_Device_Demo/iot_link/network/lwm2m/wakaama_lwm2m/wakaama-master/core/er-coap-13\er-coap-13.c **** 
 577:g:/iot/IoT_Device_Demo/iot_link/network/lwm2m/wakaama_lwm2m/wakaama-master/core/er-coap-13\er-coap-13.c ****     PRINTF("-Serializing MID %u to %p, ", coap_pkt->mid, coap_pkt->buffer);
 578:g:/iot/IoT_Device_Demo/iot_link/network/lwm2m/wakaama_lwm2m/wakaama-master/core/er-coap-13\er-coap-13.c **** 
 579:g:/iot/IoT_Device_Demo/iot_link/network/lwm2m/wakaama_lwm2m/wakaama-master/core/er-coap-13\er-coap-13.c ****     /* set header fields */
 580:g:/iot/IoT_Device_Demo/iot_link/network/lwm2m/wakaama_lwm2m/wakaama-master/core/er-coap-13\er-coap-13.c ****     coap_pkt->buffer[0]  = 0x00;
 2070              		.loc 1 580 13
 2071 001e BB68     		ldr	r3, [r7, #8]
 2072 0020 1B68     		ldr	r3, [r3]
 2073              		.loc 1 580 26
 2074 0022 0022     		movs	r2, #0
 2075 0024 1A70     		strb	r2, [r3]
 581:g:/iot/IoT_Device_Demo/iot_link/network/lwm2m/wakaama_lwm2m/wakaama-master/core/er-coap-13\er-coap-13.c ****     coap_pkt->buffer[0] |= COAP_HEADER_VERSION_MASK & (coap_pkt->version) << COAP_HEADER_VERSION_PO
 2076              		.loc 1 581 13
 2077 0026 BB68     		ldr	r3, [r7, #8]
 2078 0028 1B68     		ldr	r3, [r3]
 2079              		.loc 1 581 25
 2080 002a 1B78     		ldrb	r3, [r3]	@ zero_extendqisi2
 2081 002c 5AB2     		sxtb	r2, r3
 2082              		.loc 1 581 64
 2083 002e BB68     		ldr	r3, [r7, #8]
 2084 0030 1B79     		ldrb	r3, [r3, #4]	@ zero_extendqisi2
 2085              		.loc 1 581 75
 2086 0032 9B01     		lsls	r3, r3, #6
 2087              		.loc 1 581 25
 2088 0034 5BB2     		sxtb	r3, r3
 2089 0036 1343     		orrs	r3, r3, r2
 2090 0038 5AB2     		sxtb	r2, r3
 2091              		.loc 1 581 13
 2092 003a BB68     		ldr	r3, [r7, #8]
 2093 003c 1B68     		ldr	r3, [r3]
 2094              		.loc 1 581 25
 2095 003e D2B2     		uxtb	r2, r2
 2096 0040 1A70     		strb	r2, [r3]
 582:g:/iot/IoT_Device_Demo/iot_link/network/lwm2m/wakaama_lwm2m/wakaama-master/core/er-coap-13\er-coap-13.c ****     coap_pkt->buffer[0] |= COAP_HEADER_TYPE_MASK & (coap_pkt->type) << COAP_HEADER_TYPE_POSITION;
 2097              		.loc 1 582 13
 2098 0042 BB68     		ldr	r3, [r7, #8]
 2099 0044 1B68     		ldr	r3, [r3]
 2100              		.loc 1 582 25
 2101 0046 1B78     		ldrb	r3, [r3]	@ zero_extendqisi2
 2102 0048 5AB2     		sxtb	r2, r3
 2103              		.loc 1 582 61
 2104 004a BB68     		ldr	r3, [r7, #8]
 2105 004c 5B79     		ldrb	r3, [r3, #5]	@ zero_extendqisi2
 2106              		.loc 1 582 69
 2107 004e 1B01     		lsls	r3, r3, #4
 2108              		.loc 1 582 50
 2109 0050 5BB2     		sxtb	r3, r3
 2110 0052 03F03003 		and	r3, r3, #48
 2111 0056 5BB2     		sxtb	r3, r3
 2112              		.loc 1 582 25
 2113 0058 1343     		orrs	r3, r3, r2
ARM GAS  C:\Users\ADMINI~1\AppData\Local\Temp\cc8DJu9v.s 			page 48


 2114 005a 5AB2     		sxtb	r2, r3
 2115              		.loc 1 582 13
 2116 005c BB68     		ldr	r3, [r7, #8]
 2117 005e 1B68     		ldr	r3, [r3]
 2118              		.loc 1 582 25
 2119 0060 D2B2     		uxtb	r2, r2
 2120 0062 1A70     		strb	r2, [r3]
 583:g:/iot/IoT_Device_Demo/iot_link/network/lwm2m/wakaama_lwm2m/wakaama-master/core/er-coap-13\er-coap-13.c ****     coap_pkt->buffer[0] |= COAP_HEADER_TOKEN_LEN_MASK & (coap_pkt->token_len) << COAP_HEADER_TOKEN_
 2121              		.loc 1 583 13
 2122 0064 BB68     		ldr	r3, [r7, #8]
 2123 0066 1B68     		ldr	r3, [r3]
 2124              		.loc 1 583 25
 2125 0068 1B78     		ldrb	r3, [r3]	@ zero_extendqisi2
 2126 006a 5AB2     		sxtb	r2, r3
 2127              		.loc 1 583 66
 2128 006c BB68     		ldr	r3, [r7, #8]
 2129 006e 93F84C30 		ldrb	r3, [r3, #76]	@ zero_extendqisi2
 2130 0072 5BB2     		sxtb	r3, r3
 2131              		.loc 1 583 55
 2132 0074 03F00F03 		and	r3, r3, #15
 2133 0078 5BB2     		sxtb	r3, r3
 2134              		.loc 1 583 25
 2135 007a 1343     		orrs	r3, r3, r2
 2136 007c 5AB2     		sxtb	r2, r3
 2137              		.loc 1 583 13
 2138 007e BB68     		ldr	r3, [r7, #8]
 2139 0080 1B68     		ldr	r3, [r3]
 2140              		.loc 1 583 25
 2141 0082 D2B2     		uxtb	r2, r2
 2142 0084 1A70     		strb	r2, [r3]
 584:g:/iot/IoT_Device_Demo/iot_link/network/lwm2m/wakaama_lwm2m/wakaama-master/core/er-coap-13\er-coap-13.c ****     coap_pkt->buffer[1] = coap_pkt->code;
 2143              		.loc 1 584 13
 2144 0086 BB68     		ldr	r3, [r7, #8]
 2145 0088 1B68     		ldr	r3, [r3]
 2146              		.loc 1 584 21
 2147 008a 0133     		adds	r3, r3, #1
 2148              		.loc 1 584 35
 2149 008c BA68     		ldr	r2, [r7, #8]
 2150 008e 9279     		ldrb	r2, [r2, #6]	@ zero_extendqisi2
 2151              		.loc 1 584 25
 2152 0090 1A70     		strb	r2, [r3]
 585:g:/iot/IoT_Device_Demo/iot_link/network/lwm2m/wakaama_lwm2m/wakaama-master/core/er-coap-13\er-coap-13.c ****     coap_pkt->buffer[2] = (uint8_t) ((coap_pkt->mid) >> 8);
 2153              		.loc 1 585 47
 2154 0092 BB68     		ldr	r3, [r7, #8]
 2155 0094 1B89     		ldrh	r3, [r3, #8]
 2156              		.loc 1 585 27
 2157 0096 1B0A     		lsrs	r3, r3, #8
 2158 0098 9AB2     		uxth	r2, r3
 2159              		.loc 1 585 13
 2160 009a BB68     		ldr	r3, [r7, #8]
 2161 009c 1B68     		ldr	r3, [r3]
 2162              		.loc 1 585 21
 2163 009e 0233     		adds	r3, r3, #2
 2164              		.loc 1 585 27
 2165 00a0 D2B2     		uxtb	r2, r2
 2166              		.loc 1 585 25
 2167 00a2 1A70     		strb	r2, [r3]
ARM GAS  C:\Users\ADMINI~1\AppData\Local\Temp\cc8DJu9v.s 			page 49


 586:g:/iot/IoT_Device_Demo/iot_link/network/lwm2m/wakaama_lwm2m/wakaama-master/core/er-coap-13\er-coap-13.c ****     coap_pkt->buffer[3] = (uint8_t) (coap_pkt->mid);
 2168              		.loc 1 586 46
 2169 00a4 BB68     		ldr	r3, [r7, #8]
 2170 00a6 1A89     		ldrh	r2, [r3, #8]
 2171              		.loc 1 586 13
 2172 00a8 BB68     		ldr	r3, [r7, #8]
 2173 00aa 1B68     		ldr	r3, [r3]
 2174              		.loc 1 586 21
 2175 00ac 0333     		adds	r3, r3, #3
 2176              		.loc 1 586 27
 2177 00ae D2B2     		uxtb	r2, r2
 2178              		.loc 1 586 25
 2179 00b0 1A70     		strb	r2, [r3]
 587:g:/iot/IoT_Device_Demo/iot_link/network/lwm2m/wakaama_lwm2m/wakaama-master/core/er-coap-13\er-coap-13.c **** 
 588:g:/iot/IoT_Device_Demo/iot_link/network/lwm2m/wakaama_lwm2m/wakaama-master/core/er-coap-13\er-coap-13.c ****     /* set Token */
 589:g:/iot/IoT_Device_Demo/iot_link/network/lwm2m/wakaama_lwm2m/wakaama-master/core/er-coap-13\er-coap-13.c ****     PRINTF("Token (len %u)", coap_pkt->token_len);
 590:g:/iot/IoT_Device_Demo/iot_link/network/lwm2m/wakaama_lwm2m/wakaama-master/core/er-coap-13\er-coap-13.c ****     option = coap_pkt->buffer + COAP_HEADER_LEN;
 2180              		.loc 1 590 22
 2181 00b2 BB68     		ldr	r3, [r7, #8]
 2182 00b4 1B68     		ldr	r3, [r3]
 2183              		.loc 1 590 12
 2184 00b6 0433     		adds	r3, r3, #4
 2185 00b8 FB61     		str	r3, [r7, #28]
 591:g:/iot/IoT_Device_Demo/iot_link/network/lwm2m/wakaama_lwm2m/wakaama-master/core/er-coap-13\er-coap-13.c ****     for (current_number = 0; current_number < coap_pkt->token_len; ++current_number)
 2186              		.loc 1 591 25
 2187 00ba 0023     		movs	r3, #0
 2188 00bc BB61     		str	r3, [r7, #24]
 2189              		.loc 1 591 5
 2190 00be 0CE0     		b	.L105
 2191              	.L106:
 592:g:/iot/IoT_Device_Demo/iot_link/network/lwm2m/wakaama_lwm2m/wakaama-master/core/er-coap-13\er-coap-13.c ****     {
 593:g:/iot/IoT_Device_Demo/iot_link/network/lwm2m/wakaama_lwm2m/wakaama-master/core/er-coap-13\er-coap-13.c ****         PRINTF(" %02X", coap_pkt->token[current_number]);
 594:g:/iot/IoT_Device_Demo/iot_link/network/lwm2m/wakaama_lwm2m/wakaama-master/core/er-coap-13\er-coap-13.c ****         *option = coap_pkt->token[current_number];
 2192              		.loc 1 594 34 discriminator 3
 2193 00c0 BA68     		ldr	r2, [r7, #8]
 2194 00c2 BB69     		ldr	r3, [r7, #24]
 2195 00c4 1344     		add	r3, r3, r2
 2196 00c6 4D33     		adds	r3, r3, #77
 2197 00c8 1A78     		ldrb	r2, [r3]	@ zero_extendqisi2
 2198              		.loc 1 594 17 discriminator 3
 2199 00ca FB69     		ldr	r3, [r7, #28]
 2200 00cc 1A70     		strb	r2, [r3]
 595:g:/iot/IoT_Device_Demo/iot_link/network/lwm2m/wakaama_lwm2m/wakaama-master/core/er-coap-13\er-coap-13.c ****         ++option;
 2201              		.loc 1 595 9 discriminator 3
 2202 00ce FB69     		ldr	r3, [r7, #28]
 2203 00d0 0133     		adds	r3, r3, #1
 2204 00d2 FB61     		str	r3, [r7, #28]
 591:g:/iot/IoT_Device_Demo/iot_link/network/lwm2m/wakaama_lwm2m/wakaama-master/core/er-coap-13\er-coap-13.c ****     for (current_number = 0; current_number < coap_pkt->token_len; ++current_number)
 2205              		.loc 1 591 68 discriminator 3
 2206 00d4 BB69     		ldr	r3, [r7, #24]
 2207 00d6 0133     		adds	r3, r3, #1
 2208 00d8 BB61     		str	r3, [r7, #24]
 2209              	.L105:
 591:g:/iot/IoT_Device_Demo/iot_link/network/lwm2m/wakaama_lwm2m/wakaama-master/core/er-coap-13\er-coap-13.c ****     for (current_number = 0; current_number < coap_pkt->token_len; ++current_number)
 2210              		.loc 1 591 55 discriminator 1
 2211 00da BB68     		ldr	r3, [r7, #8]
 2212 00dc 93F84C30 		ldrb	r3, [r3, #76]	@ zero_extendqisi2
ARM GAS  C:\Users\ADMINI~1\AppData\Local\Temp\cc8DJu9v.s 			page 50


 2213 00e0 1A46     		mov	r2, r3
 591:g:/iot/IoT_Device_Demo/iot_link/network/lwm2m/wakaama_lwm2m/wakaama-master/core/er-coap-13\er-coap-13.c ****     for (current_number = 0; current_number < coap_pkt->token_len; ++current_number)
 2214              		.loc 1 591 5 discriminator 1
 2215 00e2 BB69     		ldr	r3, [r7, #24]
 2216 00e4 9342     		cmp	r3, r2
 2217 00e6 EBD3     		bcc	.L106
 596:g:/iot/IoT_Device_Demo/iot_link/network/lwm2m/wakaama_lwm2m/wakaama-master/core/er-coap-13\er-coap-13.c ****     }
 597:g:/iot/IoT_Device_Demo/iot_link/network/lwm2m/wakaama_lwm2m/wakaama-master/core/er-coap-13\er-coap-13.c ****     PRINTF("-\n");
 598:g:/iot/IoT_Device_Demo/iot_link/network/lwm2m/wakaama_lwm2m/wakaama-master/core/er-coap-13\er-coap-13.c **** 
 599:g:/iot/IoT_Device_Demo/iot_link/network/lwm2m/wakaama_lwm2m/wakaama-master/core/er-coap-13\er-coap-13.c ****     /* Serialize options */
 600:g:/iot/IoT_Device_Demo/iot_link/network/lwm2m/wakaama_lwm2m/wakaama-master/core/er-coap-13\er-coap-13.c ****     current_number = 0;
 2218              		.loc 1 600 20
 2219 00e8 0023     		movs	r3, #0
 2220 00ea BB61     		str	r3, [r7, #24]
 601:g:/iot/IoT_Device_Demo/iot_link/network/lwm2m/wakaama_lwm2m/wakaama-master/core/er-coap-13\er-coap-13.c **** 
 602:g:/iot/IoT_Device_Demo/iot_link/network/lwm2m/wakaama_lwm2m/wakaama-master/core/er-coap-13\er-coap-13.c ****     PRINTF("-Serializing options at %p-\n", option);
 603:g:/iot/IoT_Device_Demo/iot_link/network/lwm2m/wakaama_lwm2m/wakaama-master/core/er-coap-13\er-coap-13.c **** 
 604:g:/iot/IoT_Device_Demo/iot_link/network/lwm2m/wakaama_lwm2m/wakaama-master/core/er-coap-13\er-coap-13.c ****     /* The options must be serialized in the order of their number */
 605:g:/iot/IoT_Device_Demo/iot_link/network/lwm2m/wakaama_lwm2m/wakaama-master/core/er-coap-13\er-coap-13.c ****     COAP_SERIALIZE_BYTE_OPTION(   COAP_OPTION_IF_MATCH,       if_match, "If-Match")
 2221              		.loc 1 605 5
 2222 00ec BB68     		ldr	r3, [r7, #8]
 2223 00ee 9B7A     		ldrb	r3, [r3, #10]	@ zero_extendqisi2
 2224 00f0 03F00203 		and	r3, r3, #2
 2225 00f4 002B     		cmp	r3, #0
 2226 00f6 15D0     		beq	.L107
 2227              		.loc 1 605 5 is_stmt 0 discriminator 1
 2228 00f8 BB68     		ldr	r3, [r7, #8]
 2229 00fa 03F15B02 		add	r2, r3, #91
 2230 00fe BB68     		ldr	r3, [r7, #8]
 2231 0100 93F85A30 		ldrb	r3, [r3, #90]	@ zero_extendqisi2
 2232 0104 1946     		mov	r1, r3
 2233 0106 0023     		movs	r3, #0
 2234 0108 0193     		str	r3, [sp, #4]
 2235 010a 0091     		str	r1, [sp]
 2236 010c 1346     		mov	r3, r2
 2237 010e FA69     		ldr	r2, [r7, #28]
 2238 0110 B969     		ldr	r1, [r7, #24]
 2239 0112 0120     		movs	r0, #1
 2240 0114 FFF7FEFF 		bl	coap_serialize_array_option
 2241 0118 0246     		mov	r2, r0
 2242 011a FB69     		ldr	r3, [r7, #28]
 2243 011c 1344     		add	r3, r3, r2
 2244 011e FB61     		str	r3, [r7, #28]
 2245 0120 0123     		movs	r3, #1
 2246 0122 BB61     		str	r3, [r7, #24]
 2247              	.L107:
 606:g:/iot/IoT_Device_Demo/iot_link/network/lwm2m/wakaama_lwm2m/wakaama-master/core/er-coap-13\er-coap-13.c ****     COAP_SERIALIZE_STRING_OPTION( COAP_OPTION_URI_HOST,       uri_host, '\0', "Uri-Host")
 2248              		.loc 1 606 5 is_stmt 1
 2249 0124 BB68     		ldr	r3, [r7, #8]
 2250 0126 9B7A     		ldrb	r3, [r3, #10]	@ zero_extendqisi2
 2251 0128 03F00803 		and	r3, r3, #8
 2252 012c 002B     		cmp	r3, #0
 2253 012e 12D0     		beq	.L108
 2254              		.loc 1 606 5 is_stmt 0 discriminator 1
 2255 0130 BB68     		ldr	r3, [r7, #8]
 2256 0132 1A6B     		ldr	r2, [r3, #48]
 2257 0134 BB68     		ldr	r3, [r7, #8]
ARM GAS  C:\Users\ADMINI~1\AppData\Local\Temp\cc8DJu9v.s 			page 51


 2258 0136 DB6A     		ldr	r3, [r3, #44]
 2259 0138 0021     		movs	r1, #0
 2260 013a 0191     		str	r1, [sp, #4]
 2261 013c 0093     		str	r3, [sp]
 2262 013e 1346     		mov	r3, r2
 2263 0140 FA69     		ldr	r2, [r7, #28]
 2264 0142 B969     		ldr	r1, [r7, #24]
 2265 0144 0320     		movs	r0, #3
 2266 0146 FFF7FEFF 		bl	coap_serialize_array_option
 2267 014a 0246     		mov	r2, r0
 2268 014c FB69     		ldr	r3, [r7, #28]
 2269 014e 1344     		add	r3, r3, r2
 2270 0150 FB61     		str	r3, [r7, #28]
 2271 0152 0323     		movs	r3, #3
 2272 0154 BB61     		str	r3, [r7, #24]
 2273              	.L108:
 607:g:/iot/IoT_Device_Demo/iot_link/network/lwm2m/wakaama_lwm2m/wakaama-master/core/er-coap-13\er-coap-13.c ****     COAP_SERIALIZE_BYTE_OPTION(   COAP_OPTION_ETAG,           etag, "ETag")
 2274              		.loc 1 607 5 is_stmt 1
 2275 0156 BB68     		ldr	r3, [r7, #8]
 2276 0158 9B7A     		ldrb	r3, [r3, #10]	@ zero_extendqisi2
 2277 015a 03F01003 		and	r3, r3, #16
 2278 015e 002B     		cmp	r3, #0
 2279 0160 15D0     		beq	.L109
 2280              		.loc 1 607 5 is_stmt 0 discriminator 1
 2281 0162 BB68     		ldr	r3, [r7, #8]
 2282 0164 03F12102 		add	r2, r3, #33
 2283 0168 BB68     		ldr	r3, [r7, #8]
 2284 016a 93F82030 		ldrb	r3, [r3, #32]	@ zero_extendqisi2
 2285 016e 1946     		mov	r1, r3
 2286 0170 0023     		movs	r3, #0
 2287 0172 0193     		str	r3, [sp, #4]
 2288 0174 0091     		str	r1, [sp]
 2289 0176 1346     		mov	r3, r2
 2290 0178 FA69     		ldr	r2, [r7, #28]
 2291 017a B969     		ldr	r1, [r7, #24]
 2292 017c 0420     		movs	r0, #4
 2293 017e FFF7FEFF 		bl	coap_serialize_array_option
 2294 0182 0246     		mov	r2, r0
 2295 0184 FB69     		ldr	r3, [r7, #28]
 2296 0186 1344     		add	r3, r3, r2
 2297 0188 FB61     		str	r3, [r7, #28]
 2298 018a 0423     		movs	r3, #4
 2299 018c BB61     		str	r3, [r7, #24]
 2300              	.L109:
 608:g:/iot/IoT_Device_Demo/iot_link/network/lwm2m/wakaama_lwm2m/wakaama-master/core/er-coap-13\er-coap-13.c ****     COAP_SERIALIZE_INT_OPTION(    COAP_OPTION_IF_NONE_MATCH,  content_type - coap_pkt->content_type
 2301              		.loc 1 608 5 is_stmt 1
 2302 018e BB68     		ldr	r3, [r7, #8]
 2303 0190 9B7A     		ldrb	r3, [r3, #10]	@ zero_extendqisi2
 2304 0192 03F02003 		and	r3, r3, #32
 2305 0196 002B     		cmp	r3, #0
 2306 0198 0BD0     		beq	.L110
 2307              		.loc 1 608 5 is_stmt 0 discriminator 1
 2308 019a 0023     		movs	r3, #0
 2309 019c FA69     		ldr	r2, [r7, #28]
 2310 019e B969     		ldr	r1, [r7, #24]
 2311 01a0 0520     		movs	r0, #5
 2312 01a2 FFF7FEFF 		bl	coap_serialize_int_option
ARM GAS  C:\Users\ADMINI~1\AppData\Local\Temp\cc8DJu9v.s 			page 52


 2313 01a6 0246     		mov	r2, r0
 2314 01a8 FB69     		ldr	r3, [r7, #28]
 2315 01aa 1344     		add	r3, r3, r2
 2316 01ac FB61     		str	r3, [r7, #28]
 2317 01ae 0523     		movs	r3, #5
 2318 01b0 BB61     		str	r3, [r7, #24]
 2319              	.L110:
 609:g:/iot/IoT_Device_Demo/iot_link/network/lwm2m/wakaama_lwm2m/wakaama-master/core/er-coap-13\er-coap-13.c ****     COAP_SERIALIZE_INT_OPTION(    COAP_OPTION_OBSERVE,        observe, "Observe")
 2320              		.loc 1 609 5 is_stmt 1
 2321 01b2 BB68     		ldr	r3, [r7, #8]
 2322 01b4 9B7A     		ldrb	r3, [r3, #10]	@ zero_extendqisi2
 2323 01b6 03F04003 		and	r3, r3, #64
 2324 01ba 002B     		cmp	r3, #0
 2325 01bc 0CD0     		beq	.L111
 2326              		.loc 1 609 5 is_stmt 0 discriminator 1
 2327 01be BB68     		ldr	r3, [r7, #8]
 2328 01c0 9B6C     		ldr	r3, [r3, #72]
 2329 01c2 FA69     		ldr	r2, [r7, #28]
 2330 01c4 B969     		ldr	r1, [r7, #24]
 2331 01c6 0620     		movs	r0, #6
 2332 01c8 FFF7FEFF 		bl	coap_serialize_int_option
 2333 01cc 0246     		mov	r2, r0
 2334 01ce FB69     		ldr	r3, [r7, #28]
 2335 01d0 1344     		add	r3, r3, r2
 2336 01d2 FB61     		str	r3, [r7, #28]
 2337 01d4 0623     		movs	r3, #6
 2338 01d6 BB61     		str	r3, [r7, #24]
 2339              	.L111:
 610:g:/iot/IoT_Device_Demo/iot_link/network/lwm2m/wakaama_lwm2m/wakaama-master/core/er-coap-13\er-coap-13.c ****     COAP_SERIALIZE_INT_OPTION(    COAP_OPTION_URI_PORT,       uri_port, "Uri-Port")
 2340              		.loc 1 610 5 is_stmt 1
 2341 01d8 BB68     		ldr	r3, [r7, #8]
 2342 01da 9B7A     		ldrb	r3, [r3, #10]	@ zero_extendqisi2
 2343 01dc 5BB2     		sxtb	r3, r3
 2344 01de 002B     		cmp	r3, #0
 2345 01e0 0CDA     		bge	.L112
 2346              		.loc 1 610 5 is_stmt 0 discriminator 1
 2347 01e2 BB68     		ldr	r3, [r7, #8]
 2348 01e4 1B8F     		ldrh	r3, [r3, #56]
 2349 01e6 FA69     		ldr	r2, [r7, #28]
 2350 01e8 B969     		ldr	r1, [r7, #24]
 2351 01ea 0720     		movs	r0, #7
 2352 01ec FFF7FEFF 		bl	coap_serialize_int_option
 2353 01f0 0246     		mov	r2, r0
 2354 01f2 FB69     		ldr	r3, [r7, #28]
 2355 01f4 1344     		add	r3, r3, r2
 2356 01f6 FB61     		str	r3, [r7, #28]
 2357 01f8 0723     		movs	r3, #7
 2358 01fa BB61     		str	r3, [r7, #24]
 2359              	.L112:
 611:g:/iot/IoT_Device_Demo/iot_link/network/lwm2m/wakaama_lwm2m/wakaama-master/core/er-coap-13\er-coap-13.c ****     COAP_SERIALIZE_MULTI_OPTION(  COAP_OPTION_LOCATION_PATH,  location_path, "Location-Path")
 2360              		.loc 1 611 5 is_stmt 1
 2361 01fc BB68     		ldr	r3, [r7, #8]
 2362 01fe DB7A     		ldrb	r3, [r3, #11]	@ zero_extendqisi2
 2363 0200 03F00103 		and	r3, r3, #1
 2364 0204 002B     		cmp	r3, #0
 2365 0206 0CD0     		beq	.L113
 2366              		.loc 1 611 5 is_stmt 0 discriminator 1
ARM GAS  C:\Users\ADMINI~1\AppData\Local\Temp\cc8DJu9v.s 			page 53


 2367 0208 BB68     		ldr	r3, [r7, #8]
 2368 020a 5B6B     		ldr	r3, [r3, #52]
 2369 020c FA69     		ldr	r2, [r7, #28]
 2370 020e B969     		ldr	r1, [r7, #24]
 2371 0210 0820     		movs	r0, #8
 2372 0212 FFF7FEFF 		bl	coap_serialize_multi_option
 2373 0216 0246     		mov	r2, r0
 2374 0218 FB69     		ldr	r3, [r7, #28]
 2375 021a 1344     		add	r3, r3, r2
 2376 021c FB61     		str	r3, [r7, #28]
 2377 021e 0823     		movs	r3, #8
 2378 0220 BB61     		str	r3, [r7, #24]
 2379              	.L113:
 612:g:/iot/IoT_Device_Demo/iot_link/network/lwm2m/wakaama_lwm2m/wakaama-master/core/er-coap-13\er-coap-13.c ****     COAP_SERIALIZE_MULTI_OPTION(  COAP_OPTION_URI_PATH,       uri_path, "Uri-Path")
 2380              		.loc 1 612 5 is_stmt 1
 2381 0222 BB68     		ldr	r3, [r7, #8]
 2382 0224 DB7A     		ldrb	r3, [r3, #11]	@ zero_extendqisi2
 2383 0226 03F00803 		and	r3, r3, #8
 2384 022a 002B     		cmp	r3, #0
 2385 022c 0CD0     		beq	.L114
 2386              		.loc 1 612 5 is_stmt 0 discriminator 1
 2387 022e BB68     		ldr	r3, [r7, #8]
 2388 0230 5B6C     		ldr	r3, [r3, #68]
 2389 0232 FA69     		ldr	r2, [r7, #28]
 2390 0234 B969     		ldr	r1, [r7, #24]
 2391 0236 0B20     		movs	r0, #11
 2392 0238 FFF7FEFF 		bl	coap_serialize_multi_option
 2393 023c 0246     		mov	r2, r0
 2394 023e FB69     		ldr	r3, [r7, #28]
 2395 0240 1344     		add	r3, r3, r2
 2396 0242 FB61     		str	r3, [r7, #28]
 2397 0244 0B23     		movs	r3, #11
 2398 0246 BB61     		str	r3, [r7, #24]
 2399              	.L114:
 613:g:/iot/IoT_Device_Demo/iot_link/network/lwm2m/wakaama_lwm2m/wakaama-master/core/er-coap-13\er-coap-13.c ****     COAP_SERIALIZE_INT_OPTION(    COAP_OPTION_CONTENT_TYPE,   content_type, "Content-Format")
 2400              		.loc 1 613 5 is_stmt 1
 2401 0248 BB68     		ldr	r3, [r7, #8]
 2402 024a DB7A     		ldrb	r3, [r3, #11]	@ zero_extendqisi2
 2403 024c 03F01003 		and	r3, r3, #16
 2404 0250 002B     		cmp	r3, #0
 2405 0252 0CD0     		beq	.L115
 2406              		.loc 1 613 5 is_stmt 0 discriminator 1
 2407 0254 BB68     		ldr	r3, [r7, #8]
 2408 0256 1B8A     		ldrh	r3, [r3, #16]
 2409 0258 FA69     		ldr	r2, [r7, #28]
 2410 025a B969     		ldr	r1, [r7, #24]
 2411 025c 0C20     		movs	r0, #12
 2412 025e FFF7FEFF 		bl	coap_serialize_int_option
 2413 0262 0246     		mov	r2, r0
 2414 0264 FB69     		ldr	r3, [r7, #28]
 2415 0266 1344     		add	r3, r3, r2
 2416 0268 FB61     		str	r3, [r7, #28]
 2417 026a 0C23     		movs	r3, #12
 2418 026c BB61     		str	r3, [r7, #24]
 2419              	.L115:
 614:g:/iot/IoT_Device_Demo/iot_link/network/lwm2m/wakaama_lwm2m/wakaama-master/core/er-coap-13\er-coap-13.c ****     COAP_SERIALIZE_INT_OPTION(    COAP_OPTION_MAX_AGE,        max_age, "Max-Age")
 2420              		.loc 1 614 5 is_stmt 1
ARM GAS  C:\Users\ADMINI~1\AppData\Local\Temp\cc8DJu9v.s 			page 54


 2421 026e BB68     		ldr	r3, [r7, #8]
 2422 0270 DB7A     		ldrb	r3, [r3, #11]	@ zero_extendqisi2
 2423 0272 03F04003 		and	r3, r3, #64
 2424 0276 002B     		cmp	r3, #0
 2425 0278 0CD0     		beq	.L116
 2426              		.loc 1 614 5 is_stmt 0 discriminator 1
 2427 027a BB68     		ldr	r3, [r7, #8]
 2428 027c 5B69     		ldr	r3, [r3, #20]
 2429 027e FA69     		ldr	r2, [r7, #28]
 2430 0280 B969     		ldr	r1, [r7, #24]
 2431 0282 0E20     		movs	r0, #14
 2432 0284 FFF7FEFF 		bl	coap_serialize_int_option
 2433 0288 0246     		mov	r2, r0
 2434 028a FB69     		ldr	r3, [r7, #28]
 2435 028c 1344     		add	r3, r3, r2
 2436 028e FB61     		str	r3, [r7, #28]
 2437 0290 0E23     		movs	r3, #14
 2438 0292 BB61     		str	r3, [r7, #24]
 2439              	.L116:
 615:g:/iot/IoT_Device_Demo/iot_link/network/lwm2m/wakaama_lwm2m/wakaama-master/core/er-coap-13\er-coap-13.c ****     COAP_SERIALIZE_MULTI_OPTION(  COAP_OPTION_URI_QUERY,      uri_query, "Uri-Query")
 2440              		.loc 1 615 5 is_stmt 1
 2441 0294 BB68     		ldr	r3, [r7, #8]
 2442 0296 DB7A     		ldrb	r3, [r3, #11]	@ zero_extendqisi2
 2443 0298 5BB2     		sxtb	r3, r3
 2444 029a 002B     		cmp	r3, #0
 2445 029c 0DDA     		bge	.L117
 2446              		.loc 1 615 5 is_stmt 0 discriminator 1
 2447 029e BB68     		ldr	r3, [r7, #8]
 2448 02a0 D3F88030 		ldr	r3, [r3, #128]
 2449 02a4 FA69     		ldr	r2, [r7, #28]
 2450 02a6 B969     		ldr	r1, [r7, #24]
 2451 02a8 0F20     		movs	r0, #15
 2452 02aa FFF7FEFF 		bl	coap_serialize_multi_option
 2453 02ae 0246     		mov	r2, r0
 2454 02b0 FB69     		ldr	r3, [r7, #28]
 2455 02b2 1344     		add	r3, r3, r2
 2456 02b4 FB61     		str	r3, [r7, #28]
 2457 02b6 0F23     		movs	r3, #15
 2458 02b8 BB61     		str	r3, [r7, #24]
 2459              	.L117:
 616:g:/iot/IoT_Device_Demo/iot_link/network/lwm2m/wakaama_lwm2m/wakaama-master/core/er-coap-13\er-coap-13.c ****     COAP_SERIALIZE_ACCEPT_OPTION( COAP_OPTION_ACCEPT,         accept, "Accept")
 2460              		.loc 1 616 5 is_stmt 1
 2461 02ba BB68     		ldr	r3, [r7, #8]
 2462 02bc 1B7B     		ldrb	r3, [r3, #12]	@ zero_extendqisi2
 2463 02be 03F00203 		and	r3, r3, #2
 2464 02c2 002B     		cmp	r3, #0
 2465 02c4 1DD0     		beq	.L118
 2466              	.LBB9:
 2467              		.loc 1 616 5 is_stmt 0 discriminator 1
 2468 02c6 0023     		movs	r3, #0
 2469 02c8 7B61     		str	r3, [r7, #20]
 2470 02ca 13E0     		b	.L119
 2471              	.L120:
 2472              		.loc 1 616 5 discriminator 4
 2473 02cc BA68     		ldr	r2, [r7, #8]
 2474 02ce 7B69     		ldr	r3, [r7, #20]
 2475 02d0 2833     		adds	r3, r3, #40
ARM GAS  C:\Users\ADMINI~1\AppData\Local\Temp\cc8DJu9v.s 			page 55


 2476 02d2 5B00     		lsls	r3, r3, #1
 2477 02d4 1344     		add	r3, r3, r2
 2478 02d6 DB88     		ldrh	r3, [r3, #6]
 2479 02d8 FA69     		ldr	r2, [r7, #28]
 2480 02da B969     		ldr	r1, [r7, #24]
 2481 02dc 1120     		movs	r0, #17
 2482 02de FFF7FEFF 		bl	coap_serialize_int_option
 2483 02e2 0246     		mov	r2, r0
 2484 02e4 FB69     		ldr	r3, [r7, #28]
 2485 02e6 1344     		add	r3, r3, r2
 2486 02e8 FB61     		str	r3, [r7, #28]
 2487 02ea 1123     		movs	r3, #17
 2488 02ec BB61     		str	r3, [r7, #24]
 2489 02ee 7B69     		ldr	r3, [r7, #20]
 2490 02f0 0133     		adds	r3, r3, #1
 2491 02f2 7B61     		str	r3, [r7, #20]
 2492              	.L119:
 2493              		.loc 1 616 5 discriminator 2
 2494 02f4 BB68     		ldr	r3, [r7, #8]
 2495 02f6 93F85530 		ldrb	r3, [r3, #85]	@ zero_extendqisi2
 2496 02fa 1A46     		mov	r2, r3
 2497 02fc 7B69     		ldr	r3, [r7, #20]
 2498 02fe 9342     		cmp	r3, r2
 2499 0300 E4DB     		blt	.L120
 2500              	.L118:
 2501              	.LBE9:
 617:g:/iot/IoT_Device_Demo/iot_link/network/lwm2m/wakaama_lwm2m/wakaama-master/core/er-coap-13\er-coap-13.c ****     COAP_SERIALIZE_STRING_OPTION( COAP_OPTION_LOCATION_QUERY, location_query, '&', "Location-Query"
 2502              		.loc 1 617 5 is_stmt 1
 2503 0302 BB68     		ldr	r3, [r7, #8]
 2504 0304 1B7B     		ldrb	r3, [r3, #12]	@ zero_extendqisi2
 2505 0306 03F01003 		and	r3, r3, #16
 2506 030a 002B     		cmp	r3, #0
 2507 030c 12D0     		beq	.L121
 2508              		.loc 1 617 5 is_stmt 0 discriminator 1
 2509 030e BB68     		ldr	r3, [r7, #8]
 2510 0310 1A6C     		ldr	r2, [r3, #64]
 2511 0312 BB68     		ldr	r3, [r7, #8]
 2512 0314 DB6B     		ldr	r3, [r3, #60]
 2513 0316 2621     		movs	r1, #38
 2514 0318 0191     		str	r1, [sp, #4]
 2515 031a 0093     		str	r3, [sp]
 2516 031c 1346     		mov	r3, r2
 2517 031e FA69     		ldr	r2, [r7, #28]
 2518 0320 B969     		ldr	r1, [r7, #24]
 2519 0322 1420     		movs	r0, #20
 2520 0324 FFF7FEFF 		bl	coap_serialize_array_option
 2521 0328 0246     		mov	r2, r0
 2522 032a FB69     		ldr	r3, [r7, #28]
 2523 032c 1344     		add	r3, r3, r2
 2524 032e FB61     		str	r3, [r7, #28]
 2525 0330 1423     		movs	r3, #20
 2526 0332 BB61     		str	r3, [r7, #24]
 2527              	.L121:
 618:g:/iot/IoT_Device_Demo/iot_link/network/lwm2m/wakaama_lwm2m/wakaama-master/core/er-coap-13\er-coap-13.c ****     COAP_SERIALIZE_BLOCK_OPTION(  COAP_OPTION_BLOCK2,         block2, "Block2")
 2528              		.loc 1 618 5 is_stmt 1
 2529 0334 BB68     		ldr	r3, [r7, #8]
 2530 0336 1B7B     		ldrb	r3, [r3, #12]	@ zero_extendqisi2
ARM GAS  C:\Users\ADMINI~1\AppData\Local\Temp\cc8DJu9v.s 			page 56


 2531 0338 5BB2     		sxtb	r3, r3
 2532 033a 002B     		cmp	r3, #0
 2533 033c 27DA     		bge	.L122
 2534              	.LBB10:
 2535              		.loc 1 618 5 is_stmt 0 discriminator 1
 2536 033e BB68     		ldr	r3, [r7, #8]
 2537 0340 5B6E     		ldr	r3, [r3, #100]
 2538 0342 1B01     		lsls	r3, r3, #4
 2539 0344 3B61     		str	r3, [r7, #16]
 2540 0346 BB68     		ldr	r3, [r7, #8]
 2541 0348 93F86830 		ldrb	r3, [r3, #104]	@ zero_extendqisi2
 2542 034c 002B     		cmp	r3, #0
 2543 034e 03D0     		beq	.L123
 2544              		.loc 1 618 5 discriminator 2
 2545 0350 3B69     		ldr	r3, [r7, #16]
 2546 0352 43F00803 		orr	r3, r3, #8
 2547 0356 3B61     		str	r3, [r7, #16]
 2548              	.L123:
 2549              		.loc 1 618 5 discriminator 4
 2550 0358 BB68     		ldr	r3, [r7, #8]
 2551 035a B3F86A30 		ldrh	r3, [r3, #106]
 2552 035e 1B09     		lsrs	r3, r3, #4
 2553 0360 9BB2     		uxth	r3, r3
 2554 0362 1846     		mov	r0, r3
 2555 0364 FFF7FEFF 		bl	coap_log_2
 2556 0368 0346     		mov	r3, r0
 2557 036a 03F00F03 		and	r3, r3, #15
 2558 036e 1A46     		mov	r2, r3
 2559 0370 3B69     		ldr	r3, [r7, #16]
 2560 0372 1343     		orrs	r3, r3, r2
 2561 0374 3B61     		str	r3, [r7, #16]
 2562 0376 3B69     		ldr	r3, [r7, #16]
 2563 0378 FA69     		ldr	r2, [r7, #28]
 2564 037a B969     		ldr	r1, [r7, #24]
 2565 037c 1720     		movs	r0, #23
 2566 037e FFF7FEFF 		bl	coap_serialize_int_option
 2567 0382 0246     		mov	r2, r0
 2568 0384 FB69     		ldr	r3, [r7, #28]
 2569 0386 1344     		add	r3, r3, r2
 2570 0388 FB61     		str	r3, [r7, #28]
 2571 038a 1723     		movs	r3, #23
 2572 038c BB61     		str	r3, [r7, #24]
 2573              	.L122:
 2574              	.LBE10:
 619:g:/iot/IoT_Device_Demo/iot_link/network/lwm2m/wakaama_lwm2m/wakaama-master/core/er-coap-13\er-coap-13.c ****     COAP_SERIALIZE_BLOCK_OPTION(  COAP_OPTION_BLOCK1,         block1, "Block1")
 2575              		.loc 1 619 5 is_stmt 1
 2576 038e BB68     		ldr	r3, [r7, #8]
 2577 0390 5B7B     		ldrb	r3, [r3, #13]	@ zero_extendqisi2
 2578 0392 03F00803 		and	r3, r3, #8
 2579 0396 002B     		cmp	r3, #0
 2580 0398 27D0     		beq	.L124
 2581              	.LBB11:
 2582              		.loc 1 619 5 is_stmt 0 discriminator 1
 2583 039a BB68     		ldr	r3, [r7, #8]
 2584 039c 1B6F     		ldr	r3, [r3, #112]
 2585 039e 1B01     		lsls	r3, r3, #4
 2586 03a0 FB60     		str	r3, [r7, #12]
ARM GAS  C:\Users\ADMINI~1\AppData\Local\Temp\cc8DJu9v.s 			page 57


 2587 03a2 BB68     		ldr	r3, [r7, #8]
 2588 03a4 93F87430 		ldrb	r3, [r3, #116]	@ zero_extendqisi2
 2589 03a8 002B     		cmp	r3, #0
 2590 03aa 03D0     		beq	.L125
 2591              		.loc 1 619 5 discriminator 2
 2592 03ac FB68     		ldr	r3, [r7, #12]
 2593 03ae 43F00803 		orr	r3, r3, #8
 2594 03b2 FB60     		str	r3, [r7, #12]
 2595              	.L125:
 2596              		.loc 1 619 5 discriminator 4
 2597 03b4 BB68     		ldr	r3, [r7, #8]
 2598 03b6 B3F87630 		ldrh	r3, [r3, #118]
 2599 03ba 1B09     		lsrs	r3, r3, #4
 2600 03bc 9BB2     		uxth	r3, r3
 2601 03be 1846     		mov	r0, r3
 2602 03c0 FFF7FEFF 		bl	coap_log_2
 2603 03c4 0346     		mov	r3, r0
 2604 03c6 03F00F03 		and	r3, r3, #15
 2605 03ca 1A46     		mov	r2, r3
 2606 03cc FB68     		ldr	r3, [r7, #12]
 2607 03ce 1343     		orrs	r3, r3, r2
 2608 03d0 FB60     		str	r3, [r7, #12]
 2609 03d2 FB68     		ldr	r3, [r7, #12]
 2610 03d4 FA69     		ldr	r2, [r7, #28]
 2611 03d6 B969     		ldr	r1, [r7, #24]
 2612 03d8 1B20     		movs	r0, #27
 2613 03da FFF7FEFF 		bl	coap_serialize_int_option
 2614 03de 0246     		mov	r2, r0
 2615 03e0 FB69     		ldr	r3, [r7, #28]
 2616 03e2 1344     		add	r3, r3, r2
 2617 03e4 FB61     		str	r3, [r7, #28]
 2618 03e6 1B23     		movs	r3, #27
 2619 03e8 BB61     		str	r3, [r7, #24]
 2620              	.L124:
 2621              	.LBE11:
 620:g:/iot/IoT_Device_Demo/iot_link/network/lwm2m/wakaama_lwm2m/wakaama-master/core/er-coap-13\er-coap-13.c ****     COAP_SERIALIZE_INT_OPTION(    COAP_OPTION_SIZE,           size, "Size")
 2622              		.loc 1 620 5 is_stmt 1
 2623 03ea BB68     		ldr	r3, [r7, #8]
 2624 03ec 5B7B     		ldrb	r3, [r3, #13]	@ zero_extendqisi2
 2625 03ee 03F01003 		and	r3, r3, #16
 2626 03f2 002B     		cmp	r3, #0
 2627 03f4 0CD0     		beq	.L126
 2628              		.loc 1 620 5 is_stmt 0 discriminator 1
 2629 03f6 BB68     		ldr	r3, [r7, #8]
 2630 03f8 DB6F     		ldr	r3, [r3, #124]
 2631 03fa FA69     		ldr	r2, [r7, #28]
 2632 03fc B969     		ldr	r1, [r7, #24]
 2633 03fe 1C20     		movs	r0, #28
 2634 0400 FFF7FEFF 		bl	coap_serialize_int_option
 2635 0404 0246     		mov	r2, r0
 2636 0406 FB69     		ldr	r3, [r7, #28]
 2637 0408 1344     		add	r3, r3, r2
 2638 040a FB61     		str	r3, [r7, #28]
 2639 040c 1C23     		movs	r3, #28
 2640 040e BB61     		str	r3, [r7, #24]
 2641              	.L126:
 621:g:/iot/IoT_Device_Demo/iot_link/network/lwm2m/wakaama_lwm2m/wakaama-master/core/er-coap-13\er-coap-13.c ****     COAP_SERIALIZE_STRING_OPTION( COAP_OPTION_PROXY_URI,      proxy_uri, '\0', "Proxy-Uri")
ARM GAS  C:\Users\ADMINI~1\AppData\Local\Temp\cc8DJu9v.s 			page 58


 2642              		.loc 1 621 5 is_stmt 1
 2643 0410 BB68     		ldr	r3, [r7, #8]
 2644 0412 9B7B     		ldrb	r3, [r3, #14]	@ zero_extendqisi2
 2645 0414 03F00803 		and	r3, r3, #8
 2646 0418 002B     		cmp	r3, #0
 2647 041a 12D0     		beq	.L127
 2648              		.loc 1 621 5 is_stmt 0 discriminator 1
 2649 041c BB68     		ldr	r3, [r7, #8]
 2650 041e DA69     		ldr	r2, [r3, #28]
 2651 0420 BB68     		ldr	r3, [r7, #8]
 2652 0422 9B69     		ldr	r3, [r3, #24]
 2653 0424 0021     		movs	r1, #0
 2654 0426 0191     		str	r1, [sp, #4]
 2655 0428 0093     		str	r3, [sp]
 2656 042a 1346     		mov	r3, r2
 2657 042c FA69     		ldr	r2, [r7, #28]
 2658 042e B969     		ldr	r1, [r7, #24]
 2659 0430 2320     		movs	r0, #35
 2660 0432 FFF7FEFF 		bl	coap_serialize_array_option
 2661 0436 0246     		mov	r2, r0
 2662 0438 FB69     		ldr	r3, [r7, #28]
 2663 043a 1344     		add	r3, r3, r2
 2664 043c FB61     		str	r3, [r7, #28]
 2665 043e 2323     		movs	r3, #35
 2666 0440 BB61     		str	r3, [r7, #24]
 2667              	.L127:
 622:g:/iot/IoT_Device_Demo/iot_link/network/lwm2m/wakaama_lwm2m/wakaama-master/core/er-coap-13\er-coap-13.c **** 
 623:g:/iot/IoT_Device_Demo/iot_link/network/lwm2m/wakaama_lwm2m/wakaama-master/core/er-coap-13\er-coap-13.c ****     PRINTF("-Done serializing at %p----\n", option);
 624:g:/iot/IoT_Device_Demo/iot_link/network/lwm2m/wakaama_lwm2m/wakaama-master/core/er-coap-13\er-coap-13.c **** 
 625:g:/iot/IoT_Device_Demo/iot_link/network/lwm2m/wakaama_lwm2m/wakaama-master/core/er-coap-13\er-coap-13.c ****     /* Free allocated header fields */
 626:g:/iot/IoT_Device_Demo/iot_link/network/lwm2m/wakaama_lwm2m/wakaama-master/core/er-coap-13\er-coap-13.c ****     coap_free_header(packet);
 2668              		.loc 1 626 5 is_stmt 1
 2669 0442 7868     		ldr	r0, [r7, #4]
 2670 0444 FFF7FEFF 		bl	coap_free_header
 627:g:/iot/IoT_Device_Demo/iot_link/network/lwm2m/wakaama_lwm2m/wakaama-master/core/er-coap-13\er-coap-13.c **** 
 628:g:/iot/IoT_Device_Demo/iot_link/network/lwm2m/wakaama_lwm2m/wakaama-master/core/er-coap-13\er-coap-13.c ****     /* Pack payload */
 629:g:/iot/IoT_Device_Demo/iot_link/network/lwm2m/wakaama_lwm2m/wakaama-master/core/er-coap-13\er-coap-13.c ****     /* Payload marker */
 630:g:/iot/IoT_Device_Demo/iot_link/network/lwm2m/wakaama_lwm2m/wakaama-master/core/er-coap-13\er-coap-13.c ****     if (coap_pkt->payload_len)
 2671              		.loc 1 630 17
 2672 0448 BB68     		ldr	r3, [r7, #8]
 2673 044a B3F88630 		ldrh	r3, [r3, #134]
 2674              		.loc 1 630 8
 2675 044e 002B     		cmp	r3, #0
 2676 0450 05D0     		beq	.L128
 631:g:/iot/IoT_Device_Demo/iot_link/network/lwm2m/wakaama_lwm2m/wakaama-master/core/er-coap-13\er-coap-13.c ****     {
 632:g:/iot/IoT_Device_Demo/iot_link/network/lwm2m/wakaama_lwm2m/wakaama-master/core/er-coap-13\er-coap-13.c ****         *option = 0xFF;
 2677              		.loc 1 632 17
 2678 0452 FB69     		ldr	r3, [r7, #28]
 2679 0454 FF22     		movs	r2, #255
 2680 0456 1A70     		strb	r2, [r3]
 633:g:/iot/IoT_Device_Demo/iot_link/network/lwm2m/wakaama_lwm2m/wakaama-master/core/er-coap-13\er-coap-13.c ****         ++option;
 2681              		.loc 1 633 9
 2682 0458 FB69     		ldr	r3, [r7, #28]
 2683 045a 0133     		adds	r3, r3, #1
 2684 045c FB61     		str	r3, [r7, #28]
 2685              	.L128:
 634:g:/iot/IoT_Device_Demo/iot_link/network/lwm2m/wakaama_lwm2m/wakaama-master/core/er-coap-13\er-coap-13.c ****     }
ARM GAS  C:\Users\ADMINI~1\AppData\Local\Temp\cc8DJu9v.s 			page 59


 635:g:/iot/IoT_Device_Demo/iot_link/network/lwm2m/wakaama_lwm2m/wakaama-master/core/er-coap-13\er-coap-13.c **** 
 636:g:/iot/IoT_Device_Demo/iot_link/network/lwm2m/wakaama_lwm2m/wakaama-master/core/er-coap-13\er-coap-13.c ****     memmove(option, coap_pkt->payload, coap_pkt->payload_len);
 2686              		.loc 1 636 29
 2687 045e BB68     		ldr	r3, [r7, #8]
 2688 0460 D3F88810 		ldr	r1, [r3, #136]
 2689              		.loc 1 636 48
 2690 0464 BB68     		ldr	r3, [r7, #8]
 2691 0466 B3F88630 		ldrh	r3, [r3, #134]
 2692              		.loc 1 636 5
 2693 046a 1A46     		mov	r2, r3
 2694 046c F869     		ldr	r0, [r7, #28]
 2695 046e FFF7FEFF 		bl	memmove
 637:g:/iot/IoT_Device_Demo/iot_link/network/lwm2m/wakaama_lwm2m/wakaama-master/core/er-coap-13\er-coap-13.c **** 
 638:g:/iot/IoT_Device_Demo/iot_link/network/lwm2m/wakaama_lwm2m/wakaama-master/core/er-coap-13\er-coap-13.c ****     PRINTF("-Done %u B (header len %u, payload len %u)-\n", coap_pkt->payload_len + option - buffer
 639:g:/iot/IoT_Device_Demo/iot_link/network/lwm2m/wakaama_lwm2m/wakaama-master/core/er-coap-13\er-coap-13.c **** 
 640:g:/iot/IoT_Device_Demo/iot_link/network/lwm2m/wakaama_lwm2m/wakaama-master/core/er-coap-13\er-coap-13.c ****     PRINTF("Dump [0x%02X %02X %02X %02X  %02X %02X %02X %02X]\n",
 641:g:/iot/IoT_Device_Demo/iot_link/network/lwm2m/wakaama_lwm2m/wakaama-master/core/er-coap-13\er-coap-13.c ****            coap_pkt->buffer[0],
 642:g:/iot/IoT_Device_Demo/iot_link/network/lwm2m/wakaama_lwm2m/wakaama-master/core/er-coap-13\er-coap-13.c ****            coap_pkt->buffer[1],
 643:g:/iot/IoT_Device_Demo/iot_link/network/lwm2m/wakaama_lwm2m/wakaama-master/core/er-coap-13\er-coap-13.c ****            coap_pkt->buffer[2],
 644:g:/iot/IoT_Device_Demo/iot_link/network/lwm2m/wakaama_lwm2m/wakaama-master/core/er-coap-13\er-coap-13.c ****            coap_pkt->buffer[3],
 645:g:/iot/IoT_Device_Demo/iot_link/network/lwm2m/wakaama_lwm2m/wakaama-master/core/er-coap-13\er-coap-13.c ****            coap_pkt->buffer[4],
 646:g:/iot/IoT_Device_Demo/iot_link/network/lwm2m/wakaama_lwm2m/wakaama-master/core/er-coap-13\er-coap-13.c ****            coap_pkt->buffer[5],
 647:g:/iot/IoT_Device_Demo/iot_link/network/lwm2m/wakaama_lwm2m/wakaama-master/core/er-coap-13\er-coap-13.c ****            coap_pkt->buffer[6],
 648:g:/iot/IoT_Device_Demo/iot_link/network/lwm2m/wakaama_lwm2m/wakaama-master/core/er-coap-13\er-coap-13.c ****            coap_pkt->buffer[7]
 649:g:/iot/IoT_Device_Demo/iot_link/network/lwm2m/wakaama_lwm2m/wakaama-master/core/er-coap-13\er-coap-13.c ****           );
 650:g:/iot/IoT_Device_Demo/iot_link/network/lwm2m/wakaama_lwm2m/wakaama-master/core/er-coap-13\er-coap-13.c **** 
 651:g:/iot/IoT_Device_Demo/iot_link/network/lwm2m/wakaama_lwm2m/wakaama-master/core/er-coap-13\er-coap-13.c ****     return (option - buffer) + coap_pkt->payload_len; /* packet length */
 2696              		.loc 1 651 20
 2697 0472 FA69     		ldr	r2, [r7, #28]
 2698 0474 3B68     		ldr	r3, [r7]
 2699 0476 D31A     		subs	r3, r2, r3
 2700              		.loc 1 651 40
 2701 0478 BA68     		ldr	r2, [r7, #8]
 2702 047a B2F88620 		ldrh	r2, [r2, #134]
 2703              		.loc 1 651 30
 2704 047e 1344     		add	r3, r3, r2
 652:g:/iot/IoT_Device_Demo/iot_link/network/lwm2m/wakaama_lwm2m/wakaama-master/core/er-coap-13\er-coap-13.c **** }
 2705              		.loc 1 652 1
 2706 0480 1846     		mov	r0, r3
 2707 0482 2037     		adds	r7, r7, #32
 2708              	.LCFI86:
 2709              		.cfi_def_cfa_offset 8
 2710 0484 BD46     		mov	sp, r7
 2711              	.LCFI87:
 2712              		.cfi_def_cfa_register 13
 2713              		@ sp needed
 2714 0486 80BD     		pop	{r7, pc}
 2715              		.cfi_endproc
 2716              	.LFE20:
 2718              		.section	.rodata
 2719 0001 000000   		.align	2
 2720              	.LC1:
 2721 0004 436F4150 		.ascii	"CoAP version must be 1\000"
 2721      20766572 
 2721      73696F6E 
 2721      206D7573 
 2721      74206265 
ARM GAS  C:\Users\ADMINI~1\AppData\Local\Temp\cc8DJu9v.s 			page 60


 2722 001b 00       		.align	2
 2723              	.LC2:
 2724 001c 54686973 		.ascii	"This is a constrained server (Contiki)\000"
 2724      20697320 
 2724      6120636F 
 2724      6E737472 
 2724      61696E65 
 2725 0043 00       		.align	2
 2726              	.LC3:
 2727 0044 556E7375 		.ascii	"Unsupported critical option\000"
 2727      70706F72 
 2727      74656420 
 2727      63726974 
 2727      6963616C 
 2728              		.section	.text.coap_parse_message,"ax",%progbits
 2729              		.align	1
 2730              		.global	coap_parse_message
 2731              		.syntax unified
 2732              		.thumb
 2733              		.thumb_func
 2734              		.fpu fpv4-sp-d16
 2736              	coap_parse_message:
 2737              	.LFB21:
 653:g:/iot/IoT_Device_Demo/iot_link/network/lwm2m/wakaama_lwm2m/wakaama-master/core/er-coap-13\er-coap-13.c **** /*-----------------------------------------------------------------------------------*/
 654:g:/iot/IoT_Device_Demo/iot_link/network/lwm2m/wakaama_lwm2m/wakaama-master/core/er-coap-13\er-coap-13.c **** coap_status_t
 655:g:/iot/IoT_Device_Demo/iot_link/network/lwm2m/wakaama_lwm2m/wakaama-master/core/er-coap-13\er-coap-13.c **** coap_parse_message(void *packet, uint8_t *data, uint16_t data_len)
 656:g:/iot/IoT_Device_Demo/iot_link/network/lwm2m/wakaama_lwm2m/wakaama-master/core/er-coap-13\er-coap-13.c **** {
 2738              		.loc 1 656 1
 2739              		.cfi_startproc
 2740              		@ args = 0, pretend = 0, frame = 40
 2741              		@ frame_needed = 1, uses_anonymous_args = 0
 2742 0000 80B5     		push	{r7, lr}
 2743              	.LCFI88:
 2744              		.cfi_def_cfa_offset 8
 2745              		.cfi_offset 7, -8
 2746              		.cfi_offset 14, -4
 2747 0002 8CB0     		sub	sp, sp, #48
 2748              	.LCFI89:
 2749              		.cfi_def_cfa_offset 56
 2750 0004 02AF     		add	r7, sp, #8
 2751              	.LCFI90:
 2752              		.cfi_def_cfa 7, 48
 2753 0006 F860     		str	r0, [r7, #12]
 2754 0008 B960     		str	r1, [r7, #8]
 2755 000a 1346     		mov	r3, r2
 2756 000c FB80     		strh	r3, [r7, #6]	@ movhi
 657:g:/iot/IoT_Device_Demo/iot_link/network/lwm2m/wakaama_lwm2m/wakaama-master/core/er-coap-13\er-coap-13.c ****     coap_packet_t *const coap_pkt = (coap_packet_t *) packet;
 2757              		.loc 1 657 26
 2758 000e FB68     		ldr	r3, [r7, #12]
 2759 0010 BB61     		str	r3, [r7, #24]
 658:g:/iot/IoT_Device_Demo/iot_link/network/lwm2m/wakaama_lwm2m/wakaama-master/core/er-coap-13\er-coap-13.c ****     uint8_t *current_option;
 659:g:/iot/IoT_Device_Demo/iot_link/network/lwm2m/wakaama_lwm2m/wakaama-master/core/er-coap-13\er-coap-13.c ****     unsigned int option_number = 0;
 2760              		.loc 1 659 18
 2761 0012 0023     		movs	r3, #0
 2762 0014 3B62     		str	r3, [r7, #32]
 660:g:/iot/IoT_Device_Demo/iot_link/network/lwm2m/wakaama_lwm2m/wakaama-master/core/er-coap-13\er-coap-13.c ****     unsigned int option_delta = 0;
 2763              		.loc 1 660 18
ARM GAS  C:\Users\ADMINI~1\AppData\Local\Temp\cc8DJu9v.s 			page 61


 2764 0016 0023     		movs	r3, #0
 2765 0018 7B61     		str	r3, [r7, #20]
 661:g:/iot/IoT_Device_Demo/iot_link/network/lwm2m/wakaama_lwm2m/wakaama-master/core/er-coap-13\er-coap-13.c ****     size_t option_length = 0;
 2766              		.loc 1 661 12
 2767 001a 0023     		movs	r3, #0
 2768 001c 3B61     		str	r3, [r7, #16]
 662:g:/iot/IoT_Device_Demo/iot_link/network/lwm2m/wakaama_lwm2m/wakaama-master/core/er-coap-13\er-coap-13.c ****     unsigned int *x;
 663:g:/iot/IoT_Device_Demo/iot_link/network/lwm2m/wakaama_lwm2m/wakaama-master/core/er-coap-13\er-coap-13.c **** 
 664:g:/iot/IoT_Device_Demo/iot_link/network/lwm2m/wakaama_lwm2m/wakaama-master/core/er-coap-13\er-coap-13.c ****     /* Initialize packet */
 665:g:/iot/IoT_Device_Demo/iot_link/network/lwm2m/wakaama_lwm2m/wakaama-master/core/er-coap-13\er-coap-13.c ****     memset(coap_pkt, 0, sizeof(coap_packet_t));
 2769              		.loc 1 665 5
 2770 001e 8C22     		movs	r2, #140
 2771 0020 0021     		movs	r1, #0
 2772 0022 B869     		ldr	r0, [r7, #24]
 2773 0024 FFF7FEFF 		bl	memset
 666:g:/iot/IoT_Device_Demo/iot_link/network/lwm2m/wakaama_lwm2m/wakaama-master/core/er-coap-13\er-coap-13.c **** 
 667:g:/iot/IoT_Device_Demo/iot_link/network/lwm2m/wakaama_lwm2m/wakaama-master/core/er-coap-13\er-coap-13.c ****     /* pointer to packet bytes */
 668:g:/iot/IoT_Device_Demo/iot_link/network/lwm2m/wakaama_lwm2m/wakaama-master/core/er-coap-13\er-coap-13.c ****     coap_pkt->buffer = data;
 2774              		.loc 1 668 22
 2775 0028 BB69     		ldr	r3, [r7, #24]
 2776 002a BA68     		ldr	r2, [r7, #8]
 2777 002c 1A60     		str	r2, [r3]
 669:g:/iot/IoT_Device_Demo/iot_link/network/lwm2m/wakaama_lwm2m/wakaama-master/core/er-coap-13\er-coap-13.c **** 
 670:g:/iot/IoT_Device_Demo/iot_link/network/lwm2m/wakaama_lwm2m/wakaama-master/core/er-coap-13\er-coap-13.c ****     /* parse header fields */
 671:g:/iot/IoT_Device_Demo/iot_link/network/lwm2m/wakaama_lwm2m/wakaama-master/core/er-coap-13\er-coap-13.c ****     coap_pkt->version = (COAP_HEADER_VERSION_MASK & coap_pkt->buffer[0]) >> COAP_HEADER_VERSION_POS
 2778              		.loc 1 671 61
 2779 002e BB69     		ldr	r3, [r7, #24]
 2780 0030 1B68     		ldr	r3, [r3]
 2781              		.loc 1 671 69
 2782 0032 1B78     		ldrb	r3, [r3]	@ zero_extendqisi2
 2783              		.loc 1 671 23
 2784 0034 9B09     		lsrs	r3, r3, #6
 2785 0036 DAB2     		uxtb	r2, r3
 2786 0038 BB69     		ldr	r3, [r7, #24]
 2787 003a 1A71     		strb	r2, [r3, #4]
 672:g:/iot/IoT_Device_Demo/iot_link/network/lwm2m/wakaama_lwm2m/wakaama-master/core/er-coap-13\er-coap-13.c ****     coap_pkt->type = (coap_message_type_t)((COAP_HEADER_TYPE_MASK & coap_pkt->buffer[0]) >> COAP_HE
 2788              		.loc 1 672 77
 2789 003c BB69     		ldr	r3, [r7, #24]
 2790 003e 1B68     		ldr	r3, [r3]
 2791              		.loc 1 672 85
 2792 0040 1B78     		ldrb	r3, [r3]	@ zero_extendqisi2
 2793              		.loc 1 672 22
 2794 0042 1B09     		lsrs	r3, r3, #4
 2795 0044 DBB2     		uxtb	r3, r3
 2796              		.loc 1 672 20
 2797 0046 03F00303 		and	r3, r3, #3
 2798 004a DAB2     		uxtb	r2, r3
 2799 004c BB69     		ldr	r3, [r7, #24]
 2800 004e 5A71     		strb	r2, [r3, #5]
 673:g:/iot/IoT_Device_Demo/iot_link/network/lwm2m/wakaama_lwm2m/wakaama-master/core/er-coap-13\er-coap-13.c ****     coap_pkt->token_len = MIN(COAP_TOKEN_LEN, (COAP_HEADER_TOKEN_LEN_MASK & coap_pkt->buffer[0]) >>
 2801              		.loc 1 673 27
 2802 0050 BB69     		ldr	r3, [r7, #24]
 2803 0052 1B68     		ldr	r3, [r3]
 2804 0054 1B78     		ldrb	r3, [r3]	@ zero_extendqisi2
 2805 0056 03F00F03 		and	r3, r3, #15
 2806 005a 082B     		cmp	r3, #8
 2807 005c A8BF     		it	ge
ARM GAS  C:\Users\ADMINI~1\AppData\Local\Temp\cc8DJu9v.s 			page 62


 2808 005e 0823     		movge	r3, #8
 2809              		.loc 1 673 25
 2810 0060 DAB2     		uxtb	r2, r3
 2811 0062 BB69     		ldr	r3, [r7, #24]
 2812 0064 83F84C20 		strb	r2, [r3, #76]
 674:g:/iot/IoT_Device_Demo/iot_link/network/lwm2m/wakaama_lwm2m/wakaama-master/core/er-coap-13\er-coap-13.c ****     coap_pkt->code = coap_pkt->buffer[1];
 2813              		.loc 1 674 30
 2814 0068 BB69     		ldr	r3, [r7, #24]
 2815 006a 1B68     		ldr	r3, [r3]
 2816              		.loc 1 674 20
 2817 006c 5A78     		ldrb	r2, [r3, #1]	@ zero_extendqisi2
 2818 006e BB69     		ldr	r3, [r7, #24]
 2819 0070 9A71     		strb	r2, [r3, #6]
 675:g:/iot/IoT_Device_Demo/iot_link/network/lwm2m/wakaama_lwm2m/wakaama-master/core/er-coap-13\er-coap-13.c ****     coap_pkt->mid = coap_pkt->buffer[2] << 8 | coap_pkt->buffer[3];
 2820              		.loc 1 675 29
 2821 0072 BB69     		ldr	r3, [r7, #24]
 2822 0074 1B68     		ldr	r3, [r3]
 2823              		.loc 1 675 37
 2824 0076 0233     		adds	r3, r3, #2
 2825 0078 1B78     		ldrb	r3, [r3]	@ zero_extendqisi2
 2826              		.loc 1 675 41
 2827 007a 1B02     		lsls	r3, r3, #8
 2828              		.loc 1 675 46
 2829 007c 1AB2     		sxth	r2, r3
 2830              		.loc 1 675 56
 2831 007e BB69     		ldr	r3, [r7, #24]
 2832 0080 1B68     		ldr	r3, [r3]
 2833              		.loc 1 675 64
 2834 0082 0333     		adds	r3, r3, #3
 2835 0084 1B78     		ldrb	r3, [r3]	@ zero_extendqisi2
 2836 0086 1BB2     		sxth	r3, r3
 2837              		.loc 1 675 46
 2838 0088 1343     		orrs	r3, r3, r2
 2839 008a 1BB2     		sxth	r3, r3
 2840 008c 9AB2     		uxth	r2, r3
 2841              		.loc 1 675 19
 2842 008e BB69     		ldr	r3, [r7, #24]
 2843 0090 1A81     		strh	r2, [r3, #8]	@ movhi
 676:g:/iot/IoT_Device_Demo/iot_link/network/lwm2m/wakaama_lwm2m/wakaama-master/core/er-coap-13\er-coap-13.c **** 
 677:g:/iot/IoT_Device_Demo/iot_link/network/lwm2m/wakaama_lwm2m/wakaama-master/core/er-coap-13\er-coap-13.c ****     if (coap_pkt->version != 1)
 2844              		.loc 1 677 17
 2845 0092 BB69     		ldr	r3, [r7, #24]
 2846 0094 1B79     		ldrb	r3, [r3, #4]	@ zero_extendqisi2
 2847              		.loc 1 677 8
 2848 0096 012B     		cmp	r3, #1
 2849 0098 04D0     		beq	.L131
 678:g:/iot/IoT_Device_Demo/iot_link/network/lwm2m/wakaama_lwm2m/wakaama-master/core/er-coap-13\er-coap-13.c ****     {
 679:g:/iot/IoT_Device_Demo/iot_link/network/lwm2m/wakaama_lwm2m/wakaama-master/core/er-coap-13\er-coap-13.c ****         coap_error_message = "CoAP version must be 1";
 2850              		.loc 1 679 28
 2851 009a AE4B     		ldr	r3, .L171
 2852 009c AE4A     		ldr	r2, .L171+4
 2853 009e 1A60     		str	r2, [r3]
 680:g:/iot/IoT_Device_Demo/iot_link/network/lwm2m/wakaama_lwm2m/wakaama-master/core/er-coap-13\er-coap-13.c ****         return BAD_REQUEST_4_00;
 2854              		.loc 1 680 16
 2855 00a0 8023     		movs	r3, #128
 2856 00a2 24E2     		b	.L169
 2857              	.L131:
ARM GAS  C:\Users\ADMINI~1\AppData\Local\Temp\cc8DJu9v.s 			page 63


 681:g:/iot/IoT_Device_Demo/iot_link/network/lwm2m/wakaama_lwm2m/wakaama-master/core/er-coap-13\er-coap-13.c ****     }
 682:g:/iot/IoT_Device_Demo/iot_link/network/lwm2m/wakaama_lwm2m/wakaama-master/core/er-coap-13\er-coap-13.c **** 
 683:g:/iot/IoT_Device_Demo/iot_link/network/lwm2m/wakaama_lwm2m/wakaama-master/core/er-coap-13\er-coap-13.c ****     current_option = data + COAP_HEADER_LEN;
 2858              		.loc 1 683 20
 2859 00a4 BB68     		ldr	r3, [r7, #8]
 2860 00a6 0433     		adds	r3, r3, #4
 2861 00a8 7B62     		str	r3, [r7, #36]
 684:g:/iot/IoT_Device_Demo/iot_link/network/lwm2m/wakaama_lwm2m/wakaama-master/core/er-coap-13\er-coap-13.c **** 
 685:g:/iot/IoT_Device_Demo/iot_link/network/lwm2m/wakaama_lwm2m/wakaama-master/core/er-coap-13\er-coap-13.c ****     if (coap_pkt->token_len != 0)
 2862              		.loc 1 685 17
 2863 00aa BB69     		ldr	r3, [r7, #24]
 2864 00ac 93F84C30 		ldrb	r3, [r3, #76]	@ zero_extendqisi2
 2865              		.loc 1 685 8
 2866 00b0 002B     		cmp	r3, #0
 2867 00b2 10D0     		beq	.L133
 686:g:/iot/IoT_Device_Demo/iot_link/network/lwm2m/wakaama_lwm2m/wakaama-master/core/er-coap-13\er-coap-13.c ****     {
 687:g:/iot/IoT_Device_Demo/iot_link/network/lwm2m/wakaama_lwm2m/wakaama-master/core/er-coap-13\er-coap-13.c ****         memcpy(coap_pkt->token, current_option, coap_pkt->token_len);
 2868              		.loc 1 687 24
 2869 00b4 BB69     		ldr	r3, [r7, #24]
 2870 00b6 03F14D00 		add	r0, r3, #77
 2871              		.loc 1 687 57
 2872 00ba BB69     		ldr	r3, [r7, #24]
 2873 00bc 93F84C30 		ldrb	r3, [r3, #76]	@ zero_extendqisi2
 2874              		.loc 1 687 9
 2875 00c0 1A46     		mov	r2, r3
 2876 00c2 796A     		ldr	r1, [r7, #36]
 2877 00c4 FFF7FEFF 		bl	memcpy
 688:g:/iot/IoT_Device_Demo/iot_link/network/lwm2m/wakaama_lwm2m/wakaama-master/core/er-coap-13\er-coap-13.c ****         SET_OPTION(coap_pkt, COAP_OPTION_TOKEN);
 2878              		.loc 1 688 9
 2879 00c8 BB69     		ldr	r3, [r7, #24]
 2880 00ca 1B7B     		ldrb	r3, [r3, #12]	@ zero_extendqisi2
 2881 00cc 43F00803 		orr	r3, r3, #8
 2882 00d0 DAB2     		uxtb	r2, r3
 2883 00d2 BB69     		ldr	r3, [r7, #24]
 2884 00d4 1A73     		strb	r2, [r3, #12]
 2885              	.L133:
 689:g:/iot/IoT_Device_Demo/iot_link/network/lwm2m/wakaama_lwm2m/wakaama-master/core/er-coap-13\er-coap-13.c **** 
 690:g:/iot/IoT_Device_Demo/iot_link/network/lwm2m/wakaama_lwm2m/wakaama-master/core/er-coap-13\er-coap-13.c ****         PRINTF("Token (len %u) [0x%02X%02X%02X%02X%02X%02X%02X%02X]\n", coap_pkt->token_len,
 691:g:/iot/IoT_Device_Demo/iot_link/network/lwm2m/wakaama_lwm2m/wakaama-master/core/er-coap-13\er-coap-13.c ****                coap_pkt->token[0],
 692:g:/iot/IoT_Device_Demo/iot_link/network/lwm2m/wakaama_lwm2m/wakaama-master/core/er-coap-13\er-coap-13.c ****                coap_pkt->token[1],
 693:g:/iot/IoT_Device_Demo/iot_link/network/lwm2m/wakaama_lwm2m/wakaama-master/core/er-coap-13\er-coap-13.c ****                coap_pkt->token[2],
 694:g:/iot/IoT_Device_Demo/iot_link/network/lwm2m/wakaama_lwm2m/wakaama-master/core/er-coap-13\er-coap-13.c ****                coap_pkt->token[3],
 695:g:/iot/IoT_Device_Demo/iot_link/network/lwm2m/wakaama_lwm2m/wakaama-master/core/er-coap-13\er-coap-13.c ****                coap_pkt->token[4],
 696:g:/iot/IoT_Device_Demo/iot_link/network/lwm2m/wakaama_lwm2m/wakaama-master/core/er-coap-13\er-coap-13.c ****                coap_pkt->token[5],
 697:g:/iot/IoT_Device_Demo/iot_link/network/lwm2m/wakaama_lwm2m/wakaama-master/core/er-coap-13\er-coap-13.c ****                coap_pkt->token[6],
 698:g:/iot/IoT_Device_Demo/iot_link/network/lwm2m/wakaama_lwm2m/wakaama-master/core/er-coap-13\er-coap-13.c ****                coap_pkt->token[7]
 699:g:/iot/IoT_Device_Demo/iot_link/network/lwm2m/wakaama_lwm2m/wakaama-master/core/er-coap-13\er-coap-13.c ****               ); /*FIXME always prints 8 bytes */
 700:g:/iot/IoT_Device_Demo/iot_link/network/lwm2m/wakaama_lwm2m/wakaama-master/core/er-coap-13\er-coap-13.c ****     }
 701:g:/iot/IoT_Device_Demo/iot_link/network/lwm2m/wakaama_lwm2m/wakaama-master/core/er-coap-13\er-coap-13.c **** 
 702:g:/iot/IoT_Device_Demo/iot_link/network/lwm2m/wakaama_lwm2m/wakaama-master/core/er-coap-13\er-coap-13.c ****     /* parse options */
 703:g:/iot/IoT_Device_Demo/iot_link/network/lwm2m/wakaama_lwm2m/wakaama-master/core/er-coap-13\er-coap-13.c ****     current_option += coap_pkt->token_len;
 2886              		.loc 1 703 31
 2887 00d6 BB69     		ldr	r3, [r7, #24]
 2888 00d8 93F84C30 		ldrb	r3, [r3, #76]	@ zero_extendqisi2
 2889 00dc 1A46     		mov	r2, r3
 2890              		.loc 1 703 20
 2891 00de 7B6A     		ldr	r3, [r7, #36]
ARM GAS  C:\Users\ADMINI~1\AppData\Local\Temp\cc8DJu9v.s 			page 64


 2892 00e0 1344     		add	r3, r3, r2
 2893 00e2 7B62     		str	r3, [r7, #36]
 704:g:/iot/IoT_Device_Demo/iot_link/network/lwm2m/wakaama_lwm2m/wakaama-master/core/er-coap-13\er-coap-13.c **** 
 705:g:/iot/IoT_Device_Demo/iot_link/network/lwm2m/wakaama_lwm2m/wakaama-master/core/er-coap-13\er-coap-13.c ****     while (current_option < data + data_len)
 2894              		.loc 1 705 11
 2895 00e4 FBE1     		b	.L134
 2896              	.L168:
 706:g:/iot/IoT_Device_Demo/iot_link/network/lwm2m/wakaama_lwm2m/wakaama-master/core/er-coap-13\er-coap-13.c ****     {
 707:g:/iot/IoT_Device_Demo/iot_link/network/lwm2m/wakaama_lwm2m/wakaama-master/core/er-coap-13\er-coap-13.c ****         /* Payload marker 0xFF, currently only checking for 0xF* because rest is reserved */
 708:g:/iot/IoT_Device_Demo/iot_link/network/lwm2m/wakaama_lwm2m/wakaama-master/core/er-coap-13\er-coap-13.c ****         if ((current_option[0] & 0xF0) == 0xF0)
 2897              		.loc 1 708 28
 2898 00e6 7B6A     		ldr	r3, [r7, #36]
 2899 00e8 1B78     		ldrb	r3, [r3]	@ zero_extendqisi2
 2900              		.loc 1 708 32
 2901 00ea 03F0F003 		and	r3, r3, #240
 2902              		.loc 1 708 12
 2903 00ee F02B     		cmp	r3, #240
 2904 00f0 13D1     		bne	.L135
 709:g:/iot/IoT_Device_Demo/iot_link/network/lwm2m/wakaama_lwm2m/wakaama-master/core/er-coap-13\er-coap-13.c ****         {
 710:g:/iot/IoT_Device_Demo/iot_link/network/lwm2m/wakaama_lwm2m/wakaama-master/core/er-coap-13\er-coap-13.c ****             coap_pkt->payload = ++current_option;
 2905              		.loc 1 710 31
 2906 00f2 7B6A     		ldr	r3, [r7, #36]
 2907 00f4 0133     		adds	r3, r3, #1
 2908 00f6 7B62     		str	r3, [r7, #36]
 2909 00f8 BB69     		ldr	r3, [r7, #24]
 2910 00fa 7A6A     		ldr	r2, [r7, #36]
 2911 00fc C3F88820 		str	r2, [r3, #136]
 711:g:/iot/IoT_Device_Demo/iot_link/network/lwm2m/wakaama_lwm2m/wakaama-master/core/er-coap-13\er-coap-13.c ****             coap_pkt->payload_len = data_len - (coap_pkt->payload - data);
 2912              		.loc 1 711 57
 2913 0100 BB69     		ldr	r3, [r7, #24]
 2914 0102 D3F88820 		ldr	r2, [r3, #136]
 2915              		.loc 1 711 67
 2916 0106 BB68     		ldr	r3, [r7, #8]
 2917 0108 D31A     		subs	r3, r2, r3
 2918              		.loc 1 711 46
 2919 010a 9BB2     		uxth	r3, r3
 2920 010c FA88     		ldrh	r2, [r7, #6]	@ movhi
 2921 010e D31A     		subs	r3, r2, r3
 2922 0110 9AB2     		uxth	r2, r3
 2923              		.loc 1 711 35
 2924 0112 BB69     		ldr	r3, [r7, #24]
 2925 0114 A3F88620 		strh	r2, [r3, #134]	@ movhi
 712:g:/iot/IoT_Device_Demo/iot_link/network/lwm2m/wakaama_lwm2m/wakaama-master/core/er-coap-13\er-coap-13.c **** 
 713:g:/iot/IoT_Device_Demo/iot_link/network/lwm2m/wakaama_lwm2m/wakaama-master/core/er-coap-13\er-coap-13.c ****             break;
 2926              		.loc 1 713 13
 2927 0118 E8E1     		b	.L136
 2928              	.L135:
 714:g:/iot/IoT_Device_Demo/iot_link/network/lwm2m/wakaama_lwm2m/wakaama-master/core/er-coap-13\er-coap-13.c ****         }
 715:g:/iot/IoT_Device_Demo/iot_link/network/lwm2m/wakaama_lwm2m/wakaama-master/core/er-coap-13\er-coap-13.c **** 
 716:g:/iot/IoT_Device_Demo/iot_link/network/lwm2m/wakaama_lwm2m/wakaama-master/core/er-coap-13\er-coap-13.c ****         option_delta = current_option[0] >> 4;
 2929              		.loc 1 716 38
 2930 011a 7B6A     		ldr	r3, [r7, #36]
 2931 011c 1B78     		ldrb	r3, [r3]	@ zero_extendqisi2
 2932              		.loc 1 716 42
 2933 011e 1B09     		lsrs	r3, r3, #4
 2934 0120 DBB2     		uxtb	r3, r3
 2935              		.loc 1 716 22
ARM GAS  C:\Users\ADMINI~1\AppData\Local\Temp\cc8DJu9v.s 			page 65


 2936 0122 7B61     		str	r3, [r7, #20]
 717:g:/iot/IoT_Device_Demo/iot_link/network/lwm2m/wakaama_lwm2m/wakaama-master/core/er-coap-13\er-coap-13.c ****         option_length = current_option[0] & 0x0F;
 2937              		.loc 1 717 39
 2938 0124 7B6A     		ldr	r3, [r7, #36]
 2939 0126 1B78     		ldrb	r3, [r3]	@ zero_extendqisi2
 2940              		.loc 1 717 43
 2941 0128 03F00F03 		and	r3, r3, #15
 2942              		.loc 1 717 23
 2943 012c 3B61     		str	r3, [r7, #16]
 718:g:/iot/IoT_Device_Demo/iot_link/network/lwm2m/wakaama_lwm2m/wakaama-master/core/er-coap-13\er-coap-13.c ****         ++current_option;
 2944              		.loc 1 718 9
 2945 012e 7B6A     		ldr	r3, [r7, #36]
 2946 0130 0133     		adds	r3, r3, #1
 2947 0132 7B62     		str	r3, [r7, #36]
 719:g:/iot/IoT_Device_Demo/iot_link/network/lwm2m/wakaama_lwm2m/wakaama-master/core/er-coap-13\er-coap-13.c **** 
 720:g:/iot/IoT_Device_Demo/iot_link/network/lwm2m/wakaama_lwm2m/wakaama-master/core/er-coap-13\er-coap-13.c ****         /* avoids code duplication without function overhead */
 721:g:/iot/IoT_Device_Demo/iot_link/network/lwm2m/wakaama_lwm2m/wakaama-master/core/er-coap-13\er-coap-13.c ****         x = &option_delta;
 2948              		.loc 1 721 11
 2949 0134 07F11403 		add	r3, r7, #20
 2950 0138 FB61     		str	r3, [r7, #28]
 2951              	.L140:
 722:g:/iot/IoT_Device_Demo/iot_link/network/lwm2m/wakaama_lwm2m/wakaama-master/core/er-coap-13\er-coap-13.c ****         do
 723:g:/iot/IoT_Device_Demo/iot_link/network/lwm2m/wakaama_lwm2m/wakaama-master/core/er-coap-13\er-coap-13.c ****         {
 724:g:/iot/IoT_Device_Demo/iot_link/network/lwm2m/wakaama_lwm2m/wakaama-master/core/er-coap-13\er-coap-13.c ****             if (*x == 13)
 2952              		.loc 1 724 17
 2953 013a FB69     		ldr	r3, [r7, #28]
 2954 013c 1B68     		ldr	r3, [r3]
 2955              		.loc 1 724 16
 2956 013e 0D2B     		cmp	r3, #13
 2957 0140 0AD1     		bne	.L137
 725:g:/iot/IoT_Device_Demo/iot_link/network/lwm2m/wakaama_lwm2m/wakaama-master/core/er-coap-13\er-coap-13.c ****             {
 726:g:/iot/IoT_Device_Demo/iot_link/network/lwm2m/wakaama_lwm2m/wakaama-master/core/er-coap-13\er-coap-13.c ****                 *x += current_option[0];
 2958              		.loc 1 726 20
 2959 0142 FB69     		ldr	r3, [r7, #28]
 2960 0144 1B68     		ldr	r3, [r3]
 2961              		.loc 1 726 37
 2962 0146 7A6A     		ldr	r2, [r7, #36]
 2963 0148 1278     		ldrb	r2, [r2]	@ zero_extendqisi2
 2964              		.loc 1 726 20
 2965 014a 1A44     		add	r2, r2, r3
 2966 014c FB69     		ldr	r3, [r7, #28]
 2967 014e 1A60     		str	r2, [r3]
 727:g:/iot/IoT_Device_Demo/iot_link/network/lwm2m/wakaama_lwm2m/wakaama-master/core/er-coap-13\er-coap-13.c ****                 ++current_option;
 2968              		.loc 1 727 17
 2969 0150 7B6A     		ldr	r3, [r7, #36]
 2970 0152 0133     		adds	r3, r3, #1
 2971 0154 7B62     		str	r3, [r7, #36]
 2972 0156 1EE0     		b	.L138
 2973              	.L137:
 728:g:/iot/IoT_Device_Demo/iot_link/network/lwm2m/wakaama_lwm2m/wakaama-master/core/er-coap-13\er-coap-13.c ****             }
 729:g:/iot/IoT_Device_Demo/iot_link/network/lwm2m/wakaama_lwm2m/wakaama-master/core/er-coap-13\er-coap-13.c ****             else if (*x == 14)
 2974              		.loc 1 729 22
 2975 0158 FB69     		ldr	r3, [r7, #28]
 2976 015a 1B68     		ldr	r3, [r3]
 2977              		.loc 1 729 21
 2978 015c 0E2B     		cmp	r3, #14
 2979 015e 1AD1     		bne	.L138
ARM GAS  C:\Users\ADMINI~1\AppData\Local\Temp\cc8DJu9v.s 			page 66


 730:g:/iot/IoT_Device_Demo/iot_link/network/lwm2m/wakaama_lwm2m/wakaama-master/core/er-coap-13\er-coap-13.c ****             {
 731:g:/iot/IoT_Device_Demo/iot_link/network/lwm2m/wakaama_lwm2m/wakaama-master/core/er-coap-13\er-coap-13.c ****                 *x += 255;
 2980              		.loc 1 731 20
 2981 0160 FB69     		ldr	r3, [r7, #28]
 2982 0162 1B68     		ldr	r3, [r3]
 2983 0164 03F1FF02 		add	r2, r3, #255
 2984 0168 FB69     		ldr	r3, [r7, #28]
 2985 016a 1A60     		str	r2, [r3]
 732:g:/iot/IoT_Device_Demo/iot_link/network/lwm2m/wakaama_lwm2m/wakaama-master/core/er-coap-13\er-coap-13.c ****                 *x += current_option[0] << 8;
 2986              		.loc 1 732 20
 2987 016c FB69     		ldr	r3, [r7, #28]
 2988 016e 1B68     		ldr	r3, [r3]
 2989              		.loc 1 732 37
 2990 0170 7A6A     		ldr	r2, [r7, #36]
 2991 0172 1278     		ldrb	r2, [r2]	@ zero_extendqisi2
 2992              		.loc 1 732 41
 2993 0174 1202     		lsls	r2, r2, #8
 2994              		.loc 1 732 20
 2995 0176 1A44     		add	r2, r2, r3
 2996 0178 FB69     		ldr	r3, [r7, #28]
 2997 017a 1A60     		str	r2, [r3]
 733:g:/iot/IoT_Device_Demo/iot_link/network/lwm2m/wakaama_lwm2m/wakaama-master/core/er-coap-13\er-coap-13.c ****                 ++current_option;
 2998              		.loc 1 733 17
 2999 017c 7B6A     		ldr	r3, [r7, #36]
 3000 017e 0133     		adds	r3, r3, #1
 3001 0180 7B62     		str	r3, [r7, #36]
 734:g:/iot/IoT_Device_Demo/iot_link/network/lwm2m/wakaama_lwm2m/wakaama-master/core/er-coap-13\er-coap-13.c ****                 *x += current_option[0];
 3002              		.loc 1 734 20
 3003 0182 FB69     		ldr	r3, [r7, #28]
 3004 0184 1B68     		ldr	r3, [r3]
 3005              		.loc 1 734 37
 3006 0186 7A6A     		ldr	r2, [r7, #36]
 3007 0188 1278     		ldrb	r2, [r2]	@ zero_extendqisi2
 3008              		.loc 1 734 20
 3009 018a 1A44     		add	r2, r2, r3
 3010 018c FB69     		ldr	r3, [r7, #28]
 3011 018e 1A60     		str	r2, [r3]
 735:g:/iot/IoT_Device_Demo/iot_link/network/lwm2m/wakaama_lwm2m/wakaama-master/core/er-coap-13\er-coap-13.c ****                 ++current_option;
 3012              		.loc 1 735 17
 3013 0190 7B6A     		ldr	r3, [r7, #36]
 3014 0192 0133     		adds	r3, r3, #1
 3015 0194 7B62     		str	r3, [r7, #36]
 3016              	.L138:
 736:g:/iot/IoT_Device_Demo/iot_link/network/lwm2m/wakaama_lwm2m/wakaama-master/core/er-coap-13\er-coap-13.c ****             }
 737:g:/iot/IoT_Device_Demo/iot_link/network/lwm2m/wakaama_lwm2m/wakaama-master/core/er-coap-13\er-coap-13.c ****         }
 738:g:/iot/IoT_Device_Demo/iot_link/network/lwm2m/wakaama_lwm2m/wakaama-master/core/er-coap-13\er-coap-13.c ****         while (x != (unsigned int *)&option_length && NULL != (x = (unsigned int *)&option_length))
 3017              		.loc 1 738 9
 3018 0196 07F11003 		add	r3, r7, #16
 3019 019a FA69     		ldr	r2, [r7, #28]
 3020 019c 9A42     		cmp	r2, r3
 3021 019e 03D0     		beq	.L139
 3022              		.loc 1 738 66 discriminator 1
 3023 01a0 07F11003 		add	r3, r7, #16
 3024 01a4 FB61     		str	r3, [r7, #28]
 3025 01a6 C8E7     		b	.L140
 3026              	.L139:
 739:g:/iot/IoT_Device_Demo/iot_link/network/lwm2m/wakaama_lwm2m/wakaama-master/core/er-coap-13\er-coap-13.c **** 
ARM GAS  C:\Users\ADMINI~1\AppData\Local\Temp\cc8DJu9v.s 			page 67


 740:g:/iot/IoT_Device_Demo/iot_link/network/lwm2m/wakaama_lwm2m/wakaama-master/core/er-coap-13\er-coap-13.c ****         option_number += option_delta;
 3027              		.loc 1 740 23
 3028 01a8 7B69     		ldr	r3, [r7, #20]
 3029 01aa 3A6A     		ldr	r2, [r7, #32]
 3030 01ac 1344     		add	r3, r3, r2
 3031 01ae 3B62     		str	r3, [r7, #32]
 741:g:/iot/IoT_Device_Demo/iot_link/network/lwm2m/wakaama_lwm2m/wakaama-master/core/er-coap-13\er-coap-13.c **** 
 742:g:/iot/IoT_Device_Demo/iot_link/network/lwm2m/wakaama_lwm2m/wakaama-master/core/er-coap-13\er-coap-13.c ****         if (current_option + option_length > data + data_len)
 3032              		.loc 1 742 28
 3033 01b0 3B69     		ldr	r3, [r7, #16]
 3034 01b2 7A6A     		ldr	r2, [r7, #36]
 3035 01b4 1A44     		add	r2, r2, r3
 3036              		.loc 1 742 51
 3037 01b6 FB88     		ldrh	r3, [r7, #6]
 3038 01b8 B968     		ldr	r1, [r7, #8]
 3039 01ba 0B44     		add	r3, r3, r1
 3040              		.loc 1 742 12
 3041 01bc 9A42     		cmp	r2, r3
 3042 01be 01D9     		bls	.L141
 743:g:/iot/IoT_Device_Demo/iot_link/network/lwm2m/wakaama_lwm2m/wakaama-master/core/er-coap-13\er-coap-13.c ****         {
 744:g:/iot/IoT_Device_Demo/iot_link/network/lwm2m/wakaama_lwm2m/wakaama-master/core/er-coap-13\er-coap-13.c ****             PRINTF("OPTION %u (delta %u, len %u) has invalid length.\n", option_number, option_delt
 745:g:/iot/IoT_Device_Demo/iot_link/network/lwm2m/wakaama_lwm2m/wakaama-master/core/er-coap-13\er-coap-13.c ****             return BAD_REQUEST_4_00;
 3043              		.loc 1 745 20
 3044 01c0 8023     		movs	r3, #128
 3045 01c2 94E1     		b	.L169
 3046              	.L141:
 746:g:/iot/IoT_Device_Demo/iot_link/network/lwm2m/wakaama_lwm2m/wakaama-master/core/er-coap-13\er-coap-13.c ****         }
 747:g:/iot/IoT_Device_Demo/iot_link/network/lwm2m/wakaama_lwm2m/wakaama-master/core/er-coap-13\er-coap-13.c ****         else
 748:g:/iot/IoT_Device_Demo/iot_link/network/lwm2m/wakaama_lwm2m/wakaama-master/core/er-coap-13\er-coap-13.c ****         {
 749:g:/iot/IoT_Device_Demo/iot_link/network/lwm2m/wakaama_lwm2m/wakaama-master/core/er-coap-13\er-coap-13.c ****             PRINTF("OPTION %u (delta %u, len %u): ", option_number, option_delta, option_length);
 750:g:/iot/IoT_Device_Demo/iot_link/network/lwm2m/wakaama_lwm2m/wakaama-master/core/er-coap-13\er-coap-13.c ****         }
 751:g:/iot/IoT_Device_Demo/iot_link/network/lwm2m/wakaama_lwm2m/wakaama-master/core/er-coap-13\er-coap-13.c **** 
 752:g:/iot/IoT_Device_Demo/iot_link/network/lwm2m/wakaama_lwm2m/wakaama-master/core/er-coap-13\er-coap-13.c ****         SET_OPTION(coap_pkt, option_number);
 3047              		.loc 1 752 9
 3048 01c4 3B6A     		ldr	r3, [r7, #32]
 3049 01c6 282B     		cmp	r3, #40
 3050 01c8 13D8     		bhi	.L142
 3051              		.loc 1 752 9 is_stmt 0 discriminator 1
 3052 01ca 3B6A     		ldr	r3, [r7, #32]
 3053 01cc DB08     		lsrs	r3, r3, #3
 3054 01ce BA69     		ldr	r2, [r7, #24]
 3055 01d0 1A44     		add	r2, r2, r3
 3056 01d2 927A     		ldrb	r2, [r2, #10]	@ zero_extendqisi2
 3057 01d4 51B2     		sxtb	r1, r2
 3058 01d6 3A6A     		ldr	r2, [r7, #32]
 3059 01d8 02F00702 		and	r2, r2, #7
 3060 01dc 0120     		movs	r0, #1
 3061 01de 00FA02F2 		lsl	r2, r0, r2
 3062 01e2 52B2     		sxtb	r2, r2
 3063 01e4 0A43     		orrs	r2, r2, r1
 3064 01e6 52B2     		sxtb	r2, r2
 3065 01e8 D1B2     		uxtb	r1, r2
 3066 01ea BA69     		ldr	r2, [r7, #24]
 3067 01ec 1344     		add	r3, r3, r2
 3068 01ee 0A46     		mov	r2, r1
 3069 01f0 9A72     		strb	r2, [r3, #10]
 3070              	.L142:
ARM GAS  C:\Users\ADMINI~1\AppData\Local\Temp\cc8DJu9v.s 			page 68


 3071 01f2 3B6A     		ldr	r3, [r7, #32]
 3072 01f4 013B     		subs	r3, r3, #1
 3073 01f6 222B     		cmp	r3, #34
 3074 01f8 00F26281 		bhi	.L143
 3075 01fc 01A2     		adr	r2, .L145
 3076 01fe 52F823F0 		ldr	pc, [r2, r3, lsl #2]
 3077 0202 00BF     		.p2align 2
 3078              	.L145:
 3079 0204 1F030000 		.word	.L161+1
 3080 0208 C1040000 		.word	.L143+1
 3081 020c 5D030000 		.word	.L160+1
 3082 0210 B7020000 		.word	.L159+1
 3083 0214 49030000 		.word	.L158+1
 3084 0218 E5030000 		.word	.L157+1
 3085 021c 6B030000 		.word	.L156+1
 3086 0220 A3030000 		.word	.L155+1
 3087 0224 C1040000 		.word	.L143+1
 3088 0228 C1040000 		.word	.L143+1
 3089 022c 7F030000 		.word	.L154+1
 3090 0230 91020000 		.word	.L153+1
 3091 0234 C1040000 		.word	.L143+1
 3092 0238 A5020000 		.word	.L152+1
 3093 023c 91030000 		.word	.L151+1
 3094 0240 C1040000 		.word	.L143+1
 3095 0244 E1020000 		.word	.L150+1
 3096 0248 C1040000 		.word	.L143+1
 3097 024c C1040000 		.word	.L143+1
 3098 0250 B5030000 		.word	.L149+1
 3099 0254 C1040000 		.word	.L143+1
 3100 0258 C1040000 		.word	.L143+1
 3101 025c F7030000 		.word	.L148+1
 3102 0260 C1040000 		.word	.L143+1
 3103 0264 C1040000 		.word	.L143+1
 3104 0268 C1040000 		.word	.L143+1
 3105 026c 53040000 		.word	.L147+1
 3106 0270 AF040000 		.word	.L146+1
 3107 0274 C1040000 		.word	.L143+1
 3108 0278 C1040000 		.word	.L143+1
 3109 027c C1040000 		.word	.L143+1
 3110 0280 C1040000 		.word	.L143+1
 3111 0284 C1040000 		.word	.L143+1
 3112 0288 C1040000 		.word	.L143+1
 3113 028c CF030000 		.word	.L144+1
 3114              		.p2align 1
 3115              	.L153:
 753:g:/iot/IoT_Device_Demo/iot_link/network/lwm2m/wakaama_lwm2m/wakaama-master/core/er-coap-13\er-coap-13.c **** 
 754:g:/iot/IoT_Device_Demo/iot_link/network/lwm2m/wakaama_lwm2m/wakaama-master/core/er-coap-13\er-coap-13.c ****         switch (option_number)
 755:g:/iot/IoT_Device_Demo/iot_link/network/lwm2m/wakaama_lwm2m/wakaama-master/core/er-coap-13\er-coap-13.c ****         {
 756:g:/iot/IoT_Device_Demo/iot_link/network/lwm2m/wakaama_lwm2m/wakaama-master/core/er-coap-13\er-coap-13.c ****         case COAP_OPTION_CONTENT_TYPE:
 757:g:/iot/IoT_Device_Demo/iot_link/network/lwm2m/wakaama_lwm2m/wakaama-master/core/er-coap-13\er-coap-13.c ****             coap_pkt->content_type = (coap_content_type_t)coap_parse_int_option(current_option, opt
 3116              		.loc 1 757 59 is_stmt 1
 3117 0290 3B69     		ldr	r3, [r7, #16]
 3118 0292 1946     		mov	r1, r3
 3119 0294 786A     		ldr	r0, [r7, #36]
 3120 0296 FFF7FEFF 		bl	coap_parse_int_option
 3121 029a 0346     		mov	r3, r0
 3122              		.loc 1 757 38
ARM GAS  C:\Users\ADMINI~1\AppData\Local\Temp\cc8DJu9v.s 			page 69


 3123 029c 9AB2     		uxth	r2, r3
 3124              		.loc 1 757 36
 3125 029e BB69     		ldr	r3, [r7, #24]
 3126 02a0 1A82     		strh	r2, [r3, #16]	@ movhi
 758:g:/iot/IoT_Device_Demo/iot_link/network/lwm2m/wakaama_lwm2m/wakaama-master/core/er-coap-13\er-coap-13.c ****             PRINTF("Content-Format [%u]\n", coap_pkt->content_type);
 759:g:/iot/IoT_Device_Demo/iot_link/network/lwm2m/wakaama_lwm2m/wakaama-master/core/er-coap-13\er-coap-13.c ****             break;
 3127              		.loc 1 759 13
 3128 02a2 18E1     		b	.L162
 3129              	.L152:
 760:g:/iot/IoT_Device_Demo/iot_link/network/lwm2m/wakaama_lwm2m/wakaama-master/core/er-coap-13\er-coap-13.c ****         case COAP_OPTION_MAX_AGE:
 761:g:/iot/IoT_Device_Demo/iot_link/network/lwm2m/wakaama_lwm2m/wakaama-master/core/er-coap-13\er-coap-13.c ****             coap_pkt->max_age = coap_parse_int_option(current_option, option_length);
 3130              		.loc 1 761 33
 3131 02a4 3B69     		ldr	r3, [r7, #16]
 3132 02a6 1946     		mov	r1, r3
 3133 02a8 786A     		ldr	r0, [r7, #36]
 3134 02aa FFF7FEFF 		bl	coap_parse_int_option
 3135 02ae 0246     		mov	r2, r0
 3136              		.loc 1 761 31
 3137 02b0 BB69     		ldr	r3, [r7, #24]
 3138 02b2 5A61     		str	r2, [r3, #20]
 762:g:/iot/IoT_Device_Demo/iot_link/network/lwm2m/wakaama_lwm2m/wakaama-master/core/er-coap-13\er-coap-13.c ****             PRINTF("Max-Age [%lu]\n", coap_pkt->max_age);
 763:g:/iot/IoT_Device_Demo/iot_link/network/lwm2m/wakaama_lwm2m/wakaama-master/core/er-coap-13\er-coap-13.c ****             break;
 3139              		.loc 1 763 13
 3140 02b4 0FE1     		b	.L162
 3141              	.L159:
 764:g:/iot/IoT_Device_Demo/iot_link/network/lwm2m/wakaama_lwm2m/wakaama-master/core/er-coap-13\er-coap-13.c ****         case COAP_OPTION_ETAG:
 765:g:/iot/IoT_Device_Demo/iot_link/network/lwm2m/wakaama_lwm2m/wakaama-master/core/er-coap-13\er-coap-13.c ****             coap_pkt->etag_len = (uint8_t)(MIN(COAP_ETAG_LEN, option_length));
 3142              		.loc 1 765 44
 3143 02b6 3B69     		ldr	r3, [r7, #16]
 3144              		.loc 1 765 34
 3145 02b8 082B     		cmp	r3, #8
 3146 02ba 02D8     		bhi	.L163
 3147              		.loc 1 765 34 is_stmt 0 discriminator 1
 3148 02bc 3B69     		ldr	r3, [r7, #16]
 3149 02be DAB2     		uxtb	r2, r3
 3150 02c0 00E0     		b	.L164
 3151              	.L163:
 3152              		.loc 1 765 34 discriminator 2
 3153 02c2 0822     		movs	r2, #8
 3154              	.L164:
 3155              		.loc 1 765 32 is_stmt 1 discriminator 4
 3156 02c4 BB69     		ldr	r3, [r7, #24]
 3157 02c6 83F82020 		strb	r2, [r3, #32]
 766:g:/iot/IoT_Device_Demo/iot_link/network/lwm2m/wakaama_lwm2m/wakaama-master/core/er-coap-13\er-coap-13.c ****             memcpy(coap_pkt->etag, current_option, coap_pkt->etag_len);
 3158              		.loc 1 766 28 discriminator 4
 3159 02ca BB69     		ldr	r3, [r7, #24]
 3160 02cc 03F12100 		add	r0, r3, #33
 3161              		.loc 1 766 60 discriminator 4
 3162 02d0 BB69     		ldr	r3, [r7, #24]
 3163 02d2 93F82030 		ldrb	r3, [r3, #32]	@ zero_extendqisi2
 3164              		.loc 1 766 13 discriminator 4
 3165 02d6 1A46     		mov	r2, r3
 3166 02d8 796A     		ldr	r1, [r7, #36]
 3167 02da FFF7FEFF 		bl	memcpy
 767:g:/iot/IoT_Device_Demo/iot_link/network/lwm2m/wakaama_lwm2m/wakaama-master/core/er-coap-13\er-coap-13.c ****             PRINTF("ETag %u [0x%02X%02X%02X%02X%02X%02X%02X%02X]\n", coap_pkt->etag_len,
 768:g:/iot/IoT_Device_Demo/iot_link/network/lwm2m/wakaama_lwm2m/wakaama-master/core/er-coap-13\er-coap-13.c ****                    coap_pkt->etag[0],
 769:g:/iot/IoT_Device_Demo/iot_link/network/lwm2m/wakaama_lwm2m/wakaama-master/core/er-coap-13\er-coap-13.c ****                    coap_pkt->etag[1],
ARM GAS  C:\Users\ADMINI~1\AppData\Local\Temp\cc8DJu9v.s 			page 70


 770:g:/iot/IoT_Device_Demo/iot_link/network/lwm2m/wakaama_lwm2m/wakaama-master/core/er-coap-13\er-coap-13.c ****                    coap_pkt->etag[2],
 771:g:/iot/IoT_Device_Demo/iot_link/network/lwm2m/wakaama_lwm2m/wakaama-master/core/er-coap-13\er-coap-13.c ****                    coap_pkt->etag[3],
 772:g:/iot/IoT_Device_Demo/iot_link/network/lwm2m/wakaama_lwm2m/wakaama-master/core/er-coap-13\er-coap-13.c ****                    coap_pkt->etag[4],
 773:g:/iot/IoT_Device_Demo/iot_link/network/lwm2m/wakaama_lwm2m/wakaama-master/core/er-coap-13\er-coap-13.c ****                    coap_pkt->etag[5],
 774:g:/iot/IoT_Device_Demo/iot_link/network/lwm2m/wakaama_lwm2m/wakaama-master/core/er-coap-13\er-coap-13.c ****                    coap_pkt->etag[6],
 775:g:/iot/IoT_Device_Demo/iot_link/network/lwm2m/wakaama_lwm2m/wakaama-master/core/er-coap-13\er-coap-13.c ****                    coap_pkt->etag[7]
 776:g:/iot/IoT_Device_Demo/iot_link/network/lwm2m/wakaama_lwm2m/wakaama-master/core/er-coap-13\er-coap-13.c ****                   ); /*FIXME always prints 8 bytes */
 777:g:/iot/IoT_Device_Demo/iot_link/network/lwm2m/wakaama_lwm2m/wakaama-master/core/er-coap-13\er-coap-13.c ****             break;
 3168              		.loc 1 777 13 discriminator 4
 3169 02de FAE0     		b	.L162
 3170              	.L150:
 778:g:/iot/IoT_Device_Demo/iot_link/network/lwm2m/wakaama_lwm2m/wakaama-master/core/er-coap-13\er-coap-13.c ****         case COAP_OPTION_ACCEPT:
 779:g:/iot/IoT_Device_Demo/iot_link/network/lwm2m/wakaama_lwm2m/wakaama-master/core/er-coap-13\er-coap-13.c ****             if (coap_pkt->accept_num < COAP_MAX_ACCEPT_NUM)
 3171              		.loc 1 779 25
 3172 02e0 BB69     		ldr	r3, [r7, #24]
 3173 02e2 93F85530 		ldrb	r3, [r3, #85]	@ zero_extendqisi2
 3174              		.loc 1 779 16
 3175 02e6 012B     		cmp	r3, #1
 3176 02e8 00F2F480 		bhi	.L170
 780:g:/iot/IoT_Device_Demo/iot_link/network/lwm2m/wakaama_lwm2m/wakaama-master/core/er-coap-13\er-coap-13.c ****             {
 781:g:/iot/IoT_Device_Demo/iot_link/network/lwm2m/wakaama_lwm2m/wakaama-master/core/er-coap-13\er-coap-13.c ****                 coap_pkt->accept[coap_pkt->accept_num] = coap_parse_int_option(current_option, opti
 3177              		.loc 1 781 58
 3178 02ec 3B69     		ldr	r3, [r7, #16]
 3179 02ee 1946     		mov	r1, r3
 3180 02f0 786A     		ldr	r0, [r7, #36]
 3181 02f2 FFF7FEFF 		bl	coap_parse_int_option
 3182 02f6 0246     		mov	r2, r0
 3183              		.loc 1 781 42
 3184 02f8 BB69     		ldr	r3, [r7, #24]
 3185 02fa 93F85530 		ldrb	r3, [r3, #85]	@ zero_extendqisi2
 3186              		.loc 1 781 56
 3187 02fe 91B2     		uxth	r1, r2
 3188 0300 BA69     		ldr	r2, [r7, #24]
 3189 0302 2833     		adds	r3, r3, #40
 3190 0304 5B00     		lsls	r3, r3, #1
 3191 0306 1344     		add	r3, r3, r2
 3192 0308 0A46     		mov	r2, r1	@ movhi
 3193 030a DA80     		strh	r2, [r3, #6]	@ movhi
 782:g:/iot/IoT_Device_Demo/iot_link/network/lwm2m/wakaama_lwm2m/wakaama-master/core/er-coap-13\er-coap-13.c ****                 coap_pkt->accept_num += 1;
 3194              		.loc 1 782 38
 3195 030c BB69     		ldr	r3, [r7, #24]
 3196 030e 93F85530 		ldrb	r3, [r3, #85]	@ zero_extendqisi2
 3197 0312 0133     		adds	r3, r3, #1
 3198 0314 DAB2     		uxtb	r2, r3
 3199 0316 BB69     		ldr	r3, [r7, #24]
 3200 0318 83F85520 		strb	r2, [r3, #85]
 783:g:/iot/IoT_Device_Demo/iot_link/network/lwm2m/wakaama_lwm2m/wakaama-master/core/er-coap-13\er-coap-13.c ****                 PRINTF("Accept [%u]\n", coap_pkt->content_type);
 784:g:/iot/IoT_Device_Demo/iot_link/network/lwm2m/wakaama_lwm2m/wakaama-master/core/er-coap-13\er-coap-13.c ****             }
 785:g:/iot/IoT_Device_Demo/iot_link/network/lwm2m/wakaama_lwm2m/wakaama-master/core/er-coap-13\er-coap-13.c ****             break;
 3201              		.loc 1 785 13
 3202 031c DAE0     		b	.L170
 3203              	.L161:
 786:g:/iot/IoT_Device_Demo/iot_link/network/lwm2m/wakaama_lwm2m/wakaama-master/core/er-coap-13\er-coap-13.c ****         case COAP_OPTION_IF_MATCH:
 787:g:/iot/IoT_Device_Demo/iot_link/network/lwm2m/wakaama_lwm2m/wakaama-master/core/er-coap-13\er-coap-13.c ****             /*FIXME support multiple ETags */
 788:g:/iot/IoT_Device_Demo/iot_link/network/lwm2m/wakaama_lwm2m/wakaama-master/core/er-coap-13\er-coap-13.c ****             coap_pkt->if_match_len = (uint8_t)(MIN(COAP_ETAG_LEN, option_length));
 3204              		.loc 1 788 48
 3205 031e 3B69     		ldr	r3, [r7, #16]
ARM GAS  C:\Users\ADMINI~1\AppData\Local\Temp\cc8DJu9v.s 			page 71


 3206              		.loc 1 788 38
 3207 0320 082B     		cmp	r3, #8
 3208 0322 02D8     		bhi	.L166
 3209              		.loc 1 788 38 is_stmt 0 discriminator 1
 3210 0324 3B69     		ldr	r3, [r7, #16]
 3211 0326 DAB2     		uxtb	r2, r3
 3212 0328 00E0     		b	.L167
 3213              	.L166:
 3214              		.loc 1 788 38 discriminator 2
 3215 032a 0822     		movs	r2, #8
 3216              	.L167:
 3217              		.loc 1 788 36 is_stmt 1 discriminator 4
 3218 032c BB69     		ldr	r3, [r7, #24]
 3219 032e 83F85A20 		strb	r2, [r3, #90]
 789:g:/iot/IoT_Device_Demo/iot_link/network/lwm2m/wakaama_lwm2m/wakaama-master/core/er-coap-13\er-coap-13.c ****             memcpy(coap_pkt->if_match, current_option, coap_pkt->if_match_len);
 3220              		.loc 1 789 28 discriminator 4
 3221 0332 BB69     		ldr	r3, [r7, #24]
 3222 0334 03F15B00 		add	r0, r3, #91
 3223              		.loc 1 789 64 discriminator 4
 3224 0338 BB69     		ldr	r3, [r7, #24]
 3225 033a 93F85A30 		ldrb	r3, [r3, #90]	@ zero_extendqisi2
 3226              		.loc 1 789 13 discriminator 4
 3227 033e 1A46     		mov	r2, r3
 3228 0340 796A     		ldr	r1, [r7, #36]
 3229 0342 FFF7FEFF 		bl	memcpy
 790:g:/iot/IoT_Device_Demo/iot_link/network/lwm2m/wakaama_lwm2m/wakaama-master/core/er-coap-13\er-coap-13.c ****             PRINTF("If-Match %u [0x%02X%02X%02X%02X%02X%02X%02X%02X]\n", coap_pkt->if_match_len,
 791:g:/iot/IoT_Device_Demo/iot_link/network/lwm2m/wakaama_lwm2m/wakaama-master/core/er-coap-13\er-coap-13.c ****                    coap_pkt->if_match[0],
 792:g:/iot/IoT_Device_Demo/iot_link/network/lwm2m/wakaama_lwm2m/wakaama-master/core/er-coap-13\er-coap-13.c ****                    coap_pkt->if_match[1],
