ARM GAS  C:\Users\ADMINI~1\AppData\Local\Temp\cc8DJu9v.s 			page 1


   1              		.cpu cortex-m4
   2              		.eabi_attribute 27, 1
   3              		.eabi_attribute 28, 1
   4              		.eabi_attribute 20, 1
   5              		.eabi_attribute 21, 1
   6              		.eabi_attribute 23, 3
   7              		.eabi_attribute 24, 1
   8              		.eabi_attribute 25, 1
   9              		.eabi_attribute 26, 1
  10              		.eabi_attribute 30, 6
  11              		.eabi_attribute 34, 1
  12              		.eabi_attribute 18, 4
  13              		.file	"er-coap-13.c"
  14              		.text
  15              	.Ltext0:
  16              		.cfi_sections	.debug_frame
  17              		.section	.bss.current_mid,"aw",%nobits
  18              		.align	1
  21              	current_mid:
  22 0000 0000     		.space	2
  23              		.global	coap_error_code
  24              		.section	.bss.coap_error_code,"aw",%nobits
  27              	coap_error_code:
  28 0000 00       		.space	1
  29              		.global	coap_error_message
  30              		.section	.rodata
  31              		.align	2
  32              	.LC0:
  33 0000 00       		.ascii	"\000"
  34              		.section	.data.coap_error_message,"aw"
  35              		.align	2
  38              	coap_error_message:
  39 0000 00000000 		.word	.LC0
  40              		.section	.text.coap_log_2,"ax",%progbits
  41              		.align	1
  42              		.arch armv7e-m
  43              		.syntax unified
  44              		.thumb
  45              		.thumb_func
  46              		.fpu fpv4-sp-d16
  48              	coap_log_2:
  49              	.LFB4:
  50              		.file 1 "g:/iot/IoT_Device_Demo/iot_link/network/lwm2m/wakaama_lwm2m/wakaama-master/core/er-coap-1
   1:g:/iot/IoT_Device_Demo/iot_link/network/lwm2m/wakaama_lwm2m/wakaama-master/core/er-coap-13\er-coap-13.c **** /*----------------------------------------------------------------------------
   2:g:/iot/IoT_Device_Demo/iot_link/network/lwm2m/wakaama_lwm2m/wakaama-master/core/er-coap-13\er-coap-13.c ****  * Copyright (c) <2016-2018>, <Huawei Technologies Co., Ltd>
   3:g:/iot/IoT_Device_Demo/iot_link/network/lwm2m/wakaama_lwm2m/wakaama-master/core/er-coap-13\er-coap-13.c ****  * All rights reserved.
   4:g:/iot/IoT_Device_Demo/iot_link/network/lwm2m/wakaama_lwm2m/wakaama-master/core/er-coap-13\er-coap-13.c ****  * Redistribution and use in source and binary forms, with or without modification,
   5:g:/iot/IoT_Device_Demo/iot_link/network/lwm2m/wakaama_lwm2m/wakaama-master/core/er-coap-13\er-coap-13.c ****  * are permitted provided that the following conditions are met:
   6:g:/iot/IoT_Device_Demo/iot_link/network/lwm2m/wakaama_lwm2m/wakaama-master/core/er-coap-13\er-coap-13.c ****  * 1. Redistributions of source code must retain the above copyright notice, this list of
   7:g:/iot/IoT_Device_Demo/iot_link/network/lwm2m/wakaama_lwm2m/wakaama-master/core/er-coap-13\er-coap-13.c ****  * conditions and the following disclaimer.
   8:g:/iot/IoT_Device_Demo/iot_link/network/lwm2m/wakaama_lwm2m/wakaama-master/core/er-coap-13\er-coap-13.c ****  * 2. Redistributions in binary form must reproduce the above copyright notice, this list
   9:g:/iot/IoT_Device_Demo/iot_link/network/lwm2m/wakaama_lwm2m/wakaama-master/core/er-coap-13\er-coap-13.c ****  * of conditions and the following disclaimer in the documentation and/or other materials
  10:g:/iot/IoT_Device_Demo/iot_link/network/lwm2m/wakaama_lwm2m/wakaama-master/core/er-coap-13\er-coap-13.c ****  * provided with the distribution.
  11:g:/iot/IoT_Device_Demo/iot_link/network/lwm2m/wakaama_lwm2m/wakaama-master/core/er-coap-13\er-coap-13.c ****  * 3. Neither the name of the copyright holder nor the names of its contributors may be used
  12:g:/iot/IoT_Device_Demo/iot_link/network/lwm2m/wakaama_lwm2m/wakaama-master/core/er-coap-13\er-coap-13.c ****  * to endorse or promote products derived from this software without specific prior written
  13:g:/iot/IoT_Device_Demo/iot_link/network/lwm2m/wakaama_lwm2m/wakaama-master/core/er-coap-13\er-coap-13.c ****  * permission.
  14:g:/iot/IoT_Device_Demo/iot_link/network/lwm2m/wakaama_lwm2m/wakaama-master/core/er-coap-13\er-coap-13.c ****  * THIS SOFTWARE IS PROVIDED BY THE COPYRIGHT HOLDERS AND CONTRIBUTORS
ARM GAS  C:\Users\ADMINI~1\AppData\Local\Temp\cc8DJu9v.s 			page 2


  15:g:/iot/IoT_Device_Demo/iot_link/network/lwm2m/wakaama_lwm2m/wakaama-master/core/er-coap-13\er-coap-13.c ****  * "AS IS" AND ANY EXPRESS OR IMPLIED WARRANTIES, INCLUDING, BUT NOT LIMITED TO,
  16:g:/iot/IoT_Device_Demo/iot_link/network/lwm2m/wakaama_lwm2m/wakaama-master/core/er-coap-13\er-coap-13.c ****  * THE IMPLIED WARRANTIES OF MERCHANTABILITY AND FITNESS FOR A PARTICULAR
  17:g:/iot/IoT_Device_Demo/iot_link/network/lwm2m/wakaama_lwm2m/wakaama-master/core/er-coap-13\er-coap-13.c ****  * PURPOSE ARE DISCLAIMED. IN NO EVENT SHALL THE COPYRIGHT HOLDER OR
  18:g:/iot/IoT_Device_Demo/iot_link/network/lwm2m/wakaama_lwm2m/wakaama-master/core/er-coap-13\er-coap-13.c ****  * CONTRIBUTORS BE LIABLE FOR ANY DIRECT, INDIRECT, INCIDENTAL, SPECIAL,
  19:g:/iot/IoT_Device_Demo/iot_link/network/lwm2m/wakaama_lwm2m/wakaama-master/core/er-coap-13\er-coap-13.c ****  * EXEMPLARY, OR CONSEQUENTIAL DAMAGES (INCLUDING, BUT NOT LIMITED TO,
  20:g:/iot/IoT_Device_Demo/iot_link/network/lwm2m/wakaama_lwm2m/wakaama-master/core/er-coap-13\er-coap-13.c ****  * PROCUREMENT OF SUBSTITUTE GOODS OR SERVICES; LOSS OF USE, DATA, OR PROFITS;
  21:g:/iot/IoT_Device_Demo/iot_link/network/lwm2m/wakaama_lwm2m/wakaama-master/core/er-coap-13\er-coap-13.c ****  * OR BUSINESS INTERRUPTION) HOWEVER CAUSED AND ON ANY THEORY OF LIABILITY,
  22:g:/iot/IoT_Device_Demo/iot_link/network/lwm2m/wakaama_lwm2m/wakaama-master/core/er-coap-13\er-coap-13.c ****  * WHETHER IN CONTRACT, STRICT LIABILITY, OR TORT (INCLUDING NEGLIGENCE OR
  23:g:/iot/IoT_Device_Demo/iot_link/network/lwm2m/wakaama_lwm2m/wakaama-master/core/er-coap-13\er-coap-13.c ****  * OTHERWISE) ARISING IN ANY WAY OUT OF THE USE OF THIS SOFTWARE, EVEN IF
  24:g:/iot/IoT_Device_Demo/iot_link/network/lwm2m/wakaama_lwm2m/wakaama-master/core/er-coap-13\er-coap-13.c ****  * ADVISED OF THE POSSIBILITY OF SUCH DAMAGE.
  25:g:/iot/IoT_Device_Demo/iot_link/network/lwm2m/wakaama_lwm2m/wakaama-master/core/er-coap-13\er-coap-13.c ****  *---------------------------------------------------------------------------*/
  26:g:/iot/IoT_Device_Demo/iot_link/network/lwm2m/wakaama_lwm2m/wakaama-master/core/er-coap-13\er-coap-13.c **** /*----------------------------------------------------------------------------
  27:g:/iot/IoT_Device_Demo/iot_link/network/lwm2m/wakaama_lwm2m/wakaama-master/core/er-coap-13\er-coap-13.c ****  * Notice of Export Control Law
  28:g:/iot/IoT_Device_Demo/iot_link/network/lwm2m/wakaama_lwm2m/wakaama-master/core/er-coap-13\er-coap-13.c ****  * ===============================================
  29:g:/iot/IoT_Device_Demo/iot_link/network/lwm2m/wakaama_lwm2m/wakaama-master/core/er-coap-13\er-coap-13.c ****  * Huawei LiteOS may be subject to applicable export control laws and regulations, which might
  30:g:/iot/IoT_Device_Demo/iot_link/network/lwm2m/wakaama_lwm2m/wakaama-master/core/er-coap-13\er-coap-13.c ****  * include those applicable to Huawei LiteOS of U.S. and the country in which you are located.
  31:g:/iot/IoT_Device_Demo/iot_link/network/lwm2m/wakaama_lwm2m/wakaama-master/core/er-coap-13\er-coap-13.c ****  * Import, export and usage of Huawei LiteOS in any manner by you shall be in compliance with such
  32:g:/iot/IoT_Device_Demo/iot_link/network/lwm2m/wakaama_lwm2m/wakaama-master/core/er-coap-13\er-coap-13.c ****  * applicable export control laws and regulations.
  33:g:/iot/IoT_Device_Demo/iot_link/network/lwm2m/wakaama_lwm2m/wakaama-master/core/er-coap-13\er-coap-13.c ****  *---------------------------------------------------------------------------*/
  34:g:/iot/IoT_Device_Demo/iot_link/network/lwm2m/wakaama_lwm2m/wakaama-master/core/er-coap-13\er-coap-13.c **** 
  35:g:/iot/IoT_Device_Demo/iot_link/network/lwm2m/wakaama_lwm2m/wakaama-master/core/er-coap-13\er-coap-13.c **** /*
  36:g:/iot/IoT_Device_Demo/iot_link/network/lwm2m/wakaama_lwm2m/wakaama-master/core/er-coap-13\er-coap-13.c ****  * Copyright (c) 2013, Institute for Pervasive Computing, ETH Zurich
  37:g:/iot/IoT_Device_Demo/iot_link/network/lwm2m/wakaama_lwm2m/wakaama-master/core/er-coap-13\er-coap-13.c ****  * All rights reserved.
  38:g:/iot/IoT_Device_Demo/iot_link/network/lwm2m/wakaama_lwm2m/wakaama-master/core/er-coap-13\er-coap-13.c ****  *
  39:g:/iot/IoT_Device_Demo/iot_link/network/lwm2m/wakaama_lwm2m/wakaama-master/core/er-coap-13\er-coap-13.c ****  * Redistribution and use in source and binary forms, with or without
  40:g:/iot/IoT_Device_Demo/iot_link/network/lwm2m/wakaama_lwm2m/wakaama-master/core/er-coap-13\er-coap-13.c ****  * modification, are permitted provided that the following conditions
  41:g:/iot/IoT_Device_Demo/iot_link/network/lwm2m/wakaama_lwm2m/wakaama-master/core/er-coap-13\er-coap-13.c ****  * are met:
  42:g:/iot/IoT_Device_Demo/iot_link/network/lwm2m/wakaama_lwm2m/wakaama-master/core/er-coap-13\er-coap-13.c ****  * 1. Redistributions of source code must retain the above copyright
  43:g:/iot/IoT_Device_Demo/iot_link/network/lwm2m/wakaama_lwm2m/wakaama-master/core/er-coap-13\er-coap-13.c ****  *    notice, this list of conditions and the following disclaimer.
  44:g:/iot/IoT_Device_Demo/iot_link/network/lwm2m/wakaama_lwm2m/wakaama-master/core/er-coap-13\er-coap-13.c ****  * 2. Redistributions in binary form must reproduce the above copyright
  45:g:/iot/IoT_Device_Demo/iot_link/network/lwm2m/wakaama_lwm2m/wakaama-master/core/er-coap-13\er-coap-13.c ****  *    notice, this list of conditions and the following disclaimer in the
  46:g:/iot/IoT_Device_Demo/iot_link/network/lwm2m/wakaama_lwm2m/wakaama-master/core/er-coap-13\er-coap-13.c ****  *    documentation and/or other materials provided with the distribution.
  47:g:/iot/IoT_Device_Demo/iot_link/network/lwm2m/wakaama_lwm2m/wakaama-master/core/er-coap-13\er-coap-13.c ****  * 3. Neither the name of the Institute nor the names of its contributors
  48:g:/iot/IoT_Device_Demo/iot_link/network/lwm2m/wakaama_lwm2m/wakaama-master/core/er-coap-13\er-coap-13.c ****  *    may be used to endorse or promote products derived from this software
  49:g:/iot/IoT_Device_Demo/iot_link/network/lwm2m/wakaama_lwm2m/wakaama-master/core/er-coap-13\er-coap-13.c ****  *    without specific prior written permission.
  50:g:/iot/IoT_Device_Demo/iot_link/network/lwm2m/wakaama_lwm2m/wakaama-master/core/er-coap-13\er-coap-13.c ****  *
  51:g:/iot/IoT_Device_Demo/iot_link/network/lwm2m/wakaama_lwm2m/wakaama-master/core/er-coap-13\er-coap-13.c ****  * THIS SOFTWARE IS PROVIDED BY THE INSTITUTE AND CONTRIBUTORS ``AS IS'' AND
  52:g:/iot/IoT_Device_Demo/iot_link/network/lwm2m/wakaama_lwm2m/wakaama-master/core/er-coap-13\er-coap-13.c ****  * ANY EXPRESS OR IMPLIED WARRANTIES, INCLUDING, BUT NOT LIMITED TO, THE
  53:g:/iot/IoT_Device_Demo/iot_link/network/lwm2m/wakaama_lwm2m/wakaama-master/core/er-coap-13\er-coap-13.c ****  * IMPLIED WARRANTIES OF MERCHANTABILITY AND FITNESS FOR A PARTICULAR PURPOSE
  54:g:/iot/IoT_Device_Demo/iot_link/network/lwm2m/wakaama_lwm2m/wakaama-master/core/er-coap-13\er-coap-13.c ****  * ARE DISCLAIMED.  IN NO EVENT SHALL THE INSTITUTE OR CONTRIBUTORS BE LIABLE
  55:g:/iot/IoT_Device_Demo/iot_link/network/lwm2m/wakaama_lwm2m/wakaama-master/core/er-coap-13\er-coap-13.c ****  * FOR ANY DIRECT, INDIRECT, INCIDENTAL, SPECIAL, EXEMPLARY, OR CONSEQUENTIAL
  56:g:/iot/IoT_Device_Demo/iot_link/network/lwm2m/wakaama_lwm2m/wakaama-master/core/er-coap-13\er-coap-13.c ****  * DAMAGES (INCLUDING, BUT NOT LIMITED TO, PROCUREMENT OF SUBSTITUTE GOODS
  57:g:/iot/IoT_Device_Demo/iot_link/network/lwm2m/wakaama_lwm2m/wakaama-master/core/er-coap-13\er-coap-13.c ****  * OR SERVICES; LOSS OF USE, DATA, OR PROFITS; OR BUSINESS INTERRUPTION)
  58:g:/iot/IoT_Device_Demo/iot_link/network/lwm2m/wakaama_lwm2m/wakaama-master/core/er-coap-13\er-coap-13.c ****  * HOWEVER CAUSED AND ON ANY THEORY OF LIABILITY, WHETHER IN CONTRACT, STRICT
  59:g:/iot/IoT_Device_Demo/iot_link/network/lwm2m/wakaama_lwm2m/wakaama-master/core/er-coap-13\er-coap-13.c ****  * LIABILITY, OR TORT (INCLUDING NEGLIGENCE OR OTHERWISE) ARISING IN ANY WAY
  60:g:/iot/IoT_Device_Demo/iot_link/network/lwm2m/wakaama_lwm2m/wakaama-master/core/er-coap-13\er-coap-13.c ****  * OUT OF THE USE OF THIS SOFTWARE, EVEN IF ADVISED OF THE POSSIBILITY OF
  61:g:/iot/IoT_Device_Demo/iot_link/network/lwm2m/wakaama_lwm2m/wakaama-master/core/er-coap-13\er-coap-13.c ****  * SUCH DAMAGE.
  62:g:/iot/IoT_Device_Demo/iot_link/network/lwm2m/wakaama_lwm2m/wakaama-master/core/er-coap-13\er-coap-13.c ****  *
  63:g:/iot/IoT_Device_Demo/iot_link/network/lwm2m/wakaama_lwm2m/wakaama-master/core/er-coap-13\er-coap-13.c ****  * This file is part of the Contiki operating system.
  64:g:/iot/IoT_Device_Demo/iot_link/network/lwm2m/wakaama_lwm2m/wakaama-master/core/er-coap-13\er-coap-13.c ****  */
  65:g:/iot/IoT_Device_Demo/iot_link/network/lwm2m/wakaama_lwm2m/wakaama-master/core/er-coap-13\er-coap-13.c **** 
  66:g:/iot/IoT_Device_Demo/iot_link/network/lwm2m/wakaama_lwm2m/wakaama-master/core/er-coap-13\er-coap-13.c **** /**
  67:g:/iot/IoT_Device_Demo/iot_link/network/lwm2m/wakaama_lwm2m/wakaama-master/core/er-coap-13\er-coap-13.c ****  * \file
  68:g:/iot/IoT_Device_Demo/iot_link/network/lwm2m/wakaama_lwm2m/wakaama-master/core/er-coap-13\er-coap-13.c ****  *      An implementation of the Constrained Application Protocol (draft 12)
  69:g:/iot/IoT_Device_Demo/iot_link/network/lwm2m/wakaama_lwm2m/wakaama-master/core/er-coap-13\er-coap-13.c ****  * \author
  70:g:/iot/IoT_Device_Demo/iot_link/network/lwm2m/wakaama_lwm2m/wakaama-master/core/er-coap-13\er-coap-13.c ****  *      Matthias Kovatsch <kovatsch@inf.ethz.ch>
  71:g:/iot/IoT_Device_Demo/iot_link/network/lwm2m/wakaama_lwm2m/wakaama-master/core/er-coap-13\er-coap-13.c ****  * \contributors
ARM GAS  C:\Users\ADMINI~1\AppData\Local\Temp\cc8DJu9v.s 			page 3


  72:g:/iot/IoT_Device_Demo/iot_link/network/lwm2m/wakaama_lwm2m/wakaama-master/core/er-coap-13\er-coap-13.c ****  *    David Navarro, Intel Corporation - Adapt to usage in liblwm2m
  73:g:/iot/IoT_Device_Demo/iot_link/network/lwm2m/wakaama_lwm2m/wakaama-master/core/er-coap-13\er-coap-13.c ****  */
  74:g:/iot/IoT_Device_Demo/iot_link/network/lwm2m/wakaama_lwm2m/wakaama-master/core/er-coap-13\er-coap-13.c **** 
  75:g:/iot/IoT_Device_Demo/iot_link/network/lwm2m/wakaama_lwm2m/wakaama-master/core/er-coap-13\er-coap-13.c **** 
  76:g:/iot/IoT_Device_Demo/iot_link/network/lwm2m/wakaama_lwm2m/wakaama-master/core/er-coap-13\er-coap-13.c **** #include <stdlib.h>
  77:g:/iot/IoT_Device_Demo/iot_link/network/lwm2m/wakaama_lwm2m/wakaama-master/core/er-coap-13\er-coap-13.c **** 
  78:g:/iot/IoT_Device_Demo/iot_link/network/lwm2m/wakaama_lwm2m/wakaama-master/core/er-coap-13\er-coap-13.c **** #include <string.h>
  79:g:/iot/IoT_Device_Demo/iot_link/network/lwm2m/wakaama_lwm2m/wakaama-master/core/er-coap-13\er-coap-13.c **** #include <stdio.h>
  80:g:/iot/IoT_Device_Demo/iot_link/network/lwm2m/wakaama_lwm2m/wakaama-master/core/er-coap-13\er-coap-13.c **** 
  81:g:/iot/IoT_Device_Demo/iot_link/network/lwm2m/wakaama_lwm2m/wakaama-master/core/er-coap-13\er-coap-13.c **** #include "er-coap-13.h"
  82:g:/iot/IoT_Device_Demo/iot_link/network/lwm2m/wakaama_lwm2m/wakaama-master/core/er-coap-13\er-coap-13.c **** #include "internals.h"
  83:g:/iot/IoT_Device_Demo/iot_link/network/lwm2m/wakaama_lwm2m/wakaama-master/core/er-coap-13\er-coap-13.c **** #include "liblwm2m.h" /* for lwm2m_malloc() and lwm2m_free() */
  84:g:/iot/IoT_Device_Demo/iot_link/network/lwm2m/wakaama_lwm2m/wakaama-master/core/er-coap-13\er-coap-13.c **** 
  85:g:/iot/IoT_Device_Demo/iot_link/network/lwm2m/wakaama_lwm2m/wakaama-master/core/er-coap-13\er-coap-13.c **** #define DEBUG 0
  86:g:/iot/IoT_Device_Demo/iot_link/network/lwm2m/wakaama_lwm2m/wakaama-master/core/er-coap-13\er-coap-13.c **** #if DEBUG
  87:g:/iot/IoT_Device_Demo/iot_link/network/lwm2m/wakaama_lwm2m/wakaama-master/core/er-coap-13\er-coap-13.c **** #include <stdio.h>
  88:g:/iot/IoT_Device_Demo/iot_link/network/lwm2m/wakaama_lwm2m/wakaama-master/core/er-coap-13\er-coap-13.c **** #define PRINTF(...) printf(__VA_ARGS__)
  89:g:/iot/IoT_Device_Demo/iot_link/network/lwm2m/wakaama_lwm2m/wakaama-master/core/er-coap-13\er-coap-13.c **** #define PRINT6ADDR(addr) PRINTF("[%02x%02x:%02x%02x:%02x%02x:%02x%02x:%02x%02x:%02x%02x:%02x%02x:%0
  90:g:/iot/IoT_Device_Demo/iot_link/network/lwm2m/wakaama_lwm2m/wakaama-master/core/er-coap-13\er-coap-13.c **** #define PRINTLLADDR(lladdr) PRINTF("[%02x:%02x:%02x:%02x:%02x:%02x]",(lladdr)->addr[0], (lladdr)->a
  91:g:/iot/IoT_Device_Demo/iot_link/network/lwm2m/wakaama_lwm2m/wakaama-master/core/er-coap-13\er-coap-13.c **** #else
  92:g:/iot/IoT_Device_Demo/iot_link/network/lwm2m/wakaama_lwm2m/wakaama-master/core/er-coap-13\er-coap-13.c **** #define PRINTF(...)
  93:g:/iot/IoT_Device_Demo/iot_link/network/lwm2m/wakaama_lwm2m/wakaama-master/core/er-coap-13\er-coap-13.c **** #define PRINT6ADDR(addr)
  94:g:/iot/IoT_Device_Demo/iot_link/network/lwm2m/wakaama_lwm2m/wakaama-master/core/er-coap-13\er-coap-13.c **** #define PRINTLLADDR(addr)
  95:g:/iot/IoT_Device_Demo/iot_link/network/lwm2m/wakaama_lwm2m/wakaama-master/core/er-coap-13\er-coap-13.c **** #endif
  96:g:/iot/IoT_Device_Demo/iot_link/network/lwm2m/wakaama_lwm2m/wakaama-master/core/er-coap-13\er-coap-13.c **** 
  97:g:/iot/IoT_Device_Demo/iot_link/network/lwm2m/wakaama_lwm2m/wakaama-master/core/er-coap-13\er-coap-13.c **** /*-----------------------------------------------------------------------------------*/
  98:g:/iot/IoT_Device_Demo/iot_link/network/lwm2m/wakaama_lwm2m/wakaama-master/core/er-coap-13\er-coap-13.c **** /*- Variables -----------------------------------------------------------------------*/
  99:g:/iot/IoT_Device_Demo/iot_link/network/lwm2m/wakaama_lwm2m/wakaama-master/core/er-coap-13\er-coap-13.c **** /*-----------------------------------------------------------------------------------*/
 100:g:/iot/IoT_Device_Demo/iot_link/network/lwm2m/wakaama_lwm2m/wakaama-master/core/er-coap-13\er-coap-13.c **** static uint16_t current_mid = 0;
 101:g:/iot/IoT_Device_Demo/iot_link/network/lwm2m/wakaama_lwm2m/wakaama-master/core/er-coap-13\er-coap-13.c **** 
 102:g:/iot/IoT_Device_Demo/iot_link/network/lwm2m/wakaama_lwm2m/wakaama-master/core/er-coap-13\er-coap-13.c **** coap_status_t coap_error_code = NO_ERROR;
 103:g:/iot/IoT_Device_Demo/iot_link/network/lwm2m/wakaama_lwm2m/wakaama-master/core/er-coap-13\er-coap-13.c **** const char *coap_error_message = "";
 104:g:/iot/IoT_Device_Demo/iot_link/network/lwm2m/wakaama_lwm2m/wakaama-master/core/er-coap-13\er-coap-13.c **** /*-----------------------------------------------------------------------------------*/
 105:g:/iot/IoT_Device_Demo/iot_link/network/lwm2m/wakaama_lwm2m/wakaama-master/core/er-coap-13\er-coap-13.c **** /*- LOCAL HELP FUNCTIONS ------------------------------------------------------------*/
 106:g:/iot/IoT_Device_Demo/iot_link/network/lwm2m/wakaama_lwm2m/wakaama-master/core/er-coap-13\er-coap-13.c **** /*-----------------------------------------------------------------------------------*/
 107:g:/iot/IoT_Device_Demo/iot_link/network/lwm2m/wakaama_lwm2m/wakaama-master/core/er-coap-13\er-coap-13.c **** static
 108:g:/iot/IoT_Device_Demo/iot_link/network/lwm2m/wakaama_lwm2m/wakaama-master/core/er-coap-13\er-coap-13.c **** uint16_t
 109:g:/iot/IoT_Device_Demo/iot_link/network/lwm2m/wakaama_lwm2m/wakaama-master/core/er-coap-13\er-coap-13.c **** coap_log_2(uint16_t value)
 110:g:/iot/IoT_Device_Demo/iot_link/network/lwm2m/wakaama_lwm2m/wakaama-master/core/er-coap-13\er-coap-13.c **** {
  51              		.loc 1 110 1
  52              		.cfi_startproc
  53              		@ args = 0, pretend = 0, frame = 16
  54              		@ frame_needed = 1, uses_anonymous_args = 0
  55              		@ link register save eliminated.
  56 0000 80B4     		push	{r7}
  57              	.LCFI0:
  58              		.cfi_def_cfa_offset 4
  59              		.cfi_offset 7, -4
  60 0002 85B0     		sub	sp, sp, #20
  61              	.LCFI1:
  62              		.cfi_def_cfa_offset 24
  63 0004 00AF     		add	r7, sp, #0
  64              	.LCFI2:
  65              		.cfi_def_cfa_register 7
  66 0006 0346     		mov	r3, r0
  67 0008 FB80     		strh	r3, [r7, #6]	@ movhi
 111:g:/iot/IoT_Device_Demo/iot_link/network/lwm2m/wakaama_lwm2m/wakaama-master/core/er-coap-13\er-coap-13.c ****     uint16_t result = 0;
ARM GAS  C:\Users\ADMINI~1\AppData\Local\Temp\cc8DJu9v.s 			page 4


  68              		.loc 1 111 14
  69 000a 0023     		movs	r3, #0
  70 000c FB81     		strh	r3, [r7, #14]	@ movhi
  71              	.L2:
 112:g:/iot/IoT_Device_Demo/iot_link/network/lwm2m/wakaama_lwm2m/wakaama-master/core/er-coap-13\er-coap-13.c ****     do
 113:g:/iot/IoT_Device_Demo/iot_link/network/lwm2m/wakaama_lwm2m/wakaama-master/core/er-coap-13\er-coap-13.c ****     {
 114:g:/iot/IoT_Device_Demo/iot_link/network/lwm2m/wakaama_lwm2m/wakaama-master/core/er-coap-13\er-coap-13.c ****         value = value >> 1;
  72              		.loc 1 114 15 discriminator 1
  73 000e FB88     		ldrh	r3, [r7, #6]
  74 0010 5B08     		lsrs	r3, r3, #1
  75 0012 FB80     		strh	r3, [r7, #6]	@ movhi
 115:g:/iot/IoT_Device_Demo/iot_link/network/lwm2m/wakaama_lwm2m/wakaama-master/core/er-coap-13\er-coap-13.c ****         result++;
  76              		.loc 1 115 15 discriminator 1
  77 0014 FB89     		ldrh	r3, [r7, #14]
  78 0016 0133     		adds	r3, r3, #1
  79 0018 FB81     		strh	r3, [r7, #14]	@ movhi
 116:g:/iot/IoT_Device_Demo/iot_link/network/lwm2m/wakaama_lwm2m/wakaama-master/core/er-coap-13\er-coap-13.c ****     }
 117:g:/iot/IoT_Device_Demo/iot_link/network/lwm2m/wakaama_lwm2m/wakaama-master/core/er-coap-13\er-coap-13.c ****     while (value);
  80              		.loc 1 117 5 discriminator 1
  81 001a FB88     		ldrh	r3, [r7, #6]
  82 001c 002B     		cmp	r3, #0
  83 001e F6D1     		bne	.L2
 118:g:/iot/IoT_Device_Demo/iot_link/network/lwm2m/wakaama_lwm2m/wakaama-master/core/er-coap-13\er-coap-13.c **** 
 119:g:/iot/IoT_Device_Demo/iot_link/network/lwm2m/wakaama_lwm2m/wakaama-master/core/er-coap-13\er-coap-13.c ****     return result ? result - 1 : result;
  84              		.loc 1 119 32
  85 0020 FB89     		ldrh	r3, [r7, #14]
  86 0022 002B     		cmp	r3, #0
  87 0024 03D0     		beq	.L3
  88              		.loc 1 119 32 is_stmt 0 discriminator 1
  89 0026 FB89     		ldrh	r3, [r7, #14]	@ movhi
  90 0028 013B     		subs	r3, r3, #1
  91 002a 9BB2     		uxth	r3, r3
  92 002c 00E0     		b	.L4
  93              	.L3:
  94              		.loc 1 119 32 discriminator 2
  95 002e FB89     		ldrh	r3, [r7, #14]
  96              	.L4:
 120:g:/iot/IoT_Device_Demo/iot_link/network/lwm2m/wakaama_lwm2m/wakaama-master/core/er-coap-13\er-coap-13.c **** }
  97              		.loc 1 120 1 is_stmt 1 discriminator 4
  98 0030 1846     		mov	r0, r3
  99 0032 1437     		adds	r7, r7, #20
 100              	.LCFI3:
 101              		.cfi_def_cfa_offset 4
 102 0034 BD46     		mov	sp, r7
 103              	.LCFI4:
 104              		.cfi_def_cfa_register 13
 105              		@ sp needed
 106 0036 5DF8047B 		ldr	r7, [sp], #4
 107              	.LCFI5:
 108              		.cfi_restore 7
 109              		.cfi_def_cfa_offset 0
 110 003a 7047     		bx	lr
 111              		.cfi_endproc
 112              	.LFE4:
 114              		.section	.text.coap_parse_int_option,"ax",%progbits
 115              		.align	1
 116              		.syntax unified
ARM GAS  C:\Users\ADMINI~1\AppData\Local\Temp\cc8DJu9v.s 			page 5


 117              		.thumb
 118              		.thumb_func
 119              		.fpu fpv4-sp-d16
 121              	coap_parse_int_option:
 122              	.LFB5:
 121:g:/iot/IoT_Device_Demo/iot_link/network/lwm2m/wakaama_lwm2m/wakaama-master/core/er-coap-13\er-coap-13.c **** /*-----------------------------------------------------------------------------------*/
 122:g:/iot/IoT_Device_Demo/iot_link/network/lwm2m/wakaama_lwm2m/wakaama-master/core/er-coap-13\er-coap-13.c **** static
 123:g:/iot/IoT_Device_Demo/iot_link/network/lwm2m/wakaama_lwm2m/wakaama-master/core/er-coap-13\er-coap-13.c **** uint32_t
 124:g:/iot/IoT_Device_Demo/iot_link/network/lwm2m/wakaama_lwm2m/wakaama-master/core/er-coap-13\er-coap-13.c **** coap_parse_int_option(uint8_t *bytes, size_t length)
 125:g:/iot/IoT_Device_Demo/iot_link/network/lwm2m/wakaama_lwm2m/wakaama-master/core/er-coap-13\er-coap-13.c **** {
 123              		.loc 1 125 1
 124              		.cfi_startproc
 125              		@ args = 0, pretend = 0, frame = 16
 126              		@ frame_needed = 1, uses_anonymous_args = 0
 127              		@ link register save eliminated.
 128 0000 80B4     		push	{r7}
 129              	.LCFI6:
 130              		.cfi_def_cfa_offset 4
 131              		.cfi_offset 7, -4
 132 0002 85B0     		sub	sp, sp, #20
 133              	.LCFI7:
 134              		.cfi_def_cfa_offset 24
 135 0004 00AF     		add	r7, sp, #0
 136              	.LCFI8:
 137              		.cfi_def_cfa_register 7
 138 0006 7860     		str	r0, [r7, #4]
 139 0008 3960     		str	r1, [r7]
 126:g:/iot/IoT_Device_Demo/iot_link/network/lwm2m/wakaama_lwm2m/wakaama-master/core/er-coap-13\er-coap-13.c ****     uint32_t var = 0;
 140              		.loc 1 126 14
 141 000a 0023     		movs	r3, #0
 142 000c FB60     		str	r3, [r7, #12]
 127:g:/iot/IoT_Device_Demo/iot_link/network/lwm2m/wakaama_lwm2m/wakaama-master/core/er-coap-13\er-coap-13.c ****     size_t i = 0;
 143              		.loc 1 127 12
 144 000e 0023     		movs	r3, #0
 145 0010 BB60     		str	r3, [r7, #8]
 128:g:/iot/IoT_Device_Demo/iot_link/network/lwm2m/wakaama_lwm2m/wakaama-master/core/er-coap-13\er-coap-13.c ****     while (i < length)
 146              		.loc 1 128 11
 147 0012 0CE0     		b	.L7
 148              	.L8:
 129:g:/iot/IoT_Device_Demo/iot_link/network/lwm2m/wakaama_lwm2m/wakaama-master/core/er-coap-13\er-coap-13.c ****     {
 130:g:/iot/IoT_Device_Demo/iot_link/network/lwm2m/wakaama_lwm2m/wakaama-master/core/er-coap-13\er-coap-13.c ****         var <<= 8;
 149              		.loc 1 130 13
 150 0014 FB68     		ldr	r3, [r7, #12]
 151 0016 1B02     		lsls	r3, r3, #8
 152 0018 FB60     		str	r3, [r7, #12]
 131:g:/iot/IoT_Device_Demo/iot_link/network/lwm2m/wakaama_lwm2m/wakaama-master/core/er-coap-13\er-coap-13.c ****         var |= bytes[i++];
 153              		.loc 1 131 23
 154 001a BB68     		ldr	r3, [r7, #8]
 155 001c 5A1C     		adds	r2, r3, #1
 156 001e BA60     		str	r2, [r7, #8]
 157              		.loc 1 131 21
 158 0020 7A68     		ldr	r2, [r7, #4]
 159 0022 1344     		add	r3, r3, r2
 160 0024 1B78     		ldrb	r3, [r3]	@ zero_extendqisi2
 161 0026 1A46     		mov	r2, r3
 162              		.loc 1 131 13
 163 0028 FB68     		ldr	r3, [r7, #12]
ARM GAS  C:\Users\ADMINI~1\AppData\Local\Temp\cc8DJu9v.s 			page 6


 164 002a 1343     		orrs	r3, r3, r2
 165 002c FB60     		str	r3, [r7, #12]
 166              	.L7:
 128:g:/iot/IoT_Device_Demo/iot_link/network/lwm2m/wakaama_lwm2m/wakaama-master/core/er-coap-13\er-coap-13.c ****     while (i < length)
 167              		.loc 1 128 11
 168 002e BA68     		ldr	r2, [r7, #8]
 169 0030 3B68     		ldr	r3, [r7]
 170 0032 9A42     		cmp	r2, r3
 171 0034 EED3     		bcc	.L8
 132:g:/iot/IoT_Device_Demo/iot_link/network/lwm2m/wakaama_lwm2m/wakaama-master/core/er-coap-13\er-coap-13.c ****     }
 133:g:/iot/IoT_Device_Demo/iot_link/network/lwm2m/wakaama_lwm2m/wakaama-master/core/er-coap-13\er-coap-13.c ****     return var;
 172              		.loc 1 133 12
 173 0036 FB68     		ldr	r3, [r7, #12]
 134:g:/iot/IoT_Device_Demo/iot_link/network/lwm2m/wakaama_lwm2m/wakaama-master/core/er-coap-13\er-coap-13.c **** }
 174              		.loc 1 134 1
 175 0038 1846     		mov	r0, r3
 176 003a 1437     		adds	r7, r7, #20
 177              	.LCFI9:
 178              		.cfi_def_cfa_offset 4
 179 003c BD46     		mov	sp, r7
 180              	.LCFI10:
 181              		.cfi_def_cfa_register 13
 182              		@ sp needed
 183 003e 5DF8047B 		ldr	r7, [sp], #4
 184              	.LCFI11:
 185              		.cfi_restore 7
 186              		.cfi_def_cfa_offset 0
 187 0042 7047     		bx	lr
 188              		.cfi_endproc
 189              	.LFE5:
 191              		.section	.text.coap_option_nibble,"ax",%progbits
 192              		.align	1
 193              		.syntax unified
 194              		.thumb
 195              		.thumb_func
 196              		.fpu fpv4-sp-d16
 198              	coap_option_nibble:
 199              	.LFB6:
 135:g:/iot/IoT_Device_Demo/iot_link/network/lwm2m/wakaama_lwm2m/wakaama-master/core/er-coap-13\er-coap-13.c **** /*-----------------------------------------------------------------------------------*/
 136:g:/iot/IoT_Device_Demo/iot_link/network/lwm2m/wakaama_lwm2m/wakaama-master/core/er-coap-13\er-coap-13.c **** static
 137:g:/iot/IoT_Device_Demo/iot_link/network/lwm2m/wakaama_lwm2m/wakaama-master/core/er-coap-13\er-coap-13.c **** uint8_t
 138:g:/iot/IoT_Device_Demo/iot_link/network/lwm2m/wakaama_lwm2m/wakaama-master/core/er-coap-13\er-coap-13.c **** coap_option_nibble(unsigned int value)
 139:g:/iot/IoT_Device_Demo/iot_link/network/lwm2m/wakaama_lwm2m/wakaama-master/core/er-coap-13\er-coap-13.c **** {
 200              		.loc 1 139 1
 201              		.cfi_startproc
 202              		@ args = 0, pretend = 0, frame = 8
 203              		@ frame_needed = 1, uses_anonymous_args = 0
 204              		@ link register save eliminated.
 205 0000 80B4     		push	{r7}
 206              	.LCFI12:
 207              		.cfi_def_cfa_offset 4
 208              		.cfi_offset 7, -4
 209 0002 83B0     		sub	sp, sp, #12
 210              	.LCFI13:
 211              		.cfi_def_cfa_offset 16
 212 0004 00AF     		add	r7, sp, #0
 213              	.LCFI14:
ARM GAS  C:\Users\ADMINI~1\AppData\Local\Temp\cc8DJu9v.s 			page 7


 214              		.cfi_def_cfa_register 7
 215 0006 7860     		str	r0, [r7, #4]
 140:g:/iot/IoT_Device_Demo/iot_link/network/lwm2m/wakaama_lwm2m/wakaama-master/core/er-coap-13\er-coap-13.c ****     if (value < 13)
 216              		.loc 1 140 8
 217 0008 7B68     		ldr	r3, [r7, #4]
 218 000a 0C2B     		cmp	r3, #12
 219 000c 02D8     		bhi	.L11
 141:g:/iot/IoT_Device_Demo/iot_link/network/lwm2m/wakaama_lwm2m/wakaama-master/core/er-coap-13\er-coap-13.c ****     {
 142:g:/iot/IoT_Device_Demo/iot_link/network/lwm2m/wakaama_lwm2m/wakaama-master/core/er-coap-13\er-coap-13.c ****         return value;
 220              		.loc 1 142 16
 221 000e 7B68     		ldr	r3, [r7, #4]
 222 0010 DBB2     		uxtb	r3, r3
 223 0012 06E0     		b	.L12
 224              	.L11:
 143:g:/iot/IoT_Device_Demo/iot_link/network/lwm2m/wakaama_lwm2m/wakaama-master/core/er-coap-13\er-coap-13.c ****     }
 144:g:/iot/IoT_Device_Demo/iot_link/network/lwm2m/wakaama_lwm2m/wakaama-master/core/er-coap-13\er-coap-13.c ****     else if (value <= 0xFF + 13)
 225              		.loc 1 144 13
 226 0014 7B68     		ldr	r3, [r7, #4]
 227 0016 B3F5867F 		cmp	r3, #268
 228 001a 01D8     		bhi	.L13
 145:g:/iot/IoT_Device_Demo/iot_link/network/lwm2m/wakaama_lwm2m/wakaama-master/core/er-coap-13\er-coap-13.c ****     {
 146:g:/iot/IoT_Device_Demo/iot_link/network/lwm2m/wakaama_lwm2m/wakaama-master/core/er-coap-13\er-coap-13.c ****         return 13;
 229              		.loc 1 146 16
 230 001c 0D23     		movs	r3, #13
 231 001e 00E0     		b	.L12
 232              	.L13:
 147:g:/iot/IoT_Device_Demo/iot_link/network/lwm2m/wakaama_lwm2m/wakaama-master/core/er-coap-13\er-coap-13.c ****     }
 148:g:/iot/IoT_Device_Demo/iot_link/network/lwm2m/wakaama_lwm2m/wakaama-master/core/er-coap-13\er-coap-13.c ****     else
 149:g:/iot/IoT_Device_Demo/iot_link/network/lwm2m/wakaama_lwm2m/wakaama-master/core/er-coap-13\er-coap-13.c ****     {
 150:g:/iot/IoT_Device_Demo/iot_link/network/lwm2m/wakaama_lwm2m/wakaama-master/core/er-coap-13\er-coap-13.c ****         return 14;
 233              		.loc 1 150 16
 234 0020 0E23     		movs	r3, #14
 235              	.L12:
 151:g:/iot/IoT_Device_Demo/iot_link/network/lwm2m/wakaama_lwm2m/wakaama-master/core/er-coap-13\er-coap-13.c ****     }
 152:g:/iot/IoT_Device_Demo/iot_link/network/lwm2m/wakaama_lwm2m/wakaama-master/core/er-coap-13\er-coap-13.c **** }
 236              		.loc 1 152 1
 237 0022 1846     		mov	r0, r3
 238 0024 0C37     		adds	r7, r7, #12
 239              	.LCFI15:
 240              		.cfi_def_cfa_offset 4
 241 0026 BD46     		mov	sp, r7
 242              	.LCFI16:
 243              		.cfi_def_cfa_register 13
 244              		@ sp needed
 245 0028 5DF8047B 		ldr	r7, [sp], #4
 246              	.LCFI17:
 247              		.cfi_restore 7
 248              		.cfi_def_cfa_offset 0
 249 002c 7047     		bx	lr
 250              		.cfi_endproc
 251              	.LFE6:
 253              		.section	.text.coap_set_option_header,"ax",%progbits
 254              		.align	1
 255              		.syntax unified
 256              		.thumb
 257              		.thumb_func
 258              		.fpu fpv4-sp-d16
ARM GAS  C:\Users\ADMINI~1\AppData\Local\Temp\cc8DJu9v.s 			page 8


 260              	coap_set_option_header:
 261              	.LFB7:
 153:g:/iot/IoT_Device_Demo/iot_link/network/lwm2m/wakaama_lwm2m/wakaama-master/core/er-coap-13\er-coap-13.c **** /*-----------------------------------------------------------------------------------*/
 154:g:/iot/IoT_Device_Demo/iot_link/network/lwm2m/wakaama_lwm2m/wakaama-master/core/er-coap-13\er-coap-13.c **** static
 155:g:/iot/IoT_Device_Demo/iot_link/network/lwm2m/wakaama_lwm2m/wakaama-master/core/er-coap-13\er-coap-13.c **** size_t
 156:g:/iot/IoT_Device_Demo/iot_link/network/lwm2m/wakaama_lwm2m/wakaama-master/core/er-coap-13\er-coap-13.c **** coap_set_option_header(unsigned int delta, size_t length, uint8_t *buffer)
 157:g:/iot/IoT_Device_Demo/iot_link/network/lwm2m/wakaama_lwm2m/wakaama-master/core/er-coap-13\er-coap-13.c **** {
 262              		.loc 1 157 1
 263              		.cfi_startproc
 264              		@ args = 0, pretend = 0, frame = 24
 265              		@ frame_needed = 1, uses_anonymous_args = 0
 266 0000 90B5     		push	{r4, r7, lr}
 267              	.LCFI18:
 268              		.cfi_def_cfa_offset 12
 269              		.cfi_offset 4, -12
 270              		.cfi_offset 7, -8
 271              		.cfi_offset 14, -4
 272 0002 87B0     		sub	sp, sp, #28
 273              	.LCFI19:
 274              		.cfi_def_cfa_offset 40
 275 0004 00AF     		add	r7, sp, #0
 276              	.LCFI20:
 277              		.cfi_def_cfa_register 7
 278 0006 F860     		str	r0, [r7, #12]
 279 0008 B960     		str	r1, [r7, #8]
 280 000a 7A60     		str	r2, [r7, #4]
 158:g:/iot/IoT_Device_Demo/iot_link/network/lwm2m/wakaama_lwm2m/wakaama-master/core/er-coap-13\er-coap-13.c ****     size_t written = 0;
 281              		.loc 1 158 12
 282 000c 0023     		movs	r3, #0
 283 000e 7B61     		str	r3, [r7, #20]
 159:g:/iot/IoT_Device_Demo/iot_link/network/lwm2m/wakaama_lwm2m/wakaama-master/core/er-coap-13\er-coap-13.c ****     unsigned int *x = &delta;
 284              		.loc 1 159 19
 285 0010 07F10C03 		add	r3, r7, #12
 286 0014 3B61     		str	r3, [r7, #16]
 160:g:/iot/IoT_Device_Demo/iot_link/network/lwm2m/wakaama_lwm2m/wakaama-master/core/er-coap-13\er-coap-13.c **** 
 161:g:/iot/IoT_Device_Demo/iot_link/network/lwm2m/wakaama_lwm2m/wakaama-master/core/er-coap-13\er-coap-13.c ****     buffer[0] = coap_option_nibble(delta) << 4 | coap_option_nibble(length);
 287              		.loc 1 161 17
 288 0016 FB68     		ldr	r3, [r7, #12]
 289 0018 1846     		mov	r0, r3
 290 001a FFF7FEFF 		bl	coap_option_nibble
 291 001e 0346     		mov	r3, r0
 292              		.loc 1 161 43
 293 0020 1B01     		lsls	r3, r3, #4
 294              		.loc 1 161 48
 295 0022 5CB2     		sxtb	r4, r3
 296              		.loc 1 161 50
 297 0024 BB68     		ldr	r3, [r7, #8]
 298 0026 1846     		mov	r0, r3
 299 0028 FFF7FEFF 		bl	coap_option_nibble
 300 002c 0346     		mov	r3, r0
 301 002e 5BB2     		sxtb	r3, r3
 302              		.loc 1 161 48
 303 0030 2343     		orrs	r3, r3, r4
 304 0032 5BB2     		sxtb	r3, r3
 305 0034 DAB2     		uxtb	r2, r3
 306              		.loc 1 161 15
 307 0036 7B68     		ldr	r3, [r7, #4]
ARM GAS  C:\Users\ADMINI~1\AppData\Local\Temp\cc8DJu9v.s 			page 9


 308 0038 1A70     		strb	r2, [r3]
 309              	.L18:
 162:g:/iot/IoT_Device_Demo/iot_link/network/lwm2m/wakaama_lwm2m/wakaama-master/core/er-coap-13\er-coap-13.c **** 
 163:g:/iot/IoT_Device_Demo/iot_link/network/lwm2m/wakaama_lwm2m/wakaama-master/core/er-coap-13\er-coap-13.c ****     /* avoids code duplication without function overhead */
 164:g:/iot/IoT_Device_Demo/iot_link/network/lwm2m/wakaama_lwm2m/wakaama-master/core/er-coap-13\er-coap-13.c ****     do
 165:g:/iot/IoT_Device_Demo/iot_link/network/lwm2m/wakaama_lwm2m/wakaama-master/core/er-coap-13\er-coap-13.c ****     {
 166:g:/iot/IoT_Device_Demo/iot_link/network/lwm2m/wakaama_lwm2m/wakaama-master/core/er-coap-13\er-coap-13.c ****         if (*x > 268)
 310              		.loc 1 166 13
 311 003a 3B69     		ldr	r3, [r7, #16]
 312 003c 1B68     		ldr	r3, [r3]
 313              		.loc 1 166 12
 314 003e B3F5867F 		cmp	r3, #268
 315 0042 19D9     		bls	.L15
 167:g:/iot/IoT_Device_Demo/iot_link/network/lwm2m/wakaama_lwm2m/wakaama-master/core/er-coap-13\er-coap-13.c ****         {
 168:g:/iot/IoT_Device_Demo/iot_link/network/lwm2m/wakaama_lwm2m/wakaama-master/core/er-coap-13\er-coap-13.c ****             buffer[++written] = (*x - 269) >> 8;
 316              		.loc 1 168 34
 317 0044 3B69     		ldr	r3, [r7, #16]
 318 0046 1B68     		ldr	r3, [r3]
 319              		.loc 1 168 37
 320 0048 A3F20D13 		subw	r3, r3, #269
 321              		.loc 1 168 44
 322 004c 190A     		lsrs	r1, r3, #8
 323              		.loc 1 168 31
 324 004e 7B69     		ldr	r3, [r7, #20]
 325 0050 0133     		adds	r3, r3, #1
 326 0052 7B61     		str	r3, [r7, #20]
 327              		.loc 1 168 19
 328 0054 7A68     		ldr	r2, [r7, #4]
 329 0056 7B69     		ldr	r3, [r7, #20]
 330 0058 1344     		add	r3, r3, r2
 331              		.loc 1 168 31
 332 005a CAB2     		uxtb	r2, r1
 333 005c 1A70     		strb	r2, [r3]
 169:g:/iot/IoT_Device_Demo/iot_link/network/lwm2m/wakaama_lwm2m/wakaama-master/core/er-coap-13\er-coap-13.c ****             buffer[++written] = (*x - 269);
 334              		.loc 1 169 34
 335 005e 3B69     		ldr	r3, [r7, #16]
 336 0060 1B68     		ldr	r3, [r3]
 337              		.loc 1 169 37
 338 0062 DAB2     		uxtb	r2, r3
 339              		.loc 1 169 31
 340 0064 7B69     		ldr	r3, [r7, #20]
 341 0066 0133     		adds	r3, r3, #1
 342 0068 7B61     		str	r3, [r7, #20]
 343              		.loc 1 169 19
 344 006a 7968     		ldr	r1, [r7, #4]
 345 006c 7B69     		ldr	r3, [r7, #20]
 346 006e 0B44     		add	r3, r3, r1
 347              		.loc 1 169 37
 348 0070 0D3A     		subs	r2, r2, #13
 349 0072 D2B2     		uxtb	r2, r2
 350              		.loc 1 169 31
 351 0074 1A70     		strb	r2, [r3]
 352 0076 0FE0     		b	.L16
 353              	.L15:
 170:g:/iot/IoT_Device_Demo/iot_link/network/lwm2m/wakaama_lwm2m/wakaama-master/core/er-coap-13\er-coap-13.c ****         }
 171:g:/iot/IoT_Device_Demo/iot_link/network/lwm2m/wakaama_lwm2m/wakaama-master/core/er-coap-13\er-coap-13.c ****         else if (*x > 12)
 354              		.loc 1 171 18
ARM GAS  C:\Users\ADMINI~1\AppData\Local\Temp\cc8DJu9v.s 			page 10


 355 0078 3B69     		ldr	r3, [r7, #16]
 356 007a 1B68     		ldr	r3, [r3]
 357              		.loc 1 171 17
 358 007c 0C2B     		cmp	r3, #12
 359 007e 0BD9     		bls	.L16
 172:g:/iot/IoT_Device_Demo/iot_link/network/lwm2m/wakaama_lwm2m/wakaama-master/core/er-coap-13\er-coap-13.c ****         {
 173:g:/iot/IoT_Device_Demo/iot_link/network/lwm2m/wakaama_lwm2m/wakaama-master/core/er-coap-13\er-coap-13.c ****             buffer[++written] = (*x - 13);
 360              		.loc 1 173 34
 361 0080 3B69     		ldr	r3, [r7, #16]
 362 0082 1B68     		ldr	r3, [r3]
 363              		.loc 1 173 37
 364 0084 DAB2     		uxtb	r2, r3
 365              		.loc 1 173 31
 366 0086 7B69     		ldr	r3, [r7, #20]
 367 0088 0133     		adds	r3, r3, #1
 368 008a 7B61     		str	r3, [r7, #20]
 369              		.loc 1 173 19
 370 008c 7968     		ldr	r1, [r7, #4]
 371 008e 7B69     		ldr	r3, [r7, #20]
 372 0090 0B44     		add	r3, r3, r1
 373              		.loc 1 173 37
 374 0092 0D3A     		subs	r2, r2, #13
 375 0094 D2B2     		uxtb	r2, r2
 376              		.loc 1 173 31
 377 0096 1A70     		strb	r2, [r3]
 378              	.L16:
 174:g:/iot/IoT_Device_Demo/iot_link/network/lwm2m/wakaama_lwm2m/wakaama-master/core/er-coap-13\er-coap-13.c ****         }
 175:g:/iot/IoT_Device_Demo/iot_link/network/lwm2m/wakaama_lwm2m/wakaama-master/core/er-coap-13\er-coap-13.c ****     }
 176:g:/iot/IoT_Device_Demo/iot_link/network/lwm2m/wakaama_lwm2m/wakaama-master/core/er-coap-13\er-coap-13.c ****     while (x != (unsigned int *)&length && NULL != (x = (unsigned int *)&length));
 379              		.loc 1 176 5
 380 0098 07F10803 		add	r3, r7, #8
 381 009c 3A69     		ldr	r2, [r7, #16]
 382 009e 9A42     		cmp	r2, r3
 383 00a0 03D0     		beq	.L17
 384              		.loc 1 176 55 discriminator 1
 385 00a2 07F10803 		add	r3, r7, #8
 386 00a6 3B61     		str	r3, [r7, #16]
 387 00a8 C7E7     		b	.L18
 388              	.L17:
 177:g:/iot/IoT_Device_Demo/iot_link/network/lwm2m/wakaama_lwm2m/wakaama-master/core/er-coap-13\er-coap-13.c **** 
 178:g:/iot/IoT_Device_Demo/iot_link/network/lwm2m/wakaama_lwm2m/wakaama-master/core/er-coap-13\er-coap-13.c ****     PRINTF("WRITTEN %u B opt header\n", written);
 179:g:/iot/IoT_Device_Demo/iot_link/network/lwm2m/wakaama_lwm2m/wakaama-master/core/er-coap-13\er-coap-13.c **** 
 180:g:/iot/IoT_Device_Demo/iot_link/network/lwm2m/wakaama_lwm2m/wakaama-master/core/er-coap-13\er-coap-13.c ****     return ++written;
 389              		.loc 1 180 12
 390 00aa 7B69     		ldr	r3, [r7, #20]
 391 00ac 0133     		adds	r3, r3, #1
 392 00ae 7B61     		str	r3, [r7, #20]
 393 00b0 7B69     		ldr	r3, [r7, #20]
 181:g:/iot/IoT_Device_Demo/iot_link/network/lwm2m/wakaama_lwm2m/wakaama-master/core/er-coap-13\er-coap-13.c **** }
 394              		.loc 1 181 1
 395 00b2 1846     		mov	r0, r3
 396 00b4 1C37     		adds	r7, r7, #28
 397              	.LCFI21:
 398              		.cfi_def_cfa_offset 12
 399 00b6 BD46     		mov	sp, r7
 400              	.LCFI22:
 401              		.cfi_def_cfa_register 13
ARM GAS  C:\Users\ADMINI~1\AppData\Local\Temp\cc8DJu9v.s 			page 11


 402              		@ sp needed
 403 00b8 90BD     		pop	{r4, r7, pc}
 404              		.cfi_endproc
 405              	.LFE7:
 407              		.section	.text.coap_serialize_int_option,"ax",%progbits
 408              		.align	1
 409              		.syntax unified
 410              		.thumb
 411              		.thumb_func
 412              		.fpu fpv4-sp-d16
 414              	coap_serialize_int_option:
 415              	.LFB8:
 182:g:/iot/IoT_Device_Demo/iot_link/network/lwm2m/wakaama_lwm2m/wakaama-master/core/er-coap-13\er-coap-13.c **** /*-----------------------------------------------------------------------------------*/
 183:g:/iot/IoT_Device_Demo/iot_link/network/lwm2m/wakaama_lwm2m/wakaama-master/core/er-coap-13\er-coap-13.c **** static
 184:g:/iot/IoT_Device_Demo/iot_link/network/lwm2m/wakaama_lwm2m/wakaama-master/core/er-coap-13\er-coap-13.c **** size_t
 185:g:/iot/IoT_Device_Demo/iot_link/network/lwm2m/wakaama_lwm2m/wakaama-master/core/er-coap-13\er-coap-13.c **** coap_serialize_int_option(unsigned int number, unsigned int current_number, uint8_t *buffer, uint32
 186:g:/iot/IoT_Device_Demo/iot_link/network/lwm2m/wakaama_lwm2m/wakaama-master/core/er-coap-13\er-coap-13.c **** {
 416              		.loc 1 186 1
 417              		.cfi_startproc
 418              		@ args = 0, pretend = 0, frame = 24
 419              		@ frame_needed = 1, uses_anonymous_args = 0
 420 0000 80B5     		push	{r7, lr}
 421              	.LCFI23:
 422              		.cfi_def_cfa_offset 8
 423              		.cfi_offset 7, -8
 424              		.cfi_offset 14, -4
 425 0002 86B0     		sub	sp, sp, #24
 426              	.LCFI24:
 427              		.cfi_def_cfa_offset 32
 428 0004 00AF     		add	r7, sp, #0
 429              	.LCFI25:
 430              		.cfi_def_cfa_register 7
 431 0006 F860     		str	r0, [r7, #12]
 432 0008 B960     		str	r1, [r7, #8]
 433 000a 7A60     		str	r2, [r7, #4]
 434 000c 3B60     		str	r3, [r7]
 187:g:/iot/IoT_Device_Demo/iot_link/network/lwm2m/wakaama_lwm2m/wakaama-master/core/er-coap-13\er-coap-13.c ****     size_t i = 0;
 435              		.loc 1 187 12
 436 000e 0023     		movs	r3, #0
 437 0010 7B61     		str	r3, [r7, #20]
 188:g:/iot/IoT_Device_Demo/iot_link/network/lwm2m/wakaama_lwm2m/wakaama-master/core/er-coap-13\er-coap-13.c **** 
 189:g:/iot/IoT_Device_Demo/iot_link/network/lwm2m/wakaama_lwm2m/wakaama-master/core/er-coap-13\er-coap-13.c ****     if (0xFF000000 & value) ++i;
 438              		.loc 1 189 20
 439 0012 3B68     		ldr	r3, [r7]
 440 0014 03F07F43 		and	r3, r3, #-16777216
 441              		.loc 1 189 8
 442 0018 002B     		cmp	r3, #0
 443 001a 02D0     		beq	.L21
 444              		.loc 1 189 29 discriminator 1
 445 001c 7B69     		ldr	r3, [r7, #20]
 446 001e 0133     		adds	r3, r3, #1
 447 0020 7B61     		str	r3, [r7, #20]
 448              	.L21:
 190:g:/iot/IoT_Device_Demo/iot_link/network/lwm2m/wakaama_lwm2m/wakaama-master/core/er-coap-13\er-coap-13.c ****     if (0xFFFF0000 & value) ++i;
 449              		.loc 1 190 20
 450 0022 3B68     		ldr	r3, [r7]
 451 0024 1B0C     		lsrs	r3, r3, #16
ARM GAS  C:\Users\ADMINI~1\AppData\Local\Temp\cc8DJu9v.s 			page 12


 452 0026 1B04     		lsls	r3, r3, #16
 453              		.loc 1 190 8
 454 0028 002B     		cmp	r3, #0
 455 002a 02D0     		beq	.L22
 456              		.loc 1 190 29 discriminator 1
 457 002c 7B69     		ldr	r3, [r7, #20]
 458 002e 0133     		adds	r3, r3, #1
 459 0030 7B61     		str	r3, [r7, #20]
 460              	.L22:
 191:g:/iot/IoT_Device_Demo/iot_link/network/lwm2m/wakaama_lwm2m/wakaama-master/core/er-coap-13\er-coap-13.c ****     if (0xFFFFFF00 & value) ++i;
 461              		.loc 1 191 20
 462 0032 3B68     		ldr	r3, [r7]
 463 0034 23F0FF03 		bic	r3, r3, #255
 464              		.loc 1 191 8
 465 0038 002B     		cmp	r3, #0
 466 003a 02D0     		beq	.L23
 467              		.loc 1 191 29 discriminator 1
 468 003c 7B69     		ldr	r3, [r7, #20]
 469 003e 0133     		adds	r3, r3, #1
 470 0040 7B61     		str	r3, [r7, #20]
 471              	.L23:
 192:g:/iot/IoT_Device_Demo/iot_link/network/lwm2m/wakaama_lwm2m/wakaama-master/core/er-coap-13\er-coap-13.c ****     if (0xFFFFFFFF & value) ++i;
 472              		.loc 1 192 8
 473 0042 3B68     		ldr	r3, [r7]
 474 0044 002B     		cmp	r3, #0
 475 0046 02D0     		beq	.L24
 476              		.loc 1 192 29 discriminator 1
 477 0048 7B69     		ldr	r3, [r7, #20]
 478 004a 0133     		adds	r3, r3, #1
 479 004c 7B61     		str	r3, [r7, #20]
 480              	.L24:
 193:g:/iot/IoT_Device_Demo/iot_link/network/lwm2m/wakaama_lwm2m/wakaama-master/core/er-coap-13\er-coap-13.c **** 
 194:g:/iot/IoT_Device_Demo/iot_link/network/lwm2m/wakaama_lwm2m/wakaama-master/core/er-coap-13\er-coap-13.c ****     PRINTF("OPTION %u (delta %u, len %u)\n", number, number - current_number, i);
 195:g:/iot/IoT_Device_Demo/iot_link/network/lwm2m/wakaama_lwm2m/wakaama-master/core/er-coap-13\er-coap-13.c **** 
 196:g:/iot/IoT_Device_Demo/iot_link/network/lwm2m/wakaama_lwm2m/wakaama-master/core/er-coap-13\er-coap-13.c ****     i = coap_set_option_header(number - current_number, i, buffer);
 481              		.loc 1 196 9
 482 004e FA68     		ldr	r2, [r7, #12]
 483 0050 BB68     		ldr	r3, [r7, #8]
 484 0052 D31A     		subs	r3, r2, r3
 485 0054 7A68     		ldr	r2, [r7, #4]
 486 0056 7969     		ldr	r1, [r7, #20]
 487 0058 1846     		mov	r0, r3
 488 005a FFF7FEFF 		bl	coap_set_option_header
 489 005e 7861     		str	r0, [r7, #20]
 197:g:/iot/IoT_Device_Demo/iot_link/network/lwm2m/wakaama_lwm2m/wakaama-master/core/er-coap-13\er-coap-13.c **** 
 198:g:/iot/IoT_Device_Demo/iot_link/network/lwm2m/wakaama_lwm2m/wakaama-master/core/er-coap-13\er-coap-13.c ****     if (0xFF000000 & value) buffer[i++] = (uint8_t) (value >> 24);
 490              		.loc 1 198 20
 491 0060 3B68     		ldr	r3, [r7]
 492 0062 03F07F43 		and	r3, r3, #-16777216
 493              		.loc 1 198 8
 494 0066 002B     		cmp	r3, #0
 495 0068 08D0     		beq	.L25
 496              		.loc 1 198 60 discriminator 1
 497 006a 3B68     		ldr	r3, [r7]
 498 006c 190E     		lsrs	r1, r3, #24
 499              		.loc 1 198 37 discriminator 1
 500 006e 7B69     		ldr	r3, [r7, #20]
ARM GAS  C:\Users\ADMINI~1\AppData\Local\Temp\cc8DJu9v.s 			page 13


 501 0070 5A1C     		adds	r2, r3, #1
 502 0072 7A61     		str	r2, [r7, #20]
 503              		.loc 1 198 35 discriminator 1
 504 0074 7A68     		ldr	r2, [r7, #4]
 505 0076 1344     		add	r3, r3, r2
 506              		.loc 1 198 43 discriminator 1
 507 0078 CAB2     		uxtb	r2, r1
 508              		.loc 1 198 41 discriminator 1
 509 007a 1A70     		strb	r2, [r3]
 510              	.L25:
 199:g:/iot/IoT_Device_Demo/iot_link/network/lwm2m/wakaama_lwm2m/wakaama-master/core/er-coap-13\er-coap-13.c ****     if (0xFFFF0000 & value) buffer[i++] = (uint8_t) (value >> 16);
 511              		.loc 1 199 20
 512 007c 3B68     		ldr	r3, [r7]
 513 007e 1B0C     		lsrs	r3, r3, #16
 514 0080 1B04     		lsls	r3, r3, #16
 515              		.loc 1 199 8
 516 0082 002B     		cmp	r3, #0
 517 0084 08D0     		beq	.L26
 518              		.loc 1 199 60 discriminator 1
 519 0086 3B68     		ldr	r3, [r7]
 520 0088 190C     		lsrs	r1, r3, #16
 521              		.loc 1 199 37 discriminator 1
 522 008a 7B69     		ldr	r3, [r7, #20]
 523 008c 5A1C     		adds	r2, r3, #1
 524 008e 7A61     		str	r2, [r7, #20]
 525              		.loc 1 199 35 discriminator 1
 526 0090 7A68     		ldr	r2, [r7, #4]
 527 0092 1344     		add	r3, r3, r2
 528              		.loc 1 199 43 discriminator 1
 529 0094 CAB2     		uxtb	r2, r1
 530              		.loc 1 199 41 discriminator 1
 531 0096 1A70     		strb	r2, [r3]
 532              	.L26:
 200:g:/iot/IoT_Device_Demo/iot_link/network/lwm2m/wakaama_lwm2m/wakaama-master/core/er-coap-13\er-coap-13.c ****     if (0xFFFFFF00 & value) buffer[i++] = (uint8_t) (value >> 8);
 533              		.loc 1 200 20
 534 0098 3B68     		ldr	r3, [r7]
 535 009a 23F0FF03 		bic	r3, r3, #255
 536              		.loc 1 200 8
 537 009e 002B     		cmp	r3, #0
 538 00a0 08D0     		beq	.L27
 539              		.loc 1 200 60 discriminator 1
 540 00a2 3B68     		ldr	r3, [r7]
 541 00a4 190A     		lsrs	r1, r3, #8
 542              		.loc 1 200 37 discriminator 1
 543 00a6 7B69     		ldr	r3, [r7, #20]
 544 00a8 5A1C     		adds	r2, r3, #1
 545 00aa 7A61     		str	r2, [r7, #20]
 546              		.loc 1 200 35 discriminator 1
 547 00ac 7A68     		ldr	r2, [r7, #4]
 548 00ae 1344     		add	r3, r3, r2
 549              		.loc 1 200 43 discriminator 1
 550 00b0 CAB2     		uxtb	r2, r1
 551              		.loc 1 200 41 discriminator 1
 552 00b2 1A70     		strb	r2, [r3]
 553              	.L27:
 201:g:/iot/IoT_Device_Demo/iot_link/network/lwm2m/wakaama_lwm2m/wakaama-master/core/er-coap-13\er-coap-13.c ****     if (0xFFFFFFFF & value) buffer[i++] = (uint8_t) (value);
 554              		.loc 1 201 8
ARM GAS  C:\Users\ADMINI~1\AppData\Local\Temp\cc8DJu9v.s 			page 14


 555 00b4 3B68     		ldr	r3, [r7]
 556 00b6 002B     		cmp	r3, #0
 557 00b8 07D0     		beq	.L28
 558              		.loc 1 201 37 discriminator 1
 559 00ba 7B69     		ldr	r3, [r7, #20]
 560 00bc 5A1C     		adds	r2, r3, #1
 561 00be 7A61     		str	r2, [r7, #20]
 562              		.loc 1 201 35 discriminator 1
 563 00c0 7A68     		ldr	r2, [r7, #4]
 564 00c2 1344     		add	r3, r3, r2
 565              		.loc 1 201 43 discriminator 1
 566 00c4 3A68     		ldr	r2, [r7]
 567 00c6 D2B2     		uxtb	r2, r2
 568              		.loc 1 201 41 discriminator 1
 569 00c8 1A70     		strb	r2, [r3]
 570              	.L28:
 202:g:/iot/IoT_Device_Demo/iot_link/network/lwm2m/wakaama_lwm2m/wakaama-master/core/er-coap-13\er-coap-13.c **** 
 203:g:/iot/IoT_Device_Demo/iot_link/network/lwm2m/wakaama_lwm2m/wakaama-master/core/er-coap-13\er-coap-13.c ****     return i;
 571              		.loc 1 203 12
 572 00ca 7B69     		ldr	r3, [r7, #20]
 204:g:/iot/IoT_Device_Demo/iot_link/network/lwm2m/wakaama_lwm2m/wakaama-master/core/er-coap-13\er-coap-13.c **** }
 573              		.loc 1 204 1
 574 00cc 1846     		mov	r0, r3
 575 00ce 1837     		adds	r7, r7, #24
 576              	.LCFI26:
 577              		.cfi_def_cfa_offset 8
 578 00d0 BD46     		mov	sp, r7
 579              	.LCFI27:
 580              		.cfi_def_cfa_register 13
 581              		@ sp needed
 582 00d2 80BD     		pop	{r7, pc}
 583              		.cfi_endproc
 584              	.LFE8:
 586              		.section	.text.coap_serialize_array_option,"ax",%progbits
 587              		.align	1
 588              		.syntax unified
 589              		.thumb
 590              		.thumb_func
 591              		.fpu fpv4-sp-d16
 593              	coap_serialize_array_option:
 594              	.LFB9:
 205:g:/iot/IoT_Device_Demo/iot_link/network/lwm2m/wakaama_lwm2m/wakaama-master/core/er-coap-13\er-coap-13.c **** /*-----------------------------------------------------------------------------------*/
 206:g:/iot/IoT_Device_Demo/iot_link/network/lwm2m/wakaama_lwm2m/wakaama-master/core/er-coap-13\er-coap-13.c **** static
 207:g:/iot/IoT_Device_Demo/iot_link/network/lwm2m/wakaama_lwm2m/wakaama-master/core/er-coap-13\er-coap-13.c **** size_t
 208:g:/iot/IoT_Device_Demo/iot_link/network/lwm2m/wakaama_lwm2m/wakaama-master/core/er-coap-13\er-coap-13.c **** coap_serialize_array_option(unsigned int number, unsigned int current_number, uint8_t *buffer, uint
 209:g:/iot/IoT_Device_Demo/iot_link/network/lwm2m/wakaama_lwm2m/wakaama-master/core/er-coap-13\er-coap-13.c **** {
 595              		.loc 1 209 1
 596              		.cfi_startproc
 597              		@ args = 8, pretend = 0, frame = 40
 598              		@ frame_needed = 1, uses_anonymous_args = 0
 599 0000 80B5     		push	{r7, lr}
 600              	.LCFI28:
 601              		.cfi_def_cfa_offset 8
 602              		.cfi_offset 7, -8
 603              		.cfi_offset 14, -4
 604 0002 8AB0     		sub	sp, sp, #40
 605              	.LCFI29:
ARM GAS  C:\Users\ADMINI~1\AppData\Local\Temp\cc8DJu9v.s 			page 15


 606              		.cfi_def_cfa_offset 48
 607 0004 00AF     		add	r7, sp, #0
 608              	.LCFI30:
 609              		.cfi_def_cfa_register 7
 610 0006 F860     		str	r0, [r7, #12]
 611 0008 B960     		str	r1, [r7, #8]
 612 000a 7A60     		str	r2, [r7, #4]
 613 000c 3B60     		str	r3, [r7]
 210:g:/iot/IoT_Device_Demo/iot_link/network/lwm2m/wakaama_lwm2m/wakaama-master/core/er-coap-13\er-coap-13.c ****     size_t i = 0;
 614              		.loc 1 210 12
 615 000e 0023     		movs	r3, #0
 616 0010 7B62     		str	r3, [r7, #36]
 211:g:/iot/IoT_Device_Demo/iot_link/network/lwm2m/wakaama_lwm2m/wakaama-master/core/er-coap-13\er-coap-13.c **** 
 212:g:/iot/IoT_Device_Demo/iot_link/network/lwm2m/wakaama_lwm2m/wakaama-master/core/er-coap-13\er-coap-13.c ****     if (split_char != '\0')
 617              		.loc 1 212 8
 618 0012 97F83430 		ldrb	r3, [r7, #52]	@ zero_extendqisi2
 619 0016 002B     		cmp	r3, #0
 620 0018 45D0     		beq	.L31
 621              	.LBB2:
 213:g:/iot/IoT_Device_Demo/iot_link/network/lwm2m/wakaama_lwm2m/wakaama-master/core/er-coap-13\er-coap-13.c ****     {
 214:g:/iot/IoT_Device_Demo/iot_link/network/lwm2m/wakaama_lwm2m/wakaama-master/core/er-coap-13\er-coap-13.c ****         size_t j;
 215:g:/iot/IoT_Device_Demo/iot_link/network/lwm2m/wakaama_lwm2m/wakaama-master/core/er-coap-13\er-coap-13.c ****         uint8_t *part_start = array;
 622              		.loc 1 215 18
 623 001a 3B68     		ldr	r3, [r7]
 624 001c FB61     		str	r3, [r7, #28]
 216:g:/iot/IoT_Device_Demo/iot_link/network/lwm2m/wakaama_lwm2m/wakaama-master/core/er-coap-13\er-coap-13.c ****         uint8_t *part_end = NULL;
 625              		.loc 1 216 18
 626 001e 0023     		movs	r3, #0
 627 0020 BB61     		str	r3, [r7, #24]
 217:g:/iot/IoT_Device_Demo/iot_link/network/lwm2m/wakaama_lwm2m/wakaama-master/core/er-coap-13\er-coap-13.c ****         size_t temp_length;
 218:g:/iot/IoT_Device_Demo/iot_link/network/lwm2m/wakaama_lwm2m/wakaama-master/core/er-coap-13\er-coap-13.c **** 
 219:g:/iot/IoT_Device_Demo/iot_link/network/lwm2m/wakaama_lwm2m/wakaama-master/core/er-coap-13\er-coap-13.c ****         for (j = 0; j <= length; ++j)
 628              		.loc 1 219 16
 629 0022 0023     		movs	r3, #0
 630 0024 3B62     		str	r3, [r7, #32]
 631              		.loc 1 219 9
 632 0026 39E0     		b	.L32
 633              	.L35:
 220:g:/iot/IoT_Device_Demo/iot_link/network/lwm2m/wakaama_lwm2m/wakaama-master/core/er-coap-13\er-coap-13.c ****         {
 221:g:/iot/IoT_Device_Demo/iot_link/network/lwm2m/wakaama_lwm2m/wakaama-master/core/er-coap-13\er-coap-13.c ****             if (array[j] == split_char || j == length)
 634              		.loc 1 221 22
 635 0028 3A68     		ldr	r2, [r7]
 636 002a 3B6A     		ldr	r3, [r7, #32]
 637 002c 1344     		add	r3, r3, r2
 638 002e 1B78     		ldrb	r3, [r3]	@ zero_extendqisi2
 639              		.loc 1 221 16
 640 0030 97F83420 		ldrb	r2, [r7, #52]	@ zero_extendqisi2
 641 0034 9A42     		cmp	r2, r3
 642 0036 03D0     		beq	.L33
 643              		.loc 1 221 40 discriminator 1
 644 0038 3A6A     		ldr	r2, [r7, #32]
 645 003a 3B6B     		ldr	r3, [r7, #48]
 646 003c 9A42     		cmp	r2, r3
 647 003e 2AD1     		bne	.L34
 648              	.L33:
 222:g:/iot/IoT_Device_Demo/iot_link/network/lwm2m/wakaama_lwm2m/wakaama-master/core/er-coap-13\er-coap-13.c ****             {
 223:g:/iot/IoT_Device_Demo/iot_link/network/lwm2m/wakaama_lwm2m/wakaama-master/core/er-coap-13\er-coap-13.c ****                 part_end = array + j;
ARM GAS  C:\Users\ADMINI~1\AppData\Local\Temp\cc8DJu9v.s 			page 16


 649              		.loc 1 223 26
 650 0040 3A68     		ldr	r2, [r7]
 651 0042 3B6A     		ldr	r3, [r7, #32]
 652 0044 1344     		add	r3, r3, r2
 653 0046 BB61     		str	r3, [r7, #24]
 224:g:/iot/IoT_Device_Demo/iot_link/network/lwm2m/wakaama_lwm2m/wakaama-master/core/er-coap-13\er-coap-13.c ****                 temp_length = part_end - part_start;
 654              		.loc 1 224 40
 655 0048 BA69     		ldr	r2, [r7, #24]
 656 004a FB69     		ldr	r3, [r7, #28]
 657 004c D31A     		subs	r3, r2, r3
 658              		.loc 1 224 29
 659 004e 7B61     		str	r3, [r7, #20]
 225:g:/iot/IoT_Device_Demo/iot_link/network/lwm2m/wakaama_lwm2m/wakaama-master/core/er-coap-13\er-coap-13.c **** 
 226:g:/iot/IoT_Device_Demo/iot_link/network/lwm2m/wakaama_lwm2m/wakaama-master/core/er-coap-13\er-coap-13.c ****                 i += coap_set_option_header(number - current_number, temp_length, &buffer[i]);
 660              		.loc 1 226 22
 661 0050 FA68     		ldr	r2, [r7, #12]
 662 0052 BB68     		ldr	r3, [r7, #8]
 663 0054 D01A     		subs	r0, r2, r3
 664 0056 7A68     		ldr	r2, [r7, #4]
 665 0058 7B6A     		ldr	r3, [r7, #36]
 666 005a 1344     		add	r3, r3, r2
 667 005c 1A46     		mov	r2, r3
 668 005e 7969     		ldr	r1, [r7, #20]
 669 0060 FFF7FEFF 		bl	coap_set_option_header
 670 0064 0246     		mov	r2, r0
 671              		.loc 1 226 19
 672 0066 7B6A     		ldr	r3, [r7, #36]
 673 0068 1344     		add	r3, r3, r2
 674 006a 7B62     		str	r3, [r7, #36]
 227:g:/iot/IoT_Device_Demo/iot_link/network/lwm2m/wakaama_lwm2m/wakaama-master/core/er-coap-13\er-coap-13.c ****                 memcpy(&buffer[i], part_start, temp_length);
 675              		.loc 1 227 24
 676 006c 7A68     		ldr	r2, [r7, #4]
 677 006e 7B6A     		ldr	r3, [r7, #36]
 678 0070 1344     		add	r3, r3, r2
 679              		.loc 1 227 17
 680 0072 7A69     		ldr	r2, [r7, #20]
 681 0074 F969     		ldr	r1, [r7, #28]
 682 0076 1846     		mov	r0, r3
 683 0078 FFF7FEFF 		bl	memcpy
 228:g:/iot/IoT_Device_Demo/iot_link/network/lwm2m/wakaama_lwm2m/wakaama-master/core/er-coap-13\er-coap-13.c ****                 i += temp_length;
 684              		.loc 1 228 19
 685 007c 7A6A     		ldr	r2, [r7, #36]
 686 007e 7B69     		ldr	r3, [r7, #20]
 687 0080 1344     		add	r3, r3, r2
 688 0082 7B62     		str	r3, [r7, #36]
 229:g:/iot/IoT_Device_Demo/iot_link/network/lwm2m/wakaama_lwm2m/wakaama-master/core/er-coap-13\er-coap-13.c **** 
 230:g:/iot/IoT_Device_Demo/iot_link/network/lwm2m/wakaama_lwm2m/wakaama-master/core/er-coap-13\er-coap-13.c ****                 PRINTF("OPTION type %u, delta %u, len %u, part [%.*s]\n", number, number - current_
 231:g:/iot/IoT_Device_Demo/iot_link/network/lwm2m/wakaama_lwm2m/wakaama-master/core/er-coap-13\er-coap-13.c **** 
 232:g:/iot/IoT_Device_Demo/iot_link/network/lwm2m/wakaama_lwm2m/wakaama-master/core/er-coap-13\er-coap-13.c ****                 ++j; /* skip the splitter */
 689              		.loc 1 232 17
 690 0084 3B6A     		ldr	r3, [r7, #32]
 691 0086 0133     		adds	r3, r3, #1
 692 0088 3B62     		str	r3, [r7, #32]
 233:g:/iot/IoT_Device_Demo/iot_link/network/lwm2m/wakaama_lwm2m/wakaama-master/core/er-coap-13\er-coap-13.c ****                 current_number = number;
 693              		.loc 1 233 32
 694 008a FB68     		ldr	r3, [r7, #12]
 695 008c BB60     		str	r3, [r7, #8]
ARM GAS  C:\Users\ADMINI~1\AppData\Local\Temp\cc8DJu9v.s 			page 17


 234:g:/iot/IoT_Device_Demo/iot_link/network/lwm2m/wakaama_lwm2m/wakaama-master/core/er-coap-13\er-coap-13.c ****                 part_start = array + j;
 696              		.loc 1 234 28
 697 008e 3A68     		ldr	r2, [r7]
 698 0090 3B6A     		ldr	r3, [r7, #32]
 699 0092 1344     		add	r3, r3, r2
 700 0094 FB61     		str	r3, [r7, #28]
 701              	.L34:
 219:g:/iot/IoT_Device_Demo/iot_link/network/lwm2m/wakaama_lwm2m/wakaama-master/core/er-coap-13\er-coap-13.c ****         {
 702              		.loc 1 219 34 discriminator 2
 703 0096 3B6A     		ldr	r3, [r7, #32]
 704 0098 0133     		adds	r3, r3, #1
 705 009a 3B62     		str	r3, [r7, #32]
 706              	.L32:
 219:g:/iot/IoT_Device_Demo/iot_link/network/lwm2m/wakaama_lwm2m/wakaama-master/core/er-coap-13\er-coap-13.c ****         {
 707              		.loc 1 219 9 discriminator 1
 708 009c 3A6A     		ldr	r2, [r7, #32]
 709 009e 3B6B     		ldr	r3, [r7, #48]
 710 00a0 9A42     		cmp	r2, r3
 711 00a2 C1D9     		bls	.L35
 712 00a4 19E0     		b	.L36
 713              	.L31:
 714              	.LBE2:
 235:g:/iot/IoT_Device_Demo/iot_link/network/lwm2m/wakaama_lwm2m/wakaama-master/core/er-coap-13\er-coap-13.c ****             }
 236:g:/iot/IoT_Device_Demo/iot_link/network/lwm2m/wakaama_lwm2m/wakaama-master/core/er-coap-13\er-coap-13.c ****         } /* for */
 237:g:/iot/IoT_Device_Demo/iot_link/network/lwm2m/wakaama_lwm2m/wakaama-master/core/er-coap-13\er-coap-13.c ****     }
 238:g:/iot/IoT_Device_Demo/iot_link/network/lwm2m/wakaama_lwm2m/wakaama-master/core/er-coap-13\er-coap-13.c ****     else
 239:g:/iot/IoT_Device_Demo/iot_link/network/lwm2m/wakaama_lwm2m/wakaama-master/core/er-coap-13\er-coap-13.c ****     {
 240:g:/iot/IoT_Device_Demo/iot_link/network/lwm2m/wakaama_lwm2m/wakaama-master/core/er-coap-13\er-coap-13.c ****         i += coap_set_option_header(number - current_number, length, &buffer[i]);
 715              		.loc 1 240 14
 716 00a6 FA68     		ldr	r2, [r7, #12]
 717 00a8 BB68     		ldr	r3, [r7, #8]
 718 00aa D01A     		subs	r0, r2, r3
 719 00ac 7A68     		ldr	r2, [r7, #4]
 720 00ae 7B6A     		ldr	r3, [r7, #36]
 721 00b0 1344     		add	r3, r3, r2
 722 00b2 1A46     		mov	r2, r3
 723 00b4 396B     		ldr	r1, [r7, #48]
 724 00b6 FFF7FEFF 		bl	coap_set_option_header
 725 00ba 0246     		mov	r2, r0
 726              		.loc 1 240 11
 727 00bc 7B6A     		ldr	r3, [r7, #36]
 728 00be 1344     		add	r3, r3, r2
 729 00c0 7B62     		str	r3, [r7, #36]
 241:g:/iot/IoT_Device_Demo/iot_link/network/lwm2m/wakaama_lwm2m/wakaama-master/core/er-coap-13\er-coap-13.c ****         memcpy(&buffer[i], array, length);
 730              		.loc 1 241 16
 731 00c2 7A68     		ldr	r2, [r7, #4]
 732 00c4 7B6A     		ldr	r3, [r7, #36]
 733 00c6 1344     		add	r3, r3, r2
 734              		.loc 1 241 9
 735 00c8 3A6B     		ldr	r2, [r7, #48]
 736 00ca 3968     		ldr	r1, [r7]
 737 00cc 1846     		mov	r0, r3
 738 00ce FFF7FEFF 		bl	memcpy
 242:g:/iot/IoT_Device_Demo/iot_link/network/lwm2m/wakaama_lwm2m/wakaama-master/core/er-coap-13\er-coap-13.c ****         i += length;
 739              		.loc 1 242 11
 740 00d2 7A6A     		ldr	r2, [r7, #36]
 741 00d4 3B6B     		ldr	r3, [r7, #48]
ARM GAS  C:\Users\ADMINI~1\AppData\Local\Temp\cc8DJu9v.s 			page 18


 742 00d6 1344     		add	r3, r3, r2
 743 00d8 7B62     		str	r3, [r7, #36]
 744              	.L36:
 243:g:/iot/IoT_Device_Demo/iot_link/network/lwm2m/wakaama_lwm2m/wakaama-master/core/er-coap-13\er-coap-13.c **** 
 244:g:/iot/IoT_Device_Demo/iot_link/network/lwm2m/wakaama_lwm2m/wakaama-master/core/er-coap-13\er-coap-13.c ****         PRINTF("OPTION type %u, delta %u, len %u\n", number, number - current_number, length);
 245:g:/iot/IoT_Device_Demo/iot_link/network/lwm2m/wakaama_lwm2m/wakaama-master/core/er-coap-13\er-coap-13.c ****     }
 246:g:/iot/IoT_Device_Demo/iot_link/network/lwm2m/wakaama_lwm2m/wakaama-master/core/er-coap-13\er-coap-13.c **** 
 247:g:/iot/IoT_Device_Demo/iot_link/network/lwm2m/wakaama_lwm2m/wakaama-master/core/er-coap-13\er-coap-13.c ****     return i;
 745              		.loc 1 247 12
 746 00da 7B6A     		ldr	r3, [r7, #36]
 248:g:/iot/IoT_Device_Demo/iot_link/network/lwm2m/wakaama_lwm2m/wakaama-master/core/er-coap-13\er-coap-13.c **** }
 747              		.loc 1 248 1
 748 00dc 1846     		mov	r0, r3
 749 00de 2837     		adds	r7, r7, #40
 750              	.LCFI31:
 751              		.cfi_def_cfa_offset 8
 752 00e0 BD46     		mov	sp, r7
 753              	.LCFI32:
 754              		.cfi_def_cfa_register 13
 755              		@ sp needed
 756 00e2 80BD     		pop	{r7, pc}
 757              		.cfi_endproc
 758              	.LFE9:
 760              		.section	.text.coap_serialize_multi_option,"ax",%progbits
 761              		.align	1
 762              		.syntax unified
 763              		.thumb
 764              		.thumb_func
 765              		.fpu fpv4-sp-d16
 767              	coap_serialize_multi_option:
 768              	.LFB10:
 249:g:/iot/IoT_Device_Demo/iot_link/network/lwm2m/wakaama_lwm2m/wakaama-master/core/er-coap-13\er-coap-13.c **** /*-----------------------------------------------------------------------------------*/
 250:g:/iot/IoT_Device_Demo/iot_link/network/lwm2m/wakaama_lwm2m/wakaama-master/core/er-coap-13\er-coap-13.c **** static
 251:g:/iot/IoT_Device_Demo/iot_link/network/lwm2m/wakaama_lwm2m/wakaama-master/core/er-coap-13\er-coap-13.c **** size_t
 252:g:/iot/IoT_Device_Demo/iot_link/network/lwm2m/wakaama_lwm2m/wakaama-master/core/er-coap-13\er-coap-13.c **** coap_serialize_multi_option(unsigned int number, unsigned int current_number, uint8_t *buffer, mult
 253:g:/iot/IoT_Device_Demo/iot_link/network/lwm2m/wakaama_lwm2m/wakaama-master/core/er-coap-13\er-coap-13.c **** {
 769              		.loc 1 253 1
 770              		.cfi_startproc
 771              		@ args = 0, pretend = 0, frame = 24
 772              		@ frame_needed = 1, uses_anonymous_args = 0
 773 0000 80B5     		push	{r7, lr}
 774              	.LCFI33:
 775              		.cfi_def_cfa_offset 8
 776              		.cfi_offset 7, -8
 777              		.cfi_offset 14, -4
 778 0002 86B0     		sub	sp, sp, #24
 779              	.LCFI34:
 780              		.cfi_def_cfa_offset 32
 781 0004 00AF     		add	r7, sp, #0
 782              	.LCFI35:
 783              		.cfi_def_cfa_register 7
 784 0006 F860     		str	r0, [r7, #12]
 785 0008 B960     		str	r1, [r7, #8]
 786 000a 7A60     		str	r2, [r7, #4]
 787 000c 3B60     		str	r3, [r7]
 254:g:/iot/IoT_Device_Demo/iot_link/network/lwm2m/wakaama_lwm2m/wakaama-master/core/er-coap-13\er-coap-13.c ****     size_t i = 0;
 788              		.loc 1 254 12
ARM GAS  C:\Users\ADMINI~1\AppData\Local\Temp\cc8DJu9v.s 			page 19


 789 000e 0023     		movs	r3, #0
 790 0010 7B61     		str	r3, [r7, #20]
 255:g:/iot/IoT_Device_Demo/iot_link/network/lwm2m/wakaama_lwm2m/wakaama-master/core/er-coap-13\er-coap-13.c ****     multi_option_t *j;
 256:g:/iot/IoT_Device_Demo/iot_link/network/lwm2m/wakaama_lwm2m/wakaama-master/core/er-coap-13\er-coap-13.c **** 
 257:g:/iot/IoT_Device_Demo/iot_link/network/lwm2m/wakaama_lwm2m/wakaama-master/core/er-coap-13\er-coap-13.c ****     for (j = array; j != NULL; j = j->next)
 791              		.loc 1 257 12
 792 0012 3B68     		ldr	r3, [r7]
 793 0014 3B61     		str	r3, [r7, #16]
 794              		.loc 1 257 5
 795 0016 24E0     		b	.L39
 796              	.L40:
 258:g:/iot/IoT_Device_Demo/iot_link/network/lwm2m/wakaama_lwm2m/wakaama-master/core/er-coap-13\er-coap-13.c ****     {
 259:g:/iot/IoT_Device_Demo/iot_link/network/lwm2m/wakaama_lwm2m/wakaama-master/core/er-coap-13\er-coap-13.c ****         i += coap_set_option_header(number - current_number, j->len, &buffer[i]);
 797              		.loc 1 259 14 discriminator 3
 798 0018 FA68     		ldr	r2, [r7, #12]
 799 001a BB68     		ldr	r3, [r7, #8]
 800 001c D01A     		subs	r0, r2, r3
 801              		.loc 1 259 63 discriminator 3
 802 001e 3B69     		ldr	r3, [r7, #16]
 803 0020 5B79     		ldrb	r3, [r3, #5]	@ zero_extendqisi2
 804              		.loc 1 259 14 discriminator 3
 805 0022 1946     		mov	r1, r3
 806 0024 7A68     		ldr	r2, [r7, #4]
 807 0026 7B69     		ldr	r3, [r7, #20]
 808 0028 1344     		add	r3, r3, r2
 809 002a 1A46     		mov	r2, r3
 810 002c FFF7FEFF 		bl	coap_set_option_header
 811 0030 0246     		mov	r2, r0
 812              		.loc 1 259 11 discriminator 3
 813 0032 7B69     		ldr	r3, [r7, #20]
 814 0034 1344     		add	r3, r3, r2
 815 0036 7B61     		str	r3, [r7, #20]
 260:g:/iot/IoT_Device_Demo/iot_link/network/lwm2m/wakaama_lwm2m/wakaama-master/core/er-coap-13\er-coap-13.c ****         current_number = number;
 816              		.loc 1 260 24 discriminator 3
 817 0038 FB68     		ldr	r3, [r7, #12]
 818 003a BB60     		str	r3, [r7, #8]
 261:g:/iot/IoT_Device_Demo/iot_link/network/lwm2m/wakaama_lwm2m/wakaama-master/core/er-coap-13\er-coap-13.c ****         memcpy(&buffer[i], j->data, j->len);
 819              		.loc 1 261 16 discriminator 3
 820 003c 7A68     		ldr	r2, [r7, #4]
 821 003e 7B69     		ldr	r3, [r7, #20]
 822 0040 D018     		adds	r0, r2, r3
 823              		.loc 1 261 29 discriminator 3
 824 0042 3B69     		ldr	r3, [r7, #16]
 825 0044 9968     		ldr	r1, [r3, #8]
 826              		.loc 1 261 38 discriminator 3
 827 0046 3B69     		ldr	r3, [r7, #16]
 828 0048 5B79     		ldrb	r3, [r3, #5]	@ zero_extendqisi2
 829              		.loc 1 261 9 discriminator 3
 830 004a 1A46     		mov	r2, r3
 831 004c FFF7FEFF 		bl	memcpy
 262:g:/iot/IoT_Device_Demo/iot_link/network/lwm2m/wakaama_lwm2m/wakaama-master/core/er-coap-13\er-coap-13.c ****         i += j->len;
 832              		.loc 1 262 15 discriminator 3
 833 0050 3B69     		ldr	r3, [r7, #16]
 834 0052 5B79     		ldrb	r3, [r3, #5]	@ zero_extendqisi2
 835 0054 1A46     		mov	r2, r3
 836              		.loc 1 262 11 discriminator 3
 837 0056 7B69     		ldr	r3, [r7, #20]
ARM GAS  C:\Users\ADMINI~1\AppData\Local\Temp\cc8DJu9v.s 			page 20


 838 0058 1344     		add	r3, r3, r2
 839 005a 7B61     		str	r3, [r7, #20]
 257:g:/iot/IoT_Device_Demo/iot_link/network/lwm2m/wakaama_lwm2m/wakaama-master/core/er-coap-13\er-coap-13.c ****     {
 840              		.loc 1 257 34 discriminator 3
 841 005c 3B69     		ldr	r3, [r7, #16]
 842 005e 1B68     		ldr	r3, [r3]
 843 0060 3B61     		str	r3, [r7, #16]
 844              	.L39:
 257:g:/iot/IoT_Device_Demo/iot_link/network/lwm2m/wakaama_lwm2m/wakaama-master/core/er-coap-13\er-coap-13.c ****     {
 845              		.loc 1 257 5 discriminator 1
 846 0062 3B69     		ldr	r3, [r7, #16]
 847 0064 002B     		cmp	r3, #0
 848 0066 D7D1     		bne	.L40
 263:g:/iot/IoT_Device_Demo/iot_link/network/lwm2m/wakaama_lwm2m/wakaama-master/core/er-coap-13\er-coap-13.c ****     } /* for */
 264:g:/iot/IoT_Device_Demo/iot_link/network/lwm2m/wakaama_lwm2m/wakaama-master/core/er-coap-13\er-coap-13.c **** 
 265:g:/iot/IoT_Device_Demo/iot_link/network/lwm2m/wakaama_lwm2m/wakaama-master/core/er-coap-13\er-coap-13.c ****     return i;
 849              		.loc 1 265 12
 850 0068 7B69     		ldr	r3, [r7, #20]
 266:g:/iot/IoT_Device_Demo/iot_link/network/lwm2m/wakaama_lwm2m/wakaama-master/core/er-coap-13\er-coap-13.c **** }
 851              		.loc 1 266 1
 852 006a 1846     		mov	r0, r3
 853 006c 1837     		adds	r7, r7, #24
 854              	.LCFI36:
 855              		.cfi_def_cfa_offset 8
 856 006e BD46     		mov	sp, r7
 857              	.LCFI37:
 858              		.cfi_def_cfa_register 13
 859              		@ sp needed
 860 0070 80BD     		pop	{r7, pc}
 861              		.cfi_endproc
 862              	.LFE10:
 864              		.section	.text.coap_merge_multi_option,"ax",%progbits
 865              		.align	1
 866              		.syntax unified
 867              		.thumb
 868              		.thumb_func
 869              		.fpu fpv4-sp-d16
 871              	coap_merge_multi_option:
 872              	.LFB11:
 267:g:/iot/IoT_Device_Demo/iot_link/network/lwm2m/wakaama_lwm2m/wakaama-master/core/er-coap-13\er-coap-13.c **** /*-----------------------------------------------------------------------------------*/
 268:g:/iot/IoT_Device_Demo/iot_link/network/lwm2m/wakaama_lwm2m/wakaama-master/core/er-coap-13\er-coap-13.c **** static
 269:g:/iot/IoT_Device_Demo/iot_link/network/lwm2m/wakaama_lwm2m/wakaama-master/core/er-coap-13\er-coap-13.c **** void
 270:g:/iot/IoT_Device_Demo/iot_link/network/lwm2m/wakaama_lwm2m/wakaama-master/core/er-coap-13\er-coap-13.c **** coap_merge_multi_option(uint8_t **dst, size_t *dst_len, uint8_t *option, size_t option_len, char se
 271:g:/iot/IoT_Device_Demo/iot_link/network/lwm2m/wakaama_lwm2m/wakaama-master/core/er-coap-13\er-coap-13.c **** {
 873              		.loc 1 271 1
 874              		.cfi_startproc
 875              		@ args = 4, pretend = 0, frame = 16
 876              		@ frame_needed = 1, uses_anonymous_args = 0
 877 0000 80B5     		push	{r7, lr}
 878              	.LCFI38:
 879              		.cfi_def_cfa_offset 8
 880              		.cfi_offset 7, -8
 881              		.cfi_offset 14, -4
 882 0002 84B0     		sub	sp, sp, #16
 883              	.LCFI39:
 884              		.cfi_def_cfa_offset 24
 885 0004 00AF     		add	r7, sp, #0
ARM GAS  C:\Users\ADMINI~1\AppData\Local\Temp\cc8DJu9v.s 			page 21


 886              	.LCFI40:
 887              		.cfi_def_cfa_register 7
 888 0006 F860     		str	r0, [r7, #12]
 889 0008 B960     		str	r1, [r7, #8]
 890 000a 7A60     		str	r2, [r7, #4]
 891 000c 3B60     		str	r3, [r7]
 272:g:/iot/IoT_Device_Demo/iot_link/network/lwm2m/wakaama_lwm2m/wakaama-master/core/er-coap-13\er-coap-13.c ****     /* Merge multiple options. */
 273:g:/iot/IoT_Device_Demo/iot_link/network/lwm2m/wakaama_lwm2m/wakaama-master/core/er-coap-13\er-coap-13.c ****     if (*dst_len > 0)
 892              		.loc 1 273 9
 893 000e BB68     		ldr	r3, [r7, #8]
 894 0010 1B68     		ldr	r3, [r3]
 895              		.loc 1 273 8
 896 0012 002B     		cmp	r3, #0
 897 0014 1CD0     		beq	.L43
 274:g:/iot/IoT_Device_Demo/iot_link/network/lwm2m/wakaama_lwm2m/wakaama-master/core/er-coap-13\er-coap-13.c ****     {
 275:g:/iot/IoT_Device_Demo/iot_link/network/lwm2m/wakaama_lwm2m/wakaama-master/core/er-coap-13\er-coap-13.c ****         /* dst already contains an option: concatenate */
 276:g:/iot/IoT_Device_Demo/iot_link/network/lwm2m/wakaama_lwm2m/wakaama-master/core/er-coap-13\er-coap-13.c ****         (*dst)[*dst_len] = separator;
 898              		.loc 1 276 10
 899 0016 FB68     		ldr	r3, [r7, #12]
 900 0018 1A68     		ldr	r2, [r3]
 901              		.loc 1 276 16
 902 001a BB68     		ldr	r3, [r7, #8]
 903 001c 1B68     		ldr	r3, [r3]
 904              		.loc 1 276 15
 905 001e 1344     		add	r3, r3, r2
 906              		.loc 1 276 26
 907 0020 3A7E     		ldrb	r2, [r7, #24]
 908 0022 1A70     		strb	r2, [r3]
 277:g:/iot/IoT_Device_Demo/iot_link/network/lwm2m/wakaama_lwm2m/wakaama-master/core/er-coap-13\er-coap-13.c ****         *dst_len += 1;
 909              		.loc 1 277 18
 910 0024 BB68     		ldr	r3, [r7, #8]
 911 0026 1B68     		ldr	r3, [r3]
 912 0028 5A1C     		adds	r2, r3, #1
 913 002a BB68     		ldr	r3, [r7, #8]
 914 002c 1A60     		str	r2, [r3]
 278:g:/iot/IoT_Device_Demo/iot_link/network/lwm2m/wakaama_lwm2m/wakaama-master/core/er-coap-13\er-coap-13.c **** 
 279:g:/iot/IoT_Device_Demo/iot_link/network/lwm2m/wakaama_lwm2m/wakaama-master/core/er-coap-13\er-coap-13.c ****         /* memmove handles 2-byte option headers */
 280:g:/iot/IoT_Device_Demo/iot_link/network/lwm2m/wakaama_lwm2m/wakaama-master/core/er-coap-13\er-coap-13.c ****         memmove((*dst) + (*dst_len), option, option_len);
 915              		.loc 1 280 18
 916 002e FB68     		ldr	r3, [r7, #12]
 917 0030 1A68     		ldr	r2, [r3]
 918              		.loc 1 280 27
 919 0032 BB68     		ldr	r3, [r7, #8]
 920 0034 1B68     		ldr	r3, [r3]
 921              		.loc 1 280 24
 922 0036 1344     		add	r3, r3, r2
 923              		.loc 1 280 9
 924 0038 3A68     		ldr	r2, [r7]
 925 003a 7968     		ldr	r1, [r7, #4]
 926 003c 1846     		mov	r0, r3
 927 003e FFF7FEFF 		bl	memmove
 281:g:/iot/IoT_Device_Demo/iot_link/network/lwm2m/wakaama_lwm2m/wakaama-master/core/er-coap-13\er-coap-13.c **** 
 282:g:/iot/IoT_Device_Demo/iot_link/network/lwm2m/wakaama_lwm2m/wakaama-master/core/er-coap-13\er-coap-13.c ****         *dst_len += option_len;
 928              		.loc 1 282 18
 929 0042 BB68     		ldr	r3, [r7, #8]
 930 0044 1A68     		ldr	r2, [r3]
 931 0046 3B68     		ldr	r3, [r7]
ARM GAS  C:\Users\ADMINI~1\AppData\Local\Temp\cc8DJu9v.s 			page 22


 932 0048 1A44     		add	r2, r2, r3
 933 004a BB68     		ldr	r3, [r7, #8]
 934 004c 1A60     		str	r2, [r3]
 283:g:/iot/IoT_Device_Demo/iot_link/network/lwm2m/wakaama_lwm2m/wakaama-master/core/er-coap-13\er-coap-13.c ****     }
 284:g:/iot/IoT_Device_Demo/iot_link/network/lwm2m/wakaama_lwm2m/wakaama-master/core/er-coap-13\er-coap-13.c ****     else
 285:g:/iot/IoT_Device_Demo/iot_link/network/lwm2m/wakaama_lwm2m/wakaama-master/core/er-coap-13\er-coap-13.c ****     {
 286:g:/iot/IoT_Device_Demo/iot_link/network/lwm2m/wakaama_lwm2m/wakaama-master/core/er-coap-13\er-coap-13.c ****         /* dst is empty: set to option */
 287:g:/iot/IoT_Device_Demo/iot_link/network/lwm2m/wakaama_lwm2m/wakaama-master/core/er-coap-13\er-coap-13.c ****         *dst = option;
 288:g:/iot/IoT_Device_Demo/iot_link/network/lwm2m/wakaama_lwm2m/wakaama-master/core/er-coap-13\er-coap-13.c ****         *dst_len = option_len;
 289:g:/iot/IoT_Device_Demo/iot_link/network/lwm2m/wakaama_lwm2m/wakaama-master/core/er-coap-13\er-coap-13.c ****     }
 290:g:/iot/IoT_Device_Demo/iot_link/network/lwm2m/wakaama_lwm2m/wakaama-master/core/er-coap-13\er-coap-13.c **** }
 935              		.loc 1 290 1
 936 004e 05E0     		b	.L45
 937              	.L43:
 287:g:/iot/IoT_Device_Demo/iot_link/network/lwm2m/wakaama_lwm2m/wakaama-master/core/er-coap-13\er-coap-13.c ****         *dst_len = option_len;
 938              		.loc 1 287 14
 939 0050 FB68     		ldr	r3, [r7, #12]
 940 0052 7A68     		ldr	r2, [r7, #4]
 941 0054 1A60     		str	r2, [r3]
 288:g:/iot/IoT_Device_Demo/iot_link/network/lwm2m/wakaama_lwm2m/wakaama-master/core/er-coap-13\er-coap-13.c ****     }
 942              		.loc 1 288 18
 943 0056 BB68     		ldr	r3, [r7, #8]
 944 0058 3A68     		ldr	r2, [r7]
 945 005a 1A60     		str	r2, [r3]
 946              	.L45:
 947              		.loc 1 290 1
 948 005c 00BF     		nop
 949 005e 1037     		adds	r7, r7, #16
 950              	.LCFI41:
 951              		.cfi_def_cfa_offset 8
 952 0060 BD46     		mov	sp, r7
 953              	.LCFI42:
 954              		.cfi_def_cfa_register 13
 955              		@ sp needed
 956 0062 80BD     		pop	{r7, pc}
 957              		.cfi_endproc
 958              	.LFE11:
 960              		.section	.text.coap_add_multi_option,"ax",%progbits
 961              		.align	1
 962              		.global	coap_add_multi_option
 963              		.syntax unified
 964              		.thumb
 965              		.thumb_func
 966              		.fpu fpv4-sp-d16
 968              	coap_add_multi_option:
 969              	.LFB12:
 291:g:/iot/IoT_Device_Demo/iot_link/network/lwm2m/wakaama_lwm2m/wakaama-master/core/er-coap-13\er-coap-13.c **** 
 292:g:/iot/IoT_Device_Demo/iot_link/network/lwm2m/wakaama_lwm2m/wakaama-master/core/er-coap-13\er-coap-13.c **** void
 293:g:/iot/IoT_Device_Demo/iot_link/network/lwm2m/wakaama_lwm2m/wakaama-master/core/er-coap-13\er-coap-13.c **** coap_add_multi_option(multi_option_t **dst, uint8_t *option, size_t option_len, uint8_t is_static)
 294:g:/iot/IoT_Device_Demo/iot_link/network/lwm2m/wakaama_lwm2m/wakaama-master/core/er-coap-13\er-coap-13.c **** {
 970              		.loc 1 294 1
 971              		.cfi_startproc
 972              		@ args = 0, pretend = 0, frame = 24
 973              		@ frame_needed = 1, uses_anonymous_args = 0
 974 0000 80B5     		push	{r7, lr}
 975              	.LCFI43:
 976              		.cfi_def_cfa_offset 8
ARM GAS  C:\Users\ADMINI~1\AppData\Local\Temp\cc8DJu9v.s 			page 23


 977              		.cfi_offset 7, -8
 978              		.cfi_offset 14, -4
 979 0002 86B0     		sub	sp, sp, #24
 980              	.LCFI44:
 981              		.cfi_def_cfa_offset 32
 982 0004 00AF     		add	r7, sp, #0
 983              	.LCFI45:
 984              		.cfi_def_cfa_register 7
 985 0006 F860     		str	r0, [r7, #12]
 986 0008 B960     		str	r1, [r7, #8]
 987 000a 7A60     		str	r2, [r7, #4]
 988 000c FB70     		strb	r3, [r7, #3]
 295:g:/iot/IoT_Device_Demo/iot_link/network/lwm2m/wakaama_lwm2m/wakaama-master/core/er-coap-13\er-coap-13.c ****     multi_option_t *opt = (multi_option_t *)lwm2m_malloc(sizeof(multi_option_t));
 989              		.loc 1 295 45
 990 000e 0C20     		movs	r0, #12
 991 0010 FFF7FEFF 		bl	lwm2m_malloc
 992 0014 3861     		str	r0, [r7, #16]
 296:g:/iot/IoT_Device_Demo/iot_link/network/lwm2m/wakaama_lwm2m/wakaama-master/core/er-coap-13\er-coap-13.c **** 
 297:g:/iot/IoT_Device_Demo/iot_link/network/lwm2m/wakaama_lwm2m/wakaama-master/core/er-coap-13\er-coap-13.c ****     if (opt)
 993              		.loc 1 297 8
 994 0016 3B69     		ldr	r3, [r7, #16]
 995 0018 002B     		cmp	r3, #0
 996 001a 3ED0     		beq	.L46
 298:g:/iot/IoT_Device_Demo/iot_link/network/lwm2m/wakaama_lwm2m/wakaama-master/core/er-coap-13\er-coap-13.c ****     {
 299:g:/iot/IoT_Device_Demo/iot_link/network/lwm2m/wakaama_lwm2m/wakaama-master/core/er-coap-13\er-coap-13.c ****         opt->next = NULL;
 997              		.loc 1 299 19
 998 001c 3B69     		ldr	r3, [r7, #16]
 999 001e 0022     		movs	r2, #0
 1000 0020 1A60     		str	r2, [r3]
 300:g:/iot/IoT_Device_Demo/iot_link/network/lwm2m/wakaama_lwm2m/wakaama-master/core/er-coap-13\er-coap-13.c ****         opt->len = (uint8_t)option_len;
 1001              		.loc 1 300 20
 1002 0022 7B68     		ldr	r3, [r7, #4]
 1003 0024 DAB2     		uxtb	r2, r3
 1004              		.loc 1 300 18
 1005 0026 3B69     		ldr	r3, [r7, #16]
 1006 0028 5A71     		strb	r2, [r3, #5]
 301:g:/iot/IoT_Device_Demo/iot_link/network/lwm2m/wakaama_lwm2m/wakaama-master/core/er-coap-13\er-coap-13.c ****         if (is_static)
 1007              		.loc 1 301 12
 1008 002a FB78     		ldrb	r3, [r7, #3]	@ zero_extendqisi2
 1009 002c 002B     		cmp	r3, #0
 1010 002e 06D0     		beq	.L48
 302:g:/iot/IoT_Device_Demo/iot_link/network/lwm2m/wakaama_lwm2m/wakaama-master/core/er-coap-13\er-coap-13.c ****         {
 303:g:/iot/IoT_Device_Demo/iot_link/network/lwm2m/wakaama_lwm2m/wakaama-master/core/er-coap-13\er-coap-13.c ****             opt->data = option;
 1011              		.loc 1 303 23
 1012 0030 3B69     		ldr	r3, [r7, #16]
 1013 0032 BA68     		ldr	r2, [r7, #8]
 1014 0034 9A60     		str	r2, [r3, #8]
 304:g:/iot/IoT_Device_Demo/iot_link/network/lwm2m/wakaama_lwm2m/wakaama-master/core/er-coap-13\er-coap-13.c ****             opt->is_static = 1;
 1015              		.loc 1 304 28
 1016 0036 3B69     		ldr	r3, [r7, #16]
 1017 0038 0122     		movs	r2, #1
 1018 003a 1A71     		strb	r2, [r3, #4]
 1019 003c 17E0     		b	.L49
 1020              	.L48:
 305:g:/iot/IoT_Device_Demo/iot_link/network/lwm2m/wakaama_lwm2m/wakaama-master/core/er-coap-13\er-coap-13.c ****         }
 306:g:/iot/IoT_Device_Demo/iot_link/network/lwm2m/wakaama_lwm2m/wakaama-master/core/er-coap-13\er-coap-13.c ****         else
 307:g:/iot/IoT_Device_Demo/iot_link/network/lwm2m/wakaama_lwm2m/wakaama-master/core/er-coap-13\er-coap-13.c ****         {
ARM GAS  C:\Users\ADMINI~1\AppData\Local\Temp\cc8DJu9v.s 			page 24


 308:g:/iot/IoT_Device_Demo/iot_link/network/lwm2m/wakaama_lwm2m/wakaama-master/core/er-coap-13\er-coap-13.c ****             opt->is_static = 0;
 1021              		.loc 1 308 28
 1022 003e 3B69     		ldr	r3, [r7, #16]
 1023 0040 0022     		movs	r2, #0
 1024 0042 1A71     		strb	r2, [r3, #4]
 309:g:/iot/IoT_Device_Demo/iot_link/network/lwm2m/wakaama_lwm2m/wakaama-master/core/er-coap-13\er-coap-13.c ****             opt->data = (uint8_t *)lwm2m_malloc(option_len);
 1025              		.loc 1 309 36
 1026 0044 7868     		ldr	r0, [r7, #4]
 1027 0046 FFF7FEFF 		bl	lwm2m_malloc
 1028 004a 0246     		mov	r2, r0
 1029              		.loc 1 309 23
 1030 004c 3B69     		ldr	r3, [r7, #16]
 1031 004e 9A60     		str	r2, [r3, #8]
 310:g:/iot/IoT_Device_Demo/iot_link/network/lwm2m/wakaama_lwm2m/wakaama-master/core/er-coap-13\er-coap-13.c ****             if (opt->data == NULL)
 1032              		.loc 1 310 20
 1033 0050 3B69     		ldr	r3, [r7, #16]
 1034 0052 9B68     		ldr	r3, [r3, #8]
 1035              		.loc 1 310 16
 1036 0054 002B     		cmp	r3, #0
 1037 0056 03D1     		bne	.L50
 311:g:/iot/IoT_Device_Demo/iot_link/network/lwm2m/wakaama_lwm2m/wakaama-master/core/er-coap-13\er-coap-13.c ****             {
 312:g:/iot/IoT_Device_Demo/iot_link/network/lwm2m/wakaama_lwm2m/wakaama-master/core/er-coap-13\er-coap-13.c ****                 lwm2m_free(opt);
 1038              		.loc 1 312 17
 1039 0058 3869     		ldr	r0, [r7, #16]
 1040 005a FFF7FEFF 		bl	lwm2m_free
 313:g:/iot/IoT_Device_Demo/iot_link/network/lwm2m/wakaama_lwm2m/wakaama-master/core/er-coap-13\er-coap-13.c ****                 return;
 1041              		.loc 1 313 17
 1042 005e 1CE0     		b	.L46
 1043              	.L50:
 314:g:/iot/IoT_Device_Demo/iot_link/network/lwm2m/wakaama_lwm2m/wakaama-master/core/er-coap-13\er-coap-13.c ****             }
 315:g:/iot/IoT_Device_Demo/iot_link/network/lwm2m/wakaama_lwm2m/wakaama-master/core/er-coap-13\er-coap-13.c ****             memcpy(opt->data, option, option_len);
 1044              		.loc 1 315 23
 1045 0060 3B69     		ldr	r3, [r7, #16]
 1046 0062 9B68     		ldr	r3, [r3, #8]
 1047              		.loc 1 315 13
 1048 0064 7A68     		ldr	r2, [r7, #4]
 1049 0066 B968     		ldr	r1, [r7, #8]
 1050 0068 1846     		mov	r0, r3
 1051 006a FFF7FEFF 		bl	memcpy
 1052              	.L49:
 316:g:/iot/IoT_Device_Demo/iot_link/network/lwm2m/wakaama_lwm2m/wakaama-master/core/er-coap-13\er-coap-13.c ****         }
 317:g:/iot/IoT_Device_Demo/iot_link/network/lwm2m/wakaama_lwm2m/wakaama-master/core/er-coap-13\er-coap-13.c **** 
 318:g:/iot/IoT_Device_Demo/iot_link/network/lwm2m/wakaama_lwm2m/wakaama-master/core/er-coap-13\er-coap-13.c ****         if (*dst)
 1053              		.loc 1 318 13
 1054 006e FB68     		ldr	r3, [r7, #12]
 1055 0070 1B68     		ldr	r3, [r3]
 1056              		.loc 1 318 12
 1057 0072 002B     		cmp	r3, #0
 1058 0074 0ED0     		beq	.L51
 1059              	.LBB3:
 319:g:/iot/IoT_Device_Demo/iot_link/network/lwm2m/wakaama_lwm2m/wakaama-master/core/er-coap-13\er-coap-13.c ****         {
 320:g:/iot/IoT_Device_Demo/iot_link/network/lwm2m/wakaama_lwm2m/wakaama-master/core/er-coap-13\er-coap-13.c ****             multi_option_t *i = *dst;
 1060              		.loc 1 320 29
 1061 0076 FB68     		ldr	r3, [r7, #12]
 1062 0078 1B68     		ldr	r3, [r3]
 1063 007a 7B61     		str	r3, [r7, #20]
 321:g:/iot/IoT_Device_Demo/iot_link/network/lwm2m/wakaama_lwm2m/wakaama-master/core/er-coap-13\er-coap-13.c ****             while (i->next)
ARM GAS  C:\Users\ADMINI~1\AppData\Local\Temp\cc8DJu9v.s 			page 25


 1064              		.loc 1 321 19
 1065 007c 02E0     		b	.L52
 1066              	.L53:
 322:g:/iot/IoT_Device_Demo/iot_link/network/lwm2m/wakaama_lwm2m/wakaama-master/core/er-coap-13\er-coap-13.c ****             {
 323:g:/iot/IoT_Device_Demo/iot_link/network/lwm2m/wakaama_lwm2m/wakaama-master/core/er-coap-13\er-coap-13.c ****                 i = i->next;
 1067              		.loc 1 323 19
 1068 007e 7B69     		ldr	r3, [r7, #20]
 1069 0080 1B68     		ldr	r3, [r3]
 1070 0082 7B61     		str	r3, [r7, #20]
 1071              	.L52:
 321:g:/iot/IoT_Device_Demo/iot_link/network/lwm2m/wakaama_lwm2m/wakaama-master/core/er-coap-13\er-coap-13.c ****             while (i->next)
 1072              		.loc 1 321 21
 1073 0084 7B69     		ldr	r3, [r7, #20]
 1074 0086 1B68     		ldr	r3, [r3]
 321:g:/iot/IoT_Device_Demo/iot_link/network/lwm2m/wakaama_lwm2m/wakaama-master/core/er-coap-13\er-coap-13.c ****             while (i->next)
 1075              		.loc 1 321 19
 1076 0088 002B     		cmp	r3, #0
 1077 008a F8D1     		bne	.L53
 324:g:/iot/IoT_Device_Demo/iot_link/network/lwm2m/wakaama_lwm2m/wakaama-master/core/er-coap-13\er-coap-13.c ****             }
 325:g:/iot/IoT_Device_Demo/iot_link/network/lwm2m/wakaama_lwm2m/wakaama-master/core/er-coap-13\er-coap-13.c ****             i->next = opt;
 1078              		.loc 1 325 21
 1079 008c 7B69     		ldr	r3, [r7, #20]
 1080 008e 3A69     		ldr	r2, [r7, #16]
 1081 0090 1A60     		str	r2, [r3]
 1082              	.LBE3:
 1083 0092 02E0     		b	.L46
 1084              	.L51:
 326:g:/iot/IoT_Device_Demo/iot_link/network/lwm2m/wakaama_lwm2m/wakaama-master/core/er-coap-13\er-coap-13.c ****         }
 327:g:/iot/IoT_Device_Demo/iot_link/network/lwm2m/wakaama_lwm2m/wakaama-master/core/er-coap-13\er-coap-13.c ****         else
 328:g:/iot/IoT_Device_Demo/iot_link/network/lwm2m/wakaama_lwm2m/wakaama-master/core/er-coap-13\er-coap-13.c ****         {
 329:g:/iot/IoT_Device_Demo/iot_link/network/lwm2m/wakaama_lwm2m/wakaama-master/core/er-coap-13\er-coap-13.c ****             *dst = opt;
 1085              		.loc 1 329 18
 1086 0094 FB68     		ldr	r3, [r7, #12]
 1087 0096 3A69     		ldr	r2, [r7, #16]
 1088 0098 1A60     		str	r2, [r3]
 1089              	.L46:
 330:g:/iot/IoT_Device_Demo/iot_link/network/lwm2m/wakaama_lwm2m/wakaama-master/core/er-coap-13\er-coap-13.c ****         }
 331:g:/iot/IoT_Device_Demo/iot_link/network/lwm2m/wakaama_lwm2m/wakaama-master/core/er-coap-13\er-coap-13.c ****     }
 332:g:/iot/IoT_Device_Demo/iot_link/network/lwm2m/wakaama_lwm2m/wakaama-master/core/er-coap-13\er-coap-13.c **** }
 1090              		.loc 1 332 1
 1091 009a 1837     		adds	r7, r7, #24
 1092              	.LCFI46:
 1093              		.cfi_def_cfa_offset 8
 1094 009c BD46     		mov	sp, r7
 1095              	.LCFI47:
 1096              		.cfi_def_cfa_register 13
 1097              		@ sp needed
 1098 009e 80BD     		pop	{r7, pc}
 1099              		.cfi_endproc
 1100              	.LFE12:
 1102              		.section	.text.free_multi_option,"ax",%progbits
 1103              		.align	1
 1104              		.global	free_multi_option
 1105              		.syntax unified
 1106              		.thumb
 1107              		.thumb_func
 1108              		.fpu fpv4-sp-d16
ARM GAS  C:\Users\ADMINI~1\AppData\Local\Temp\cc8DJu9v.s 			page 26


 1110              	free_multi_option:
 1111              	.LFB13:
 333:g:/iot/IoT_Device_Demo/iot_link/network/lwm2m/wakaama_lwm2m/wakaama-master/core/er-coap-13\er-coap-13.c **** 
 334:g:/iot/IoT_Device_Demo/iot_link/network/lwm2m/wakaama_lwm2m/wakaama-master/core/er-coap-13\er-coap-13.c **** void
 335:g:/iot/IoT_Device_Demo/iot_link/network/lwm2m/wakaama_lwm2m/wakaama-master/core/er-coap-13\er-coap-13.c **** free_multi_option(multi_option_t *dst)
 336:g:/iot/IoT_Device_Demo/iot_link/network/lwm2m/wakaama_lwm2m/wakaama-master/core/er-coap-13\er-coap-13.c **** {
 1112              		.loc 1 336 1
 1113              		.cfi_startproc
 1114              		@ args = 0, pretend = 0, frame = 16
 1115              		@ frame_needed = 1, uses_anonymous_args = 0
 1116 0000 80B5     		push	{r7, lr}
 1117              	.LCFI48:
 1118              		.cfi_def_cfa_offset 8
 1119              		.cfi_offset 7, -8
 1120              		.cfi_offset 14, -4
 1121 0002 84B0     		sub	sp, sp, #16
 1122              	.LCFI49:
 1123              		.cfi_def_cfa_offset 24
 1124 0004 00AF     		add	r7, sp, #0
 1125              	.LCFI50:
 1126              		.cfi_def_cfa_register 7
 1127 0006 7860     		str	r0, [r7, #4]
 337:g:/iot/IoT_Device_Demo/iot_link/network/lwm2m/wakaama_lwm2m/wakaama-master/core/er-coap-13\er-coap-13.c ****     if (dst)
 1128              		.loc 1 337 8
 1129 0008 7B68     		ldr	r3, [r7, #4]
 1130 000a 002B     		cmp	r3, #0
 1131 000c 14D0     		beq	.L57
 1132              	.LBB4:
 338:g:/iot/IoT_Device_Demo/iot_link/network/lwm2m/wakaama_lwm2m/wakaama-master/core/er-coap-13\er-coap-13.c ****     {
 339:g:/iot/IoT_Device_Demo/iot_link/network/lwm2m/wakaama_lwm2m/wakaama-master/core/er-coap-13\er-coap-13.c ****         multi_option_t *n = dst->next;
 1133              		.loc 1 339 25
 1134 000e 7B68     		ldr	r3, [r7, #4]
 1135 0010 1B68     		ldr	r3, [r3]
 1136 0012 FB60     		str	r3, [r7, #12]
 340:g:/iot/IoT_Device_Demo/iot_link/network/lwm2m/wakaama_lwm2m/wakaama-master/core/er-coap-13\er-coap-13.c ****         dst->next = NULL;
 1137              		.loc 1 340 19
 1138 0014 7B68     		ldr	r3, [r7, #4]
 1139 0016 0022     		movs	r2, #0
 1140 0018 1A60     		str	r2, [r3]
 341:g:/iot/IoT_Device_Demo/iot_link/network/lwm2m/wakaama_lwm2m/wakaama-master/core/er-coap-13\er-coap-13.c ****         if (dst->is_static == 0)
 1141              		.loc 1 341 16
 1142 001a 7B68     		ldr	r3, [r7, #4]
 1143 001c 1B79     		ldrb	r3, [r3, #4]	@ zero_extendqisi2
 1144              		.loc 1 341 12
 1145 001e 002B     		cmp	r3, #0
 1146 0020 04D1     		bne	.L56
 342:g:/iot/IoT_Device_Demo/iot_link/network/lwm2m/wakaama_lwm2m/wakaama-master/core/er-coap-13\er-coap-13.c ****         {
 343:g:/iot/IoT_Device_Demo/iot_link/network/lwm2m/wakaama_lwm2m/wakaama-master/core/er-coap-13\er-coap-13.c ****             lwm2m_free(dst->data);
 1147              		.loc 1 343 27
 1148 0022 7B68     		ldr	r3, [r7, #4]
 1149 0024 9B68     		ldr	r3, [r3, #8]
 1150              		.loc 1 343 13
 1151 0026 1846     		mov	r0, r3
 1152 0028 FFF7FEFF 		bl	lwm2m_free
 1153              	.L56:
 344:g:/iot/IoT_Device_Demo/iot_link/network/lwm2m/wakaama_lwm2m/wakaama-master/core/er-coap-13\er-coap-13.c ****         }
 345:g:/iot/IoT_Device_Demo/iot_link/network/lwm2m/wakaama_lwm2m/wakaama-master/core/er-coap-13\er-coap-13.c ****         lwm2m_free(dst);
ARM GAS  C:\Users\ADMINI~1\AppData\Local\Temp\cc8DJu9v.s 			page 27


 1154              		.loc 1 345 9
 1155 002c 7868     		ldr	r0, [r7, #4]
 1156 002e FFF7FEFF 		bl	lwm2m_free
 346:g:/iot/IoT_Device_Demo/iot_link/network/lwm2m/wakaama_lwm2m/wakaama-master/core/er-coap-13\er-coap-13.c ****         free_multi_option(n);
 1157              		.loc 1 346 9
 1158 0032 F868     		ldr	r0, [r7, #12]
 1159 0034 FFF7FEFF 		bl	free_multi_option
 1160              	.L57:
 1161              	.LBE4:
 347:g:/iot/IoT_Device_Demo/iot_link/network/lwm2m/wakaama_lwm2m/wakaama-master/core/er-coap-13\er-coap-13.c ****     }
 348:g:/iot/IoT_Device_Demo/iot_link/network/lwm2m/wakaama_lwm2m/wakaama-master/core/er-coap-13\er-coap-13.c **** }
 1162              		.loc 1 348 1
 1163 0038 00BF     		nop
 1164 003a 1037     		adds	r7, r7, #16
 1165              	.LCFI51:
 1166              		.cfi_def_cfa_offset 8
 1167 003c BD46     		mov	sp, r7
 1168              	.LCFI52:
 1169              		.cfi_def_cfa_register 13
 1170              		@ sp needed
 1171 003e 80BD     		pop	{r7, pc}
 1172              		.cfi_endproc
 1173              	.LFE13:
 1175              		.section	.text.coap_get_multi_option_as_string,"ax",%progbits
 1176              		.align	1
 1177              		.global	coap_get_multi_option_as_string
 1178              		.syntax unified
 1179              		.thumb
 1180              		.thumb_func
 1181              		.fpu fpv4-sp-d16
 1183              	coap_get_multi_option_as_string:
 1184              	.LFB14:
 349:g:/iot/IoT_Device_Demo/iot_link/network/lwm2m/wakaama_lwm2m/wakaama-master/core/er-coap-13\er-coap-13.c **** 
 350:g:/iot/IoT_Device_Demo/iot_link/network/lwm2m/wakaama_lwm2m/wakaama-master/core/er-coap-13\er-coap-13.c **** char *coap_get_multi_option_as_string(multi_option_t *option)
 351:g:/iot/IoT_Device_Demo/iot_link/network/lwm2m/wakaama_lwm2m/wakaama-master/core/er-coap-13\er-coap-13.c **** {
 1185              		.loc 1 351 1
 1186              		.cfi_startproc
 1187              		@ args = 0, pretend = 0, frame = 24
 1188              		@ frame_needed = 1, uses_anonymous_args = 0
 1189 0000 80B5     		push	{r7, lr}
 1190              	.LCFI53:
 1191              		.cfi_def_cfa_offset 8
 1192              		.cfi_offset 7, -8
 1193              		.cfi_offset 14, -4
 1194 0002 86B0     		sub	sp, sp, #24
 1195              	.LCFI54:
 1196              		.cfi_def_cfa_offset 32
 1197 0004 00AF     		add	r7, sp, #0
 1198              	.LCFI55:
 1199              		.cfi_def_cfa_register 7
 1200 0006 7860     		str	r0, [r7, #4]
 352:g:/iot/IoT_Device_Demo/iot_link/network/lwm2m/wakaama_lwm2m/wakaama-master/core/er-coap-13\er-coap-13.c ****     size_t len = 0;
 1201              		.loc 1 352 12
 1202 0008 0023     		movs	r3, #0
 1203 000a 7B61     		str	r3, [r7, #20]
 353:g:/iot/IoT_Device_Demo/iot_link/network/lwm2m/wakaama_lwm2m/wakaama-master/core/er-coap-13\er-coap-13.c ****     multi_option_t *opt;
 354:g:/iot/IoT_Device_Demo/iot_link/network/lwm2m/wakaama_lwm2m/wakaama-master/core/er-coap-13\er-coap-13.c ****     char *output;
ARM GAS  C:\Users\ADMINI~1\AppData\Local\Temp\cc8DJu9v.s 			page 28


 355:g:/iot/IoT_Device_Demo/iot_link/network/lwm2m/wakaama_lwm2m/wakaama-master/core/er-coap-13\er-coap-13.c **** 
 356:g:/iot/IoT_Device_Demo/iot_link/network/lwm2m/wakaama_lwm2m/wakaama-master/core/er-coap-13\er-coap-13.c ****     for (opt = option; opt != NULL; opt = opt->next)
 1204              		.loc 1 356 14
 1205 000c 7B68     		ldr	r3, [r7, #4]
 1206 000e 3B61     		str	r3, [r7, #16]
 1207              		.loc 1 356 5
 1208 0010 09E0     		b	.L59
 1209              	.L60:
 357:g:/iot/IoT_Device_Demo/iot_link/network/lwm2m/wakaama_lwm2m/wakaama-master/core/er-coap-13\er-coap-13.c ****     {
 358:g:/iot/IoT_Device_Demo/iot_link/network/lwm2m/wakaama_lwm2m/wakaama-master/core/er-coap-13\er-coap-13.c ****         len += opt->len + 1;     // for separator
 1210              		.loc 1 358 19 discriminator 3
 1211 0012 3B69     		ldr	r3, [r7, #16]
 1212 0014 5B79     		ldrb	r3, [r3, #5]	@ zero_extendqisi2
 1213              		.loc 1 358 13 discriminator 3
 1214 0016 1A46     		mov	r2, r3
 1215 0018 7B69     		ldr	r3, [r7, #20]
 1216 001a 1344     		add	r3, r3, r2
 1217 001c 0133     		adds	r3, r3, #1
 1218 001e 7B61     		str	r3, [r7, #20]
 356:g:/iot/IoT_Device_Demo/iot_link/network/lwm2m/wakaama_lwm2m/wakaama-master/core/er-coap-13\er-coap-13.c ****     {
 1219              		.loc 1 356 41 discriminator 3
 1220 0020 3B69     		ldr	r3, [r7, #16]
 1221 0022 1B68     		ldr	r3, [r3]
 1222 0024 3B61     		str	r3, [r7, #16]
 1223              	.L59:
 356:g:/iot/IoT_Device_Demo/iot_link/network/lwm2m/wakaama_lwm2m/wakaama-master/core/er-coap-13\er-coap-13.c ****     {
 1224              		.loc 1 356 5 discriminator 1
 1225 0026 3B69     		ldr	r3, [r7, #16]
 1226 0028 002B     		cmp	r3, #0
 1227 002a F2D1     		bne	.L60
 359:g:/iot/IoT_Device_Demo/iot_link/network/lwm2m/wakaama_lwm2m/wakaama-master/core/er-coap-13\er-coap-13.c ****     }
 360:g:/iot/IoT_Device_Demo/iot_link/network/lwm2m/wakaama_lwm2m/wakaama-master/core/er-coap-13\er-coap-13.c **** 
 361:g:/iot/IoT_Device_Demo/iot_link/network/lwm2m/wakaama_lwm2m/wakaama-master/core/er-coap-13\er-coap-13.c ****     output = lwm2m_malloc(len + 1); // for String terminator
 1228              		.loc 1 361 14
 1229 002c 7B69     		ldr	r3, [r7, #20]
 1230 002e 0133     		adds	r3, r3, #1
 1231 0030 1846     		mov	r0, r3
 1232 0032 FFF7FEFF 		bl	lwm2m_malloc
 1233 0036 B860     		str	r0, [r7, #8]
 362:g:/iot/IoT_Device_Demo/iot_link/network/lwm2m/wakaama_lwm2m/wakaama-master/core/er-coap-13\er-coap-13.c ****     if (output != NULL)
 1234              		.loc 1 362 8
 1235 0038 BB68     		ldr	r3, [r7, #8]
 1236 003a 002B     		cmp	r3, #0
 1237 003c 27D0     		beq	.L61
 1238              	.LBB5:
 363:g:/iot/IoT_Device_Demo/iot_link/network/lwm2m/wakaama_lwm2m/wakaama-master/core/er-coap-13\er-coap-13.c ****     {
 364:g:/iot/IoT_Device_Demo/iot_link/network/lwm2m/wakaama_lwm2m/wakaama-master/core/er-coap-13\er-coap-13.c ****         size_t i = 0;
 1239              		.loc 1 364 16
 1240 003e 0023     		movs	r3, #0
 1241 0040 FB60     		str	r3, [r7, #12]
 365:g:/iot/IoT_Device_Demo/iot_link/network/lwm2m/wakaama_lwm2m/wakaama-master/core/er-coap-13\er-coap-13.c **** 
 366:g:/iot/IoT_Device_Demo/iot_link/network/lwm2m/wakaama_lwm2m/wakaama-master/core/er-coap-13\er-coap-13.c ****         for (opt = option; opt != NULL; opt = opt->next)
 1242              		.loc 1 366 18
 1243 0042 7B68     		ldr	r3, [r7, #4]
 1244 0044 3B61     		str	r3, [r7, #16]
 1245              		.loc 1 366 9
 1246 0046 1AE0     		b	.L62
ARM GAS  C:\Users\ADMINI~1\AppData\Local\Temp\cc8DJu9v.s 			page 29


 1247              	.L63:
 367:g:/iot/IoT_Device_Demo/iot_link/network/lwm2m/wakaama_lwm2m/wakaama-master/core/er-coap-13\er-coap-13.c ****         {
 368:g:/iot/IoT_Device_Demo/iot_link/network/lwm2m/wakaama_lwm2m/wakaama-master/core/er-coap-13\er-coap-13.c ****             output[i] = '/';
 1248              		.loc 1 368 19 discriminator 3
 1249 0048 BA68     		ldr	r2, [r7, #8]
 1250 004a FB68     		ldr	r3, [r7, #12]
 1251 004c 1344     		add	r3, r3, r2
 1252              		.loc 1 368 23 discriminator 3
 1253 004e 2F22     		movs	r2, #47
 1254 0050 1A70     		strb	r2, [r3]
 369:g:/iot/IoT_Device_Demo/iot_link/network/lwm2m/wakaama_lwm2m/wakaama-master/core/er-coap-13\er-coap-13.c ****             i += 1;
 1255              		.loc 1 369 15 discriminator 3
 1256 0052 FB68     		ldr	r3, [r7, #12]
 1257 0054 0133     		adds	r3, r3, #1
 1258 0056 FB60     		str	r3, [r7, #12]
 370:g:/iot/IoT_Device_Demo/iot_link/network/lwm2m/wakaama_lwm2m/wakaama-master/core/er-coap-13\er-coap-13.c **** 
 371:g:/iot/IoT_Device_Demo/iot_link/network/lwm2m/wakaama_lwm2m/wakaama-master/core/er-coap-13\er-coap-13.c ****             memmove(output + i, opt->data, opt->len);
 1259              		.loc 1 371 28 discriminator 3
 1260 0058 BA68     		ldr	r2, [r7, #8]
 1261 005a FB68     		ldr	r3, [r7, #12]
 1262 005c D018     		adds	r0, r2, r3
 1263              		.loc 1 371 36 discriminator 3
 1264 005e 3B69     		ldr	r3, [r7, #16]
 1265 0060 9968     		ldr	r1, [r3, #8]
 1266              		.loc 1 371 47 discriminator 3
 1267 0062 3B69     		ldr	r3, [r7, #16]
 1268 0064 5B79     		ldrb	r3, [r3, #5]	@ zero_extendqisi2
 1269              		.loc 1 371 13 discriminator 3
 1270 0066 1A46     		mov	r2, r3
 1271 0068 FFF7FEFF 		bl	memmove
 372:g:/iot/IoT_Device_Demo/iot_link/network/lwm2m/wakaama_lwm2m/wakaama-master/core/er-coap-13\er-coap-13.c ****             i += opt->len;
 1272              		.loc 1 372 21 discriminator 3
 1273 006c 3B69     		ldr	r3, [r7, #16]
 1274 006e 5B79     		ldrb	r3, [r3, #5]	@ zero_extendqisi2
 1275 0070 1A46     		mov	r2, r3
 1276              		.loc 1 372 15 discriminator 3
 1277 0072 FB68     		ldr	r3, [r7, #12]
 1278 0074 1344     		add	r3, r3, r2
 1279 0076 FB60     		str	r3, [r7, #12]
 366:g:/iot/IoT_Device_Demo/iot_link/network/lwm2m/wakaama_lwm2m/wakaama-master/core/er-coap-13\er-coap-13.c ****         {
 1280              		.loc 1 366 45 discriminator 3
 1281 0078 3B69     		ldr	r3, [r7, #16]
 1282 007a 1B68     		ldr	r3, [r3]
 1283 007c 3B61     		str	r3, [r7, #16]
 1284              	.L62:
 366:g:/iot/IoT_Device_Demo/iot_link/network/lwm2m/wakaama_lwm2m/wakaama-master/core/er-coap-13\er-coap-13.c ****         {
 1285              		.loc 1 366 9 discriminator 1
 1286 007e 3B69     		ldr	r3, [r7, #16]
 1287 0080 002B     		cmp	r3, #0
 1288 0082 E1D1     		bne	.L63
 373:g:/iot/IoT_Device_Demo/iot_link/network/lwm2m/wakaama_lwm2m/wakaama-master/core/er-coap-13\er-coap-13.c ****         }
 374:g:/iot/IoT_Device_Demo/iot_link/network/lwm2m/wakaama_lwm2m/wakaama-master/core/er-coap-13\er-coap-13.c ****         output[i] = 0;
 1289              		.loc 1 374 15
 1290 0084 BA68     		ldr	r2, [r7, #8]
 1291 0086 FB68     		ldr	r3, [r7, #12]
 1292 0088 1344     		add	r3, r3, r2
 1293              		.loc 1 374 19
ARM GAS  C:\Users\ADMINI~1\AppData\Local\Temp\cc8DJu9v.s 			page 30


 1294 008a 0022     		movs	r2, #0
 1295 008c 1A70     		strb	r2, [r3]
 1296              	.L61:
 1297              	.LBE5:
 375:g:/iot/IoT_Device_Demo/iot_link/network/lwm2m/wakaama_lwm2m/wakaama-master/core/er-coap-13\er-coap-13.c ****     }
 376:g:/iot/IoT_Device_Demo/iot_link/network/lwm2m/wakaama_lwm2m/wakaama-master/core/er-coap-13\er-coap-13.c **** 
 377:g:/iot/IoT_Device_Demo/iot_link/network/lwm2m/wakaama_lwm2m/wakaama-master/core/er-coap-13\er-coap-13.c ****     return output;
 1298              		.loc 1 377 12
 1299 008e BB68     		ldr	r3, [r7, #8]
 378:g:/iot/IoT_Device_Demo/iot_link/network/lwm2m/wakaama_lwm2m/wakaama-master/core/er-coap-13\er-coap-13.c **** }
 1300              		.loc 1 378 1
 1301 0090 1846     		mov	r0, r3
 1302 0092 1837     		adds	r7, r7, #24
 1303              	.LCFI56:
 1304              		.cfi_def_cfa_offset 8
 1305 0094 BD46     		mov	sp, r7
 1306              	.LCFI57:
 1307              		.cfi_def_cfa_register 13
 1308              		@ sp needed
 1309 0096 80BD     		pop	{r7, pc}
 1310              		.cfi_endproc
 1311              	.LFE14:
 1313              		.section	.text.coap_get_variable,"ax",%progbits
 1314              		.align	1
 1315              		.syntax unified
 1316              		.thumb
 1317              		.thumb_func
 1318              		.fpu fpv4-sp-d16
 1320              	coap_get_variable:
 1321              	.LFB15:
 379:g:/iot/IoT_Device_Demo/iot_link/network/lwm2m/wakaama_lwm2m/wakaama-master/core/er-coap-13\er-coap-13.c **** 
 380:g:/iot/IoT_Device_Demo/iot_link/network/lwm2m/wakaama_lwm2m/wakaama-master/core/er-coap-13\er-coap-13.c **** /*-----------------------------------------------------------------------------------*/
 381:g:/iot/IoT_Device_Demo/iot_link/network/lwm2m/wakaama_lwm2m/wakaama-master/core/er-coap-13\er-coap-13.c **** static
 382:g:/iot/IoT_Device_Demo/iot_link/network/lwm2m/wakaama_lwm2m/wakaama-master/core/er-coap-13\er-coap-13.c **** int
 383:g:/iot/IoT_Device_Demo/iot_link/network/lwm2m/wakaama_lwm2m/wakaama-master/core/er-coap-13\er-coap-13.c **** coap_get_variable(const uint8_t *buffer, size_t length, const char *name, const char **output)
 384:g:/iot/IoT_Device_Demo/iot_link/network/lwm2m/wakaama_lwm2m/wakaama-master/core/er-coap-13\er-coap-13.c **** {
 1322              		.loc 1 384 1
 1323              		.cfi_startproc
 1324              		@ args = 0, pretend = 0, frame = 32
 1325              		@ frame_needed = 1, uses_anonymous_args = 0
 1326 0000 80B5     		push	{r7, lr}
 1327              	.LCFI58:
 1328              		.cfi_def_cfa_offset 8
 1329              		.cfi_offset 7, -8
 1330              		.cfi_offset 14, -4
 1331 0002 88B0     		sub	sp, sp, #32
 1332              	.LCFI59:
 1333              		.cfi_def_cfa_offset 40
 1334 0004 00AF     		add	r7, sp, #0
 1335              	.LCFI60:
 1336              		.cfi_def_cfa_register 7
 1337 0006 F860     		str	r0, [r7, #12]
 1338 0008 B960     		str	r1, [r7, #8]
 1339 000a 7A60     		str	r2, [r7, #4]
 1340 000c 3B60     		str	r3, [r7]
 385:g:/iot/IoT_Device_Demo/iot_link/network/lwm2m/wakaama_lwm2m/wakaama-master/core/er-coap-13\er-coap-13.c ****     const uint8_t *start = NULL;
 1341              		.loc 1 385 20
ARM GAS  C:\Users\ADMINI~1\AppData\Local\Temp\cc8DJu9v.s 			page 31


 1342 000e 0023     		movs	r3, #0
 1343 0010 FB61     		str	r3, [r7, #28]
 386:g:/iot/IoT_Device_Demo/iot_link/network/lwm2m/wakaama_lwm2m/wakaama-master/core/er-coap-13\er-coap-13.c ****     const uint8_t *end = NULL;
 1344              		.loc 1 386 20
 1345 0012 0023     		movs	r3, #0
 1346 0014 7B61     		str	r3, [r7, #20]
 387:g:/iot/IoT_Device_Demo/iot_link/network/lwm2m/wakaama_lwm2m/wakaama-master/core/er-coap-13\er-coap-13.c ****     const uint8_t *value_end = NULL;
 1347              		.loc 1 387 20
 1348 0016 0023     		movs	r3, #0
 1349 0018 BB61     		str	r3, [r7, #24]
 388:g:/iot/IoT_Device_Demo/iot_link/network/lwm2m/wakaama_lwm2m/wakaama-master/core/er-coap-13\er-coap-13.c ****     size_t name_len = 0;
 1350              		.loc 1 388 12
 1351 001a 0023     		movs	r3, #0
 1352 001c 3B61     		str	r3, [r7, #16]
 389:g:/iot/IoT_Device_Demo/iot_link/network/lwm2m/wakaama_lwm2m/wakaama-master/core/er-coap-13\er-coap-13.c **** 
 390:g:/iot/IoT_Device_Demo/iot_link/network/lwm2m/wakaama_lwm2m/wakaama-master/core/er-coap-13\er-coap-13.c ****     /*initialize the output buffer first*/
 391:g:/iot/IoT_Device_Demo/iot_link/network/lwm2m/wakaama_lwm2m/wakaama-master/core/er-coap-13\er-coap-13.c ****     *output = 0;
 1353              		.loc 1 391 13
 1354 001e 3B68     		ldr	r3, [r7]
 1355 0020 0022     		movs	r2, #0
 1356 0022 1A60     		str	r2, [r3]
 392:g:/iot/IoT_Device_Demo/iot_link/network/lwm2m/wakaama_lwm2m/wakaama-master/core/er-coap-13\er-coap-13.c **** 
 393:g:/iot/IoT_Device_Demo/iot_link/network/lwm2m/wakaama_lwm2m/wakaama-master/core/er-coap-13\er-coap-13.c ****     name_len = strlen(name);
 1357              		.loc 1 393 16
 1358 0024 7868     		ldr	r0, [r7, #4]
 1359 0026 FFF7FEFF 		bl	strlen
 1360 002a 3861     		str	r0, [r7, #16]
 394:g:/iot/IoT_Device_Demo/iot_link/network/lwm2m/wakaama_lwm2m/wakaama-master/core/er-coap-13\er-coap-13.c ****     end = buffer + length;
 1361              		.loc 1 394 9
 1362 002c FA68     		ldr	r2, [r7, #12]
 1363 002e BB68     		ldr	r3, [r7, #8]
 1364 0030 1344     		add	r3, r3, r2
 1365 0032 7B61     		str	r3, [r7, #20]
 395:g:/iot/IoT_Device_Demo/iot_link/network/lwm2m/wakaama_lwm2m/wakaama-master/core/er-coap-13\er-coap-13.c **** 
 396:g:/iot/IoT_Device_Demo/iot_link/network/lwm2m/wakaama_lwm2m/wakaama-master/core/er-coap-13\er-coap-13.c ****     for (start = buffer; start + name_len < end; ++start)
 1366              		.loc 1 396 16
 1367 0034 FB68     		ldr	r3, [r7, #12]
 1368 0036 FB61     		str	r3, [r7, #28]
 1369              		.loc 1 396 5
 1370 0038 33E0     		b	.L66
 1371              	.L71:
 397:g:/iot/IoT_Device_Demo/iot_link/network/lwm2m/wakaama_lwm2m/wakaama-master/core/er-coap-13\er-coap-13.c ****     {
 398:g:/iot/IoT_Device_Demo/iot_link/network/lwm2m/wakaama_lwm2m/wakaama-master/core/er-coap-13\er-coap-13.c ****         if ((start == buffer || start[-1] == '&') && start[name_len] == '=' &&
 1372              		.loc 1 398 12
 1373 003a FA69     		ldr	r2, [r7, #28]
 1374 003c FB68     		ldr	r3, [r7, #12]
 1375 003e 9A42     		cmp	r2, r3
 1376 0040 04D0     		beq	.L67
 1377              		.loc 1 398 38 discriminator 2
 1378 0042 FB69     		ldr	r3, [r7, #28]
 1379 0044 013B     		subs	r3, r3, #1
 1380 0046 1B78     		ldrb	r3, [r3]	@ zero_extendqisi2
 1381              		.loc 1 398 30 discriminator 2
 1382 0048 262B     		cmp	r3, #38
 1383 004a 27D1     		bne	.L68
 1384              	.L67:
 1385              		.loc 1 398 59 discriminator 3
ARM GAS  C:\Users\ADMINI~1\AppData\Local\Temp\cc8DJu9v.s 			page 32


 1386 004c FA69     		ldr	r2, [r7, #28]
 1387 004e 3B69     		ldr	r3, [r7, #16]
 1388 0050 1344     		add	r3, r3, r2
 1389 0052 1B78     		ldrb	r3, [r3]	@ zero_extendqisi2
 1390              		.loc 1 398 51 discriminator 3
 1391 0054 3D2B     		cmp	r3, #61
 1392 0056 21D1     		bne	.L68
 399:g:/iot/IoT_Device_Demo/iot_link/network/lwm2m/wakaama_lwm2m/wakaama-master/core/er-coap-13\er-coap-13.c ****                 strncmp(name, (char *)start, name_len) == 0)
 1393              		.loc 1 399 17 discriminator 4
 1394 0058 3A69     		ldr	r2, [r7, #16]
 1395 005a F969     		ldr	r1, [r7, #28]
 1396 005c 7868     		ldr	r0, [r7, #4]
 1397 005e FFF7FEFF 		bl	strncmp
 1398 0062 0346     		mov	r3, r0
 398:g:/iot/IoT_Device_Demo/iot_link/network/lwm2m/wakaama_lwm2m/wakaama-master/core/er-coap-13\er-coap-13.c ****                 strncmp(name, (char *)start, name_len) == 0)
 1399              		.loc 1 398 77 discriminator 4
 1400 0064 002B     		cmp	r3, #0
 1401 0066 19D1     		bne	.L68
 400:g:/iot/IoT_Device_Demo/iot_link/network/lwm2m/wakaama_lwm2m/wakaama-master/core/er-coap-13\er-coap-13.c ****         {
 401:g:/iot/IoT_Device_Demo/iot_link/network/lwm2m/wakaama_lwm2m/wakaama-master/core/er-coap-13\er-coap-13.c **** 
 402:g:/iot/IoT_Device_Demo/iot_link/network/lwm2m/wakaama_lwm2m/wakaama-master/core/er-coap-13\er-coap-13.c ****             /* Point start to variable value */
 403:g:/iot/IoT_Device_Demo/iot_link/network/lwm2m/wakaama_lwm2m/wakaama-master/core/er-coap-13\er-coap-13.c ****             start += name_len + 1;
 1402              		.loc 1 403 19
 1403 0068 3B69     		ldr	r3, [r7, #16]
 1404 006a 0133     		adds	r3, r3, #1
 1405 006c FA69     		ldr	r2, [r7, #28]
 1406 006e 1344     		add	r3, r3, r2
 1407 0070 FB61     		str	r3, [r7, #28]
 404:g:/iot/IoT_Device_Demo/iot_link/network/lwm2m/wakaama_lwm2m/wakaama-master/core/er-coap-13\er-coap-13.c **** 
 405:g:/iot/IoT_Device_Demo/iot_link/network/lwm2m/wakaama_lwm2m/wakaama-master/core/er-coap-13\er-coap-13.c ****             /* Point end to the end of the value */
 406:g:/iot/IoT_Device_Demo/iot_link/network/lwm2m/wakaama_lwm2m/wakaama-master/core/er-coap-13\er-coap-13.c ****             value_end = (const uint8_t *) memchr(start, '&', end - start);
 1408              		.loc 1 406 66
 1409 0072 7A69     		ldr	r2, [r7, #20]
 1410 0074 FB69     		ldr	r3, [r7, #28]
 1411 0076 D31A     		subs	r3, r2, r3
 1412              		.loc 1 406 43
 1413 0078 1A46     		mov	r2, r3
 1414 007a 2621     		movs	r1, #38
 1415 007c F869     		ldr	r0, [r7, #28]
 1416 007e FFF7FEFF 		bl	memchr
 1417 0082 B861     		str	r0, [r7, #24]
 407:g:/iot/IoT_Device_Demo/iot_link/network/lwm2m/wakaama_lwm2m/wakaama-master/core/er-coap-13\er-coap-13.c ****             if (value_end == NULL)
 1418              		.loc 1 407 16
 1419 0084 BB69     		ldr	r3, [r7, #24]
 1420 0086 002B     		cmp	r3, #0
 1421 0088 01D1     		bne	.L69
 408:g:/iot/IoT_Device_Demo/iot_link/network/lwm2m/wakaama_lwm2m/wakaama-master/core/er-coap-13\er-coap-13.c ****             {
 409:g:/iot/IoT_Device_Demo/iot_link/network/lwm2m/wakaama_lwm2m/wakaama-master/core/er-coap-13\er-coap-13.c ****                 value_end = end;
 1422              		.loc 1 409 27
 1423 008a 7B69     		ldr	r3, [r7, #20]
 1424 008c BB61     		str	r3, [r7, #24]
 1425              	.L69:
 410:g:/iot/IoT_Device_Demo/iot_link/network/lwm2m/wakaama_lwm2m/wakaama-master/core/er-coap-13\er-coap-13.c ****             }
 411:g:/iot/IoT_Device_Demo/iot_link/network/lwm2m/wakaama_lwm2m/wakaama-master/core/er-coap-13\er-coap-13.c **** 
 412:g:/iot/IoT_Device_Demo/iot_link/network/lwm2m/wakaama_lwm2m/wakaama-master/core/er-coap-13\er-coap-13.c ****             *output = (char *)start;
 1426              		.loc 1 412 21
 1427 008e 3B68     		ldr	r3, [r7]
ARM GAS  C:\Users\ADMINI~1\AppData\Local\Temp\cc8DJu9v.s 			page 33


 1428 0090 FA69     		ldr	r2, [r7, #28]
 1429 0092 1A60     		str	r2, [r3]
 413:g:/iot/IoT_Device_Demo/iot_link/network/lwm2m/wakaama_lwm2m/wakaama-master/core/er-coap-13\er-coap-13.c **** 
 414:g:/iot/IoT_Device_Demo/iot_link/network/lwm2m/wakaama_lwm2m/wakaama-master/core/er-coap-13\er-coap-13.c ****             return (value_end - start);
 1430              		.loc 1 414 31
 1431 0094 BA69     		ldr	r2, [r7, #24]
 1432 0096 FB69     		ldr	r3, [r7, #28]
 1433 0098 D31A     		subs	r3, r2, r3
 1434 009a 09E0     		b	.L70
 1435              	.L68:
 396:g:/iot/IoT_Device_Demo/iot_link/network/lwm2m/wakaama_lwm2m/wakaama-master/core/er-coap-13\er-coap-13.c ****     {
 1436              		.loc 1 396 50 discriminator 2
 1437 009c FB69     		ldr	r3, [r7, #28]
 1438 009e 0133     		adds	r3, r3, #1
 1439 00a0 FB61     		str	r3, [r7, #28]
 1440              	.L66:
 396:g:/iot/IoT_Device_Demo/iot_link/network/lwm2m/wakaama_lwm2m/wakaama-master/core/er-coap-13\er-coap-13.c ****     {
 1441              		.loc 1 396 32 discriminator 1
 1442 00a2 FA69     		ldr	r2, [r7, #28]
 1443 00a4 3B69     		ldr	r3, [r7, #16]
 1444 00a6 1344     		add	r3, r3, r2
 396:g:/iot/IoT_Device_Demo/iot_link/network/lwm2m/wakaama_lwm2m/wakaama-master/core/er-coap-13\er-coap-13.c ****     {
 1445              		.loc 1 396 5 discriminator 1
 1446 00a8 7A69     		ldr	r2, [r7, #20]
 1447 00aa 9A42     		cmp	r2, r3
 1448 00ac C5D8     		bhi	.L71
 415:g:/iot/IoT_Device_Demo/iot_link/network/lwm2m/wakaama_lwm2m/wakaama-master/core/er-coap-13\er-coap-13.c ****         }
 416:g:/iot/IoT_Device_Demo/iot_link/network/lwm2m/wakaama_lwm2m/wakaama-master/core/er-coap-13\er-coap-13.c ****     }
 417:g:/iot/IoT_Device_Demo/iot_link/network/lwm2m/wakaama_lwm2m/wakaama-master/core/er-coap-13\er-coap-13.c **** 
 418:g:/iot/IoT_Device_Demo/iot_link/network/lwm2m/wakaama_lwm2m/wakaama-master/core/er-coap-13\er-coap-13.c ****     return 0;
 1449              		.loc 1 418 12
 1450 00ae 0023     		movs	r3, #0
 1451              	.L70:
 419:g:/iot/IoT_Device_Demo/iot_link/network/lwm2m/wakaama_lwm2m/wakaama-master/core/er-coap-13\er-coap-13.c **** }
 1452              		.loc 1 419 1
 1453 00b0 1846     		mov	r0, r3
 1454 00b2 2037     		adds	r7, r7, #32
 1455              	.LCFI61:
 1456              		.cfi_def_cfa_offset 8
 1457 00b4 BD46     		mov	sp, r7
 1458              	.LCFI62:
 1459              		.cfi_def_cfa_register 13
 1460              		@ sp needed
 1461 00b6 80BD     		pop	{r7, pc}
 1462              		.cfi_endproc
 1463              	.LFE15:
 1465              		.section	.text.coap_get_mid,"ax",%progbits
 1466              		.align	1
 1467              		.global	coap_get_mid
 1468              		.syntax unified
 1469              		.thumb
 1470              		.thumb_func
 1471              		.fpu fpv4-sp-d16
 1473              	coap_get_mid:
 1474              	.LFB16:
 420:g:/iot/IoT_Device_Demo/iot_link/network/lwm2m/wakaama_lwm2m/wakaama-master/core/er-coap-13\er-coap-13.c **** 
 421:g:/iot/IoT_Device_Demo/iot_link/network/lwm2m/wakaama_lwm2m/wakaama-master/core/er-coap-13\er-coap-13.c **** /*-----------------------------------------------------------------------------------*/
ARM GAS  C:\Users\ADMINI~1\AppData\Local\Temp\cc8DJu9v.s 			page 34


 422:g:/iot/IoT_Device_Demo/iot_link/network/lwm2m/wakaama_lwm2m/wakaama-master/core/er-coap-13\er-coap-13.c **** uint16_t
 423:g:/iot/IoT_Device_Demo/iot_link/network/lwm2m/wakaama_lwm2m/wakaama-master/core/er-coap-13\er-coap-13.c **** coap_get_mid()
 424:g:/iot/IoT_Device_Demo/iot_link/network/lwm2m/wakaama_lwm2m/wakaama-master/core/er-coap-13\er-coap-13.c **** {
 1475              		.loc 1 424 1
 1476              		.cfi_startproc
 1477              		@ args = 0, pretend = 0, frame = 0
 1478              		@ frame_needed = 1, uses_anonymous_args = 0
 1479              		@ link register save eliminated.
 1480 0000 80B4     		push	{r7}
 1481              	.LCFI63:
 1482              		.cfi_def_cfa_offset 4
 1483              		.cfi_offset 7, -4
 1484 0002 00AF     		add	r7, sp, #0
 1485              	.LCFI64:
 1486              		.cfi_def_cfa_register 7
 425:g:/iot/IoT_Device_Demo/iot_link/network/lwm2m/wakaama_lwm2m/wakaama-master/core/er-coap-13\er-coap-13.c ****     return ++current_mid;
 1487              		.loc 1 425 12
 1488 0004 064B     		ldr	r3, .L74
 1489 0006 1B88     		ldrh	r3, [r3]
 1490 0008 0133     		adds	r3, r3, #1
 1491 000a 9AB2     		uxth	r2, r3
 1492 000c 044B     		ldr	r3, .L74
 1493 000e 1A80     		strh	r2, [r3]	@ movhi
 1494 0010 034B     		ldr	r3, .L74
 1495 0012 1B88     		ldrh	r3, [r3]
 426:g:/iot/IoT_Device_Demo/iot_link/network/lwm2m/wakaama_lwm2m/wakaama-master/core/er-coap-13\er-coap-13.c **** }
 1496              		.loc 1 426 1
 1497 0014 1846     		mov	r0, r3
 1498 0016 BD46     		mov	sp, r7
 1499              	.LCFI65:
 1500              		.cfi_def_cfa_register 13
 1501              		@ sp needed
 1502 0018 5DF8047B 		ldr	r7, [sp], #4
 1503              	.LCFI66:
 1504              		.cfi_restore 7
 1505              		.cfi_def_cfa_offset 0
 1506 001c 7047     		bx	lr
 1507              	.L75:
 1508 001e 00BF     		.align	2
 1509              	.L74:
 1510 0020 00000000 		.word	current_mid
 1511              		.cfi_endproc
 1512              	.LFE16:
 1514              		.section	.text.coap_init_message,"ax",%progbits
 1515              		.align	1
 1516              		.global	coap_init_message
 1517              		.syntax unified
 1518              		.thumb
 1519              		.thumb_func
 1520              		.fpu fpv4-sp-d16
 1522              	coap_init_message:
 1523              	.LFB17:
 427:g:/iot/IoT_Device_Demo/iot_link/network/lwm2m/wakaama_lwm2m/wakaama-master/core/er-coap-13\er-coap-13.c **** /*-----------------------------------------------------------------------------------*/
 428:g:/iot/IoT_Device_Demo/iot_link/network/lwm2m/wakaama_lwm2m/wakaama-master/core/er-coap-13\er-coap-13.c **** /*- MEASSAGE PROCESSING -------------------------------------------------------------*/
 429:g:/iot/IoT_Device_Demo/iot_link/network/lwm2m/wakaama_lwm2m/wakaama-master/core/er-coap-13\er-coap-13.c **** /*-----------------------------------------------------------------------------------*/
 430:g:/iot/IoT_Device_Demo/iot_link/network/lwm2m/wakaama_lwm2m/wakaama-master/core/er-coap-13\er-coap-13.c **** void
 431:g:/iot/IoT_Device_Demo/iot_link/network/lwm2m/wakaama_lwm2m/wakaama-master/core/er-coap-13\er-coap-13.c **** coap_init_message(void *packet, coap_message_type_t type, uint8_t code, uint16_t mid)
ARM GAS  C:\Users\ADMINI~1\AppData\Local\Temp\cc8DJu9v.s 			page 35


 432:g:/iot/IoT_Device_Demo/iot_link/network/lwm2m/wakaama_lwm2m/wakaama-master/core/er-coap-13\er-coap-13.c **** {
 1524              		.loc 1 432 1
 1525              		.cfi_startproc
 1526              		@ args = 0, pretend = 0, frame = 16
 1527              		@ frame_needed = 1, uses_anonymous_args = 0
 1528 0000 80B5     		push	{r7, lr}
 1529              	.LCFI67:
 1530              		.cfi_def_cfa_offset 8
 1531              		.cfi_offset 7, -8
 1532              		.cfi_offset 14, -4
 1533 0002 84B0     		sub	sp, sp, #16
 1534              	.LCFI68:
 1535              		.cfi_def_cfa_offset 24
 1536 0004 00AF     		add	r7, sp, #0
 1537              	.LCFI69:
 1538              		.cfi_def_cfa_register 7
 1539 0006 7860     		str	r0, [r7, #4]
 1540 0008 0846     		mov	r0, r1
 1541 000a 1146     		mov	r1, r2
 1542 000c 1A46     		mov	r2, r3
 1543 000e 0346     		mov	r3, r0
 1544 0010 FB70     		strb	r3, [r7, #3]
 1545 0012 0B46     		mov	r3, r1
 1546 0014 BB70     		strb	r3, [r7, #2]
 1547 0016 1346     		mov	r3, r2	@ movhi
 1548 0018 3B80     		strh	r3, [r7]	@ movhi
 433:g:/iot/IoT_Device_Demo/iot_link/network/lwm2m/wakaama_lwm2m/wakaama-master/core/er-coap-13\er-coap-13.c ****     coap_packet_t *const coap_pkt = (coap_packet_t *) packet;
 1549              		.loc 1 433 26
 1550 001a 7B68     		ldr	r3, [r7, #4]
 1551 001c FB60     		str	r3, [r7, #12]
 434:g:/iot/IoT_Device_Demo/iot_link/network/lwm2m/wakaama_lwm2m/wakaama-master/core/er-coap-13\er-coap-13.c **** 
 435:g:/iot/IoT_Device_Demo/iot_link/network/lwm2m/wakaama_lwm2m/wakaama-master/core/er-coap-13\er-coap-13.c ****     /* Important thing */
 436:g:/iot/IoT_Device_Demo/iot_link/network/lwm2m/wakaama_lwm2m/wakaama-master/core/er-coap-13\er-coap-13.c ****     memset(coap_pkt, 0, sizeof(coap_packet_t));
 1552              		.loc 1 436 5
 1553 001e 8C22     		movs	r2, #140
 1554 0020 0021     		movs	r1, #0
 1555 0022 F868     		ldr	r0, [r7, #12]
 1556 0024 FFF7FEFF 		bl	memset
 437:g:/iot/IoT_Device_Demo/iot_link/network/lwm2m/wakaama_lwm2m/wakaama-master/core/er-coap-13\er-coap-13.c **** 
 438:g:/iot/IoT_Device_Demo/iot_link/network/lwm2m/wakaama_lwm2m/wakaama-master/core/er-coap-13\er-coap-13.c ****     coap_pkt->type = type;
 1557              		.loc 1 438 20
 1558 0028 FB68     		ldr	r3, [r7, #12]
 1559 002a FA78     		ldrb	r2, [r7, #3]
 1560 002c 5A71     		strb	r2, [r3, #5]
 439:g:/iot/IoT_Device_Demo/iot_link/network/lwm2m/wakaama_lwm2m/wakaama-master/core/er-coap-13\er-coap-13.c ****     coap_pkt->code = code;
 1561              		.loc 1 439 20
 1562 002e FB68     		ldr	r3, [r7, #12]
 1563 0030 BA78     		ldrb	r2, [r7, #2]
 1564 0032 9A71     		strb	r2, [r3, #6]
 440:g:/iot/IoT_Device_Demo/iot_link/network/lwm2m/wakaama_lwm2m/wakaama-master/core/er-coap-13\er-coap-13.c ****     coap_pkt->mid = mid;
 1565              		.loc 1 440 19
 1566 0034 FB68     		ldr	r3, [r7, #12]
 1567 0036 3A88     		ldrh	r2, [r7]	@ movhi
 1568 0038 1A81     		strh	r2, [r3, #8]	@ movhi
 441:g:/iot/IoT_Device_Demo/iot_link/network/lwm2m/wakaama_lwm2m/wakaama-master/core/er-coap-13\er-coap-13.c **** }
 1569              		.loc 1 441 1
 1570 003a 00BF     		nop
ARM GAS  C:\Users\ADMINI~1\AppData\Local\Temp\cc8DJu9v.s 			page 36


 1571 003c 1037     		adds	r7, r7, #16
 1572              	.LCFI70:
 1573              		.cfi_def_cfa_offset 8
 1574 003e BD46     		mov	sp, r7
 1575              	.LCFI71:
 1576              		.cfi_def_cfa_register 13
 1577              		@ sp needed
 1578 0040 80BD     		pop	{r7, pc}
 1579              		.cfi_endproc
 1580              	.LFE17:
 1582              		.section	.text.coap_free_header,"ax",%progbits
 1583              		.align	1
 1584              		.global	coap_free_header
 1585              		.syntax unified
 1586              		.thumb
 1587              		.thumb_func
 1588              		.fpu fpv4-sp-d16
 1590              	coap_free_header:
 1591              	.LFB18:
 442:g:/iot/IoT_Device_Demo/iot_link/network/lwm2m/wakaama_lwm2m/wakaama-master/core/er-coap-13\er-coap-13.c **** 
 443:g:/iot/IoT_Device_Demo/iot_link/network/lwm2m/wakaama_lwm2m/wakaama-master/core/er-coap-13\er-coap-13.c **** void
 444:g:/iot/IoT_Device_Demo/iot_link/network/lwm2m/wakaama_lwm2m/wakaama-master/core/er-coap-13\er-coap-13.c **** coap_free_header(void *packet)
 445:g:/iot/IoT_Device_Demo/iot_link/network/lwm2m/wakaama_lwm2m/wakaama-master/core/er-coap-13\er-coap-13.c **** {
 1592              		.loc 1 445 1
 1593              		.cfi_startproc
 1594              		@ args = 0, pretend = 0, frame = 16
 1595              		@ frame_needed = 1, uses_anonymous_args = 0
 1596 0000 80B5     		push	{r7, lr}
 1597              	.LCFI72:
 1598              		.cfi_def_cfa_offset 8
 1599              		.cfi_offset 7, -8
 1600              		.cfi_offset 14, -4
 1601 0002 84B0     		sub	sp, sp, #16
 1602              	.LCFI73:
 1603              		.cfi_def_cfa_offset 24
 1604 0004 00AF     		add	r7, sp, #0
 1605              	.LCFI74:
 1606              		.cfi_def_cfa_register 7
 1607 0006 7860     		str	r0, [r7, #4]
 446:g:/iot/IoT_Device_Demo/iot_link/network/lwm2m/wakaama_lwm2m/wakaama-master/core/er-coap-13\er-coap-13.c ****     coap_packet_t *const coap_pkt = (coap_packet_t *) packet;
 1608              		.loc 1 446 26
 1609 0008 7B68     		ldr	r3, [r7, #4]
 1610 000a FB60     		str	r3, [r7, #12]
 447:g:/iot/IoT_Device_Demo/iot_link/network/lwm2m/wakaama_lwm2m/wakaama-master/core/er-coap-13\er-coap-13.c **** 
 448:g:/iot/IoT_Device_Demo/iot_link/network/lwm2m/wakaama_lwm2m/wakaama-master/core/er-coap-13\er-coap-13.c ****     free_multi_option(coap_pkt->uri_path);
 1611              		.loc 1 448 5
 1612 000c FB68     		ldr	r3, [r7, #12]
 1613 000e 5B6C     		ldr	r3, [r3, #68]
 1614 0010 1846     		mov	r0, r3
 1615 0012 FFF7FEFF 		bl	free_multi_option
 449:g:/iot/IoT_Device_Demo/iot_link/network/lwm2m/wakaama_lwm2m/wakaama-master/core/er-coap-13\er-coap-13.c ****     free_multi_option(coap_pkt->uri_query);
 1616              		.loc 1 449 5
 1617 0016 FB68     		ldr	r3, [r7, #12]
 1618 0018 D3F88030 		ldr	r3, [r3, #128]
 1619 001c 1846     		mov	r0, r3
 1620 001e FFF7FEFF 		bl	free_multi_option
 450:g:/iot/IoT_Device_Demo/iot_link/network/lwm2m/wakaama_lwm2m/wakaama-master/core/er-coap-13\er-coap-13.c ****     free_multi_option(coap_pkt->location_path);
ARM GAS  C:\Users\ADMINI~1\AppData\Local\Temp\cc8DJu9v.s 			page 37


 1621              		.loc 1 450 5
 1622 0022 FB68     		ldr	r3, [r7, #12]
 1623 0024 5B6B     		ldr	r3, [r3, #52]
 1624 0026 1846     		mov	r0, r3
 1625 0028 FFF7FEFF 		bl	free_multi_option
 451:g:/iot/IoT_Device_Demo/iot_link/network/lwm2m/wakaama_lwm2m/wakaama-master/core/er-coap-13\er-coap-13.c ****     coap_pkt->uri_path = NULL;
 1626              		.loc 1 451 24
 1627 002c FB68     		ldr	r3, [r7, #12]
 1628 002e 0022     		movs	r2, #0
 1629 0030 5A64     		str	r2, [r3, #68]
 452:g:/iot/IoT_Device_Demo/iot_link/network/lwm2m/wakaama_lwm2m/wakaama-master/core/er-coap-13\er-coap-13.c ****     coap_pkt->uri_query = NULL;
 1630              		.loc 1 452 25
 1631 0032 FB68     		ldr	r3, [r7, #12]
 1632 0034 0022     		movs	r2, #0
 1633 0036 C3F88020 		str	r2, [r3, #128]
 453:g:/iot/IoT_Device_Demo/iot_link/network/lwm2m/wakaama_lwm2m/wakaama-master/core/er-coap-13\er-coap-13.c ****     coap_pkt->location_path = NULL;
 1634              		.loc 1 453 29
 1635 003a FB68     		ldr	r3, [r7, #12]
 1636 003c 0022     		movs	r2, #0
 1637 003e 5A63     		str	r2, [r3, #52]
 454:g:/iot/IoT_Device_Demo/iot_link/network/lwm2m/wakaama_lwm2m/wakaama-master/core/er-coap-13\er-coap-13.c **** }
 1638              		.loc 1 454 1
 1639 0040 00BF     		nop
 1640 0042 1037     		adds	r7, r7, #16
 1641              	.LCFI75:
 1642              		.cfi_def_cfa_offset 8
 1643 0044 BD46     		mov	sp, r7
 1644              	.LCFI76:
 1645              		.cfi_def_cfa_register 13
 1646              		@ sp needed
 1647 0046 80BD     		pop	{r7, pc}
 1648              		.cfi_endproc
 1649              	.LFE18:
 1651              		.section	.text.coap_serialize_get_size,"ax",%progbits
 1652              		.align	1
 1653              		.global	coap_serialize_get_size
 1654              		.syntax unified
 1655              		.thumb
 1656              		.thumb_func
 1657              		.fpu fpv4-sp-d16
 1659              	coap_serialize_get_size:
 1660              	.LFB19:
 455:g:/iot/IoT_Device_Demo/iot_link/network/lwm2m/wakaama_lwm2m/wakaama-master/core/er-coap-13\er-coap-13.c **** 
 456:g:/iot/IoT_Device_Demo/iot_link/network/lwm2m/wakaama_lwm2m/wakaama-master/core/er-coap-13\er-coap-13.c **** /*-----------------------------------------------------------------------------------*/
 457:g:/iot/IoT_Device_Demo/iot_link/network/lwm2m/wakaama_lwm2m/wakaama-master/core/er-coap-13\er-coap-13.c **** size_t coap_serialize_get_size(void *packet)
 458:g:/iot/IoT_Device_Demo/iot_link/network/lwm2m/wakaama_lwm2m/wakaama-master/core/er-coap-13\er-coap-13.c **** {
 1661              		.loc 1 458 1
 1662              		.cfi_startproc
 1663              		@ args = 0, pretend = 0, frame = 32
 1664              		@ frame_needed = 1, uses_anonymous_args = 0
 1665              		@ link register save eliminated.
 1666 0000 80B4     		push	{r7}
 1667              	.LCFI77:
 1668              		.cfi_def_cfa_offset 4
 1669              		.cfi_offset 7, -4
 1670 0002 89B0     		sub	sp, sp, #36
 1671              	.LCFI78:
ARM GAS  C:\Users\ADMINI~1\AppData\Local\Temp\cc8DJu9v.s 			page 38


 1672              		.cfi_def_cfa_offset 40
 1673 0004 00AF     		add	r7, sp, #0
 1674              	.LCFI79:
 1675              		.cfi_def_cfa_register 7
 1676 0006 7860     		str	r0, [r7, #4]
 459:g:/iot/IoT_Device_Demo/iot_link/network/lwm2m/wakaama_lwm2m/wakaama-master/core/er-coap-13\er-coap-13.c ****     coap_packet_t *const coap_pkt = (coap_packet_t *) packet;
 1677              		.loc 1 459 26
 1678 0008 7B68     		ldr	r3, [r7, #4]
 1679 000a FB60     		str	r3, [r7, #12]
 460:g:/iot/IoT_Device_Demo/iot_link/network/lwm2m/wakaama_lwm2m/wakaama-master/core/er-coap-13\er-coap-13.c ****     size_t length = 0;
 1680              		.loc 1 460 12
 1681 000c 0023     		movs	r3, #0
 1682 000e FB61     		str	r3, [r7, #28]
 461:g:/iot/IoT_Device_Demo/iot_link/network/lwm2m/wakaama_lwm2m/wakaama-master/core/er-coap-13\er-coap-13.c **** 
 462:g:/iot/IoT_Device_Demo/iot_link/network/lwm2m/wakaama_lwm2m/wakaama-master/core/er-coap-13\er-coap-13.c ****     length = COAP_HEADER_LEN + coap_pkt->payload_len + coap_pkt->token_len;
 1683              		.loc 1 462 40
 1684 0010 FB68     		ldr	r3, [r7, #12]
 1685 0012 B3F88630 		ldrh	r3, [r3, #134]
 1686              		.loc 1 462 30
 1687 0016 0433     		adds	r3, r3, #4
 1688              		.loc 1 462 64
 1689 0018 FA68     		ldr	r2, [r7, #12]
 1690 001a 92F84C20 		ldrb	r2, [r2, #76]	@ zero_extendqisi2
 1691              		.loc 1 462 54
 1692 001e 1344     		add	r3, r3, r2
 1693              		.loc 1 462 12
 1694 0020 FB61     		str	r3, [r7, #28]
 463:g:/iot/IoT_Device_Demo/iot_link/network/lwm2m/wakaama_lwm2m/wakaama-master/core/er-coap-13\er-coap-13.c **** 
 464:g:/iot/IoT_Device_Demo/iot_link/network/lwm2m/wakaama_lwm2m/wakaama-master/core/er-coap-13\er-coap-13.c ****     if (IS_OPTION(coap_pkt, COAP_OPTION_IF_MATCH))
 1695              		.loc 1 464 9
 1696 0022 FB68     		ldr	r3, [r7, #12]
 1697 0024 9B7A     		ldrb	r3, [r3, #10]	@ zero_extendqisi2
 1698 0026 03F00203 		and	r3, r3, #2
 1699              		.loc 1 464 8
 1700 002a 002B     		cmp	r3, #0
 1701 002c 07D0     		beq	.L79
 465:g:/iot/IoT_Device_Demo/iot_link/network/lwm2m/wakaama_lwm2m/wakaama-master/core/er-coap-13\er-coap-13.c ****     {
 466:g:/iot/IoT_Device_Demo/iot_link/network/lwm2m/wakaama_lwm2m/wakaama-master/core/er-coap-13\er-coap-13.c ****         length += COAP_MAX_OPTION_HEADER_LEN + coap_pkt->if_match_len;
 1702              		.loc 1 466 56
 1703 002e FB68     		ldr	r3, [r7, #12]
 1704 0030 93F85A30 		ldrb	r3, [r3, #90]	@ zero_extendqisi2
 1705              		.loc 1 466 16
 1706 0034 1A46     		mov	r2, r3
 1707 0036 FB69     		ldr	r3, [r7, #28]
 1708 0038 1344     		add	r3, r3, r2
 1709 003a 0533     		adds	r3, r3, #5
 1710 003c FB61     		str	r3, [r7, #28]
 1711              	.L79:
 467:g:/iot/IoT_Device_Demo/iot_link/network/lwm2m/wakaama_lwm2m/wakaama-master/core/er-coap-13\er-coap-13.c ****     }
 468:g:/iot/IoT_Device_Demo/iot_link/network/lwm2m/wakaama_lwm2m/wakaama-master/core/er-coap-13\er-coap-13.c ****     if (IS_OPTION(coap_pkt, COAP_OPTION_URI_HOST))
 1712              		.loc 1 468 9
 1713 003e FB68     		ldr	r3, [r7, #12]
 1714 0040 9B7A     		ldrb	r3, [r3, #10]	@ zero_extendqisi2
 1715 0042 03F00803 		and	r3, r3, #8
 1716              		.loc 1 468 8
 1717 0046 002B     		cmp	r3, #0
 1718 0048 05D0     		beq	.L80
ARM GAS  C:\Users\ADMINI~1\AppData\Local\Temp\cc8DJu9v.s 			page 39


 469:g:/iot/IoT_Device_Demo/iot_link/network/lwm2m/wakaama_lwm2m/wakaama-master/core/er-coap-13\er-coap-13.c ****     {
 470:g:/iot/IoT_Device_Demo/iot_link/network/lwm2m/wakaama_lwm2m/wakaama-master/core/er-coap-13\er-coap-13.c ****         length += COAP_MAX_OPTION_HEADER_LEN + coap_pkt->uri_host_len;
 1719              		.loc 1 470 56
 1720 004a FB68     		ldr	r3, [r7, #12]
 1721 004c DA6A     		ldr	r2, [r3, #44]
 1722              		.loc 1 470 16
 1723 004e FB69     		ldr	r3, [r7, #28]
 1724 0050 1344     		add	r3, r3, r2
 1725 0052 0533     		adds	r3, r3, #5
 1726 0054 FB61     		str	r3, [r7, #28]
 1727              	.L80:
 471:g:/iot/IoT_Device_Demo/iot_link/network/lwm2m/wakaama_lwm2m/wakaama-master/core/er-coap-13\er-coap-13.c ****     }
 472:g:/iot/IoT_Device_Demo/iot_link/network/lwm2m/wakaama_lwm2m/wakaama-master/core/er-coap-13\er-coap-13.c ****     if (IS_OPTION(coap_pkt, COAP_OPTION_ETAG))
 1728              		.loc 1 472 9
 1729 0056 FB68     		ldr	r3, [r7, #12]
 1730 0058 9B7A     		ldrb	r3, [r3, #10]	@ zero_extendqisi2
 1731 005a 03F01003 		and	r3, r3, #16
 1732              		.loc 1 472 8
 1733 005e 002B     		cmp	r3, #0
 1734 0060 07D0     		beq	.L81
 473:g:/iot/IoT_Device_Demo/iot_link/network/lwm2m/wakaama_lwm2m/wakaama-master/core/er-coap-13\er-coap-13.c ****     {
 474:g:/iot/IoT_Device_Demo/iot_link/network/lwm2m/wakaama_lwm2m/wakaama-master/core/er-coap-13\er-coap-13.c ****         length += COAP_MAX_OPTION_HEADER_LEN + coap_pkt->etag_len;
 1735              		.loc 1 474 56
 1736 0062 FB68     		ldr	r3, [r7, #12]
 1737 0064 93F82030 		ldrb	r3, [r3, #32]	@ zero_extendqisi2
 1738              		.loc 1 474 16
 1739 0068 1A46     		mov	r2, r3
 1740 006a FB69     		ldr	r3, [r7, #28]
 1741 006c 1344     		add	r3, r3, r2
 1742 006e 0533     		adds	r3, r3, #5
 1743 0070 FB61     		str	r3, [r7, #28]
 1744              	.L81:
 475:g:/iot/IoT_Device_Demo/iot_link/network/lwm2m/wakaama_lwm2m/wakaama-master/core/er-coap-13\er-coap-13.c ****     }
 476:g:/iot/IoT_Device_Demo/iot_link/network/lwm2m/wakaama_lwm2m/wakaama-master/core/er-coap-13\er-coap-13.c ****     if (IS_OPTION(coap_pkt, COAP_OPTION_IF_NONE_MATCH))
 1745              		.loc 1 476 9
 1746 0072 FB68     		ldr	r3, [r7, #12]
 1747 0074 9B7A     		ldrb	r3, [r3, #10]	@ zero_extendqisi2
 1748 0076 03F02003 		and	r3, r3, #32
 1749              		.loc 1 476 8
 1750 007a 002B     		cmp	r3, #0
 1751 007c 02D0     		beq	.L82
 477:g:/iot/IoT_Device_Demo/iot_link/network/lwm2m/wakaama_lwm2m/wakaama-master/core/er-coap-13\er-coap-13.c ****     {
 478:g:/iot/IoT_Device_Demo/iot_link/network/lwm2m/wakaama_lwm2m/wakaama-master/core/er-coap-13\er-coap-13.c ****         // can be stored in extended fields
 479:g:/iot/IoT_Device_Demo/iot_link/network/lwm2m/wakaama_lwm2m/wakaama-master/core/er-coap-13\er-coap-13.c ****         length += COAP_MAX_OPTION_HEADER_LEN;
 1752              		.loc 1 479 16
 1753 007e FB69     		ldr	r3, [r7, #28]
 1754 0080 0533     		adds	r3, r3, #5
 1755 0082 FB61     		str	r3, [r7, #28]
 1756              	.L82:
 480:g:/iot/IoT_Device_Demo/iot_link/network/lwm2m/wakaama_lwm2m/wakaama-master/core/er-coap-13\er-coap-13.c ****     }
 481:g:/iot/IoT_Device_Demo/iot_link/network/lwm2m/wakaama_lwm2m/wakaama-master/core/er-coap-13\er-coap-13.c ****     if (IS_OPTION(coap_pkt, COAP_OPTION_OBSERVE))
 1757              		.loc 1 481 9
 1758 0084 FB68     		ldr	r3, [r7, #12]
 1759 0086 9B7A     		ldrb	r3, [r3, #10]	@ zero_extendqisi2
 1760 0088 03F04003 		and	r3, r3, #64
 1761              		.loc 1 481 8
 1762 008c 002B     		cmp	r3, #0
ARM GAS  C:\Users\ADMINI~1\AppData\Local\Temp\cc8DJu9v.s 			page 40


 1763 008e 02D0     		beq	.L83
 482:g:/iot/IoT_Device_Demo/iot_link/network/lwm2m/wakaama_lwm2m/wakaama-master/core/er-coap-13\er-coap-13.c ****     {
 483:g:/iot/IoT_Device_Demo/iot_link/network/lwm2m/wakaama_lwm2m/wakaama-master/core/er-coap-13\er-coap-13.c ****         // can be stored in extended fields
 484:g:/iot/IoT_Device_Demo/iot_link/network/lwm2m/wakaama_lwm2m/wakaama-master/core/er-coap-13\er-coap-13.c ****         length += COAP_MAX_OPTION_HEADER_LEN;
 1764              		.loc 1 484 16
 1765 0090 FB69     		ldr	r3, [r7, #28]
 1766 0092 0533     		adds	r3, r3, #5
 1767 0094 FB61     		str	r3, [r7, #28]
 1768              	.L83:
 485:g:/iot/IoT_Device_Demo/iot_link/network/lwm2m/wakaama_lwm2m/wakaama-master/core/er-coap-13\er-coap-13.c ****     }
 486:g:/iot/IoT_Device_Demo/iot_link/network/lwm2m/wakaama_lwm2m/wakaama-master/core/er-coap-13\er-coap-13.c ****     if (IS_OPTION(coap_pkt, COAP_OPTION_URI_PORT))
 1769              		.loc 1 486 9
 1770 0096 FB68     		ldr	r3, [r7, #12]
 1771 0098 9B7A     		ldrb	r3, [r3, #10]	@ zero_extendqisi2
 1772 009a 5BB2     		sxtb	r3, r3
 1773              		.loc 1 486 8
 1774 009c 002B     		cmp	r3, #0
 1775 009e 02DA     		bge	.L84
 487:g:/iot/IoT_Device_Demo/iot_link/network/lwm2m/wakaama_lwm2m/wakaama-master/core/er-coap-13\er-coap-13.c ****     {
 488:g:/iot/IoT_Device_Demo/iot_link/network/lwm2m/wakaama_lwm2m/wakaama-master/core/er-coap-13\er-coap-13.c ****         // can be stored in extended fields
 489:g:/iot/IoT_Device_Demo/iot_link/network/lwm2m/wakaama_lwm2m/wakaama-master/core/er-coap-13\er-coap-13.c ****         length += COAP_MAX_OPTION_HEADER_LEN;
 1776              		.loc 1 489 16
 1777 00a0 FB69     		ldr	r3, [r7, #28]
 1778 00a2 0533     		adds	r3, r3, #5
 1779 00a4 FB61     		str	r3, [r7, #28]
 1780              	.L84:
 490:g:/iot/IoT_Device_Demo/iot_link/network/lwm2m/wakaama_lwm2m/wakaama-master/core/er-coap-13\er-coap-13.c ****     }
 491:g:/iot/IoT_Device_Demo/iot_link/network/lwm2m/wakaama_lwm2m/wakaama-master/core/er-coap-13\er-coap-13.c ****     if (IS_OPTION(coap_pkt, COAP_OPTION_LOCATION_PATH))
 1781              		.loc 1 491 9
 1782 00a6 FB68     		ldr	r3, [r7, #12]
 1783 00a8 DB7A     		ldrb	r3, [r3, #11]	@ zero_extendqisi2
 1784 00aa 03F00103 		and	r3, r3, #1
 1785              		.loc 1 491 8
 1786 00ae 002B     		cmp	r3, #0
 1787 00b0 10D0     		beq	.L85
 1788              	.LBB6:
 492:g:/iot/IoT_Device_Demo/iot_link/network/lwm2m/wakaama_lwm2m/wakaama-master/core/er-coap-13\er-coap-13.c ****     {
 493:g:/iot/IoT_Device_Demo/iot_link/network/lwm2m/wakaama_lwm2m/wakaama-master/core/er-coap-13\er-coap-13.c ****         multi_option_t *optP;
 494:g:/iot/IoT_Device_Demo/iot_link/network/lwm2m/wakaama_lwm2m/wakaama-master/core/er-coap-13\er-coap-13.c **** 
 495:g:/iot/IoT_Device_Demo/iot_link/network/lwm2m/wakaama_lwm2m/wakaama-master/core/er-coap-13\er-coap-13.c ****         for (optP = coap_pkt->location_path ; optP != NULL ; optP = optP->next)
 1789              		.loc 1 495 19
 1790 00b2 FB68     		ldr	r3, [r7, #12]
 1791 00b4 5B6B     		ldr	r3, [r3, #52]
 1792 00b6 BB61     		str	r3, [r7, #24]
 1793              		.loc 1 495 9
 1794 00b8 09E0     		b	.L86
 1795              	.L87:
 496:g:/iot/IoT_Device_Demo/iot_link/network/lwm2m/wakaama_lwm2m/wakaama-master/core/er-coap-13\er-coap-13.c ****         {
 497:g:/iot/IoT_Device_Demo/iot_link/network/lwm2m/wakaama_lwm2m/wakaama-master/core/er-coap-13\er-coap-13.c ****             length += COAP_MAX_OPTION_HEADER_LEN + optP->len;
 1796              		.loc 1 497 56 discriminator 3
 1797 00ba BB69     		ldr	r3, [r7, #24]
 1798 00bc 5B79     		ldrb	r3, [r3, #5]	@ zero_extendqisi2
 1799              		.loc 1 497 20 discriminator 3
 1800 00be 1A46     		mov	r2, r3
 1801 00c0 FB69     		ldr	r3, [r7, #28]
 1802 00c2 1344     		add	r3, r3, r2
 1803 00c4 0533     		adds	r3, r3, #5
ARM GAS  C:\Users\ADMINI~1\AppData\Local\Temp\cc8DJu9v.s 			page 41


 1804 00c6 FB61     		str	r3, [r7, #28]
 495:g:/iot/IoT_Device_Demo/iot_link/network/lwm2m/wakaama_lwm2m/wakaama-master/core/er-coap-13\er-coap-13.c ****         {
 1805              		.loc 1 495 67 discriminator 3
 1806 00c8 BB69     		ldr	r3, [r7, #24]
 1807 00ca 1B68     		ldr	r3, [r3]
 1808 00cc BB61     		str	r3, [r7, #24]
 1809              	.L86:
 495:g:/iot/IoT_Device_Demo/iot_link/network/lwm2m/wakaama_lwm2m/wakaama-master/core/er-coap-13\er-coap-13.c ****         {
 1810              		.loc 1 495 9 discriminator 1
 1811 00ce BB69     		ldr	r3, [r7, #24]
 1812 00d0 002B     		cmp	r3, #0
 1813 00d2 F2D1     		bne	.L87
 1814              	.L85:
 1815              	.LBE6:
 498:g:/iot/IoT_Device_Demo/iot_link/network/lwm2m/wakaama_lwm2m/wakaama-master/core/er-coap-13\er-coap-13.c ****         }
 499:g:/iot/IoT_Device_Demo/iot_link/network/lwm2m/wakaama_lwm2m/wakaama-master/core/er-coap-13\er-coap-13.c ****     }
 500:g:/iot/IoT_Device_Demo/iot_link/network/lwm2m/wakaama_lwm2m/wakaama-master/core/er-coap-13\er-coap-13.c ****     if (IS_OPTION(coap_pkt, COAP_OPTION_URI_PATH))
 1816              		.loc 1 500 9
 1817 00d4 FB68     		ldr	r3, [r7, #12]
 1818 00d6 DB7A     		ldrb	r3, [r3, #11]	@ zero_extendqisi2
 1819 00d8 03F00803 		and	r3, r3, #8
 1820              		.loc 1 500 8
 1821 00dc 002B     		cmp	r3, #0
 1822 00de 10D0     		beq	.L88
 1823              	.LBB7:
 501:g:/iot/IoT_Device_Demo/iot_link/network/lwm2m/wakaama_lwm2m/wakaama-master/core/er-coap-13\er-coap-13.c ****     {
 502:g:/iot/IoT_Device_Demo/iot_link/network/lwm2m/wakaama_lwm2m/wakaama-master/core/er-coap-13\er-coap-13.c ****         multi_option_t *optP;
 503:g:/iot/IoT_Device_Demo/iot_link/network/lwm2m/wakaama_lwm2m/wakaama-master/core/er-coap-13\er-coap-13.c **** 
 504:g:/iot/IoT_Device_Demo/iot_link/network/lwm2m/wakaama_lwm2m/wakaama-master/core/er-coap-13\er-coap-13.c ****         for (optP = coap_pkt->uri_path ; optP != NULL ; optP = optP->next)
 1824              		.loc 1 504 19
 1825 00e0 FB68     		ldr	r3, [r7, #12]
 1826 00e2 5B6C     		ldr	r3, [r3, #68]
 1827 00e4 7B61     		str	r3, [r7, #20]
 1828              		.loc 1 504 9
 1829 00e6 09E0     		b	.L89
 1830              	.L90:
 505:g:/iot/IoT_Device_Demo/iot_link/network/lwm2m/wakaama_lwm2m/wakaama-master/core/er-coap-13\er-coap-13.c ****         {
 506:g:/iot/IoT_Device_Demo/iot_link/network/lwm2m/wakaama_lwm2m/wakaama-master/core/er-coap-13\er-coap-13.c ****             length += COAP_MAX_OPTION_HEADER_LEN + optP->len;
 1831              		.loc 1 506 56 discriminator 3
 1832 00e8 7B69     		ldr	r3, [r7, #20]
 1833 00ea 5B79     		ldrb	r3, [r3, #5]	@ zero_extendqisi2
 1834              		.loc 1 506 20 discriminator 3
 1835 00ec 1A46     		mov	r2, r3
 1836 00ee FB69     		ldr	r3, [r7, #28]
 1837 00f0 1344     		add	r3, r3, r2
 1838 00f2 0533     		adds	r3, r3, #5
 1839 00f4 FB61     		str	r3, [r7, #28]
 504:g:/iot/IoT_Device_Demo/iot_link/network/lwm2m/wakaama_lwm2m/wakaama-master/core/er-coap-13\er-coap-13.c ****         {
 1840              		.loc 1 504 62 discriminator 3
 1841 00f6 7B69     		ldr	r3, [r7, #20]
 1842 00f8 1B68     		ldr	r3, [r3]
 1843 00fa 7B61     		str	r3, [r7, #20]
 1844              	.L89:
 504:g:/iot/IoT_Device_Demo/iot_link/network/lwm2m/wakaama_lwm2m/wakaama-master/core/er-coap-13\er-coap-13.c ****         {
 1845              		.loc 1 504 9 discriminator 1
 1846 00fc 7B69     		ldr	r3, [r7, #20]
 1847 00fe 002B     		cmp	r3, #0
ARM GAS  C:\Users\ADMINI~1\AppData\Local\Temp\cc8DJu9v.s 			page 42


 1848 0100 F2D1     		bne	.L90
 1849              	.L88:
 1850              	.LBE7:
 507:g:/iot/IoT_Device_Demo/iot_link/network/lwm2m/wakaama_lwm2m/wakaama-master/core/er-coap-13\er-coap-13.c ****         }
 508:g:/iot/IoT_Device_Demo/iot_link/network/lwm2m/wakaama_lwm2m/wakaama-master/core/er-coap-13\er-coap-13.c ****     }
 509:g:/iot/IoT_Device_Demo/iot_link/network/lwm2m/wakaama_lwm2m/wakaama-master/core/er-coap-13\er-coap-13.c ****     if (IS_OPTION(coap_pkt, COAP_OPTION_CONTENT_TYPE))
 1851              		.loc 1 509 9
 1852 0102 FB68     		ldr	r3, [r7, #12]
 1853 0104 DB7A     		ldrb	r3, [r3, #11]	@ zero_extendqisi2
 1854 0106 03F01003 		and	r3, r3, #16
 1855              		.loc 1 509 8
 1856 010a 002B     		cmp	r3, #0
 1857 010c 02D0     		beq	.L91
 510:g:/iot/IoT_Device_Demo/iot_link/network/lwm2m/wakaama_lwm2m/wakaama-master/core/er-coap-13\er-coap-13.c ****     {
 511:g:/iot/IoT_Device_Demo/iot_link/network/lwm2m/wakaama_lwm2m/wakaama-master/core/er-coap-13\er-coap-13.c ****         // can be stored in extended fields
 512:g:/iot/IoT_Device_Demo/iot_link/network/lwm2m/wakaama_lwm2m/wakaama-master/core/er-coap-13\er-coap-13.c ****         length += COAP_MAX_OPTION_HEADER_LEN;
 1858              		.loc 1 512 16
 1859 010e FB69     		ldr	r3, [r7, #28]
 1860 0110 0533     		adds	r3, r3, #5
 1861 0112 FB61     		str	r3, [r7, #28]
 1862              	.L91:
 513:g:/iot/IoT_Device_Demo/iot_link/network/lwm2m/wakaama_lwm2m/wakaama-master/core/er-coap-13\er-coap-13.c ****     }
 514:g:/iot/IoT_Device_Demo/iot_link/network/lwm2m/wakaama_lwm2m/wakaama-master/core/er-coap-13\er-coap-13.c ****     if (IS_OPTION(coap_pkt, COAP_OPTION_MAX_AGE))
 1863              		.loc 1 514 9
 1864 0114 FB68     		ldr	r3, [r7, #12]
 1865 0116 DB7A     		ldrb	r3, [r3, #11]	@ zero_extendqisi2
 1866 0118 03F04003 		and	r3, r3, #64
 1867              		.loc 1 514 8
 1868 011c 002B     		cmp	r3, #0
 1869 011e 02D0     		beq	.L92
 515:g:/iot/IoT_Device_Demo/iot_link/network/lwm2m/wakaama_lwm2m/wakaama-master/core/er-coap-13\er-coap-13.c ****     {
 516:g:/iot/IoT_Device_Demo/iot_link/network/lwm2m/wakaama_lwm2m/wakaama-master/core/er-coap-13\er-coap-13.c ****         // can be stored in extended fields
 517:g:/iot/IoT_Device_Demo/iot_link/network/lwm2m/wakaama_lwm2m/wakaama-master/core/er-coap-13\er-coap-13.c ****         length += COAP_MAX_OPTION_HEADER_LEN;
 1870              		.loc 1 517 16
 1871 0120 FB69     		ldr	r3, [r7, #28]
 1872 0122 0533     		adds	r3, r3, #5
 1873 0124 FB61     		str	r3, [r7, #28]
 1874              	.L92:
 518:g:/iot/IoT_Device_Demo/iot_link/network/lwm2m/wakaama_lwm2m/wakaama-master/core/er-coap-13\er-coap-13.c ****     }
 519:g:/iot/IoT_Device_Demo/iot_link/network/lwm2m/wakaama_lwm2m/wakaama-master/core/er-coap-13\er-coap-13.c ****     if (IS_OPTION(coap_pkt, COAP_OPTION_URI_QUERY))
 1875              		.loc 1 519 9
 1876 0126 FB68     		ldr	r3, [r7, #12]
 1877 0128 DB7A     		ldrb	r3, [r3, #11]	@ zero_extendqisi2
 1878 012a 5BB2     		sxtb	r3, r3
 1879              		.loc 1 519 8
 1880 012c 002B     		cmp	r3, #0
 1881 012e 11DA     		bge	.L93
 1882              	.LBB8:
 520:g:/iot/IoT_Device_Demo/iot_link/network/lwm2m/wakaama_lwm2m/wakaama-master/core/er-coap-13\er-coap-13.c ****     {
 521:g:/iot/IoT_Device_Demo/iot_link/network/lwm2m/wakaama_lwm2m/wakaama-master/core/er-coap-13\er-coap-13.c ****         multi_option_t *optP;
 522:g:/iot/IoT_Device_Demo/iot_link/network/lwm2m/wakaama_lwm2m/wakaama-master/core/er-coap-13\er-coap-13.c **** 
 523:g:/iot/IoT_Device_Demo/iot_link/network/lwm2m/wakaama_lwm2m/wakaama-master/core/er-coap-13\er-coap-13.c ****         for (optP = coap_pkt->uri_query ; optP != NULL ; optP = optP->next)
 1883              		.loc 1 523 19
 1884 0130 FB68     		ldr	r3, [r7, #12]
 1885 0132 D3F88030 		ldr	r3, [r3, #128]
 1886 0136 3B61     		str	r3, [r7, #16]
 1887              		.loc 1 523 9
ARM GAS  C:\Users\ADMINI~1\AppData\Local\Temp\cc8DJu9v.s 			page 43


 1888 0138 09E0     		b	.L94
 1889              	.L95:
 524:g:/iot/IoT_Device_Demo/iot_link/network/lwm2m/wakaama_lwm2m/wakaama-master/core/er-coap-13\er-coap-13.c ****         {
 525:g:/iot/IoT_Device_Demo/iot_link/network/lwm2m/wakaama_lwm2m/wakaama-master/core/er-coap-13\er-coap-13.c ****             length += COAP_MAX_OPTION_HEADER_LEN + optP->len;
 1890              		.loc 1 525 56 discriminator 3
 1891 013a 3B69     		ldr	r3, [r7, #16]
 1892 013c 5B79     		ldrb	r3, [r3, #5]	@ zero_extendqisi2
 1893              		.loc 1 525 20 discriminator 3
 1894 013e 1A46     		mov	r2, r3
 1895 0140 FB69     		ldr	r3, [r7, #28]
 1896 0142 1344     		add	r3, r3, r2
 1897 0144 0533     		adds	r3, r3, #5
 1898 0146 FB61     		str	r3, [r7, #28]
 523:g:/iot/IoT_Device_Demo/iot_link/network/lwm2m/wakaama_lwm2m/wakaama-master/core/er-coap-13\er-coap-13.c ****         {
 1899              		.loc 1 523 63 discriminator 3
 1900 0148 3B69     		ldr	r3, [r7, #16]
 1901 014a 1B68     		ldr	r3, [r3]
 1902 014c 3B61     		str	r3, [r7, #16]
 1903              	.L94:
 523:g:/iot/IoT_Device_Demo/iot_link/network/lwm2m/wakaama_lwm2m/wakaama-master/core/er-coap-13\er-coap-13.c ****         {
 1904              		.loc 1 523 9 discriminator 1
 1905 014e 3B69     		ldr	r3, [r7, #16]
 1906 0150 002B     		cmp	r3, #0
 1907 0152 F2D1     		bne	.L95
 1908              	.L93:
 1909              	.LBE8:
 526:g:/iot/IoT_Device_Demo/iot_link/network/lwm2m/wakaama_lwm2m/wakaama-master/core/er-coap-13\er-coap-13.c ****         }
 527:g:/iot/IoT_Device_Demo/iot_link/network/lwm2m/wakaama_lwm2m/wakaama-master/core/er-coap-13\er-coap-13.c ****     }
 528:g:/iot/IoT_Device_Demo/iot_link/network/lwm2m/wakaama_lwm2m/wakaama-master/core/er-coap-13\er-coap-13.c ****     if (IS_OPTION(coap_pkt, COAP_OPTION_ACCEPT))
 1910              		.loc 1 528 9
 1911 0154 FB68     		ldr	r3, [r7, #12]
 1912 0156 1B7B     		ldrb	r3, [r3, #12]	@ zero_extendqisi2
 1913 0158 03F00203 		and	r3, r3, #2
 1914              		.loc 1 528 8
 1915 015c 002B     		cmp	r3, #0
 1916 015e 0AD0     		beq	.L96
 529:g:/iot/IoT_Device_Demo/iot_link/network/lwm2m/wakaama_lwm2m/wakaama-master/core/er-coap-13\er-coap-13.c ****     {
 530:g:/iot/IoT_Device_Demo/iot_link/network/lwm2m/wakaama_lwm2m/wakaama-master/core/er-coap-13\er-coap-13.c ****         length += coap_pkt->accept_num * COAP_MAX_OPTION_HEADER_LEN;
 1917              		.loc 1 530 27
 1918 0160 FB68     		ldr	r3, [r7, #12]
 1919 0162 93F85530 		ldrb	r3, [r3, #85]	@ zero_extendqisi2
 1920 0166 1A46     		mov	r2, r3
 1921              		.loc 1 530 40
 1922 0168 1346     		mov	r3, r2
 1923 016a 9B00     		lsls	r3, r3, #2
 1924 016c 1344     		add	r3, r3, r2
 1925 016e 1A46     		mov	r2, r3
 1926              		.loc 1 530 16
 1927 0170 FB69     		ldr	r3, [r7, #28]
 1928 0172 1344     		add	r3, r3, r2
 1929 0174 FB61     		str	r3, [r7, #28]
 1930              	.L96:
 531:g:/iot/IoT_Device_Demo/iot_link/network/lwm2m/wakaama_lwm2m/wakaama-master/core/er-coap-13\er-coap-13.c ****     }
 532:g:/iot/IoT_Device_Demo/iot_link/network/lwm2m/wakaama_lwm2m/wakaama-master/core/er-coap-13\er-coap-13.c ****     if (IS_OPTION(coap_pkt, COAP_OPTION_LOCATION_QUERY))
 1931              		.loc 1 532 9
 1932 0176 FB68     		ldr	r3, [r7, #12]
 1933 0178 1B7B     		ldrb	r3, [r3, #12]	@ zero_extendqisi2
ARM GAS  C:\Users\ADMINI~1\AppData\Local\Temp\cc8DJu9v.s 			page 44


 1934 017a 03F01003 		and	r3, r3, #16
 1935              		.loc 1 532 8
 1936 017e 002B     		cmp	r3, #0
 1937 0180 05D0     		beq	.L97
 533:g:/iot/IoT_Device_Demo/iot_link/network/lwm2m/wakaama_lwm2m/wakaama-master/core/er-coap-13\er-coap-13.c ****     {
 534:g:/iot/IoT_Device_Demo/iot_link/network/lwm2m/wakaama_lwm2m/wakaama-master/core/er-coap-13\er-coap-13.c ****         length += COAP_MAX_OPTION_HEADER_LEN + coap_pkt->location_query_len;
 1938              		.loc 1 534 56
 1939 0182 FB68     		ldr	r3, [r7, #12]
 1940 0184 DA6B     		ldr	r2, [r3, #60]
 1941              		.loc 1 534 16
 1942 0186 FB69     		ldr	r3, [r7, #28]
 1943 0188 1344     		add	r3, r3, r2
 1944 018a 0533     		adds	r3, r3, #5
 1945 018c FB61     		str	r3, [r7, #28]
 1946              	.L97:
 535:g:/iot/IoT_Device_Demo/iot_link/network/lwm2m/wakaama_lwm2m/wakaama-master/core/er-coap-13\er-coap-13.c ****     }
 536:g:/iot/IoT_Device_Demo/iot_link/network/lwm2m/wakaama_lwm2m/wakaama-master/core/er-coap-13\er-coap-13.c ****     if (IS_OPTION(coap_pkt, COAP_OPTION_BLOCK2))
 1947              		.loc 1 536 9
 1948 018e FB68     		ldr	r3, [r7, #12]
 1949 0190 1B7B     		ldrb	r3, [r3, #12]	@ zero_extendqisi2
 1950 0192 5BB2     		sxtb	r3, r3
 1951              		.loc 1 536 8
 1952 0194 002B     		cmp	r3, #0
 1953 0196 02DA     		bge	.L98
 537:g:/iot/IoT_Device_Demo/iot_link/network/lwm2m/wakaama_lwm2m/wakaama-master/core/er-coap-13\er-coap-13.c ****     {
 538:g:/iot/IoT_Device_Demo/iot_link/network/lwm2m/wakaama_lwm2m/wakaama-master/core/er-coap-13\er-coap-13.c ****         // can be stored in extended fields
 539:g:/iot/IoT_Device_Demo/iot_link/network/lwm2m/wakaama_lwm2m/wakaama-master/core/er-coap-13\er-coap-13.c ****         length += COAP_MAX_OPTION_HEADER_LEN;
 1954              		.loc 1 539 16
 1955 0198 FB69     		ldr	r3, [r7, #28]
 1956 019a 0533     		adds	r3, r3, #5
 1957 019c FB61     		str	r3, [r7, #28]
 1958              	.L98:
 540:g:/iot/IoT_Device_Demo/iot_link/network/lwm2m/wakaama_lwm2m/wakaama-master/core/er-coap-13\er-coap-13.c ****     }
 541:g:/iot/IoT_Device_Demo/iot_link/network/lwm2m/wakaama_lwm2m/wakaama-master/core/er-coap-13\er-coap-13.c ****     if (IS_OPTION(coap_pkt, COAP_OPTION_BLOCK1))
 1959              		.loc 1 541 9
 1960 019e FB68     		ldr	r3, [r7, #12]
 1961 01a0 5B7B     		ldrb	r3, [r3, #13]	@ zero_extendqisi2
 1962 01a2 03F00803 		and	r3, r3, #8
 1963              		.loc 1 541 8
 1964 01a6 002B     		cmp	r3, #0
 1965 01a8 02D0     		beq	.L99
 542:g:/iot/IoT_Device_Demo/iot_link/network/lwm2m/wakaama_lwm2m/wakaama-master/core/er-coap-13\er-coap-13.c ****     {
 543:g:/iot/IoT_Device_Demo/iot_link/network/lwm2m/wakaama_lwm2m/wakaama-master/core/er-coap-13\er-coap-13.c ****         // can be stored in extended fields
 544:g:/iot/IoT_Device_Demo/iot_link/network/lwm2m/wakaama_lwm2m/wakaama-master/core/er-coap-13\er-coap-13.c ****         length += COAP_MAX_OPTION_HEADER_LEN;
 1966              		.loc 1 544 16
 1967 01aa FB69     		ldr	r3, [r7, #28]
 1968 01ac 0533     		adds	r3, r3, #5
 1969 01ae FB61     		str	r3, [r7, #28]
 1970              	.L99:
 545:g:/iot/IoT_Device_Demo/iot_link/network/lwm2m/wakaama_lwm2m/wakaama-master/core/er-coap-13\er-coap-13.c ****     }
 546:g:/iot/IoT_Device_Demo/iot_link/network/lwm2m/wakaama_lwm2m/wakaama-master/core/er-coap-13\er-coap-13.c ****     if (IS_OPTION(coap_pkt, COAP_OPTION_SIZE))
 1971              		.loc 1 546 9
 1972 01b0 FB68     		ldr	r3, [r7, #12]
 1973 01b2 5B7B     		ldrb	r3, [r3, #13]	@ zero_extendqisi2
 1974 01b4 03F01003 		and	r3, r3, #16
 1975              		.loc 1 546 8
 1976 01b8 002B     		cmp	r3, #0
ARM GAS  C:\Users\ADMINI~1\AppData\Local\Temp\cc8DJu9v.s 			page 45


 1977 01ba 02D0     		beq	.L100
 547:g:/iot/IoT_Device_Demo/iot_link/network/lwm2m/wakaama_lwm2m/wakaama-master/core/er-coap-13\er-coap-13.c ****     {
 548:g:/iot/IoT_Device_Demo/iot_link/network/lwm2m/wakaama_lwm2m/wakaama-master/core/er-coap-13\er-coap-13.c ****         // can be stored in extended fields
 549:g:/iot/IoT_Device_Demo/iot_link/network/lwm2m/wakaama_lwm2m/wakaama-master/core/er-coap-13\er-coap-13.c ****         length += COAP_MAX_OPTION_HEADER_LEN;
 1978              		.loc 1 549 16
 1979 01bc FB69     		ldr	r3, [r7, #28]
 1980 01be 0533     		adds	r3, r3, #5
 1981 01c0 FB61     		str	r3, [r7, #28]
 1982              	.L100:
 550:g:/iot/IoT_Device_Demo/iot_link/network/lwm2m/wakaama_lwm2m/wakaama-master/core/er-coap-13\er-coap-13.c ****     }
 551:g:/iot/IoT_Device_Demo/iot_link/network/lwm2m/wakaama_lwm2m/wakaama-master/core/er-coap-13\er-coap-13.c ****     if (IS_OPTION(coap_pkt, COAP_OPTION_PROXY_URI))
 1983              		.loc 1 551 9
 1984 01c2 FB68     		ldr	r3, [r7, #12]
 1985 01c4 9B7B     		ldrb	r3, [r3, #14]	@ zero_extendqisi2
 1986 01c6 03F00803 		and	r3, r3, #8
 1987              		.loc 1 551 8
 1988 01ca 002B     		cmp	r3, #0
 1989 01cc 05D0     		beq	.L101
 552:g:/iot/IoT_Device_Demo/iot_link/network/lwm2m/wakaama_lwm2m/wakaama-master/core/er-coap-13\er-coap-13.c ****     {
 553:g:/iot/IoT_Device_Demo/iot_link/network/lwm2m/wakaama_lwm2m/wakaama-master/core/er-coap-13\er-coap-13.c ****         length += COAP_MAX_OPTION_HEADER_LEN + coap_pkt->proxy_uri_len;
 1990              		.loc 1 553 56
 1991 01ce FB68     		ldr	r3, [r7, #12]
 1992 01d0 9A69     		ldr	r2, [r3, #24]
 1993              		.loc 1 553 16
 1994 01d2 FB69     		ldr	r3, [r7, #28]
 1995 01d4 1344     		add	r3, r3, r2
 1996 01d6 0533     		adds	r3, r3, #5
 1997 01d8 FB61     		str	r3, [r7, #28]
 1998              	.L101:
 554:g:/iot/IoT_Device_Demo/iot_link/network/lwm2m/wakaama_lwm2m/wakaama-master/core/er-coap-13\er-coap-13.c ****     }
 555:g:/iot/IoT_Device_Demo/iot_link/network/lwm2m/wakaama_lwm2m/wakaama-master/core/er-coap-13\er-coap-13.c **** 
 556:g:/iot/IoT_Device_Demo/iot_link/network/lwm2m/wakaama_lwm2m/wakaama-master/core/er-coap-13\er-coap-13.c ****     if (coap_pkt->payload_len)
 1999              		.loc 1 556 17
 2000 01da FB68     		ldr	r3, [r7, #12]
 2001 01dc B3F88630 		ldrh	r3, [r3, #134]
 2002              		.loc 1 556 8
 2003 01e0 002B     		cmp	r3, #0
 2004 01e2 02D0     		beq	.L102
 557:g:/iot/IoT_Device_Demo/iot_link/network/lwm2m/wakaama_lwm2m/wakaama-master/core/er-coap-13\er-coap-13.c ****     {
 558:g:/iot/IoT_Device_Demo/iot_link/network/lwm2m/wakaama_lwm2m/wakaama-master/core/er-coap-13\er-coap-13.c ****         // Account for the payload marker.
 559:g:/iot/IoT_Device_Demo/iot_link/network/lwm2m/wakaama_lwm2m/wakaama-master/core/er-coap-13\er-coap-13.c ****         length += 1;
 2005              		.loc 1 559 16
 2006 01e4 FB69     		ldr	r3, [r7, #28]
 2007 01e6 0133     		adds	r3, r3, #1
 2008 01e8 FB61     		str	r3, [r7, #28]
 2009              	.L102:
 560:g:/iot/IoT_Device_Demo/iot_link/network/lwm2m/wakaama_lwm2m/wakaama-master/core/er-coap-13\er-coap-13.c ****     }
 561:g:/iot/IoT_Device_Demo/iot_link/network/lwm2m/wakaama_lwm2m/wakaama-master/core/er-coap-13\er-coap-13.c **** 
 562:g:/iot/IoT_Device_Demo/iot_link/network/lwm2m/wakaama_lwm2m/wakaama-master/core/er-coap-13\er-coap-13.c ****     return length;
 2010              		.loc 1 562 12
 2011 01ea FB69     		ldr	r3, [r7, #28]
 563:g:/iot/IoT_Device_Demo/iot_link/network/lwm2m/wakaama_lwm2m/wakaama-master/core/er-coap-13\er-coap-13.c **** }
 2012              		.loc 1 563 1
 2013 01ec 1846     		mov	r0, r3
 2014 01ee 2437     		adds	r7, r7, #36
 2015              	.LCFI80:
 2016              		.cfi_def_cfa_offset 4
ARM GAS  C:\Users\ADMINI~1\AppData\Local\Temp\cc8DJu9v.s 			page 46


 2017 01f0 BD46     		mov	sp, r7
 2018              	.LCFI81:
 2019              		.cfi_def_cfa_register 13
 2020              		@ sp needed
 2021 01f2 5DF8047B 		ldr	r7, [sp], #4
 2022              	.LCFI82:
 2023              		.cfi_restore 7
 2024              		.cfi_def_cfa_offset 0
 2025 01f6 7047     		bx	lr
 2026              		.cfi_endproc
 2027              	.LFE19:
 2029              		.section	.text.coap_serialize_message,"ax",%progbits
 2030              		.align	1
 2031              		.global	coap_serialize_message
 2032              		.syntax unified
 2033              		.thumb
 2034              		.thumb_func
 2035              		.fpu fpv4-sp-d16
 2037              	coap_serialize_message:
 2038              	.LFB20:
 564:g:/iot/IoT_Device_Demo/iot_link/network/lwm2m/wakaama_lwm2m/wakaama-master/core/er-coap-13\er-coap-13.c **** 
 565:g:/iot/IoT_Device_Demo/iot_link/network/lwm2m/wakaama_lwm2m/wakaama-master/core/er-coap-13\er-coap-13.c **** /*-----------------------------------------------------------------------------------*/
 566:g:/iot/IoT_Device_Demo/iot_link/network/lwm2m/wakaama_lwm2m/wakaama-master/core/er-coap-13\er-coap-13.c **** size_t
 567:g:/iot/IoT_Device_Demo/iot_link/network/lwm2m/wakaama_lwm2m/wakaama-master/core/er-coap-13\er-coap-13.c **** coap_serialize_message(void *packet, uint8_t *buffer)
 568:g:/iot/IoT_Device_Demo/iot_link/network/lwm2m/wakaama_lwm2m/wakaama-master/core/er-coap-13\er-coap-13.c **** {
 2039              		.loc 1 568 1
 2040              		.cfi_startproc
 2041              		@ args = 0, pretend = 0, frame = 32
 2042              		@ frame_needed = 1, uses_anonymous_args = 0
 2043 0000 80B5     		push	{r7, lr}
 2044              	.LCFI83:
 2045              		.cfi_def_cfa_offset 8
 2046              		.cfi_offset 7, -8
 2047              		.cfi_offset 14, -4
 2048 0002 8AB0     		sub	sp, sp, #40
 2049              	.LCFI84:
 2050              		.cfi_def_cfa_offset 48
 2051 0004 02AF     		add	r7, sp, #8
 2052              	.LCFI85:
 2053              		.cfi_def_cfa 7, 40
 2054 0006 7860     		str	r0, [r7, #4]
 2055 0008 3960     		str	r1, [r7]
 569:g:/iot/IoT_Device_Demo/iot_link/network/lwm2m/wakaama_lwm2m/wakaama-master/core/er-coap-13\er-coap-13.c ****     coap_packet_t *const coap_pkt = (coap_packet_t *) packet;
 2056              		.loc 1 569 26
 2057 000a 7B68     		ldr	r3, [r7, #4]
 2058 000c BB60     		str	r3, [r7, #8]
 570:g:/iot/IoT_Device_Demo/iot_link/network/lwm2m/wakaama_lwm2m/wakaama-master/core/er-coap-13\er-coap-13.c ****     uint8_t *option;
 571:g:/iot/IoT_Device_Demo/iot_link/network/lwm2m/wakaama_lwm2m/wakaama-master/core/er-coap-13\er-coap-13.c ****     unsigned int current_number = 0;
 2059              		.loc 1 571 18
 2060 000e 0023     		movs	r3, #0
 2061 0010 BB61     		str	r3, [r7, #24]
 572:g:/iot/IoT_Device_Demo/iot_link/network/lwm2m/wakaama_lwm2m/wakaama-master/core/er-coap-13\er-coap-13.c **** 
 573:g:/iot/IoT_Device_Demo/iot_link/network/lwm2m/wakaama_lwm2m/wakaama-master/core/er-coap-13\er-coap-13.c ****     /* Initialize */
 574:g:/iot/IoT_Device_Demo/iot_link/network/lwm2m/wakaama_lwm2m/wakaama-master/core/er-coap-13\er-coap-13.c ****     coap_pkt->buffer = buffer;
 2062              		.loc 1 574 22
 2063 0012 BB68     		ldr	r3, [r7, #8]
 2064 0014 3A68     		ldr	r2, [r7]
ARM GAS  C:\Users\ADMINI~1\AppData\Local\Temp\cc8DJu9v.s 			page 47


 2065 0016 1A60     		str	r2, [r3]
 575:g:/iot/IoT_Device_Demo/iot_link/network/lwm2m/wakaama_lwm2m/wakaama-master/core/er-coap-13\er-coap-13.c ****     coap_pkt->version = 1;
 2066              		.loc 1 575 23
 2067 0018 BB68     		ldr	r3, [r7, #8]
 2068 001a 0122     		movs	r2, #1
 2069 001c 1A71     		strb	r2, [r3, #4]
 576:g:/iot/IoT_Device_Demo/iot_link/network/lwm2m/wakaama_lwm2m/wakaama-master/core/er-coap-13\er-coap-13.c **** 
 577:g:/iot/IoT_Device_Demo/iot_link/network/lwm2m/wakaama_lwm2m/wakaama-master/core/er-coap-13\er-coap-13.c ****     PRINTF("-Serializing MID %u to %p, ", coap_pkt->mid, coap_pkt->buffer);
 578:g:/iot/IoT_Device_Demo/iot_link/network/lwm2m/wakaama_lwm2m/wakaama-master/core/er-coap-13\er-coap-13.c **** 
 579:g:/iot/IoT_Device_Demo/iot_link/network/lwm2m/wakaama_lwm2m/wakaama-master/core/er-coap-13\er-coap-13.c ****     /* set header fields */
 580:g:/iot/IoT_Device_Demo/iot_link/network/lwm2m/wakaama_lwm2m/wakaama-master/core/er-coap-13\er-coap-13.c ****     coap_pkt->buffer[0]  = 0x00;
 2070              		.loc 1 580 13
 2071 001e BB68     		ldr	r3, [r7, #8]
 2072 0020 1B68     		ldr	r3, [r3]
 2073              		.loc 1 580 26
 2074 0022 0022     		movs	r2, #0
 2075 0024 1A70     		strb	r2, [r3]
 581:g:/iot/IoT_Device_Demo/iot_link/network/lwm2m/wakaama_lwm2m/wakaama-master/core/er-coap-13\er-coap-13.c ****     coap_pkt->buffer[0] |= COAP_HEADER_VERSION_MASK & (coap_pkt->version) << COAP_HEADER_VERSION_PO
 2076              		.loc 1 581 13
 2077 0026 BB68     		ldr	r3, [r7, #8]
 2078 0028 1B68     		ldr	r3, [r3]
 2079              		.loc 1 581 25
 2080 002a 1B78     		ldrb	r3, [r3]	@ zero_extendqisi2
 2081 002c 5AB2     		sxtb	r2, r3
 2082              		.loc 1 581 64
 2083 002e BB68     		ldr	r3, [r7, #8]
 2084 0030 1B79     		ldrb	r3, [r3, #4]	@ zero_extendqisi2
 2085              		.loc 1 581 75
 2086 0032 9B01     		lsls	r3, r3, #6
 2087              		.loc 1 581 25
 2088 0034 5BB2     		sxtb	r3, r3
 2089 0036 1343     		orrs	r3, r3, r2
 2090 0038 5AB2     		sxtb	r2, r3
 2091              		.loc 1 581 13
 2092 003a BB68     		ldr	r3, [r7, #8]
 2093 003c 1B68     		ldr	r3, [r3]
 2094              		.loc 1 581 25
 2095 003e D2B2     		uxtb	r2, r2
 2096 0040 1A70     		strb	r2, [r3]
 582:g:/iot/IoT_Device_Demo/iot_link/network/lwm2m/wakaama_lwm2m/wakaama-master/core/er-coap-13\er-coap-13.c ****     coap_pkt->buffer[0] |= COAP_HEADER_TYPE_MASK & (coap_pkt->type) << COAP_HEADER_TYPE_POSITION;
 2097              		.loc 1 582 13
 2098 0042 BB68     		ldr	r3, [r7, #8]
 2099 0044 1B68     		ldr	r3, [r3]
 2100              		.loc 1 582 25
 2101 0046 1B78     		ldrb	r3, [r3]	@ zero_extendqisi2
 2102 0048 5AB2     		sxtb	r2, r3
 2103              		.loc 1 582 61
 2104 004a BB68     		ldr	r3, [r7, #8]
 2105 004c 5B79     		ldrb	r3, [r3, #5]	@ zero_extendqisi2
 2106              		.loc 1 582 69
 2107 004e 1B01     		lsls	r3, r3, #4
 2108              		.loc 1 582 50
 2109 0050 5BB2     		sxtb	r3, r3
 2110 0052 03F03003 		and	r3, r3, #48
 2111 0056 5BB2     		sxtb	r3, r3
 2112              		.loc 1 582 25
 2113 0058 1343     		orrs	r3, r3, r2
ARM GAS  C:\Users\ADMINI~1\AppData\Local\Temp\cc8DJu9v.s 			page 48


 2114 005a 5AB2     		sxtb	r2, r3
 2115              		.loc 1 582 13
 2116 005c BB68     		ldr	r3, [r7, #8]
 2117 005e 1B68     		ldr	r3, [r3]
 2118              		.loc 1 582 25
 2119 0060 D2B2     		uxtb	r2, r2
 2120 0062 1A70     		strb	r2, [r3]
 583:g:/iot/IoT_Device_Demo/iot_link/network/lwm2m/wakaama_lwm2m/wakaama-master/core/er-coap-13\er-coap-13.c ****     coap_pkt->buffer[0] |= COAP_HEADER_TOKEN_LEN_MASK & (coap_pkt->token_len) << COAP_HEADER_TOKEN_
 2121              		.loc 1 583 13
 2122 0064 BB68     		ldr	r3, [r7, #8]
 2123 0066 1B68     		ldr	r3, [r3]
 2124              		.loc 1 583 25
 2125 0068 1B78     		ldrb	r3, [r3]	@ zero_extendqisi2
 2126 006a 5AB2     		sxtb	r2, r3
 2127              		.loc 1 583 66
 2128 006c BB68     		ldr	r3, [r7, #8]
 2129 006e 93F84C30 		ldrb	r3, [r3, #76]	@ zero_extendqisi2
 2130 0072 5BB2     		sxtb	r3, r3
 2131              		.loc 1 583 55
 2132 0074 03F00F03 		and	r3, r3, #15
 2133 0078 5BB2     		sxtb	r3, r3
 2134              		.loc 1 583 25
 2135 007a 1343     		orrs	r3, r3, r2
 2136 007c 5AB2     		sxtb	r2, r3
 2137              		.loc 1 583 13
 2138 007e BB68     		ldr	r3, [r7, #8]
 2139 0080 1B68     		ldr	r3, [r3]
 2140              		.loc 1 583 25
 2141 0082 D2B2     		uxtb	r2, r2
 2142 0084 1A70     		strb	r2, [r3]
 584:g:/iot/IoT_Device_Demo/iot_link/network/lwm2m/wakaama_lwm2m/wakaama-master/core/er-coap-13\er-coap-13.c ****     coap_pkt->buffer[1] = coap_pkt->code;
 2143              		.loc 1 584 13
 2144 0086 BB68     		ldr	r3, [r7, #8]
 2145 0088 1B68     		ldr	r3, [r3]
 2146              		.loc 1 584 21
 2147 008a 0133     		adds	r3, r3, #1
 2148              		.loc 1 584 35
 2149 008c BA68     		ldr	r2, [r7, #8]
 2150 008e 9279     		ldrb	r2, [r2, #6]	@ zero_extendqisi2
 2151              		.loc 1 584 25
 2152 0090 1A70     		strb	r2, [r3]
 585:g:/iot/IoT_Device_Demo/iot_link/network/lwm2m/wakaama_lwm2m/wakaama-master/core/er-coap-13\er-coap-13.c ****     coap_pkt->buffer[2] = (uint8_t) ((coap_pkt->mid) >> 8);
 2153              		.loc 1 585 47
 2154 0092 BB68     		ldr	r3, [r7, #8]
 2155 0094 1B89     		ldrh	r3, [r3, #8]
 2156              		.loc 1 585 27
 2157 0096 1B0A     		lsrs	r3, r3, #8
 2158 0098 9AB2     		uxth	r2, r3
 2159              		.loc 1 585 13
 2160 009a BB68     		ldr	r3, [r7, #8]
 2161 009c 1B68     		ldr	r3, [r3]
 2162              		.loc 1 585 21
 2163 009e 0233     		adds	r3, r3, #2
 2164              		.loc 1 585 27
 2165 00a0 D2B2     		uxtb	r2, r2
 2166              		.loc 1 585 25
 2167 00a2 1A70     		strb	r2, [r3]
ARM GAS  C:\Users\ADMINI~1\AppData\Local\Temp\cc8DJu9v.s 			page 49


 586:g:/iot/IoT_Device_Demo/iot_link/network/lwm2m/wakaama_lwm2m/wakaama-master/core/er-coap-13\er-coap-13.c ****     coap_pkt->buffer[3] = (uint8_t) (coap_pkt->mid);
 2168              		.loc 1 586 46
 2169 00a4 BB68     		ldr	r3, [r7, #8]
 2170 00a6 1A89     		ldrh	r2, [r3, #8]
 2171              		.loc 1 586 13
 2172 00a8 BB68     		ldr	r3, [r7, #8]
 2173 00aa 1B68     		ldr	r3, [r3]
 2174              		.loc 1 586 21
 2175 00ac 0333     		adds	r3, r3, #3
 2176              		.loc 1 586 27
 2177 00ae D2B2     		uxtb	r2, r2
 2178              		.loc 1 586 25
 2179 00b0 1A70     		strb	r2, [r3]
 587:g:/iot/IoT_Device_Demo/iot_link/network/lwm2m/wakaama_lwm2m/wakaama-master/core/er-coap-13\er-coap-13.c **** 
 588:g:/iot/IoT_Device_Demo/iot_link/network/lwm2m/wakaama_lwm2m/wakaama-master/core/er-coap-13\er-coap-13.c ****     /* set Token */
 589:g:/iot/IoT_Device_Demo/iot_link/network/lwm2m/wakaama_lwm2m/wakaama-master/core/er-coap-13\er-coap-13.c ****     PRINTF("Token (len %u)", coap_pkt->token_len);
 590:g:/iot/IoT_Device_Demo/iot_link/network/lwm2m/wakaama_lwm2m/wakaama-master/core/er-coap-13\er-coap-13.c ****     option = coap_pkt->buffer + COAP_HEADER_LEN;
 2180              		.loc 1 590 22
 2181 00b2 BB68     		ldr	r3, [r7, #8]
 2182 00b4 1B68     		ldr	r3, [r3]
 2183              		.loc 1 590 12
 2184 00b6 0433     		adds	r3, r3, #4
 2185 00b8 FB61     		str	r3, [r7, #28]
 591:g:/iot/IoT_Device_Demo/iot_link/network/lwm2m/wakaama_lwm2m/wakaama-master/core/er-coap-13\er-coap-13.c ****     for (current_number = 0; current_number < coap_pkt->token_len; ++current_number)
 2186              		.loc 1 591 25
 2187 00ba 0023     		movs	r3, #0
 2188 00bc BB61     		str	r3, [r7, #24]
 2189              		.loc 1 591 5
 2190 00be 0CE0     		b	.L105
 2191              	.L106:
 592:g:/iot/IoT_Device_Demo/iot_link/network/lwm2m/wakaama_lwm2m/wakaama-master/core/er-coap-13\er-coap-13.c ****     {
 593:g:/iot/IoT_Device_Demo/iot_link/network/lwm2m/wakaama_lwm2m/wakaama-master/core/er-coap-13\er-coap-13.c ****         PRINTF(" %02X", coap_pkt->token[current_number]);
 594:g:/iot/IoT_Device_Demo/iot_link/network/lwm2m/wakaama_lwm2m/wakaama-master/core/er-coap-13\er-coap-13.c ****         *option = coap_pkt->token[current_number];
 2192              		.loc 1 594 34 discriminator 3
 2193 00c0 BA68     		ldr	r2, [r7, #8]
 2194 00c2 BB69     		ldr	r3, [r7, #24]
 2195 00c4 1344     		add	r3, r3, r2
 2196 00c6 4D33     		adds	r3, r3, #77
 2197 00c8 1A78     		ldrb	r2, [r3]	@ zero_extendqisi2
 2198              		.loc 1 594 17 discriminator 3
 2199 00ca FB69     		ldr	r3, [r7, #28]
 2200 00cc 1A70     		strb	r2, [r3]
 595:g:/iot/IoT_Device_Demo/iot_link/network/lwm2m/wakaama_lwm2m/wakaama-master/core/er-coap-13\er-coap-13.c ****         ++option;
 2201              		.loc 1 595 9 discriminator 3
 2202 00ce FB69     		ldr	r3, [r7, #28]
 2203 00d0 0133     		adds	r3, r3, #1
 2204 00d2 FB61     		str	r3, [r7, #28]
 591:g:/iot/IoT_Device_Demo/iot_link/network/lwm2m/wakaama_lwm2m/wakaama-master/core/er-coap-13\er-coap-13.c ****     for (current_number = 0; current_number < coap_pkt->token_len; ++current_number)
 2205              		.loc 1 591 68 discriminator 3
 2206 00d4 BB69     		ldr	r3, [r7, #24]
 2207 00d6 0133     		adds	r3, r3, #1
 2208 00d8 BB61     		str	r3, [r7, #24]
 2209              	.L105:
 591:g:/iot/IoT_Device_Demo/iot_link/network/lwm2m/wakaama_lwm2m/wakaama-master/core/er-coap-13\er-coap-13.c ****     for (current_number = 0; current_number < coap_pkt->token_len; ++current_number)
 2210              		.loc 1 591 55 discriminator 1
 2211 00da BB68     		ldr	r3, [r7, #8]
 2212 00dc 93F84C30 		ldrb	r3, [r3, #76]	@ zero_extendqisi2
ARM GAS  C:\Users\ADMINI~1\AppData\Local\Temp\cc8DJu9v.s 			page 50


 2213 00e0 1A46     		mov	r2, r3
 591:g:/iot/IoT_Device_Demo/iot_link/network/lwm2m/wakaama_lwm2m/wakaama-master/core/er-coap-13\er-coap-13.c ****     for (current_number = 0; current_number < coap_pkt->token_len; ++current_number)
 2214              		.loc 1 591 5 discriminator 1
 2215 00e2 BB69     		ldr	r3, [r7, #24]
 2216 00e4 9342     		cmp	r3, r2
 2217 00e6 EBD3     		bcc	.L106
 596:g:/iot/IoT_Device_Demo/iot_link/network/lwm2m/wakaama_lwm2m/wakaama-master/core/er-coap-13\er-coap-13.c ****     }
 597:g:/iot/IoT_Device_Demo/iot_link/network/lwm2m/wakaama_lwm2m/wakaama-master/core/er-coap-13\er-coap-13.c ****     PRINTF("-\n");
 598:g:/iot/IoT_Device_Demo/iot_link/network/lwm2m/wakaama_lwm2m/wakaama-master/core/er-coap-13\er-coap-13.c **** 
 599:g:/iot/IoT_Device_Demo/iot_link/network/lwm2m/wakaama_lwm2m/wakaama-master/core/er-coap-13\er-coap-13.c ****     /* Serialize options */
 600:g:/iot/IoT_Device_Demo/iot_link/network/lwm2m/wakaama_lwm2m/wakaama-master/core/er-coap-13\er-coap-13.c ****     current_number = 0;
 2218              		.loc 1 600 20
 2219 00e8 0023     		movs	r3, #0
 2220 00ea BB61     		str	r3, [r7, #24]
 601:g:/iot/IoT_Device_Demo/iot_link/network/lwm2m/wakaama_lwm2m/wakaama-master/core/er-coap-13\er-coap-13.c **** 
 602:g:/iot/IoT_Device_Demo/iot_link/network/lwm2m/wakaama_lwm2m/wakaama-master/core/er-coap-13\er-coap-13.c ****     PRINTF("-Serializing options at %p-\n", option);
 603:g:/iot/IoT_Device_Demo/iot_link/network/lwm2m/wakaama_lwm2m/wakaama-master/core/er-coap-13\er-coap-13.c **** 
 604:g:/iot/IoT_Device_Demo/iot_link/network/lwm2m/wakaama_lwm2m/wakaama-master/core/er-coap-13\er-coap-13.c ****     /* The options must be serialized in the order of their number */
 605:g:/iot/IoT_Device_Demo/iot_link/network/lwm2m/wakaama_lwm2m/wakaama-master/core/er-coap-13\er-coap-13.c ****     COAP_SERIALIZE_BYTE_OPTION(   COAP_OPTION_IF_MATCH,       if_match, "If-Match")
 2221              		.loc 1 605 5
 2222 00ec BB68     		ldr	r3, [r7, #8]
 2223 00ee 9B7A     		ldrb	r3, [r3, #10]	@ zero_extendqisi2
 2224 00f0 03F00203 		and	r3, r3, #2
 2225 00f4 002B     		cmp	r3, #0
 2226 00f6 15D0     		beq	.L107
 2227              		.loc 1 605 5 is_stmt 0 discriminator 1
 2228 00f8 BB68     		ldr	r3, [r7, #8]
 2229 00fa 03F15B02 		add	r2, r3, #91
 2230 00fe BB68     		ldr	r3, [r7, #8]
 2231 0100 93F85A30 		ldrb	r3, [r3, #90]	@ zero_extendqisi2
 2232 0104 1946     		mov	r1, r3
 2233 0106 0023     		movs	r3, #0
 2234 0108 0193     		str	r3, [sp, #4]
 2235 010a 0091     		str	r1, [sp]
 2236 010c 1346     		mov	r3, r2
 2237 010e FA69     		ldr	r2, [r7, #28]
 2238 0110 B969     		ldr	r1, [r7, #24]
 2239 0112 0120     		movs	r0, #1
 2240 0114 FFF7FEFF 		bl	coap_serialize_array_option
 2241 0118 0246     		mov	r2, r0
 2242 011a FB69     		ldr	r3, [r7, #28]
 2243 011c 1344     		add	r3, r3, r2
 2244 011e FB61     		str	r3, [r7, #28]
 2245 0120 0123     		movs	r3, #1
 2246 0122 BB61     		str	r3, [r7, #24]
 2247              	.L107:
 606:g:/iot/IoT_Device_Demo/iot_link/network/lwm2m/wakaama_lwm2m/wakaama-master/core/er-coap-13\er-coap-13.c ****     COAP_SERIALIZE_STRING_OPTION( COAP_OPTION_URI_HOST,       uri_host, '\0', "Uri-Host")
 2248              		.loc 1 606 5 is_stmt 1
 2249 0124 BB68     		ldr	r3, [r7, #8]
 2250 0126 9B7A     		ldrb	r3, [r3, #10]	@ zero_extendqisi2
 2251 0128 03F00803 		and	r3, r3, #8
 2252 012c 002B     		cmp	r3, #0
 2253 012e 12D0     		beq	.L108
 2254              		.loc 1 606 5 is_stmt 0 discriminator 1
 2255 0130 BB68     		ldr	r3, [r7, #8]
 2256 0132 1A6B     		ldr	r2, [r3, #48]
 2257 0134 BB68     		ldr	r3, [r7, #8]
ARM GAS  C:\Users\ADMINI~1\AppData\Local\Temp\cc8DJu9v.s 			page 51


 2258 0136 DB6A     		ldr	r3, [r3, #44]
 2259 0138 0021     		movs	r1, #0
 2260 013a 0191     		str	r1, [sp, #4]
 2261 013c 0093     		str	r3, [sp]
 2262 013e 1346     		mov	r3, r2
 2263 0140 FA69     		ldr	r2, [r7, #28]
 2264 0142 B969     		ldr	r1, [r7, #24]
 2265 0144 0320     		movs	r0, #3
 2266 0146 FFF7FEFF 		bl	coap_serialize_array_option
 2267 014a 0246     		mov	r2, r0
 2268 014c FB69     		ldr	r3, [r7, #28]
 2269 014e 1344     		add	r3, r3, r2
 2270 0150 FB61     		str	r3, [r7, #28]
 2271 0152 0323     		movs	r3, #3
 2272 0154 BB61     		str	r3, [r7, #24]
 2273              	.L108:
 607:g:/iot/IoT_Device_Demo/iot_link/network/lwm2m/wakaama_lwm2m/wakaama-master/core/er-coap-13\er-coap-13.c ****     COAP_SERIALIZE_BYTE_OPTION(   COAP_OPTION_ETAG,           etag, "ETag")
 2274              		.loc 1 607 5 is_stmt 1
 2275 0156 BB68     		ldr	r3, [r7, #8]
 2276 0158 9B7A     		ldrb	r3, [r3, #10]	@ zero_extendqisi2
 2277 015a 03F01003 		and	r3, r3, #16
 2278 015e 002B     		cmp	r3, #0
 2279 0160 15D0     		beq	.L109
 2280              		.loc 1 607 5 is_stmt 0 discriminator 1
 2281 0162 BB68     		ldr	r3, [r7, #8]
 2282 0164 03F12102 		add	r2, r3, #33
 2283 0168 BB68     		ldr	r3, [r7, #8]
 2284 016a 93F82030 		ldrb	r3, [r3, #32]	@ zero_extendqisi2
 2285 016e 1946     		mov	r1, r3
 2286 0170 0023     		movs	r3, #0
 2287 0172 0193     		str	r3, [sp, #4]
 2288 0174 0091     		str	r1, [sp]
 2289 0176 1346     		mov	r3, r2
 2290 0178 FA69     		ldr	r2, [r7, #28]
 2291 017a B969     		ldr	r1, [r7, #24]
 2292 017c 0420     		movs	r0, #4
 2293 017e FFF7FEFF 		bl	coap_serialize_array_option
 2294 0182 0246     		mov	r2, r0
 2295 0184 FB69     		ldr	r3, [r7, #28]
 2296 0186 1344     		add	r3, r3, r2
 2297 0188 FB61     		str	r3, [r7, #28]
 2298 018a 0423     		movs	r3, #4
 2299 018c BB61     		str	r3, [r7, #24]
 2300              	.L109:
 608:g:/iot/IoT_Device_Demo/iot_link/network/lwm2m/wakaama_lwm2m/wakaama-master/core/er-coap-13\er-coap-13.c ****     COAP_SERIALIZE_INT_OPTION(    COAP_OPTION_IF_NONE_MATCH,  content_type - coap_pkt->content_type
 2301              		.loc 1 608 5 is_stmt 1
 2302 018e BB68     		ldr	r3, [r7, #8]
 2303 0190 9B7A     		ldrb	r3, [r3, #10]	@ zero_extendqisi2
 2304 0192 03F02003 		and	r3, r3, #32
 2305 0196 002B     		cmp	r3, #0
 2306 0198 0BD0     		beq	.L110
 2307              		.loc 1 608 5 is_stmt 0 discriminator 1
 2308 019a 0023     		movs	r3, #0
 2309 019c FA69     		ldr	r2, [r7, #28]
 2310 019e B969     		ldr	r1, [r7, #24]
 2311 01a0 0520     		movs	r0, #5
 2312 01a2 FFF7FEFF 		bl	coap_serialize_int_option
ARM GAS  C:\Users\ADMINI~1\AppData\Local\Temp\cc8DJu9v.s 			page 52


 2313 01a6 0246     		mov	r2, r0
 2314 01a8 FB69     		ldr	r3, [r7, #28]
 2315 01aa 1344     		add	r3, r3, r2
 2316 01ac FB61     		str	r3, [r7, #28]
 2317 01ae 0523     		movs	r3, #5
 2318 01b0 BB61     		str	r3, [r7, #24]
 2319              	.L110:
 609:g:/iot/IoT_Device_Demo/iot_link/network/lwm2m/wakaama_lwm2m/wakaama-master/core/er-coap-13\er-coap-13.c ****     COAP_SERIALIZE_INT_OPTION(    COAP_OPTION_OBSERVE,        observe, "Observe")
 2320              		.loc 1 609 5 is_stmt 1
 2321 01b2 BB68     		ldr	r3, [r7, #8]
 2322 01b4 9B7A     		ldrb	r3, [r3, #10]	@ zero_extendqisi2
 2323 01b6 03F04003 		and	r3, r3, #64
 2324 01ba 002B     		cmp	r3, #0
 2325 01bc 0CD0     		beq	.L111
 2326              		.loc 1 609 5 is_stmt 0 discriminator 1
 2327 01be BB68     		ldr	r3, [r7, #8]
 2328 01c0 9B6C     		ldr	r3, [r3, #72]
 2329 01c2 FA69     		ldr	r2, [r7, #28]
 2330 01c4 B969     		ldr	r1, [r7, #24]
 2331 01c6 0620     		movs	r0, #6
 2332 01c8 FFF7FEFF 		bl	coap_serialize_int_option
 2333 01cc 0246     		mov	r2, r0
 2334 01ce FB69     		ldr	r3, [r7, #28]
 2335 01d0 1344     		add	r3, r3, r2
 2336 01d2 FB61     		str	r3, [r7, #28]
 2337 01d4 0623     		movs	r3, #6
 2338 01d6 BB61     		str	r3, [r7, #24]
 2339              	.L111:
 610:g:/iot/IoT_Device_Demo/iot_link/network/lwm2m/wakaama_lwm2m/wakaama-master/core/er-coap-13\er-coap-13.c ****     COAP_SERIALIZE_INT_OPTION(    COAP_OPTION_URI_PORT,       uri_port, "Uri-Port")
 2340              		.loc 1 610 5 is_stmt 1
 2341 01d8 BB68     		ldr	r3, [r7, #8]
 2342 01da 9B7A     		ldrb	r3, [r3, #10]	@ zero_extendqisi2
 2343 01dc 5BB2     		sxtb	r3, r3
 2344 01de 002B     		cmp	r3, #0
 2345 01e0 0CDA     		bge	.L112
 2346              		.loc 1 610 5 is_stmt 0 discriminator 1
 2347 01e2 BB68     		ldr	r3, [r7, #8]
 2348 01e4 1B8F     		ldrh	r3, [r3, #56]
 2349 01e6 FA69     		ldr	r2, [r7, #28]
 2350 01e8 B969     		ldr	r1, [r7, #24]
 2351 01ea 0720     		movs	r0, #7
 2352 01ec FFF7FEFF 		bl	coap_serialize_int_option
 2353 01f0 0246     		mov	r2, r0
 2354 01f2 FB69     		ldr	r3, [r7, #28]
 2355 01f4 1344     		add	r3, r3, r2
 2356 01f6 FB61     		str	r3, [r7, #28]
 2357 01f8 0723     		movs	r3, #7
 2358 01fa BB61     		str	r3, [r7, #24]
 2359              	.L112:
 611:g:/iot/IoT_Device_Demo/iot_link/network/lwm2m/wakaama_lwm2m/wakaama-master/core/er-coap-13\er-coap-13.c ****     COAP_SERIALIZE_MULTI_OPTION(  COAP_OPTION_LOCATION_PATH,  location_path, "Location-Path")
 2360              		.loc 1 611 5 is_stmt 1
 2361 01fc BB68     		ldr	r3, [r7, #8]
 2362 01fe DB7A     		ldrb	r3, [r3, #11]	@ zero_extendqisi2
 2363 0200 03F00103 		and	r3, r3, #1
 2364 0204 002B     		cmp	r3, #0
 2365 0206 0CD0     		beq	.L113
 2366              		.loc 1 611 5 is_stmt 0 discriminator 1
ARM GAS  C:\Users\ADMINI~1\AppData\Local\Temp\cc8DJu9v.s 			page 53


 2367 0208 BB68     		ldr	r3, [r7, #8]
 2368 020a 5B6B     		ldr	r3, [r3, #52]
 2369 020c FA69     		ldr	r2, [r7, #28]
 2370 020e B969     		ldr	r1, [r7, #24]
 2371 0210 0820     		movs	r0, #8
 2372 0212 FFF7FEFF 		bl	coap_serialize_multi_option
 2373 0216 0246     		mov	r2, r0
 2374 0218 FB69     		ldr	r3, [r7, #28]
 2375 021a 1344     		add	r3, r3, r2
 2376 021c FB61     		str	r3, [r7, #28]
 2377 021e 0823     		movs	r3, #8
 2378 0220 BB61     		str	r3, [r7, #24]
 2379              	.L113:
 612:g:/iot/IoT_Device_Demo/iot_link/network/lwm2m/wakaama_lwm2m/wakaama-master/core/er-coap-13\er-coap-13.c ****     COAP_SERIALIZE_MULTI_OPTION(  COAP_OPTION_URI_PATH,       uri_path, "Uri-Path")
 2380              		.loc 1 612 5 is_stmt 1
 2381 0222 BB68     		ldr	r3, [r7, #8]
 2382 0224 DB7A     		ldrb	r3, [r3, #11]	@ zero_extendqisi2
 2383 0226 03F00803 		and	r3, r3, #8
 2384 022a 002B     		cmp	r3, #0
 2385 022c 0CD0     		beq	.L114
 2386              		.loc 1 612 5 is_stmt 0 discriminator 1
 2387 022e BB68     		ldr	r3, [r7, #8]
 2388 0230 5B6C     		ldr	r3, [r3, #68]
 2389 0232 FA69     		ldr	r2, [r7, #28]
 2390 0234 B969     		ldr	r1, [r7, #24]
 2391 0236 0B20     		movs	r0, #11
 2392 0238 FFF7FEFF 		bl	coap_serialize_multi_option
 2393 023c 0246     		mov	r2, r0
 2394 023e FB69     		ldr	r3, [r7, #28]
 2395 0240 1344     		add	r3, r3, r2
 2396 0242 FB61     		str	r3, [r7, #28]
 2397 0244 0B23     		movs	r3, #11
 2398 0246 BB61     		str	r3, [r7, #24]
 2399              	.L114:
 613:g:/iot/IoT_Device_Demo/iot_link/network/lwm2m/wakaama_lwm2m/wakaama-master/core/er-coap-13\er-coap-13.c ****     COAP_SERIALIZE_INT_OPTION(    COAP_OPTION_CONTENT_TYPE,   content_type, "Content-Format")
 2400              		.loc 1 613 5 is_stmt 1
 2401 0248 BB68     		ldr	r3, [r7, #8]
 2402 024a DB7A     		ldrb	r3, [r3, #11]	@ zero_extendqisi2
 2403 024c 03F01003 		and	r3, r3, #16
 2404 0250 002B     		cmp	r3, #0
 2405 0252 0CD0     		beq	.L115
 2406              		.loc 1 613 5 is_stmt 0 discriminator 1
 2407 0254 BB68     		ldr	r3, [r7, #8]
 2408 0256 1B8A     		ldrh	r3, [r3, #16]
 2409 0258 FA69     		ldr	r2, [r7, #28]
 2410 025a B969     		ldr	r1, [r7, #24]
 2411 025c 0C20     		movs	r0, #12
 2412 025e FFF7FEFF 		bl	coap_serialize_int_option
 2413 0262 0246     		mov	r2, r0
 2414 0264 FB69     		ldr	r3, [r7, #28]
 2415 0266 1344     		add	r3, r3, r2
 2416 0268 FB61     		str	r3, [r7, #28]
 2417 026a 0C23     		movs	r3, #12
 2418 026c BB61     		str	r3, [r7, #24]
 2419              	.L115:
 614:g:/iot/IoT_Device_Demo/iot_link/network/lwm2m/wakaama_lwm2m/wakaama-master/core/er-coap-13\er-coap-13.c ****     COAP_SERIALIZE_INT_OPTION(    COAP_OPTION_MAX_AGE,        max_age, "Max-Age")
 2420              		.loc 1 614 5 is_stmt 1
ARM GAS  C:\Users\ADMINI~1\AppData\Local\Temp\cc8DJu9v.s 			page 54


 2421 026e BB68     		ldr	r3, [r7, #8]
 2422 0270 DB7A     		ldrb	r3, [r3, #11]	@ zero_extendqisi2
 2423 0272 03F04003 		and	r3, r3, #64
 2424 0276 002B     		cmp	r3, #0
 2425 0278 0CD0     		beq	.L116
 2426              		.loc 1 614 5 is_stmt 0 discriminator 1
 2427 027a BB68     		ldr	r3, [r7, #8]
 2428 027c 5B69     		ldr	r3, [r3, #20]
 2429 027e FA69     		ldr	r2, [r7, #28]
 2430 0280 B969     		ldr	r1, [r7, #24]
 2431 0282 0E20     		movs	r0, #14
 2432 0284 FFF7FEFF 		bl	coap_serialize_int_option
 2433 0288 0246     		mov	r2, r0
 2434 028a FB69     		ldr	r3, [r7, #28]
 2435 028c 1344     		add	r3, r3, r2
 2436 028e FB61     		str	r3, [r7, #28]
 2437 0290 0E23     		movs	r3, #14
 2438 0292 BB61     		str	r3, [r7, #24]
 2439              	.L116:
 615:g:/iot/IoT_Device_Demo/iot_link/network/lwm2m/wakaama_lwm2m/wakaama-master/core/er-coap-13\er-coap-13.c ****     COAP_SERIALIZE_MULTI_OPTION(  COAP_OPTION_URI_QUERY,      uri_query, "Uri-Query")
 2440              		.loc 1 615 5 is_stmt 1
 2441 0294 BB68     		ldr	r3, [r7, #8]
 2442 0296 DB7A     		ldrb	r3, [r3, #11]	@ zero_extendqisi2
 2443 0298 5BB2     		sxtb	r3, r3
 2444 029a 002B     		cmp	r3, #0
 2445 029c 0DDA     		bge	.L117
 2446              		.loc 1 615 5 is_stmt 0 discriminator 1
 2447 029e BB68     		ldr	r3, [r7, #8]
 2448 02a0 D3F88030 		ldr	r3, [r3, #128]
 2449 02a4 FA69     		ldr	r2, [r7, #28]
 2450 02a6 B969     		ldr	r1, [r7, #24]
 2451 02a8 0F20     		movs	r0, #15
 2452 02aa FFF7FEFF 		bl	coap_serialize_multi_option
 2453 02ae 0246     		mov	r2, r0
 2454 02b0 FB69     		ldr	r3, [r7, #28]
 2455 02b2 1344     		add	r3, r3, r2
 2456 02b4 FB61     		str	r3, [r7, #28]
 2457 02b6 0F23     		movs	r3, #15
 2458 02b8 BB61     		str	r3, [r7, #24]
 2459              	.L117:
 616:g:/iot/IoT_Device_Demo/iot_link/network/lwm2m/wakaama_lwm2m/wakaama-master/core/er-coap-13\er-coap-13.c ****     COAP_SERIALIZE_ACCEPT_OPTION( COAP_OPTION_ACCEPT,         accept, "Accept")
 2460              		.loc 1 616 5 is_stmt 1
 2461 02ba BB68     		ldr	r3, [r7, #8]
 2462 02bc 1B7B     		ldrb	r3, [r3, #12]	@ zero_extendqisi2
 2463 02be 03F00203 		and	r3, r3, #2
 2464 02c2 002B     		cmp	r3, #0
 2465 02c4 1DD0     		beq	.L118
 2466              	.LBB9:
 2467              		.loc 1 616 5 is_stmt 0 discriminator 1
 2468 02c6 0023     		movs	r3, #0
 2469 02c8 7B61     		str	r3, [r7, #20]
 2470 02ca 13E0     		b	.L119
 2471              	.L120:
 2472              		.loc 1 616 5 discriminator 4
 2473 02cc BA68     		ldr	r2, [r7, #8]
 2474 02ce 7B69     		ldr	r3, [r7, #20]
 2475 02d0 2833     		adds	r3, r3, #40
ARM GAS  C:\Users\ADMINI~1\AppData\Local\Temp\cc8DJu9v.s 			page 55


 2476 02d2 5B00     		lsls	r3, r3, #1
 2477 02d4 1344     		add	r3, r3, r2
 2478 02d6 DB88     		ldrh	r3, [r3, #6]
 2479 02d8 FA69     		ldr	r2, [r7, #28]
 2480 02da B969     		ldr	r1, [r7, #24]
 2481 02dc 1120     		movs	r0, #17
 2482 02de FFF7FEFF 		bl	coap_serialize_int_option
 2483 02e2 0246     		mov	r2, r0
 2484 02e4 FB69     		ldr	r3, [r7, #28]
 2485 02e6 1344     		add	r3, r3, r2
 2486 02e8 FB61     		str	r3, [r7, #28]
 2487 02ea 1123     		movs	r3, #17
 2488 02ec BB61     		str	r3, [r7, #24]
 2489 02ee 7B69     		ldr	r3, [r7, #20]
 2490 02f0 0133     		adds	r3, r3, #1
 2491 02f2 7B61     		str	r3, [r7, #20]
 2492              	.L119:
 2493              		.loc 1 616 5 discriminator 2
 2494 02f4 BB68     		ldr	r3, [r7, #8]
 2495 02f6 93F85530 		ldrb	r3, [r3, #85]	@ zero_extendqisi2
 2496 02fa 1A46     		mov	r2, r3
 2497 02fc 7B69     		ldr	r3, [r7, #20]
 2498 02fe 9342     		cmp	r3, r2
 2499 0300 E4DB     		blt	.L120
 2500              	.L118:
 2501              	.LBE9:
 617:g:/iot/IoT_Device_Demo/iot_link/network/lwm2m/wakaama_lwm2m/wakaama-master/core/er-coap-13\er-coap-13.c ****     COAP_SERIALIZE_STRING_OPTION( COAP_OPTION_LOCATION_QUERY, location_query, '&', "Location-Query"
 2502              		.loc 1 617 5 is_stmt 1
 2503 0302 BB68     		ldr	r3, [r7, #8]
 2504 0304 1B7B     		ldrb	r3, [r3, #12]	@ zero_extendqisi2
 2505 0306 03F01003 		and	r3, r3, #16
 2506 030a 002B     		cmp	r3, #0
 2507 030c 12D0     		beq	.L121
 2508              		.loc 1 617 5 is_stmt 0 discriminator 1
 2509 030e BB68     		ldr	r3, [r7, #8]
 2510 0310 1A6C     		ldr	r2, [r3, #64]
 2511 0312 BB68     		ldr	r3, [r7, #8]
 2512 0314 DB6B     		ldr	r3, [r3, #60]
 2513 0316 2621     		movs	r1, #38
 2514 0318 0191     		str	r1, [sp, #4]
 2515 031a 0093     		str	r3, [sp]
 2516 031c 1346     		mov	r3, r2
 2517 031e FA69     		ldr	r2, [r7, #28]
 2518 0320 B969     		ldr	r1, [r7, #24]
 2519 0322 1420     		movs	r0, #20
 2520 0324 FFF7FEFF 		bl	coap_serialize_array_option
 2521 0328 0246     		mov	r2, r0
 2522 032a FB69     		ldr	r3, [r7, #28]
 2523 032c 1344     		add	r3, r3, r2
 2524 032e FB61     		str	r3, [r7, #28]
 2525 0330 1423     		movs	r3, #20
 2526 0332 BB61     		str	r3, [r7, #24]
 2527              	.L121:
 618:g:/iot/IoT_Device_Demo/iot_link/network/lwm2m/wakaama_lwm2m/wakaama-master/core/er-coap-13\er-coap-13.c ****     COAP_SERIALIZE_BLOCK_OPTION(  COAP_OPTION_BLOCK2,         block2, "Block2")
 2528              		.loc 1 618 5 is_stmt 1
 2529 0334 BB68     		ldr	r3, [r7, #8]
 2530 0336 1B7B     		ldrb	r3, [r3, #12]	@ zero_extendqisi2
ARM GAS  C:\Users\ADMINI~1\AppData\Local\Temp\cc8DJu9v.s 			page 56


 2531 0338 5BB2     		sxtb	r3, r3
 2532 033a 002B     		cmp	r3, #0
 2533 033c 27DA     		bge	.L122
 2534              	.LBB10:
 2535              		.loc 1 618 5 is_stmt 0 discriminator 1
 2536 033e BB68     		ldr	r3, [r7, #8]
 2537 0340 5B6E     		ldr	r3, [r3, #100]
 2538 0342 1B01     		lsls	r3, r3, #4
 2539 0344 3B61     		str	r3, [r7, #16]
 2540 0346 BB68     		ldr	r3, [r7, #8]
 2541 0348 93F86830 		ldrb	r3, [r3, #104]	@ zero_extendqisi2
 2542 034c 002B     		cmp	r3, #0
 2543 034e 03D0     		beq	.L123
 2544              		.loc 1 618 5 discriminator 2
 2545 0350 3B69     		ldr	r3, [r7, #16]
 2546 0352 43F00803 		orr	r3, r3, #8
 2547 0356 3B61     		str	r3, [r7, #16]
 2548              	.L123:
 2549              		.loc 1 618 5 discriminator 4
 2550 0358 BB68     		ldr	r3, [r7, #8]
 2551 035a B3F86A30 		ldrh	r3, [r3, #106]
 2552 035e 1B09     		lsrs	r3, r3, #4
 2553 0360 9BB2     		uxth	r3, r3
 2554 0362 1846     		mov	r0, r3
 2555 0364 FFF7FEFF 		bl	coap_log_2
 2556 0368 0346     		mov	r3, r0
 2557 036a 03F00F03 		and	r3, r3, #15
 2558 036e 1A46     		mov	r2, r3
 2559 0370 3B69     		ldr	r3, [r7, #16]
 2560 0372 1343     		orrs	r3, r3, r2
 2561 0374 3B61     		str	r3, [r7, #16]
 2562 0376 3B69     		ldr	r3, [r7, #16]
 2563 0378 FA69     		ldr	r2, [r7, #28]
 2564 037a B969     		ldr	r1, [r7, #24]
 2565 037c 1720     		movs	r0, #23
 2566 037e FFF7FEFF 		bl	coap_serialize_int_option
 2567 0382 0246     		mov	r2, r0
 2568 0384 FB69     		ldr	r3, [r7, #28]
 2569 0386 1344     		add	r3, r3, r2
 2570 0388 FB61     		str	r3, [r7, #28]
 2571 038a 1723     		movs	r3, #23
 2572 038c BB61     		str	r3, [r7, #24]
 2573              	.L122:
 2574              	.LBE10:
 619:g:/iot/IoT_Device_Demo/iot_link/network/lwm2m/wakaama_lwm2m/wakaama-master/core/er-coap-13\er-coap-13.c ****     COAP_SERIALIZE_BLOCK_OPTION(  COAP_OPTION_BLOCK1,         block1, "Block1")
 2575              		.loc 1 619 5 is_stmt 1
 2576 038e BB68     		ldr	r3, [r7, #8]
 2577 0390 5B7B     		ldrb	r3, [r3, #13]	@ zero_extendqisi2
 2578 0392 03F00803 		and	r3, r3, #8
 2579 0396 002B     		cmp	r3, #0
 2580 0398 27D0     		beq	.L124
 2581              	.LBB11:
 2582              		.loc 1 619 5 is_stmt 0 discriminator 1
 2583 039a BB68     		ldr	r3, [r7, #8]
 2584 039c 1B6F     		ldr	r3, [r3, #112]
 2585 039e 1B01     		lsls	r3, r3, #4
 2586 03a0 FB60     		str	r3, [r7, #12]
ARM GAS  C:\Users\ADMINI~1\AppData\Local\Temp\cc8DJu9v.s 			page 57


 2587 03a2 BB68     		ldr	r3, [r7, #8]
 2588 03a4 93F87430 		ldrb	r3, [r3, #116]	@ zero_extendqisi2
 2589 03a8 002B     		cmp	r3, #0
 2590 03aa 03D0     		beq	.L125
 2591              		.loc 1 619 5 discriminator 2
 2592 03ac FB68     		ldr	r3, [r7, #12]
 2593 03ae 43F00803 		orr	r3, r3, #8
 2594 03b2 FB60     		str	r3, [r7, #12]
 2595              	.L125:
 2596              		.loc 1 619 5 discriminator 4
 2597 03b4 BB68     		ldr	r3, [r7, #8]
 2598 03b6 B3F87630 		ldrh	r3, [r3, #118]
 2599 03ba 1B09     		lsrs	r3, r3, #4
 2600 03bc 9BB2     		uxth	r3, r3
 2601 03be 1846     		mov	r0, r3
 2602 03c0 FFF7FEFF 		bl	coap_log_2
 2603 03c4 0346     		mov	r3, r0
 2604 03c6 03F00F03 		and	r3, r3, #15
 2605 03ca 1A46     		mov	r2, r3
 2606 03cc FB68     		ldr	r3, [r7, #12]
 2607 03ce 1343     		orrs	r3, r3, r2
 2608 03d0 FB60     		str	r3, [r7, #12]
 2609 03d2 FB68     		ldr	r3, [r7, #12]
 2610 03d4 FA69     		ldr	r2, [r7, #28]
 2611 03d6 B969     		ldr	r1, [r7, #24]
 2612 03d8 1B20     		movs	r0, #27
 2613 03da FFF7FEFF 		bl	coap_serialize_int_option
 2614 03de 0246     		mov	r2, r0
 2615 03e0 FB69     		ldr	r3, [r7, #28]
 2616 03e2 1344     		add	r3, r3, r2
 2617 03e4 FB61     		str	r3, [r7, #28]
 2618 03e6 1B23     		movs	r3, #27
 2619 03e8 BB61     		str	r3, [r7, #24]
 2620              	.L124:
 2621              	.LBE11:
 620:g:/iot/IoT_Device_Demo/iot_link/network/lwm2m/wakaama_lwm2m/wakaama-master/core/er-coap-13\er-coap-13.c ****     COAP_SERIALIZE_INT_OPTION(    COAP_OPTION_SIZE,           size, "Size")
 2622              		.loc 1 620 5 is_stmt 1
 2623 03ea BB68     		ldr	r3, [r7, #8]
 2624 03ec 5B7B     		ldrb	r3, [r3, #13]	@ zero_extendqisi2
 2625 03ee 03F01003 		and	r3, r3, #16
 2626 03f2 002B     		cmp	r3, #0
 2627 03f4 0CD0     		beq	.L126
 2628              		.loc 1 620 5 is_stmt 0 discriminator 1
 2629 03f6 BB68     		ldr	r3, [r7, #8]
 2630 03f8 DB6F     		ldr	r3, [r3, #124]
 2631 03fa FA69     		ldr	r2, [r7, #28]
 2632 03fc B969     		ldr	r1, [r7, #24]
 2633 03fe 1C20     		movs	r0, #28
 2634 0400 FFF7FEFF 		bl	coap_serialize_int_option
 2635 0404 0246     		mov	r2, r0
 2636 0406 FB69     		ldr	r3, [r7, #28]
 2637 0408 1344     		add	r3, r3, r2
 2638 040a FB61     		str	r3, [r7, #28]
 2639 040c 1C23     		movs	r3, #28
 2640 040e BB61     		str	r3, [r7, #24]
 2641              	.L126:
 621:g:/iot/IoT_Device_Demo/iot_link/network/lwm2m/wakaama_lwm2m/wakaama-master/core/er-coap-13\er-coap-13.c ****     COAP_SERIALIZE_STRING_OPTION( COAP_OPTION_PROXY_URI,      proxy_uri, '\0', "Proxy-Uri")
ARM GAS  C:\Users\ADMINI~1\AppData\Local\Temp\cc8DJu9v.s 			page 58


 2642              		.loc 1 621 5 is_stmt 1
 2643 0410 BB68     		ldr	r3, [r7, #8]
 2644 0412 9B7B     		ldrb	r3, [r3, #14]	@ zero_extendqisi2
 2645 0414 03F00803 		and	r3, r3, #8
 2646 0418 002B     		cmp	r3, #0
 2647 041a 12D0     		beq	.L127
 2648              		.loc 1 621 5 is_stmt 0 discriminator 1
 2649 041c BB68     		ldr	r3, [r7, #8]
 2650 041e DA69     		ldr	r2, [r3, #28]
 2651 0420 BB68     		ldr	r3, [r7, #8]
 2652 0422 9B69     		ldr	r3, [r3, #24]
 2653 0424 0021     		movs	r1, #0
 2654 0426 0191     		str	r1, [sp, #4]
 2655 0428 0093     		str	r3, [sp]
 2656 042a 1346     		mov	r3, r2
 2657 042c FA69     		ldr	r2, [r7, #28]
 2658 042e B969     		ldr	r1, [r7, #24]
 2659 0430 2320     		movs	r0, #35
 2660 0432 FFF7FEFF 		bl	coap_serialize_array_option
 2661 0436 0246     		mov	r2, r0
 2662 0438 FB69     		ldr	r3, [r7, #28]
 2663 043a 1344     		add	r3, r3, r2
 2664 043c FB61     		str	r3, [r7, #28]
 2665 043e 2323     		movs	r3, #35
 2666 0440 BB61     		str	r3, [r7, #24]
 2667              	.L127:
 622:g:/iot/IoT_Device_Demo/iot_link/network/lwm2m/wakaama_lwm2m/wakaama-master/core/er-coap-13\er-coap-13.c **** 
 623:g:/iot/IoT_Device_Demo/iot_link/network/lwm2m/wakaama_lwm2m/wakaama-master/core/er-coap-13\er-coap-13.c ****     PRINTF("-Done serializing at %p----\n", option);
 624:g:/iot/IoT_Device_Demo/iot_link/network/lwm2m/wakaama_lwm2m/wakaama-master/core/er-coap-13\er-coap-13.c **** 
 625:g:/iot/IoT_Device_Demo/iot_link/network/lwm2m/wakaama_lwm2m/wakaama-master/core/er-coap-13\er-coap-13.c ****     /* Free allocated header fields */
 626:g:/iot/IoT_Device_Demo/iot_link/network/lwm2m/wakaama_lwm2m/wakaama-master/core/er-coap-13\er-coap-13.c ****     coap_free_header(packet);
 2668              		.loc 1 626 5 is_stmt 1
 2669 0442 7868     		ldr	r0, [r7, #4]
 2670 0444 FFF7FEFF 		bl	coap_free_header
 627:g:/iot/IoT_Device_Demo/iot_link/network/lwm2m/wakaama_lwm2m/wakaama-master/core/er-coap-13\er-coap-13.c **** 
 628:g:/iot/IoT_Device_Demo/iot_link/network/lwm2m/wakaama_lwm2m/wakaama-master/core/er-coap-13\er-coap-13.c ****     /* Pack payload */
 629:g:/iot/IoT_Device_Demo/iot_link/network/lwm2m/wakaama_lwm2m/wakaama-master/core/er-coap-13\er-coap-13.c ****     /* Payload marker */
 630:g:/iot/IoT_Device_Demo/iot_link/network/lwm2m/wakaama_lwm2m/wakaama-master/core/er-coap-13\er-coap-13.c ****     if (coap_pkt->payload_len)
 2671              		.loc 1 630 17
 2672 0448 BB68     		ldr	r3, [r7, #8]
 2673 044a B3F88630 		ldrh	r3, [r3, #134]
 2674              		.loc 1 630 8
 2675 044e 002B     		cmp	r3, #0
 2676 0450 05D0     		beq	.L128
 631:g:/iot/IoT_Device_Demo/iot_link/network/lwm2m/wakaama_lwm2m/wakaama-master/core/er-coap-13\er-coap-13.c ****     {
 632:g:/iot/IoT_Device_Demo/iot_link/network/lwm2m/wakaama_lwm2m/wakaama-master/core/er-coap-13\er-coap-13.c ****         *option = 0xFF;
 2677              		.loc 1 632 17
 2678 0452 FB69     		ldr	r3, [r7, #28]
 2679 0454 FF22     		movs	r2, #255
 2680 0456 1A70     		strb	r2, [r3]
 633:g:/iot/IoT_Device_Demo/iot_link/network/lwm2m/wakaama_lwm2m/wakaama-master/core/er-coap-13\er-coap-13.c ****         ++option;
 2681              		.loc 1 633 9
 2682 0458 FB69     		ldr	r3, [r7, #28]
 2683 045a 0133     		adds	r3, r3, #1
 2684 045c FB61     		str	r3, [r7, #28]
 2685              	.L128:
 634:g:/iot/IoT_Device_Demo/iot_link/network/lwm2m/wakaama_lwm2m/wakaama-master/core/er-coap-13\er-coap-13.c ****     }
ARM GAS  C:\Users\ADMINI~1\AppData\Local\Temp\cc8DJu9v.s 			page 59


 635:g:/iot/IoT_Device_Demo/iot_link/network/lwm2m/wakaama_lwm2m/wakaama-master/core/er-coap-13\er-coap-13.c **** 
 636:g:/iot/IoT_Device_Demo/iot_link/network/lwm2m/wakaama_lwm2m/wakaama-master/core/er-coap-13\er-coap-13.c ****     memmove(option, coap_pkt->payload, coap_pkt->payload_len);
 2686              		.loc 1 636 29
 2687 045e BB68     		ldr	r3, [r7, #8]
 2688 0460 D3F88810 		ldr	r1, [r3, #136]
 2689              		.loc 1 636 48
 2690 0464 BB68     		ldr	r3, [r7, #8]
 2691 0466 B3F88630 		ldrh	r3, [r3, #134]
 2692              		.loc 1 636 5
 2693 046a 1A46     		mov	r2, r3
 2694 046c F869     		ldr	r0, [r7, #28]
 2695 046e FFF7FEFF 		bl	memmove
 637:g:/iot/IoT_Device_Demo/iot_link/network/lwm2m/wakaama_lwm2m/wakaama-master/core/er-coap-13\er-coap-13.c **** 
 638:g:/iot/IoT_Device_Demo/iot_link/network/lwm2m/wakaama_lwm2m/wakaama-master/core/er-coap-13\er-coap-13.c ****     PRINTF("-Done %u B (header len %u, payload len %u)-\n", coap_pkt->payload_len + option - buffer
 639:g:/iot/IoT_Device_Demo/iot_link/network/lwm2m/wakaama_lwm2m/wakaama-master/core/er-coap-13\er-coap-13.c **** 
 640:g:/iot/IoT_Device_Demo/iot_link/network/lwm2m/wakaama_lwm2m/wakaama-master/core/er-coap-13\er-coap-13.c ****     PRINTF("Dump [0x%02X %02X %02X %02X  %02X %02X %02X %02X]\n",
 641:g:/iot/IoT_Device_Demo/iot_link/network/lwm2m/wakaama_lwm2m/wakaama-master/core/er-coap-13\er-coap-13.c ****            coap_pkt->buffer[0],
 642:g:/iot/IoT_Device_Demo/iot_link/network/lwm2m/wakaama_lwm2m/wakaama-master/core/er-coap-13\er-coap-13.c ****            coap_pkt->buffer[1],
 643:g:/iot/IoT_Device_Demo/iot_link/network/lwm2m/wakaama_lwm2m/wakaama-master/core/er-coap-13\er-coap-13.c ****            coap_pkt->buffer[2],
 644:g:/iot/IoT_Device_Demo/iot_link/network/lwm2m/wakaama_lwm2m/wakaama-master/core/er-coap-13\er-coap-13.c ****            coap_pkt->buffer[3],
 645:g:/iot/IoT_Device_Demo/iot_link/network/lwm2m/wakaama_lwm2m/wakaama-master/core/er-coap-13\er-coap-13.c ****            coap_pkt->buffer[4],
 646:g:/iot/IoT_Device_Demo/iot_link/network/lwm2m/wakaama_lwm2m/wakaama-master/core/er-coap-13\er-coap-13.c ****            coap_pkt->buffer[5],
 647:g:/iot/IoT_Device_Demo/iot_link/network/lwm2m/wakaama_lwm2m/wakaama-master/core/er-coap-13\er-coap-13.c ****            coap_pkt->buffer[6],
 648:g:/iot/IoT_Device_Demo/iot_link/network/lwm2m/wakaama_lwm2m/wakaama-master/core/er-coap-13\er-coap-13.c ****            coap_pkt->buffer[7]
 649:g:/iot/IoT_Device_Demo/iot_link/network/lwm2m/wakaama_lwm2m/wakaama-master/core/er-coap-13\er-coap-13.c ****           );
 650:g:/iot/IoT_Device_Demo/iot_link/network/lwm2m/wakaama_lwm2m/wakaama-master/core/er-coap-13\er-coap-13.c **** 
 651:g:/iot/IoT_Device_Demo/iot_link/network/lwm2m/wakaama_lwm2m/wakaama-master/core/er-coap-13\er-coap-13.c ****     return (option - buffer) + coap_pkt->payload_len; /* packet length */
 2696              		.loc 1 651 20
 2697 0472 FA69     		ldr	r2, [r7, #28]
 2698 0474 3B68     		ldr	r3, [r7]
 2699 0476 D31A     		subs	r3, r2, r3
 2700              		.loc 1 651 40
 2701 0478 BA68     		ldr	r2, [r7, #8]
 2702 047a B2F88620 		ldrh	r2, [r2, #134]
 2703              		.loc 1 651 30
 2704 047e 1344     		add	r3, r3, r2
 652:g:/iot/IoT_Device_Demo/iot_link/network/lwm2m/wakaama_lwm2m/wakaama-master/core/er-coap-13\er-coap-13.c **** }
 2705              		.loc 1 652 1
 2706 0480 1846     		mov	r0, r3
 2707 0482 2037     		adds	r7, r7, #32
 2708              	.LCFI86:
 2709              		.cfi_def_cfa_offset 8
 2710 0484 BD46     		mov	sp, r7
 2711              	.LCFI87:
 2712              		.cfi_def_cfa_register 13
 2713              		@ sp needed
 2714 0486 80BD     		pop	{r7, pc}
 2715              		.cfi_endproc
 2716              	.LFE20:
 2718              		.section	.rodata
 2719 0001 000000   		.align	2
 2720              	.LC1:
 2721 0004 436F4150 		.ascii	"CoAP version must be 1\000"
 2721      20766572 
 2721      73696F6E 
 2721      206D7573 
 2721      74206265 
ARM GAS  C:\Users\ADMINI~1\AppData\Local\Temp\cc8DJu9v.s 			page 60


 2722 001b 00       		.align	2
 2723              	.LC2:
 2724 001c 54686973 		.ascii	"This is a constrained server (Contiki)\000"
 2724      20697320 
 2724      6120636F 
 2724      6E737472 
 2724      61696E65 
 2725 0043 00       		.align	2
 2726              	.LC3:
 2727 0044 556E7375 		.ascii	"Unsupported critical option\000"
 2727      70706F72 
 2727      74656420 
 2727      63726974 
 2727      6963616C 
 2728              		.section	.text.coap_parse_message,"ax",%progbits
 2729              		.align	1
 2730              		.global	coap_parse_message
 2731              		.syntax unified
 2732              		.thumb
 2733              		.thumb_func
 2734              		.fpu fpv4-sp-d16
 2736              	coap_parse_message:
 2737              	.LFB21:
 653:g:/iot/IoT_Device_Demo/iot_link/network/lwm2m/wakaama_lwm2m/wakaama-master/core/er-coap-13\er-coap-13.c **** /*-----------------------------------------------------------------------------------*/
 654:g:/iot/IoT_Device_Demo/iot_link/network/lwm2m/wakaama_lwm2m/wakaama-master/core/er-coap-13\er-coap-13.c **** coap_status_t
 655:g:/iot/IoT_Device_Demo/iot_link/network/lwm2m/wakaama_lwm2m/wakaama-master/core/er-coap-13\er-coap-13.c **** coap_parse_message(void *packet, uint8_t *data, uint16_t data_len)
 656:g:/iot/IoT_Device_Demo/iot_link/network/lwm2m/wakaama_lwm2m/wakaama-master/core/er-coap-13\er-coap-13.c **** {
 2738              		.loc 1 656 1
 2739              		.cfi_startproc
 2740              		@ args = 0, pretend = 0, frame = 40
 2741              		@ frame_needed = 1, uses_anonymous_args = 0
 2742 0000 80B5     		push	{r7, lr}
 2743              	.LCFI88:
 2744              		.cfi_def_cfa_offset 8
 2745              		.cfi_offset 7, -8
 2746              		.cfi_offset 14, -4
 2747 0002 8CB0     		sub	sp, sp, #48
 2748              	.LCFI89:
 2749              		.cfi_def_cfa_offset 56
 2750 0004 02AF     		add	r7, sp, #8
 2751              	.LCFI90:
 2752              		.cfi_def_cfa 7, 48
 2753 0006 F860     		str	r0, [r7, #12]
 2754 0008 B960     		str	r1, [r7, #8]
 2755 000a 1346     		mov	r3, r2
 2756 000c FB80     		strh	r3, [r7, #6]	@ movhi
 657:g:/iot/IoT_Device_Demo/iot_link/network/lwm2m/wakaama_lwm2m/wakaama-master/core/er-coap-13\er-coap-13.c ****     coap_packet_t *const coap_pkt = (coap_packet_t *) packet;
 2757              		.loc 1 657 26
 2758 000e FB68     		ldr	r3, [r7, #12]
 2759 0010 BB61     		str	r3, [r7, #24]
 658:g:/iot/IoT_Device_Demo/iot_link/network/lwm2m/wakaama_lwm2m/wakaama-master/core/er-coap-13\er-coap-13.c ****     uint8_t *current_option;
 659:g:/iot/IoT_Device_Demo/iot_link/network/lwm2m/wakaama_lwm2m/wakaama-master/core/er-coap-13\er-coap-13.c ****     unsigned int option_number = 0;
 2760              		.loc 1 659 18
 2761 0012 0023     		movs	r3, #0
 2762 0014 3B62     		str	r3, [r7, #32]
 660:g:/iot/IoT_Device_Demo/iot_link/network/lwm2m/wakaama_lwm2m/wakaama-master/core/er-coap-13\er-coap-13.c ****     unsigned int option_delta = 0;
 2763              		.loc 1 660 18
ARM GAS  C:\Users\ADMINI~1\AppData\Local\Temp\cc8DJu9v.s 			page 61


 2764 0016 0023     		movs	r3, #0
 2765 0018 7B61     		str	r3, [r7, #20]
 661:g:/iot/IoT_Device_Demo/iot_link/network/lwm2m/wakaama_lwm2m/wakaama-master/core/er-coap-13\er-coap-13.c ****     size_t option_length = 0;
 2766              		.loc 1 661 12
 2767 001a 0023     		movs	r3, #0
 2768 001c 3B61     		str	r3, [r7, #16]
 662:g:/iot/IoT_Device_Demo/iot_link/network/lwm2m/wakaama_lwm2m/wakaama-master/core/er-coap-13\er-coap-13.c ****     unsigned int *x;
 663:g:/iot/IoT_Device_Demo/iot_link/network/lwm2m/wakaama_lwm2m/wakaama-master/core/er-coap-13\er-coap-13.c **** 
 664:g:/iot/IoT_Device_Demo/iot_link/network/lwm2m/wakaama_lwm2m/wakaama-master/core/er-coap-13\er-coap-13.c ****     /* Initialize packet */
 665:g:/iot/IoT_Device_Demo/iot_link/network/lwm2m/wakaama_lwm2m/wakaama-master/core/er-coap-13\er-coap-13.c ****     memset(coap_pkt, 0, sizeof(coap_packet_t));
 2769              		.loc 1 665 5
 2770 001e 8C22     		movs	r2, #140
 2771 0020 0021     		movs	r1, #0
 2772 0022 B869     		ldr	r0, [r7, #24]
 2773 0024 FFF7FEFF 		bl	memset
 666:g:/iot/IoT_Device_Demo/iot_link/network/lwm2m/wakaama_lwm2m/wakaama-master/core/er-coap-13\er-coap-13.c **** 
 667:g:/iot/IoT_Device_Demo/iot_link/network/lwm2m/wakaama_lwm2m/wakaama-master/core/er-coap-13\er-coap-13.c ****     /* pointer to packet bytes */
 668:g:/iot/IoT_Device_Demo/iot_link/network/lwm2m/wakaama_lwm2m/wakaama-master/core/er-coap-13\er-coap-13.c ****     coap_pkt->buffer = data;
 2774              		.loc 1 668 22
 2775 0028 BB69     		ldr	r3, [r7, #24]
 2776 002a BA68     		ldr	r2, [r7, #8]
 2777 002c 1A60     		str	r2, [r3]
 669:g:/iot/IoT_Device_Demo/iot_link/network/lwm2m/wakaama_lwm2m/wakaama-master/core/er-coap-13\er-coap-13.c **** 
 670:g:/iot/IoT_Device_Demo/iot_link/network/lwm2m/wakaama_lwm2m/wakaama-master/core/er-coap-13\er-coap-13.c ****     /* parse header fields */
 671:g:/iot/IoT_Device_Demo/iot_link/network/lwm2m/wakaama_lwm2m/wakaama-master/core/er-coap-13\er-coap-13.c ****     coap_pkt->version = (COAP_HEADER_VERSION_MASK & coap_pkt->buffer[0]) >> COAP_HEADER_VERSION_POS
 2778              		.loc 1 671 61
 2779 002e BB69     		ldr	r3, [r7, #24]
 2780 0030 1B68     		ldr	r3, [r3]
 2781              		.loc 1 671 69
 2782 0032 1B78     		ldrb	r3, [r3]	@ zero_extendqisi2
 2783              		.loc 1 671 23
 2784 0034 9B09     		lsrs	r3, r3, #6
 2785 0036 DAB2     		uxtb	r2, r3
 2786 0038 BB69     		ldr	r3, [r7, #24]
 2787 003a 1A71     		strb	r2, [r3, #4]
 672:g:/iot/IoT_Device_Demo/iot_link/network/lwm2m/wakaama_lwm2m/wakaama-master/core/er-coap-13\er-coap-13.c ****     coap_pkt->type = (coap_message_type_t)((COAP_HEADER_TYPE_MASK & coap_pkt->buffer[0]) >> COAP_HE
 2788              		.loc 1 672 77
 2789 003c BB69     		ldr	r3, [r7, #24]
 2790 003e 1B68     		ldr	r3, [r3]
 2791              		.loc 1 672 85
 2792 0040 1B78     		ldrb	r3, [r3]	@ zero_extendqisi2
 2793              		.loc 1 672 22
 2794 0042 1B09     		lsrs	r3, r3, #4
 2795 0044 DBB2     		uxtb	r3, r3
 2796              		.loc 1 672 20
 2797 0046 03F00303 		and	r3, r3, #3
 2798 004a DAB2     		uxtb	r2, r3
 2799 004c BB69     		ldr	r3, [r7, #24]
 2800 004e 5A71     		strb	r2, [r3, #5]
 673:g:/iot/IoT_Device_Demo/iot_link/network/lwm2m/wakaama_lwm2m/wakaama-master/core/er-coap-13\er-coap-13.c ****     coap_pkt->token_len = MIN(COAP_TOKEN_LEN, (COAP_HEADER_TOKEN_LEN_MASK & coap_pkt->buffer[0]) >>
 2801              		.loc 1 673 27
 2802 0050 BB69     		ldr	r3, [r7, #24]
 2803 0052 1B68     		ldr	r3, [r3]
 2804 0054 1B78     		ldrb	r3, [r3]	@ zero_extendqisi2
 2805 0056 03F00F03 		and	r3, r3, #15
 2806 005a 082B     		cmp	r3, #8
 2807 005c A8BF     		it	ge
ARM GAS  C:\Users\ADMINI~1\AppData\Local\Temp\cc8DJu9v.s 			page 62


 2808 005e 0823     		movge	r3, #8
 2809              		.loc 1 673 25
 2810 0060 DAB2     		uxtb	r2, r3
 2811 0062 BB69     		ldr	r3, [r7, #24]
 2812 0064 83F84C20 		strb	r2, [r3, #76]
 674:g:/iot/IoT_Device_Demo/iot_link/network/lwm2m/wakaama_lwm2m/wakaama-master/core/er-coap-13\er-coap-13.c ****     coap_pkt->code = coap_pkt->buffer[1];
 2813              		.loc 1 674 30
 2814 0068 BB69     		ldr	r3, [r7, #24]
 2815 006a 1B68     		ldr	r3, [r3]
 2816              		.loc 1 674 20
 2817 006c 5A78     		ldrb	r2, [r3, #1]	@ zero_extendqisi2
 2818 006e BB69     		ldr	r3, [r7, #24]
 2819 0070 9A71     		strb	r2, [r3, #6]
 675:g:/iot/IoT_Device_Demo/iot_link/network/lwm2m/wakaama_lwm2m/wakaama-master/core/er-coap-13\er-coap-13.c ****     coap_pkt->mid = coap_pkt->buffer[2] << 8 | coap_pkt->buffer[3];
 2820              		.loc 1 675 29
 2821 0072 BB69     		ldr	r3, [r7, #24]
 2822 0074 1B68     		ldr	r3, [r3]
 2823              		.loc 1 675 37
 2824 0076 0233     		adds	r3, r3, #2
 2825 0078 1B78     		ldrb	r3, [r3]	@ zero_extendqisi2
 2826              		.loc 1 675 41
 2827 007a 1B02     		lsls	r3, r3, #8
 2828              		.loc 1 675 46
 2829 007c 1AB2     		sxth	r2, r3
 2830              		.loc 1 675 56
 2831 007e BB69     		ldr	r3, [r7, #24]
 2832 0080 1B68     		ldr	r3, [r3]
 2833              		.loc 1 675 64
 2834 0082 0333     		adds	r3, r3, #3
 2835 0084 1B78     		ldrb	r3, [r3]	@ zero_extendqisi2
 2836 0086 1BB2     		sxth	r3, r3
 2837              		.loc 1 675 46
 2838 0088 1343     		orrs	r3, r3, r2
 2839 008a 1BB2     		sxth	r3, r3
 2840 008c 9AB2     		uxth	r2, r3
 2841              		.loc 1 675 19
 2842 008e BB69     		ldr	r3, [r7, #24]
 2843 0090 1A81     		strh	r2, [r3, #8]	@ movhi
 676:g:/iot/IoT_Device_Demo/iot_link/network/lwm2m/wakaama_lwm2m/wakaama-master/core/er-coap-13\er-coap-13.c **** 
 677:g:/iot/IoT_Device_Demo/iot_link/network/lwm2m/wakaama_lwm2m/wakaama-master/core/er-coap-13\er-coap-13.c ****     if (coap_pkt->version != 1)
 2844              		.loc 1 677 17
 2845 0092 BB69     		ldr	r3, [r7, #24]
 2846 0094 1B79     		ldrb	r3, [r3, #4]	@ zero_extendqisi2
 2847              		.loc 1 677 8
 2848 0096 012B     		cmp	r3, #1
 2849 0098 04D0     		beq	.L131
 678:g:/iot/IoT_Device_Demo/iot_link/network/lwm2m/wakaama_lwm2m/wakaama-master/core/er-coap-13\er-coap-13.c ****     {
 679:g:/iot/IoT_Device_Demo/iot_link/network/lwm2m/wakaama_lwm2m/wakaama-master/core/er-coap-13\er-coap-13.c ****         coap_error_message = "CoAP version must be 1";
 2850              		.loc 1 679 28
 2851 009a AE4B     		ldr	r3, .L171
 2852 009c AE4A     		ldr	r2, .L171+4
 2853 009e 1A60     		str	r2, [r3]
 680:g:/iot/IoT_Device_Demo/iot_link/network/lwm2m/wakaama_lwm2m/wakaama-master/core/er-coap-13\er-coap-13.c ****         return BAD_REQUEST_4_00;
 2854              		.loc 1 680 16
 2855 00a0 8023     		movs	r3, #128
 2856 00a2 24E2     		b	.L169
 2857              	.L131:
ARM GAS  C:\Users\ADMINI~1\AppData\Local\Temp\cc8DJu9v.s 			page 63


 681:g:/iot/IoT_Device_Demo/iot_link/network/lwm2m/wakaama_lwm2m/wakaama-master/core/er-coap-13\er-coap-13.c ****     }
 682:g:/iot/IoT_Device_Demo/iot_link/network/lwm2m/wakaama_lwm2m/wakaama-master/core/er-coap-13\er-coap-13.c **** 
 683:g:/iot/IoT_Device_Demo/iot_link/network/lwm2m/wakaama_lwm2m/wakaama-master/core/er-coap-13\er-coap-13.c ****     current_option = data + COAP_HEADER_LEN;
 2858              		.loc 1 683 20
 2859 00a4 BB68     		ldr	r3, [r7, #8]
 2860 00a6 0433     		adds	r3, r3, #4
 2861 00a8 7B62     		str	r3, [r7, #36]
 684:g:/iot/IoT_Device_Demo/iot_link/network/lwm2m/wakaama_lwm2m/wakaama-master/core/er-coap-13\er-coap-13.c **** 
 685:g:/iot/IoT_Device_Demo/iot_link/network/lwm2m/wakaama_lwm2m/wakaama-master/core/er-coap-13\er-coap-13.c ****     if (coap_pkt->token_len != 0)
 2862              		.loc 1 685 17
 2863 00aa BB69     		ldr	r3, [r7, #24]
 2864 00ac 93F84C30 		ldrb	r3, [r3, #76]	@ zero_extendqisi2
 2865              		.loc 1 685 8
 2866 00b0 002B     		cmp	r3, #0
 2867 00b2 10D0     		beq	.L133
 686:g:/iot/IoT_Device_Demo/iot_link/network/lwm2m/wakaama_lwm2m/wakaama-master/core/er-coap-13\er-coap-13.c ****     {
 687:g:/iot/IoT_Device_Demo/iot_link/network/lwm2m/wakaama_lwm2m/wakaama-master/core/er-coap-13\er-coap-13.c ****         memcpy(coap_pkt->token, current_option, coap_pkt->token_len);
 2868              		.loc 1 687 24
 2869 00b4 BB69     		ldr	r3, [r7, #24]
 2870 00b6 03F14D00 		add	r0, r3, #77
 2871              		.loc 1 687 57
 2872 00ba BB69     		ldr	r3, [r7, #24]
 2873 00bc 93F84C30 		ldrb	r3, [r3, #76]	@ zero_extendqisi2
 2874              		.loc 1 687 9
 2875 00c0 1A46     		mov	r2, r3
 2876 00c2 796A     		ldr	r1, [r7, #36]
 2877 00c4 FFF7FEFF 		bl	memcpy
 688:g:/iot/IoT_Device_Demo/iot_link/network/lwm2m/wakaama_lwm2m/wakaama-master/core/er-coap-13\er-coap-13.c ****         SET_OPTION(coap_pkt, COAP_OPTION_TOKEN);
 2878              		.loc 1 688 9
 2879 00c8 BB69     		ldr	r3, [r7, #24]
 2880 00ca 1B7B     		ldrb	r3, [r3, #12]	@ zero_extendqisi2
 2881 00cc 43F00803 		orr	r3, r3, #8
 2882 00d0 DAB2     		uxtb	r2, r3
 2883 00d2 BB69     		ldr	r3, [r7, #24]
 2884 00d4 1A73     		strb	r2, [r3, #12]
 2885              	.L133:
 689:g:/iot/IoT_Device_Demo/iot_link/network/lwm2m/wakaama_lwm2m/wakaama-master/core/er-coap-13\er-coap-13.c **** 
 690:g:/iot/IoT_Device_Demo/iot_link/network/lwm2m/wakaama_lwm2m/wakaama-master/core/er-coap-13\er-coap-13.c ****         PRINTF("Token (len %u) [0x%02X%02X%02X%02X%02X%02X%02X%02X]\n", coap_pkt->token_len,
 691:g:/iot/IoT_Device_Demo/iot_link/network/lwm2m/wakaama_lwm2m/wakaama-master/core/er-coap-13\er-coap-13.c ****                coap_pkt->token[0],
 692:g:/iot/IoT_Device_Demo/iot_link/network/lwm2m/wakaama_lwm2m/wakaama-master/core/er-coap-13\er-coap-13.c ****                coap_pkt->token[1],
 693:g:/iot/IoT_Device_Demo/iot_link/network/lwm2m/wakaama_lwm2m/wakaama-master/core/er-coap-13\er-coap-13.c ****                coap_pkt->token[2],
 694:g:/iot/IoT_Device_Demo/iot_link/network/lwm2m/wakaama_lwm2m/wakaama-master/core/er-coap-13\er-coap-13.c ****                coap_pkt->token[3],
 695:g:/iot/IoT_Device_Demo/iot_link/network/lwm2m/wakaama_lwm2m/wakaama-master/core/er-coap-13\er-coap-13.c ****                coap_pkt->token[4],
 696:g:/iot/IoT_Device_Demo/iot_link/network/lwm2m/wakaama_lwm2m/wakaama-master/core/er-coap-13\er-coap-13.c ****                coap_pkt->token[5],
 697:g:/iot/IoT_Device_Demo/iot_link/network/lwm2m/wakaama_lwm2m/wakaama-master/core/er-coap-13\er-coap-13.c ****                coap_pkt->token[6],
 698:g:/iot/IoT_Device_Demo/iot_link/network/lwm2m/wakaama_lwm2m/wakaama-master/core/er-coap-13\er-coap-13.c ****                coap_pkt->token[7]
 699:g:/iot/IoT_Device_Demo/iot_link/network/lwm2m/wakaama_lwm2m/wakaama-master/core/er-coap-13\er-coap-13.c ****               ); /*FIXME always prints 8 bytes */
 700:g:/iot/IoT_Device_Demo/iot_link/network/lwm2m/wakaama_lwm2m/wakaama-master/core/er-coap-13\er-coap-13.c ****     }
 701:g:/iot/IoT_Device_Demo/iot_link/network/lwm2m/wakaama_lwm2m/wakaama-master/core/er-coap-13\er-coap-13.c **** 
 702:g:/iot/IoT_Device_Demo/iot_link/network/lwm2m/wakaama_lwm2m/wakaama-master/core/er-coap-13\er-coap-13.c ****     /* parse options */
 703:g:/iot/IoT_Device_Demo/iot_link/network/lwm2m/wakaama_lwm2m/wakaama-master/core/er-coap-13\er-coap-13.c ****     current_option += coap_pkt->token_len;
 2886              		.loc 1 703 31
 2887 00d6 BB69     		ldr	r3, [r7, #24]
 2888 00d8 93F84C30 		ldrb	r3, [r3, #76]	@ zero_extendqisi2
 2889 00dc 1A46     		mov	r2, r3
 2890              		.loc 1 703 20
 2891 00de 7B6A     		ldr	r3, [r7, #36]
ARM GAS  C:\Users\ADMINI~1\AppData\Local\Temp\cc8DJu9v.s 			page 64


 2892 00e0 1344     		add	r3, r3, r2
 2893 00e2 7B62     		str	r3, [r7, #36]
 704:g:/iot/IoT_Device_Demo/iot_link/network/lwm2m/wakaama_lwm2m/wakaama-master/core/er-coap-13\er-coap-13.c **** 
 705:g:/iot/IoT_Device_Demo/iot_link/network/lwm2m/wakaama_lwm2m/wakaama-master/core/er-coap-13\er-coap-13.c ****     while (current_option < data + data_len)
 2894              		.loc 1 705 11
 2895 00e4 FBE1     		b	.L134
 2896              	.L168:
 706:g:/iot/IoT_Device_Demo/iot_link/network/lwm2m/wakaama_lwm2m/wakaama-master/core/er-coap-13\er-coap-13.c ****     {
 707:g:/iot/IoT_Device_Demo/iot_link/network/lwm2m/wakaama_lwm2m/wakaama-master/core/er-coap-13\er-coap-13.c ****         /* Payload marker 0xFF, currently only checking for 0xF* because rest is reserved */
 708:g:/iot/IoT_Device_Demo/iot_link/network/lwm2m/wakaama_lwm2m/wakaama-master/core/er-coap-13\er-coap-13.c ****         if ((current_option[0] & 0xF0) == 0xF0)
 2897              		.loc 1 708 28
 2898 00e6 7B6A     		ldr	r3, [r7, #36]
 2899 00e8 1B78     		ldrb	r3, [r3]	@ zero_extendqisi2
 2900              		.loc 1 708 32
 2901 00ea 03F0F003 		and	r3, r3, #240
 2902              		.loc 1 708 12
 2903 00ee F02B     		cmp	r3, #240
 2904 00f0 13D1     		bne	.L135
 709:g:/iot/IoT_Device_Demo/iot_link/network/lwm2m/wakaama_lwm2m/wakaama-master/core/er-coap-13\er-coap-13.c ****         {
 710:g:/iot/IoT_Device_Demo/iot_link/network/lwm2m/wakaama_lwm2m/wakaama-master/core/er-coap-13\er-coap-13.c ****             coap_pkt->payload = ++current_option;
 2905              		.loc 1 710 31
 2906 00f2 7B6A     		ldr	r3, [r7, #36]
 2907 00f4 0133     		adds	r3, r3, #1
 2908 00f6 7B62     		str	r3, [r7, #36]
 2909 00f8 BB69     		ldr	r3, [r7, #24]
 2910 00fa 7A6A     		ldr	r2, [r7, #36]
 2911 00fc C3F88820 		str	r2, [r3, #136]
 711:g:/iot/IoT_Device_Demo/iot_link/network/lwm2m/wakaama_lwm2m/wakaama-master/core/er-coap-13\er-coap-13.c ****             coap_pkt->payload_len = data_len - (coap_pkt->payload - data);
 2912              		.loc 1 711 57
 2913 0100 BB69     		ldr	r3, [r7, #24]
 2914 0102 D3F88820 		ldr	r2, [r3, #136]
 2915              		.loc 1 711 67
 2916 0106 BB68     		ldr	r3, [r7, #8]
 2917 0108 D31A     		subs	r3, r2, r3
 2918              		.loc 1 711 46
 2919 010a 9BB2     		uxth	r3, r3
 2920 010c FA88     		ldrh	r2, [r7, #6]	@ movhi
 2921 010e D31A     		subs	r3, r2, r3
 2922 0110 9AB2     		uxth	r2, r3
 2923              		.loc 1 711 35
 2924 0112 BB69     		ldr	r3, [r7, #24]
 2925 0114 A3F88620 		strh	r2, [r3, #134]	@ movhi
 712:g:/iot/IoT_Device_Demo/iot_link/network/lwm2m/wakaama_lwm2m/wakaama-master/core/er-coap-13\er-coap-13.c **** 
 713:g:/iot/IoT_Device_Demo/iot_link/network/lwm2m/wakaama_lwm2m/wakaama-master/core/er-coap-13\er-coap-13.c ****             break;
 2926              		.loc 1 713 13
 2927 0118 E8E1     		b	.L136
 2928              	.L135:
 714:g:/iot/IoT_Device_Demo/iot_link/network/lwm2m/wakaama_lwm2m/wakaama-master/core/er-coap-13\er-coap-13.c ****         }
 715:g:/iot/IoT_Device_Demo/iot_link/network/lwm2m/wakaama_lwm2m/wakaama-master/core/er-coap-13\er-coap-13.c **** 
 716:g:/iot/IoT_Device_Demo/iot_link/network/lwm2m/wakaama_lwm2m/wakaama-master/core/er-coap-13\er-coap-13.c ****         option_delta = current_option[0] >> 4;
 2929              		.loc 1 716 38
 2930 011a 7B6A     		ldr	r3, [r7, #36]
 2931 011c 1B78     		ldrb	r3, [r3]	@ zero_extendqisi2
 2932              		.loc 1 716 42
 2933 011e 1B09     		lsrs	r3, r3, #4
 2934 0120 DBB2     		uxtb	r3, r3
 2935              		.loc 1 716 22
ARM GAS  C:\Users\ADMINI~1\AppData\Local\Temp\cc8DJu9v.s 			page 65


 2936 0122 7B61     		str	r3, [r7, #20]
 717:g:/iot/IoT_Device_Demo/iot_link/network/lwm2m/wakaama_lwm2m/wakaama-master/core/er-coap-13\er-coap-13.c ****         option_length = current_option[0] & 0x0F;
 2937              		.loc 1 717 39
 2938 0124 7B6A     		ldr	r3, [r7, #36]
 2939 0126 1B78     		ldrb	r3, [r3]	@ zero_extendqisi2
 2940              		.loc 1 717 43
 2941 0128 03F00F03 		and	r3, r3, #15
 2942              		.loc 1 717 23
 2943 012c 3B61     		str	r3, [r7, #16]
 718:g:/iot/IoT_Device_Demo/iot_link/network/lwm2m/wakaama_lwm2m/wakaama-master/core/er-coap-13\er-coap-13.c ****         ++current_option;
 2944              		.loc 1 718 9
 2945 012e 7B6A     		ldr	r3, [r7, #36]
 2946 0130 0133     		adds	r3, r3, #1
 2947 0132 7B62     		str	r3, [r7, #36]
 719:g:/iot/IoT_Device_Demo/iot_link/network/lwm2m/wakaama_lwm2m/wakaama-master/core/er-coap-13\er-coap-13.c **** 
 720:g:/iot/IoT_Device_Demo/iot_link/network/lwm2m/wakaama_lwm2m/wakaama-master/core/er-coap-13\er-coap-13.c ****         /* avoids code duplication without function overhead */
 721:g:/iot/IoT_Device_Demo/iot_link/network/lwm2m/wakaama_lwm2m/wakaama-master/core/er-coap-13\er-coap-13.c ****         x = &option_delta;
 2948              		.loc 1 721 11
 2949 0134 07F11403 		add	r3, r7, #20
 2950 0138 FB61     		str	r3, [r7, #28]
 2951              	.L140:
 722:g:/iot/IoT_Device_Demo/iot_link/network/lwm2m/wakaama_lwm2m/wakaama-master/core/er-coap-13\er-coap-13.c ****         do
 723:g:/iot/IoT_Device_Demo/iot_link/network/lwm2m/wakaama_lwm2m/wakaama-master/core/er-coap-13\er-coap-13.c ****         {
 724:g:/iot/IoT_Device_Demo/iot_link/network/lwm2m/wakaama_lwm2m/wakaama-master/core/er-coap-13\er-coap-13.c ****             if (*x == 13)
 2952              		.loc 1 724 17
 2953 013a FB69     		ldr	r3, [r7, #28]
 2954 013c 1B68     		ldr	r3, [r3]
 2955              		.loc 1 724 16
 2956 013e 0D2B     		cmp	r3, #13
 2957 0140 0AD1     		bne	.L137
 725:g:/iot/IoT_Device_Demo/iot_link/network/lwm2m/wakaama_lwm2m/wakaama-master/core/er-coap-13\er-coap-13.c ****             {
 726:g:/iot/IoT_Device_Demo/iot_link/network/lwm2m/wakaama_lwm2m/wakaama-master/core/er-coap-13\er-coap-13.c ****                 *x += current_option[0];
 2958              		.loc 1 726 20
 2959 0142 FB69     		ldr	r3, [r7, #28]
 2960 0144 1B68     		ldr	r3, [r3]
 2961              		.loc 1 726 37
 2962 0146 7A6A     		ldr	r2, [r7, #36]
 2963 0148 1278     		ldrb	r2, [r2]	@ zero_extendqisi2
 2964              		.loc 1 726 20
 2965 014a 1A44     		add	r2, r2, r3
 2966 014c FB69     		ldr	r3, [r7, #28]
 2967 014e 1A60     		str	r2, [r3]
 727:g:/iot/IoT_Device_Demo/iot_link/network/lwm2m/wakaama_lwm2m/wakaama-master/core/er-coap-13\er-coap-13.c ****                 ++current_option;
 2968              		.loc 1 727 17
 2969 0150 7B6A     		ldr	r3, [r7, #36]
 2970 0152 0133     		adds	r3, r3, #1
 2971 0154 7B62     		str	r3, [r7, #36]
 2972 0156 1EE0     		b	.L138
 2973              	.L137:
 728:g:/iot/IoT_Device_Demo/iot_link/network/lwm2m/wakaama_lwm2m/wakaama-master/core/er-coap-13\er-coap-13.c ****             }
 729:g:/iot/IoT_Device_Demo/iot_link/network/lwm2m/wakaama_lwm2m/wakaama-master/core/er-coap-13\er-coap-13.c ****             else if (*x == 14)
 2974              		.loc 1 729 22
 2975 0158 FB69     		ldr	r3, [r7, #28]
 2976 015a 1B68     		ldr	r3, [r3]
 2977              		.loc 1 729 21
 2978 015c 0E2B     		cmp	r3, #14
 2979 015e 1AD1     		bne	.L138
ARM GAS  C:\Users\ADMINI~1\AppData\Local\Temp\cc8DJu9v.s 			page 66


 730:g:/iot/IoT_Device_Demo/iot_link/network/lwm2m/wakaama_lwm2m/wakaama-master/core/er-coap-13\er-coap-13.c ****             {
 731:g:/iot/IoT_Device_Demo/iot_link/network/lwm2m/wakaama_lwm2m/wakaama-master/core/er-coap-13\er-coap-13.c ****                 *x += 255;
 2980              		.loc 1 731 20
 2981 0160 FB69     		ldr	r3, [r7, #28]
 2982 0162 1B68     		ldr	r3, [r3]
 2983 0164 03F1FF02 		add	r2, r3, #255
 2984 0168 FB69     		ldr	r3, [r7, #28]
 2985 016a 1A60     		str	r2, [r3]
 732:g:/iot/IoT_Device_Demo/iot_link/network/lwm2m/wakaama_lwm2m/wakaama-master/core/er-coap-13\er-coap-13.c ****                 *x += current_option[0] << 8;
 2986              		.loc 1 732 20
 2987 016c FB69     		ldr	r3, [r7, #28]
 2988 016e 1B68     		ldr	r3, [r3]
 2989              		.loc 1 732 37
 2990 0170 7A6A     		ldr	r2, [r7, #36]
 2991 0172 1278     		ldrb	r2, [r2]	@ zero_extendqisi2
 2992              		.loc 1 732 41
 2993 0174 1202     		lsls	r2, r2, #8
 2994              		.loc 1 732 20
 2995 0176 1A44     		add	r2, r2, r3
 2996 0178 FB69     		ldr	r3, [r7, #28]
 2997 017a 1A60     		str	r2, [r3]
 733:g:/iot/IoT_Device_Demo/iot_link/network/lwm2m/wakaama_lwm2m/wakaama-master/core/er-coap-13\er-coap-13.c ****                 ++current_option;
 2998              		.loc 1 733 17
 2999 017c 7B6A     		ldr	r3, [r7, #36]
 3000 017e 0133     		adds	r3, r3, #1
 3001 0180 7B62     		str	r3, [r7, #36]
 734:g:/iot/IoT_Device_Demo/iot_link/network/lwm2m/wakaama_lwm2m/wakaama-master/core/er-coap-13\er-coap-13.c ****                 *x += current_option[0];
 3002              		.loc 1 734 20
 3003 0182 FB69     		ldr	r3, [r7, #28]
 3004 0184 1B68     		ldr	r3, [r3]
 3005              		.loc 1 734 37
 3006 0186 7A6A     		ldr	r2, [r7, #36]
 3007 0188 1278     		ldrb	r2, [r2]	@ zero_extendqisi2
 3008              		.loc 1 734 20
 3009 018a 1A44     		add	r2, r2, r3
 3010 018c FB69     		ldr	r3, [r7, #28]
 3011 018e 1A60     		str	r2, [r3]
 735:g:/iot/IoT_Device_Demo/iot_link/network/lwm2m/wakaama_lwm2m/wakaama-master/core/er-coap-13\er-coap-13.c ****                 ++current_option;
 3012              		.loc 1 735 17
 3013 0190 7B6A     		ldr	r3, [r7, #36]
 3014 0192 0133     		adds	r3, r3, #1
 3015 0194 7B62     		str	r3, [r7, #36]
 3016              	.L138:
 736:g:/iot/IoT_Device_Demo/iot_link/network/lwm2m/wakaama_lwm2m/wakaama-master/core/er-coap-13\er-coap-13.c ****             }
 737:g:/iot/IoT_Device_Demo/iot_link/network/lwm2m/wakaama_lwm2m/wakaama-master/core/er-coap-13\er-coap-13.c ****         }
 738:g:/iot/IoT_Device_Demo/iot_link/network/lwm2m/wakaama_lwm2m/wakaama-master/core/er-coap-13\er-coap-13.c ****         while (x != (unsigned int *)&option_length && NULL != (x = (unsigned int *)&option_length))
 3017              		.loc 1 738 9
 3018 0196 07F11003 		add	r3, r7, #16
 3019 019a FA69     		ldr	r2, [r7, #28]
 3020 019c 9A42     		cmp	r2, r3
 3021 019e 03D0     		beq	.L139
 3022              		.loc 1 738 66 discriminator 1
 3023 01a0 07F11003 		add	r3, r7, #16
 3024 01a4 FB61     		str	r3, [r7, #28]
 3025 01a6 C8E7     		b	.L140
 3026              	.L139:
 739:g:/iot/IoT_Device_Demo/iot_link/network/lwm2m/wakaama_lwm2m/wakaama-master/core/er-coap-13\er-coap-13.c **** 
ARM GAS  C:\Users\ADMINI~1\AppData\Local\Temp\cc8DJu9v.s 			page 67


 740:g:/iot/IoT_Device_Demo/iot_link/network/lwm2m/wakaama_lwm2m/wakaama-master/core/er-coap-13\er-coap-13.c ****         option_number += option_delta;
 3027              		.loc 1 740 23
 3028 01a8 7B69     		ldr	r3, [r7, #20]
 3029 01aa 3A6A     		ldr	r2, [r7, #32]
 3030 01ac 1344     		add	r3, r3, r2
 3031 01ae 3B62     		str	r3, [r7, #32]
 741:g:/iot/IoT_Device_Demo/iot_link/network/lwm2m/wakaama_lwm2m/wakaama-master/core/er-coap-13\er-coap-13.c **** 
 742:g:/iot/IoT_Device_Demo/iot_link/network/lwm2m/wakaama_lwm2m/wakaama-master/core/er-coap-13\er-coap-13.c ****         if (current_option + option_length > data + data_len)
 3032              		.loc 1 742 28
 3033 01b0 3B69     		ldr	r3, [r7, #16]
 3034 01b2 7A6A     		ldr	r2, [r7, #36]
 3035 01b4 1A44     		add	r2, r2, r3
 3036              		.loc 1 742 51
 3037 01b6 FB88     		ldrh	r3, [r7, #6]
 3038 01b8 B968     		ldr	r1, [r7, #8]
 3039 01ba 0B44     		add	r3, r3, r1
 3040              		.loc 1 742 12
 3041 01bc 9A42     		cmp	r2, r3
 3042 01be 01D9     		bls	.L141
 743:g:/iot/IoT_Device_Demo/iot_link/network/lwm2m/wakaama_lwm2m/wakaama-master/core/er-coap-13\er-coap-13.c ****         {
 744:g:/iot/IoT_Device_Demo/iot_link/network/lwm2m/wakaama_lwm2m/wakaama-master/core/er-coap-13\er-coap-13.c ****             PRINTF("OPTION %u (delta %u, len %u) has invalid length.\n", option_number, option_delt
 745:g:/iot/IoT_Device_Demo/iot_link/network/lwm2m/wakaama_lwm2m/wakaama-master/core/er-coap-13\er-coap-13.c ****             return BAD_REQUEST_4_00;
 3043              		.loc 1 745 20
 3044 01c0 8023     		movs	r3, #128
 3045 01c2 94E1     		b	.L169
 3046              	.L141:
 746:g:/iot/IoT_Device_Demo/iot_link/network/lwm2m/wakaama_lwm2m/wakaama-master/core/er-coap-13\er-coap-13.c ****         }
 747:g:/iot/IoT_Device_Demo/iot_link/network/lwm2m/wakaama_lwm2m/wakaama-master/core/er-coap-13\er-coap-13.c ****         else
 748:g:/iot/IoT_Device_Demo/iot_link/network/lwm2m/wakaama_lwm2m/wakaama-master/core/er-coap-13\er-coap-13.c ****         {
 749:g:/iot/IoT_Device_Demo/iot_link/network/lwm2m/wakaama_lwm2m/wakaama-master/core/er-coap-13\er-coap-13.c ****             PRINTF("OPTION %u (delta %u, len %u): ", option_number, option_delta, option_length);
 750:g:/iot/IoT_Device_Demo/iot_link/network/lwm2m/wakaama_lwm2m/wakaama-master/core/er-coap-13\er-coap-13.c ****         }
 751:g:/iot/IoT_Device_Demo/iot_link/network/lwm2m/wakaama_lwm2m/wakaama-master/core/er-coap-13\er-coap-13.c **** 
 752:g:/iot/IoT_Device_Demo/iot_link/network/lwm2m/wakaama_lwm2m/wakaama-master/core/er-coap-13\er-coap-13.c ****         SET_OPTION(coap_pkt, option_number);
 3047              		.loc 1 752 9
 3048 01c4 3B6A     		ldr	r3, [r7, #32]
 3049 01c6 282B     		cmp	r3, #40
 3050 01c8 13D8     		bhi	.L142
 3051              		.loc 1 752 9 is_stmt 0 discriminator 1
 3052 01ca 3B6A     		ldr	r3, [r7, #32]
 3053 01cc DB08     		lsrs	r3, r3, #3
 3054 01ce BA69     		ldr	r2, [r7, #24]
 3055 01d0 1A44     		add	r2, r2, r3
 3056 01d2 927A     		ldrb	r2, [r2, #10]	@ zero_extendqisi2
 3057 01d4 51B2     		sxtb	r1, r2
 3058 01d6 3A6A     		ldr	r2, [r7, #32]
 3059 01d8 02F00702 		and	r2, r2, #7
 3060 01dc 0120     		movs	r0, #1
 3061 01de 00FA02F2 		lsl	r2, r0, r2
 3062 01e2 52B2     		sxtb	r2, r2
 3063 01e4 0A43     		orrs	r2, r2, r1
 3064 01e6 52B2     		sxtb	r2, r2
 3065 01e8 D1B2     		uxtb	r1, r2
 3066 01ea BA69     		ldr	r2, [r7, #24]
 3067 01ec 1344     		add	r3, r3, r2
 3068 01ee 0A46     		mov	r2, r1
 3069 01f0 9A72     		strb	r2, [r3, #10]
 3070              	.L142:
ARM GAS  C:\Users\ADMINI~1\AppData\Local\Temp\cc8DJu9v.s 			page 68


 3071 01f2 3B6A     		ldr	r3, [r7, #32]
 3072 01f4 013B     		subs	r3, r3, #1
 3073 01f6 222B     		cmp	r3, #34
 3074 01f8 00F26281 		bhi	.L143
 3075 01fc 01A2     		adr	r2, .L145
 3076 01fe 52F823F0 		ldr	pc, [r2, r3, lsl #2]
 3077 0202 00BF     		.p2align 2
 3078              	.L145:
 3079 0204 1F030000 		.word	.L161+1
 3080 0208 C1040000 		.word	.L143+1
 3081 020c 5D030000 		.word	.L160+1
 3082 0210 B7020000 		.word	.L159+1
 3083 0214 49030000 		.word	.L158+1
 3084 0218 E5030000 		.word	.L157+1
 3085 021c 6B030000 		.word	.L156+1
 3086 0220 A3030000 		.word	.L155+1
 3087 0224 C1040000 		.word	.L143+1
 3088 0228 C1040000 		.word	.L143+1
 3089 022c 7F030000 		.word	.L154+1
 3090 0230 91020000 		.word	.L153+1
 3091 0234 C1040000 		.word	.L143+1
 3092 0238 A5020000 		.word	.L152+1
 3093 023c 91030000 		.word	.L151+1
 3094 0240 C1040000 		.word	.L143+1
 3095 0244 E1020000 		.word	.L150+1
 3096 0248 C1040000 		.word	.L143+1
 3097 024c C1040000 		.word	.L143+1
 3098 0250 B5030000 		.word	.L149+1
 3099 0254 C1040000 		.word	.L143+1
 3100 0258 C1040000 		.word	.L143+1
 3101 025c F7030000 		.word	.L148+1
 3102 0260 C1040000 		.word	.L143+1
 3103 0264 C1040000 		.word	.L143+1
 3104 0268 C1040000 		.word	.L143+1
 3105 026c 53040000 		.word	.L147+1
 3106 0270 AF040000 		.word	.L146+1
 3107 0274 C1040000 		.word	.L143+1
 3108 0278 C1040000 		.word	.L143+1
 3109 027c C1040000 		.word	.L143+1
 3110 0280 C1040000 		.word	.L143+1
 3111 0284 C1040000 		.word	.L143+1
 3112 0288 C1040000 		.word	.L143+1
 3113 028c CF030000 		.word	.L144+1
 3114              		.p2align 1
 3115              	.L153:
 753:g:/iot/IoT_Device_Demo/iot_link/network/lwm2m/wakaama_lwm2m/wakaama-master/core/er-coap-13\er-coap-13.c **** 
 754:g:/iot/IoT_Device_Demo/iot_link/network/lwm2m/wakaama_lwm2m/wakaama-master/core/er-coap-13\er-coap-13.c ****         switch (option_number)
 755:g:/iot/IoT_Device_Demo/iot_link/network/lwm2m/wakaama_lwm2m/wakaama-master/core/er-coap-13\er-coap-13.c ****         {
 756:g:/iot/IoT_Device_Demo/iot_link/network/lwm2m/wakaama_lwm2m/wakaama-master/core/er-coap-13\er-coap-13.c ****         case COAP_OPTION_CONTENT_TYPE:
 757:g:/iot/IoT_Device_Demo/iot_link/network/lwm2m/wakaama_lwm2m/wakaama-master/core/er-coap-13\er-coap-13.c ****             coap_pkt->content_type = (coap_content_type_t)coap_parse_int_option(current_option, opt
 3116              		.loc 1 757 59 is_stmt 1
 3117 0290 3B69     		ldr	r3, [r7, #16]
 3118 0292 1946     		mov	r1, r3
 3119 0294 786A     		ldr	r0, [r7, #36]
 3120 0296 FFF7FEFF 		bl	coap_parse_int_option
 3121 029a 0346     		mov	r3, r0
 3122              		.loc 1 757 38
ARM GAS  C:\Users\ADMINI~1\AppData\Local\Temp\cc8DJu9v.s 			page 69


 3123 029c 9AB2     		uxth	r2, r3
 3124              		.loc 1 757 36
 3125 029e BB69     		ldr	r3, [r7, #24]
 3126 02a0 1A82     		strh	r2, [r3, #16]	@ movhi
 758:g:/iot/IoT_Device_Demo/iot_link/network/lwm2m/wakaama_lwm2m/wakaama-master/core/er-coap-13\er-coap-13.c ****             PRINTF("Content-Format [%u]\n", coap_pkt->content_type);
 759:g:/iot/IoT_Device_Demo/iot_link/network/lwm2m/wakaama_lwm2m/wakaama-master/core/er-coap-13\er-coap-13.c ****             break;
 3127              		.loc 1 759 13
 3128 02a2 18E1     		b	.L162
 3129              	.L152:
 760:g:/iot/IoT_Device_Demo/iot_link/network/lwm2m/wakaama_lwm2m/wakaama-master/core/er-coap-13\er-coap-13.c ****         case COAP_OPTION_MAX_AGE:
 761:g:/iot/IoT_Device_Demo/iot_link/network/lwm2m/wakaama_lwm2m/wakaama-master/core/er-coap-13\er-coap-13.c ****             coap_pkt->max_age = coap_parse_int_option(current_option, option_length);
 3130              		.loc 1 761 33
 3131 02a4 3B69     		ldr	r3, [r7, #16]
 3132 02a6 1946     		mov	r1, r3
 3133 02a8 786A     		ldr	r0, [r7, #36]
 3134 02aa FFF7FEFF 		bl	coap_parse_int_option
 3135 02ae 0246     		mov	r2, r0
 3136              		.loc 1 761 31
 3137 02b0 BB69     		ldr	r3, [r7, #24]
 3138 02b2 5A61     		str	r2, [r3, #20]
 762:g:/iot/IoT_Device_Demo/iot_link/network/lwm2m/wakaama_lwm2m/wakaama-master/core/er-coap-13\er-coap-13.c ****             PRINTF("Max-Age [%lu]\n", coap_pkt->max_age);
 763:g:/iot/IoT_Device_Demo/iot_link/network/lwm2m/wakaama_lwm2m/wakaama-master/core/er-coap-13\er-coap-13.c ****             break;
 3139              		.loc 1 763 13
 3140 02b4 0FE1     		b	.L162
 3141              	.L159:
 764:g:/iot/IoT_Device_Demo/iot_link/network/lwm2m/wakaama_lwm2m/wakaama-master/core/er-coap-13\er-coap-13.c ****         case COAP_OPTION_ETAG:
 765:g:/iot/IoT_Device_Demo/iot_link/network/lwm2m/wakaama_lwm2m/wakaama-master/core/er-coap-13\er-coap-13.c ****             coap_pkt->etag_len = (uint8_t)(MIN(COAP_ETAG_LEN, option_length));
 3142              		.loc 1 765 44
 3143 02b6 3B69     		ldr	r3, [r7, #16]
 3144              		.loc 1 765 34
 3145 02b8 082B     		cmp	r3, #8
 3146 02ba 02D8     		bhi	.L163
 3147              		.loc 1 765 34 is_stmt 0 discriminator 1
 3148 02bc 3B69     		ldr	r3, [r7, #16]
 3149 02be DAB2     		uxtb	r2, r3
 3150 02c0 00E0     		b	.L164
 3151              	.L163:
 3152              		.loc 1 765 34 discriminator 2
 3153 02c2 0822     		movs	r2, #8
 3154              	.L164:
 3155              		.loc 1 765 32 is_stmt 1 discriminator 4
 3156 02c4 BB69     		ldr	r3, [r7, #24]
 3157 02c6 83F82020 		strb	r2, [r3, #32]
 766:g:/iot/IoT_Device_Demo/iot_link/network/lwm2m/wakaama_lwm2m/wakaama-master/core/er-coap-13\er-coap-13.c ****             memcpy(coap_pkt->etag, current_option, coap_pkt->etag_len);
 3158              		.loc 1 766 28 discriminator 4
 3159 02ca BB69     		ldr	r3, [r7, #24]
 3160 02cc 03F12100 		add	r0, r3, #33
 3161              		.loc 1 766 60 discriminator 4
 3162 02d0 BB69     		ldr	r3, [r7, #24]
 3163 02d2 93F82030 		ldrb	r3, [r3, #32]	@ zero_extendqisi2
 3164              		.loc 1 766 13 discriminator 4
 3165 02d6 1A46     		mov	r2, r3
 3166 02d8 796A     		ldr	r1, [r7, #36]
 3167 02da FFF7FEFF 		bl	memcpy
 767:g:/iot/IoT_Device_Demo/iot_link/network/lwm2m/wakaama_lwm2m/wakaama-master/core/er-coap-13\er-coap-13.c ****             PRINTF("ETag %u [0x%02X%02X%02X%02X%02X%02X%02X%02X]\n", coap_pkt->etag_len,
 768:g:/iot/IoT_Device_Demo/iot_link/network/lwm2m/wakaama_lwm2m/wakaama-master/core/er-coap-13\er-coap-13.c ****                    coap_pkt->etag[0],
 769:g:/iot/IoT_Device_Demo/iot_link/network/lwm2m/wakaama_lwm2m/wakaama-master/core/er-coap-13\er-coap-13.c ****                    coap_pkt->etag[1],
ARM GAS  C:\Users\ADMINI~1\AppData\Local\Temp\cc8DJu9v.s 			page 70


 770:g:/iot/IoT_Device_Demo/iot_link/network/lwm2m/wakaama_lwm2m/wakaama-master/core/er-coap-13\er-coap-13.c ****                    coap_pkt->etag[2],
 771:g:/iot/IoT_Device_Demo/iot_link/network/lwm2m/wakaama_lwm2m/wakaama-master/core/er-coap-13\er-coap-13.c ****                    coap_pkt->etag[3],
 772:g:/iot/IoT_Device_Demo/iot_link/network/lwm2m/wakaama_lwm2m/wakaama-master/core/er-coap-13\er-coap-13.c ****                    coap_pkt->etag[4],
 773:g:/iot/IoT_Device_Demo/iot_link/network/lwm2m/wakaama_lwm2m/wakaama-master/core/er-coap-13\er-coap-13.c ****                    coap_pkt->etag[5],
 774:g:/iot/IoT_Device_Demo/iot_link/network/lwm2m/wakaama_lwm2m/wakaama-master/core/er-coap-13\er-coap-13.c ****                    coap_pkt->etag[6],
 775:g:/iot/IoT_Device_Demo/iot_link/network/lwm2m/wakaama_lwm2m/wakaama-master/core/er-coap-13\er-coap-13.c ****                    coap_pkt->etag[7]
 776:g:/iot/IoT_Device_Demo/iot_link/network/lwm2m/wakaama_lwm2m/wakaama-master/core/er-coap-13\er-coap-13.c ****                   ); /*FIXME always prints 8 bytes */
 777:g:/iot/IoT_Device_Demo/iot_link/network/lwm2m/wakaama_lwm2m/wakaama-master/core/er-coap-13\er-coap-13.c ****             break;
 3168              		.loc 1 777 13 discriminator 4
 3169 02de FAE0     		b	.L162
 3170              	.L150:
 778:g:/iot/IoT_Device_Demo/iot_link/network/lwm2m/wakaama_lwm2m/wakaama-master/core/er-coap-13\er-coap-13.c ****         case COAP_OPTION_ACCEPT:
 779:g:/iot/IoT_Device_Demo/iot_link/network/lwm2m/wakaama_lwm2m/wakaama-master/core/er-coap-13\er-coap-13.c ****             if (coap_pkt->accept_num < COAP_MAX_ACCEPT_NUM)
 3171              		.loc 1 779 25
 3172 02e0 BB69     		ldr	r3, [r7, #24]
 3173 02e2 93F85530 		ldrb	r3, [r3, #85]	@ zero_extendqisi2
 3174              		.loc 1 779 16
 3175 02e6 012B     		cmp	r3, #1
 3176 02e8 00F2F480 		bhi	.L170
 780:g:/iot/IoT_Device_Demo/iot_link/network/lwm2m/wakaama_lwm2m/wakaama-master/core/er-coap-13\er-coap-13.c ****             {
 781:g:/iot/IoT_Device_Demo/iot_link/network/lwm2m/wakaama_lwm2m/wakaama-master/core/er-coap-13\er-coap-13.c ****                 coap_pkt->accept[coap_pkt->accept_num] = coap_parse_int_option(current_option, opti
 3177              		.loc 1 781 58
 3178 02ec 3B69     		ldr	r3, [r7, #16]
 3179 02ee 1946     		mov	r1, r3
 3180 02f0 786A     		ldr	r0, [r7, #36]
 3181 02f2 FFF7FEFF 		bl	coap_parse_int_option
 3182 02f6 0246     		mov	r2, r0
 3183              		.loc 1 781 42
 3184 02f8 BB69     		ldr	r3, [r7, #24]
 3185 02fa 93F85530 		ldrb	r3, [r3, #85]	@ zero_extendqisi2
 3186              		.loc 1 781 56
 3187 02fe 91B2     		uxth	r1, r2
 3188 0300 BA69     		ldr	r2, [r7, #24]
 3189 0302 2833     		adds	r3, r3, #40
 3190 0304 5B00     		lsls	r3, r3, #1
 3191 0306 1344     		add	r3, r3, r2
 3192 0308 0A46     		mov	r2, r1	@ movhi
 3193 030a DA80     		strh	r2, [r3, #6]	@ movhi
 782:g:/iot/IoT_Device_Demo/iot_link/network/lwm2m/wakaama_lwm2m/wakaama-master/core/er-coap-13\er-coap-13.c ****                 coap_pkt->accept_num += 1;
 3194              		.loc 1 782 38
 3195 030c BB69     		ldr	r3, [r7, #24]
 3196 030e 93F85530 		ldrb	r3, [r3, #85]	@ zero_extendqisi2
 3197 0312 0133     		adds	r3, r3, #1
 3198 0314 DAB2     		uxtb	r2, r3
 3199 0316 BB69     		ldr	r3, [r7, #24]
 3200 0318 83F85520 		strb	r2, [r3, #85]
 783:g:/iot/IoT_Device_Demo/iot_link/network/lwm2m/wakaama_lwm2m/wakaama-master/core/er-coap-13\er-coap-13.c ****                 PRINTF("Accept [%u]\n", coap_pkt->content_type);
 784:g:/iot/IoT_Device_Demo/iot_link/network/lwm2m/wakaama_lwm2m/wakaama-master/core/er-coap-13\er-coap-13.c ****             }
 785:g:/iot/IoT_Device_Demo/iot_link/network/lwm2m/wakaama_lwm2m/wakaama-master/core/er-coap-13\er-coap-13.c ****             break;
 3201              		.loc 1 785 13
 3202 031c DAE0     		b	.L170
 3203              	.L161:
 786:g:/iot/IoT_Device_Demo/iot_link/network/lwm2m/wakaama_lwm2m/wakaama-master/core/er-coap-13\er-coap-13.c ****         case COAP_OPTION_IF_MATCH:
 787:g:/iot/IoT_Device_Demo/iot_link/network/lwm2m/wakaama_lwm2m/wakaama-master/core/er-coap-13\er-coap-13.c ****             /*FIXME support multiple ETags */
 788:g:/iot/IoT_Device_Demo/iot_link/network/lwm2m/wakaama_lwm2m/wakaama-master/core/er-coap-13\er-coap-13.c ****             coap_pkt->if_match_len = (uint8_t)(MIN(COAP_ETAG_LEN, option_length));
 3204              		.loc 1 788 48
 3205 031e 3B69     		ldr	r3, [r7, #16]
ARM GAS  C:\Users\ADMINI~1\AppData\Local\Temp\cc8DJu9v.s 			page 71


 3206              		.loc 1 788 38
 3207 0320 082B     		cmp	r3, #8
 3208 0322 02D8     		bhi	.L166
 3209              		.loc 1 788 38 is_stmt 0 discriminator 1
 3210 0324 3B69     		ldr	r3, [r7, #16]
 3211 0326 DAB2     		uxtb	r2, r3
 3212 0328 00E0     		b	.L167
 3213              	.L166:
 3214              		.loc 1 788 38 discriminator 2
 3215 032a 0822     		movs	r2, #8
 3216              	.L167:
 3217              		.loc 1 788 36 is_stmt 1 discriminator 4
 3218 032c BB69     		ldr	r3, [r7, #24]
 3219 032e 83F85A20 		strb	r2, [r3, #90]
 789:g:/iot/IoT_Device_Demo/iot_link/network/lwm2m/wakaama_lwm2m/wakaama-master/core/er-coap-13\er-coap-13.c ****             memcpy(coap_pkt->if_match, current_option, coap_pkt->if_match_len);
 3220              		.loc 1 789 28 discriminator 4
 3221 0332 BB69     		ldr	r3, [r7, #24]
 3222 0334 03F15B00 		add	r0, r3, #91
 3223              		.loc 1 789 64 discriminator 4
 3224 0338 BB69     		ldr	r3, [r7, #24]
 3225 033a 93F85A30 		ldrb	r3, [r3, #90]	@ zero_extendqisi2
 3226              		.loc 1 789 13 discriminator 4
 3227 033e 1A46     		mov	r2, r3
 3228 0340 796A     		ldr	r1, [r7, #36]
 3229 0342 FFF7FEFF 		bl	memcpy
 790:g:/iot/IoT_Device_Demo/iot_link/network/lwm2m/wakaama_lwm2m/wakaama-master/core/er-coap-13\er-coap-13.c ****             PRINTF("If-Match %u [0x%02X%02X%02X%02X%02X%02X%02X%02X]\n", coap_pkt->if_match_len,
 791:g:/iot/IoT_Device_Demo/iot_link/network/lwm2m/wakaama_lwm2m/wakaama-master/core/er-coap-13\er-coap-13.c ****                    coap_pkt->if_match[0],
 792:g:/iot/IoT_Device_Demo/iot_link/network/lwm2m/wakaama_lwm2m/wakaama-master/core/er-coap-13\er-coap-13.c ****                    coap_pkt->if_match[1],
 793:g:/iot/IoT_Device_Demo/iot_link/network/lwm2m/wakaama_lwm2m/wakaama-master/core/er-coap-13\er-coap-13.c ****                    coap_pkt->if_match[2],
 794:g:/iot/IoT_Device_Demo/iot_link/network/lwm2m/wakaama_lwm2m/wakaama-master/core/er-coap-13\er-coap-13.c ****                    coap_pkt->if_match[3],
 795:g:/iot/IoT_Device_Demo/iot_link/network/lwm2m/wakaama_lwm2m/wakaama-master/core/er-coap-13\er-coap-13.c ****                    coap_pkt->if_match[4],
 796:g:/iot/IoT_Device_Demo/iot_link/network/lwm2m/wakaama_lwm2m/wakaama-master/core/er-coap-13\er-coap-13.c ****                    coap_pkt->if_match[5],
 797:g:/iot/IoT_Device_Demo/iot_link/network/lwm2m/wakaama_lwm2m/wakaama-master/core/er-coap-13\er-coap-13.c ****                    coap_pkt->if_match[6],
 798:g:/iot/IoT_Device_Demo/iot_link/network/lwm2m/wakaama_lwm2m/wakaama-master/core/er-coap-13\er-coap-13.c ****                    coap_pkt->if_match[7]
 799:g:/iot/IoT_Device_Demo/iot_link/network/lwm2m/wakaama_lwm2m/wakaama-master/core/er-coap-13\er-coap-13.c ****                   ); /*FIXME always prints 8 bytes */
 800:g:/iot/IoT_Device_Demo/iot_link/network/lwm2m/wakaama_lwm2m/wakaama-master/core/er-coap-13\er-coap-13.c ****             break;
 3230              		.loc 1 800 13 discriminator 4
 3231 0346 C6E0     		b	.L162
 3232              	.L158:
 801:g:/iot/IoT_Device_Demo/iot_link/network/lwm2m/wakaama_lwm2m/wakaama-master/core/er-coap-13\er-coap-13.c ****         case COAP_OPTION_IF_NONE_MATCH:
 802:g:/iot/IoT_Device_Demo/iot_link/network/lwm2m/wakaama_lwm2m/wakaama-master/core/er-coap-13\er-coap-13.c ****             coap_pkt->if_none_match = 1;
 3233              		.loc 1 802 37
 3234 0348 BB69     		ldr	r3, [r7, #24]
 3235 034a 0122     		movs	r2, #1
 3236 034c 83F88420 		strb	r2, [r3, #132]
 803:g:/iot/IoT_Device_Demo/iot_link/network/lwm2m/wakaama_lwm2m/wakaama-master/core/er-coap-13\er-coap-13.c ****             PRINTF("If-None-Match\n");
 804:g:/iot/IoT_Device_Demo/iot_link/network/lwm2m/wakaama_lwm2m/wakaama-master/core/er-coap-13\er-coap-13.c ****             break;
 3237              		.loc 1 804 13
 3238 0350 C1E0     		b	.L162
 3239              	.L172:
 3240 0352 00BF     		.align	2
 3241              	.L171:
 3242 0354 00000000 		.word	coap_error_message
 3243 0358 04000000 		.word	.LC1
 3244              	.L160:
 805:g:/iot/IoT_Device_Demo/iot_link/network/lwm2m/wakaama_lwm2m/wakaama-master/core/er-coap-13\er-coap-13.c **** 
 806:g:/iot/IoT_Device_Demo/iot_link/network/lwm2m/wakaama_lwm2m/wakaama-master/core/er-coap-13\er-coap-13.c ****         case COAP_OPTION_URI_HOST:
ARM GAS  C:\Users\ADMINI~1\AppData\Local\Temp\cc8DJu9v.s 			page 72


 807:g:/iot/IoT_Device_Demo/iot_link/network/lwm2m/wakaama_lwm2m/wakaama-master/core/er-coap-13\er-coap-13.c ****             coap_pkt->uri_host = current_option;
 3245              		.loc 1 807 32
 3246 035c BB69     		ldr	r3, [r7, #24]
 3247 035e 7A6A     		ldr	r2, [r7, #36]
 3248 0360 1A63     		str	r2, [r3, #48]
 808:g:/iot/IoT_Device_Demo/iot_link/network/lwm2m/wakaama_lwm2m/wakaama-master/core/er-coap-13\er-coap-13.c ****             coap_pkt->uri_host_len = option_length;
 3249              		.loc 1 808 36
 3250 0362 3A69     		ldr	r2, [r7, #16]
 3251 0364 BB69     		ldr	r3, [r7, #24]
 3252 0366 DA62     		str	r2, [r3, #44]
 809:g:/iot/IoT_Device_Demo/iot_link/network/lwm2m/wakaama_lwm2m/wakaama-master/core/er-coap-13\er-coap-13.c ****             PRINTF("Uri-Host [%.*s]\n", coap_pkt->uri_host_len, coap_pkt->uri_host);
 810:g:/iot/IoT_Device_Demo/iot_link/network/lwm2m/wakaama_lwm2m/wakaama-master/core/er-coap-13\er-coap-13.c ****             break;
 3253              		.loc 1 810 13
 3254 0368 B5E0     		b	.L162
 3255              	.L156:
 811:g:/iot/IoT_Device_Demo/iot_link/network/lwm2m/wakaama_lwm2m/wakaama-master/core/er-coap-13\er-coap-13.c ****         case COAP_OPTION_URI_PORT:
 812:g:/iot/IoT_Device_Demo/iot_link/network/lwm2m/wakaama_lwm2m/wakaama-master/core/er-coap-13\er-coap-13.c ****             coap_pkt->uri_port = coap_parse_int_option(current_option, option_length);
 3256              		.loc 1 812 34
 3257 036a 3B69     		ldr	r3, [r7, #16]
 3258 036c 1946     		mov	r1, r3
 3259 036e 786A     		ldr	r0, [r7, #36]
 3260 0370 FFF7FEFF 		bl	coap_parse_int_option
 3261 0374 0346     		mov	r3, r0
 3262              		.loc 1 812 32
 3263 0376 9AB2     		uxth	r2, r3
 3264 0378 BB69     		ldr	r3, [r7, #24]
 3265 037a 1A87     		strh	r2, [r3, #56]	@ movhi
 813:g:/iot/IoT_Device_Demo/iot_link/network/lwm2m/wakaama_lwm2m/wakaama-master/core/er-coap-13\er-coap-13.c ****             PRINTF("Uri-Port [%u]\n", coap_pkt->uri_port);
 814:g:/iot/IoT_Device_Demo/iot_link/network/lwm2m/wakaama_lwm2m/wakaama-master/core/er-coap-13\er-coap-13.c ****             break;
 3266              		.loc 1 814 13
 3267 037c ABE0     		b	.L162
 3268              	.L154:
 815:g:/iot/IoT_Device_Demo/iot_link/network/lwm2m/wakaama_lwm2m/wakaama-master/core/er-coap-13\er-coap-13.c ****         case COAP_OPTION_URI_PATH:
 816:g:/iot/IoT_Device_Demo/iot_link/network/lwm2m/wakaama_lwm2m/wakaama-master/core/er-coap-13\er-coap-13.c ****             /* coap_merge_multi_option() operates in-place on the IPBUF, but final packet field sho
 817:g:/iot/IoT_Device_Demo/iot_link/network/lwm2m/wakaama_lwm2m/wakaama-master/core/er-coap-13\er-coap-13.c ****             // coap_merge_multi_option( (char **) &(coap_pkt->uri_path), &(coap_pkt->uri_path_len),
 818:g:/iot/IoT_Device_Demo/iot_link/network/lwm2m/wakaama_lwm2m/wakaama-master/core/er-coap-13\er-coap-13.c ****             coap_add_multi_option( &(coap_pkt->uri_path), current_option, option_length, 1);
 3269              		.loc 1 818 13
 3270 037e BB69     		ldr	r3, [r7, #24]
 3271 0380 03F14400 		add	r0, r3, #68
 3272 0384 3A69     		ldr	r2, [r7, #16]
 3273 0386 0123     		movs	r3, #1
 3274 0388 796A     		ldr	r1, [r7, #36]
 3275 038a FFF7FEFF 		bl	coap_add_multi_option
 819:g:/iot/IoT_Device_Demo/iot_link/network/lwm2m/wakaama_lwm2m/wakaama-master/core/er-coap-13\er-coap-13.c ****             PRINTF("Uri-Path [%.*s]\n", option_length, current_option);
 820:g:/iot/IoT_Device_Demo/iot_link/network/lwm2m/wakaama_lwm2m/wakaama-master/core/er-coap-13\er-coap-13.c ****             break;
 3276              		.loc 1 820 13
 3277 038e A2E0     		b	.L162
 3278              	.L151:
 821:g:/iot/IoT_Device_Demo/iot_link/network/lwm2m/wakaama_lwm2m/wakaama-master/core/er-coap-13\er-coap-13.c ****         case COAP_OPTION_URI_QUERY:
 822:g:/iot/IoT_Device_Demo/iot_link/network/lwm2m/wakaama_lwm2m/wakaama-master/core/er-coap-13\er-coap-13.c ****             /* coap_merge_multi_option() operates in-place on the IPBUF, but final packet field sho
 823:g:/iot/IoT_Device_Demo/iot_link/network/lwm2m/wakaama_lwm2m/wakaama-master/core/er-coap-13\er-coap-13.c ****             // coap_merge_multi_option( (char **) &(coap_pkt->uri_query), &(coap_pkt->uri_query_len
 824:g:/iot/IoT_Device_Demo/iot_link/network/lwm2m/wakaama_lwm2m/wakaama-master/core/er-coap-13\er-coap-13.c ****             coap_add_multi_option( &(coap_pkt->uri_query), current_option, option_length, 1);
 3279              		.loc 1 824 13
 3280 0390 BB69     		ldr	r3, [r7, #24]
 3281 0392 03F18000 		add	r0, r3, #128
 3282 0396 3A69     		ldr	r2, [r7, #16]
 3283 0398 0123     		movs	r3, #1
ARM GAS  C:\Users\ADMINI~1\AppData\Local\Temp\cc8DJu9v.s 			page 73


 3284 039a 796A     		ldr	r1, [r7, #36]
 3285 039c FFF7FEFF 		bl	coap_add_multi_option
 825:g:/iot/IoT_Device_Demo/iot_link/network/lwm2m/wakaama_lwm2m/wakaama-master/core/er-coap-13\er-coap-13.c ****             PRINTF("Uri-Query [%.*s]\n", option_length, current_option);
 826:g:/iot/IoT_Device_Demo/iot_link/network/lwm2m/wakaama_lwm2m/wakaama-master/core/er-coap-13\er-coap-13.c ****             break;
 3286              		.loc 1 826 13
 3287 03a0 99E0     		b	.L162
 3288              	.L155:
 827:g:/iot/IoT_Device_Demo/iot_link/network/lwm2m/wakaama_lwm2m/wakaama-master/core/er-coap-13\er-coap-13.c **** 
 828:g:/iot/IoT_Device_Demo/iot_link/network/lwm2m/wakaama_lwm2m/wakaama-master/core/er-coap-13\er-coap-13.c ****         case COAP_OPTION_LOCATION_PATH:
 829:g:/iot/IoT_Device_Demo/iot_link/network/lwm2m/wakaama_lwm2m/wakaama-master/core/er-coap-13\er-coap-13.c ****             coap_add_multi_option( &(coap_pkt->location_path), current_option, option_length, 1);
 3289              		.loc 1 829 13
 3290 03a2 BB69     		ldr	r3, [r7, #24]
 3291 03a4 03F13400 		add	r0, r3, #52
 3292 03a8 3A69     		ldr	r2, [r7, #16]
 3293 03aa 0123     		movs	r3, #1
 3294 03ac 796A     		ldr	r1, [r7, #36]
 3295 03ae FFF7FEFF 		bl	coap_add_multi_option
 830:g:/iot/IoT_Device_Demo/iot_link/network/lwm2m/wakaama_lwm2m/wakaama-master/core/er-coap-13\er-coap-13.c ****             break;
 3296              		.loc 1 830 13
 3297 03b2 90E0     		b	.L162
 3298              	.L149:
 831:g:/iot/IoT_Device_Demo/iot_link/network/lwm2m/wakaama_lwm2m/wakaama-master/core/er-coap-13\er-coap-13.c ****         case COAP_OPTION_LOCATION_QUERY:
 832:g:/iot/IoT_Device_Demo/iot_link/network/lwm2m/wakaama_lwm2m/wakaama-master/core/er-coap-13\er-coap-13.c ****             /* coap_merge_multi_option() operates in-place on the IPBUF, but final packet field sho
 833:g:/iot/IoT_Device_Demo/iot_link/network/lwm2m/wakaama_lwm2m/wakaama-master/core/er-coap-13\er-coap-13.c ****             coap_merge_multi_option( &(coap_pkt->location_query), &(coap_pkt->location_query_len), 
 3299              		.loc 1 833 13
 3300 03b4 BB69     		ldr	r3, [r7, #24]
 3301 03b6 03F14000 		add	r0, r3, #64
 3302 03ba BB69     		ldr	r3, [r7, #24]
 3303 03bc 03F13C01 		add	r1, r3, #60
 3304 03c0 3B69     		ldr	r3, [r7, #16]
 3305 03c2 2622     		movs	r2, #38
 3306 03c4 0092     		str	r2, [sp]
 3307 03c6 7A6A     		ldr	r2, [r7, #36]
 3308 03c8 FFF7FEFF 		bl	coap_merge_multi_option
 834:g:/iot/IoT_Device_Demo/iot_link/network/lwm2m/wakaama_lwm2m/wakaama-master/core/er-coap-13\er-coap-13.c ****             PRINTF("Location-Query [%.*s]\n", option_length, current_option);
 835:g:/iot/IoT_Device_Demo/iot_link/network/lwm2m/wakaama_lwm2m/wakaama-master/core/er-coap-13\er-coap-13.c ****             break;
 3309              		.loc 1 835 13
 3310 03cc 83E0     		b	.L162
 3311              	.L144:
 836:g:/iot/IoT_Device_Demo/iot_link/network/lwm2m/wakaama_lwm2m/wakaama-master/core/er-coap-13\er-coap-13.c **** 
 837:g:/iot/IoT_Device_Demo/iot_link/network/lwm2m/wakaama_lwm2m/wakaama-master/core/er-coap-13\er-coap-13.c ****         case COAP_OPTION_PROXY_URI:
 838:g:/iot/IoT_Device_Demo/iot_link/network/lwm2m/wakaama_lwm2m/wakaama-master/core/er-coap-13\er-coap-13.c ****             /*FIXME check for own end-point */
 839:g:/iot/IoT_Device_Demo/iot_link/network/lwm2m/wakaama_lwm2m/wakaama-master/core/er-coap-13\er-coap-13.c ****             coap_pkt->proxy_uri = current_option;
 3312              		.loc 1 839 33
 3313 03ce BB69     		ldr	r3, [r7, #24]
 3314 03d0 7A6A     		ldr	r2, [r7, #36]
 3315 03d2 DA61     		str	r2, [r3, #28]
 840:g:/iot/IoT_Device_Demo/iot_link/network/lwm2m/wakaama_lwm2m/wakaama-master/core/er-coap-13\er-coap-13.c ****             coap_pkt->proxy_uri_len = option_length;
 3316              		.loc 1 840 37
 3317 03d4 3A69     		ldr	r2, [r7, #16]
 3318 03d6 BB69     		ldr	r3, [r7, #24]
 3319 03d8 9A61     		str	r2, [r3, #24]
 841:g:/iot/IoT_Device_Demo/iot_link/network/lwm2m/wakaama_lwm2m/wakaama-master/core/er-coap-13\er-coap-13.c ****             /*TODO length > 270 not implemented (actually not required) */
 842:g:/iot/IoT_Device_Demo/iot_link/network/lwm2m/wakaama_lwm2m/wakaama-master/core/er-coap-13\er-coap-13.c ****             PRINTF("Proxy-Uri NOT IMPLEMENTED [%.*s]\n", coap_pkt->proxy_uri_len, coap_pkt->proxy_u
 843:g:/iot/IoT_Device_Demo/iot_link/network/lwm2m/wakaama_lwm2m/wakaama-master/core/er-coap-13\er-coap-13.c ****             coap_error_message = "This is a constrained server (Contiki)";
 3320              		.loc 1 843 32
 3321 03da 474B     		ldr	r3, .L173
ARM GAS  C:\Users\ADMINI~1\AppData\Local\Temp\cc8DJu9v.s 			page 74


 3322 03dc 474A     		ldr	r2, .L173+4
 3323 03de 1A60     		str	r2, [r3]
 844:g:/iot/IoT_Device_Demo/iot_link/network/lwm2m/wakaama_lwm2m/wakaama-master/core/er-coap-13\er-coap-13.c ****             return PROXYING_NOT_SUPPORTED_5_05;
 3324              		.loc 1 844 20
 3325 03e0 A523     		movs	r3, #165
 3326 03e2 84E0     		b	.L169
 3327              	.L157:
 845:g:/iot/IoT_Device_Demo/iot_link/network/lwm2m/wakaama_lwm2m/wakaama-master/core/er-coap-13\er-coap-13.c ****         //        break;
 846:g:/iot/IoT_Device_Demo/iot_link/network/lwm2m/wakaama_lwm2m/wakaama-master/core/er-coap-13\er-coap-13.c **** 
 847:g:/iot/IoT_Device_Demo/iot_link/network/lwm2m/wakaama_lwm2m/wakaama-master/core/er-coap-13\er-coap-13.c ****         case COAP_OPTION_OBSERVE:
 848:g:/iot/IoT_Device_Demo/iot_link/network/lwm2m/wakaama_lwm2m/wakaama-master/core/er-coap-13\er-coap-13.c ****             coap_pkt->observe = coap_parse_int_option(current_option, option_length);
 3328              		.loc 1 848 33
 3329 03e4 3B69     		ldr	r3, [r7, #16]
 3330 03e6 1946     		mov	r1, r3
 3331 03e8 786A     		ldr	r0, [r7, #36]
 3332 03ea FFF7FEFF 		bl	coap_parse_int_option
 3333 03ee 0246     		mov	r2, r0
 3334              		.loc 1 848 31
 3335 03f0 BB69     		ldr	r3, [r7, #24]
 3336 03f2 9A64     		str	r2, [r3, #72]
 849:g:/iot/IoT_Device_Demo/iot_link/network/lwm2m/wakaama_lwm2m/wakaama-master/core/er-coap-13\er-coap-13.c ****             PRINTF("Observe [%lu]\n", coap_pkt->observe);
 850:g:/iot/IoT_Device_Demo/iot_link/network/lwm2m/wakaama_lwm2m/wakaama-master/core/er-coap-13\er-coap-13.c ****             break;
 3337              		.loc 1 850 13
 3338 03f4 6FE0     		b	.L162
 3339              	.L148:
 851:g:/iot/IoT_Device_Demo/iot_link/network/lwm2m/wakaama_lwm2m/wakaama-master/core/er-coap-13\er-coap-13.c ****         case COAP_OPTION_BLOCK2:
 852:g:/iot/IoT_Device_Demo/iot_link/network/lwm2m/wakaama_lwm2m/wakaama-master/core/er-coap-13\er-coap-13.c ****             coap_pkt->block2_num = coap_parse_int_option(current_option, option_length);
 3340              		.loc 1 852 36
 3341 03f6 3B69     		ldr	r3, [r7, #16]
 3342 03f8 1946     		mov	r1, r3
 3343 03fa 786A     		ldr	r0, [r7, #36]
 3344 03fc FFF7FEFF 		bl	coap_parse_int_option
 3345 0400 0246     		mov	r2, r0
 3346              		.loc 1 852 34
 3347 0402 BB69     		ldr	r3, [r7, #24]
 3348 0404 5A66     		str	r2, [r3, #100]
 853:g:/iot/IoT_Device_Demo/iot_link/network/lwm2m/wakaama_lwm2m/wakaama-master/core/er-coap-13\er-coap-13.c ****             coap_pkt->block2_more = (coap_pkt->block2_num & 0x08) >> 3;
 3349              		.loc 1 853 46
 3350 0406 BB69     		ldr	r3, [r7, #24]
 3351 0408 5B6E     		ldr	r3, [r3, #100]
 3352              		.loc 1 853 67
 3353 040a DB08     		lsrs	r3, r3, #3
 3354 040c DBB2     		uxtb	r3, r3
 3355 040e 03F00103 		and	r3, r3, #1
 3356 0412 DAB2     		uxtb	r2, r3
 3357              		.loc 1 853 35
 3358 0414 BB69     		ldr	r3, [r7, #24]
 3359 0416 83F86820 		strb	r2, [r3, #104]
 854:g:/iot/IoT_Device_Demo/iot_link/network/lwm2m/wakaama_lwm2m/wakaama-master/core/er-coap-13\er-coap-13.c ****             coap_pkt->block2_size = 16 << (coap_pkt->block2_num & 0x07);
 3360              		.loc 1 854 52
 3361 041a BB69     		ldr	r3, [r7, #24]
 3362 041c 5B6E     		ldr	r3, [r3, #100]
 3363              		.loc 1 854 65
 3364 041e 03F00703 		and	r3, r3, #7
 3365              		.loc 1 854 40
 3366 0422 1022     		movs	r2, #16
 3367 0424 02FA03F3 		lsl	r3, r2, r3
ARM GAS  C:\Users\ADMINI~1\AppData\Local\Temp\cc8DJu9v.s 			page 75


 3368              		.loc 1 854 35
 3369 0428 9AB2     		uxth	r2, r3
 3370 042a BB69     		ldr	r3, [r7, #24]
 3371 042c A3F86A20 		strh	r2, [r3, #106]	@ movhi
 855:g:/iot/IoT_Device_Demo/iot_link/network/lwm2m/wakaama_lwm2m/wakaama-master/core/er-coap-13\er-coap-13.c ****             coap_pkt->block2_offset = (coap_pkt->block2_num & ~0x0000000F) << (coap_pkt->block2_num
 3372              		.loc 1 855 48
 3373 0430 BB69     		ldr	r3, [r7, #24]
 3374 0432 5B6E     		ldr	r3, [r3, #100]
 3375              		.loc 1 855 61
 3376 0434 23F00F02 		bic	r2, r3, #15
 3377              		.loc 1 855 88
 3378 0438 BB69     		ldr	r3, [r7, #24]
 3379 043a 5B6E     		ldr	r3, [r3, #100]
 3380              		.loc 1 855 101
 3381 043c 03F00703 		and	r3, r3, #7
 3382              		.loc 1 855 76
 3383 0440 9A40     		lsls	r2, r2, r3
 3384              		.loc 1 855 37
 3385 0442 BB69     		ldr	r3, [r7, #24]
 3386 0444 DA66     		str	r2, [r3, #108]
 856:g:/iot/IoT_Device_Demo/iot_link/network/lwm2m/wakaama_lwm2m/wakaama-master/core/er-coap-13\er-coap-13.c ****             coap_pkt->block2_num >>= 4;
 3387              		.loc 1 856 34
 3388 0446 BB69     		ldr	r3, [r7, #24]
 3389 0448 5B6E     		ldr	r3, [r3, #100]
 3390 044a 1A09     		lsrs	r2, r3, #4
 3391 044c BB69     		ldr	r3, [r7, #24]
 3392 044e 5A66     		str	r2, [r3, #100]
 857:g:/iot/IoT_Device_Demo/iot_link/network/lwm2m/wakaama_lwm2m/wakaama-master/core/er-coap-13\er-coap-13.c ****             PRINTF("Block2 [%lu%s (%u B/blk)]\n", coap_pkt->block2_num, coap_pkt->block2_more ? "+"
 858:g:/iot/IoT_Device_Demo/iot_link/network/lwm2m/wakaama_lwm2m/wakaama-master/core/er-coap-13\er-coap-13.c ****             break;
 3393              		.loc 1 858 13
 3394 0450 41E0     		b	.L162
 3395              	.L147:
 859:g:/iot/IoT_Device_Demo/iot_link/network/lwm2m/wakaama_lwm2m/wakaama-master/core/er-coap-13\er-coap-13.c ****         case COAP_OPTION_BLOCK1:
 860:g:/iot/IoT_Device_Demo/iot_link/network/lwm2m/wakaama_lwm2m/wakaama-master/core/er-coap-13\er-coap-13.c ****             coap_pkt->block1_num = coap_parse_int_option(current_option, option_length);
 3396              		.loc 1 860 36
 3397 0452 3B69     		ldr	r3, [r7, #16]
 3398 0454 1946     		mov	r1, r3
 3399 0456 786A     		ldr	r0, [r7, #36]
 3400 0458 FFF7FEFF 		bl	coap_parse_int_option
 3401 045c 0246     		mov	r2, r0
 3402              		.loc 1 860 34
 3403 045e BB69     		ldr	r3, [r7, #24]
 3404 0460 1A67     		str	r2, [r3, #112]
 861:g:/iot/IoT_Device_Demo/iot_link/network/lwm2m/wakaama_lwm2m/wakaama-master/core/er-coap-13\er-coap-13.c ****             coap_pkt->block1_more = (coap_pkt->block1_num & 0x08) >> 3;
 3405              		.loc 1 861 46
 3406 0462 BB69     		ldr	r3, [r7, #24]
 3407 0464 1B6F     		ldr	r3, [r3, #112]
 3408              		.loc 1 861 67
 3409 0466 DB08     		lsrs	r3, r3, #3
 3410 0468 DBB2     		uxtb	r3, r3
 3411 046a 03F00103 		and	r3, r3, #1
 3412 046e DAB2     		uxtb	r2, r3
 3413              		.loc 1 861 35
 3414 0470 BB69     		ldr	r3, [r7, #24]
 3415 0472 83F87420 		strb	r2, [r3, #116]
 862:g:/iot/IoT_Device_Demo/iot_link/network/lwm2m/wakaama_lwm2m/wakaama-master/core/er-coap-13\er-coap-13.c ****             coap_pkt->block1_size = 16 << (coap_pkt->block1_num & 0x07);
 3416              		.loc 1 862 52
ARM GAS  C:\Users\ADMINI~1\AppData\Local\Temp\cc8DJu9v.s 			page 76


 3417 0476 BB69     		ldr	r3, [r7, #24]
 3418 0478 1B6F     		ldr	r3, [r3, #112]
 3419              		.loc 1 862 65
 3420 047a 03F00703 		and	r3, r3, #7
 3421              		.loc 1 862 40
 3422 047e 1022     		movs	r2, #16
 3423 0480 02FA03F3 		lsl	r3, r2, r3
 3424              		.loc 1 862 35
 3425 0484 9AB2     		uxth	r2, r3
 3426 0486 BB69     		ldr	r3, [r7, #24]
 3427 0488 A3F87620 		strh	r2, [r3, #118]	@ movhi
 863:g:/iot/IoT_Device_Demo/iot_link/network/lwm2m/wakaama_lwm2m/wakaama-master/core/er-coap-13\er-coap-13.c ****             coap_pkt->block1_offset = (coap_pkt->block1_num & ~0x0000000F) << (coap_pkt->block1_num
 3428              		.loc 1 863 48
 3429 048c BB69     		ldr	r3, [r7, #24]
 3430 048e 1B6F     		ldr	r3, [r3, #112]
 3431              		.loc 1 863 61
 3432 0490 23F00F02 		bic	r2, r3, #15
 3433              		.loc 1 863 88
 3434 0494 BB69     		ldr	r3, [r7, #24]
 3435 0496 1B6F     		ldr	r3, [r3, #112]
 3436              		.loc 1 863 101
 3437 0498 03F00703 		and	r3, r3, #7
 3438              		.loc 1 863 76
 3439 049c 9A40     		lsls	r2, r2, r3
 3440              		.loc 1 863 37
 3441 049e BB69     		ldr	r3, [r7, #24]
 3442 04a0 9A67     		str	r2, [r3, #120]
 864:g:/iot/IoT_Device_Demo/iot_link/network/lwm2m/wakaama_lwm2m/wakaama-master/core/er-coap-13\er-coap-13.c ****             coap_pkt->block1_num >>= 4;
 3443              		.loc 1 864 34
 3444 04a2 BB69     		ldr	r3, [r7, #24]
 3445 04a4 1B6F     		ldr	r3, [r3, #112]
 3446 04a6 1A09     		lsrs	r2, r3, #4
 3447 04a8 BB69     		ldr	r3, [r7, #24]
 3448 04aa 1A67     		str	r2, [r3, #112]
 865:g:/iot/IoT_Device_Demo/iot_link/network/lwm2m/wakaama_lwm2m/wakaama-master/core/er-coap-13\er-coap-13.c ****             PRINTF("Block1 [%lu%s (%u B/blk)]\n", coap_pkt->block1_num, coap_pkt->block1_more ? "+"
 866:g:/iot/IoT_Device_Demo/iot_link/network/lwm2m/wakaama_lwm2m/wakaama-master/core/er-coap-13\er-coap-13.c ****             break;
 3449              		.loc 1 866 13
 3450 04ac 13E0     		b	.L162
 3451              	.L146:
 867:g:/iot/IoT_Device_Demo/iot_link/network/lwm2m/wakaama_lwm2m/wakaama-master/core/er-coap-13\er-coap-13.c ****         case COAP_OPTION_SIZE:
 868:g:/iot/IoT_Device_Demo/iot_link/network/lwm2m/wakaama_lwm2m/wakaama-master/core/er-coap-13\er-coap-13.c ****             coap_pkt->size = coap_parse_int_option(current_option, option_length);
 3452              		.loc 1 868 30
 3453 04ae 3B69     		ldr	r3, [r7, #16]
 3454 04b0 1946     		mov	r1, r3
 3455 04b2 786A     		ldr	r0, [r7, #36]
 3456 04b4 FFF7FEFF 		bl	coap_parse_int_option
 3457 04b8 0246     		mov	r2, r0
 3458              		.loc 1 868 28
 3459 04ba BB69     		ldr	r3, [r7, #24]
 3460 04bc DA67     		str	r2, [r3, #124]
 869:g:/iot/IoT_Device_Demo/iot_link/network/lwm2m/wakaama_lwm2m/wakaama-master/core/er-coap-13\er-coap-13.c ****             PRINTF("Size [%lu]\n", coap_pkt->size);
 870:g:/iot/IoT_Device_Demo/iot_link/network/lwm2m/wakaama_lwm2m/wakaama-master/core/er-coap-13\er-coap-13.c ****             break;
 3461              		.loc 1 870 13
 3462 04be 0AE0     		b	.L162
 3463              	.L143:
 871:g:/iot/IoT_Device_Demo/iot_link/network/lwm2m/wakaama_lwm2m/wakaama-master/core/er-coap-13\er-coap-13.c ****         default:
 872:g:/iot/IoT_Device_Demo/iot_link/network/lwm2m/wakaama_lwm2m/wakaama-master/core/er-coap-13\er-coap-13.c ****             PRINTF("unknown (%u)\n", option_number);
ARM GAS  C:\Users\ADMINI~1\AppData\Local\Temp\cc8DJu9v.s 			page 77


 873:g:/iot/IoT_Device_Demo/iot_link/network/lwm2m/wakaama_lwm2m/wakaama-master/core/er-coap-13\er-coap-13.c ****             /* Check if critical (odd) */
 874:g:/iot/IoT_Device_Demo/iot_link/network/lwm2m/wakaama_lwm2m/wakaama-master/core/er-coap-13\er-coap-13.c ****             if (option_number & 1)
 3464              		.loc 1 874 31
 3465 04c0 3B6A     		ldr	r3, [r7, #32]
 3466 04c2 03F00103 		and	r3, r3, #1
 3467              		.loc 1 874 16
 3468 04c6 002B     		cmp	r3, #0
 3469 04c8 05D0     		beq	.L162
 875:g:/iot/IoT_Device_Demo/iot_link/network/lwm2m/wakaama_lwm2m/wakaama-master/core/er-coap-13\er-coap-13.c ****             {
 876:g:/iot/IoT_Device_Demo/iot_link/network/lwm2m/wakaama_lwm2m/wakaama-master/core/er-coap-13\er-coap-13.c ****                 coap_error_message = "Unsupported critical option";
 3470              		.loc 1 876 36
 3471 04ca 0B4B     		ldr	r3, .L173
 3472 04cc 0C4A     		ldr	r2, .L173+8
 3473 04ce 1A60     		str	r2, [r3]
 877:g:/iot/IoT_Device_Demo/iot_link/network/lwm2m/wakaama_lwm2m/wakaama-master/core/er-coap-13\er-coap-13.c ****                 return BAD_OPTION_4_02;
 3474              		.loc 1 877 24
 3475 04d0 8223     		movs	r3, #130
 3476 04d2 0CE0     		b	.L169
 3477              	.L170:
 785:g:/iot/IoT_Device_Demo/iot_link/network/lwm2m/wakaama_lwm2m/wakaama-master/core/er-coap-13\er-coap-13.c ****         case COAP_OPTION_IF_MATCH:
 3478              		.loc 1 785 13
 3479 04d4 00BF     		nop
 3480              	.L162:
 878:g:/iot/IoT_Device_Demo/iot_link/network/lwm2m/wakaama_lwm2m/wakaama-master/core/er-coap-13\er-coap-13.c ****             }
 879:g:/iot/IoT_Device_Demo/iot_link/network/lwm2m/wakaama_lwm2m/wakaama-master/core/er-coap-13\er-coap-13.c ****         }
 880:g:/iot/IoT_Device_Demo/iot_link/network/lwm2m/wakaama_lwm2m/wakaama-master/core/er-coap-13\er-coap-13.c **** 
 881:g:/iot/IoT_Device_Demo/iot_link/network/lwm2m/wakaama_lwm2m/wakaama-master/core/er-coap-13\er-coap-13.c ****         current_option += option_length;
 3481              		.loc 1 881 24
 3482 04d6 3B69     		ldr	r3, [r7, #16]
 3483 04d8 7A6A     		ldr	r2, [r7, #36]
 3484 04da 1344     		add	r3, r3, r2
 3485 04dc 7B62     		str	r3, [r7, #36]
 3486              	.L134:
 705:g:/iot/IoT_Device_Demo/iot_link/network/lwm2m/wakaama_lwm2m/wakaama-master/core/er-coap-13\er-coap-13.c ****     {
 3487              		.loc 1 705 34
 3488 04de FB88     		ldrh	r3, [r7, #6]
 3489 04e0 BA68     		ldr	r2, [r7, #8]
 3490 04e2 1344     		add	r3, r3, r2
 705:g:/iot/IoT_Device_Demo/iot_link/network/lwm2m/wakaama_lwm2m/wakaama-master/core/er-coap-13\er-coap-13.c ****     {
 3491              		.loc 1 705 11
 3492 04e4 7A6A     		ldr	r2, [r7, #36]
 3493 04e6 9A42     		cmp	r2, r3
 3494 04e8 FFF4FDAD 		bcc	.L168
 3495              	.L136:
 882:g:/iot/IoT_Device_Demo/iot_link/network/lwm2m/wakaama_lwm2m/wakaama-master/core/er-coap-13\er-coap-13.c ****     } /* for */
 883:g:/iot/IoT_Device_Demo/iot_link/network/lwm2m/wakaama_lwm2m/wakaama-master/core/er-coap-13\er-coap-13.c ****     PRINTF("-Done parsing-------\n");
 884:g:/iot/IoT_Device_Demo/iot_link/network/lwm2m/wakaama_lwm2m/wakaama-master/core/er-coap-13\er-coap-13.c **** 
 885:g:/iot/IoT_Device_Demo/iot_link/network/lwm2m/wakaama_lwm2m/wakaama-master/core/er-coap-13\er-coap-13.c **** 
 886:g:/iot/IoT_Device_Demo/iot_link/network/lwm2m/wakaama_lwm2m/wakaama-master/core/er-coap-13\er-coap-13.c **** 
 887:g:/iot/IoT_Device_Demo/iot_link/network/lwm2m/wakaama_lwm2m/wakaama-master/core/er-coap-13\er-coap-13.c ****     return NO_ERROR;
 3496              		.loc 1 887 12
 3497 04ec 0023     		movs	r3, #0
 3498              	.L169:
 888:g:/iot/IoT_Device_Demo/iot_link/network/lwm2m/wakaama_lwm2m/wakaama-master/core/er-coap-13\er-coap-13.c **** }
 3499              		.loc 1 888 1 discriminator 1
 3500 04ee 1846     		mov	r0, r3
 3501 04f0 2837     		adds	r7, r7, #40
ARM GAS  C:\Users\ADMINI~1\AppData\Local\Temp\cc8DJu9v.s 			page 78


 3502              	.LCFI91:
 3503              		.cfi_def_cfa_offset 8
 3504 04f2 BD46     		mov	sp, r7
 3505              	.LCFI92:
 3506              		.cfi_def_cfa_register 13
 3507              		@ sp needed
 3508 04f4 80BD     		pop	{r7, pc}
 3509              	.L174:
 3510 04f6 00BF     		.align	2
 3511              	.L173:
 3512 04f8 00000000 		.word	coap_error_message
 3513 04fc 1C000000 		.word	.LC2
 3514 0500 44000000 		.word	.LC3
 3515              		.cfi_endproc
 3516              	.LFE21:
 3518              		.section	.text.coap_get_query_variable,"ax",%progbits
 3519              		.align	1
 3520              		.global	coap_get_query_variable
 3521              		.syntax unified
 3522              		.thumb
 3523              		.thumb_func
 3524              		.fpu fpv4-sp-d16
 3526              	coap_get_query_variable:
 3527              	.LFB22:
 889:g:/iot/IoT_Device_Demo/iot_link/network/lwm2m/wakaama_lwm2m/wakaama-master/core/er-coap-13\er-coap-13.c **** /*-----------------------------------------------------------------------------------*/
 890:g:/iot/IoT_Device_Demo/iot_link/network/lwm2m/wakaama_lwm2m/wakaama-master/core/er-coap-13\er-coap-13.c **** /*- REST FRAMEWORK FUNCTIONS --------------------------------------------------------*/
 891:g:/iot/IoT_Device_Demo/iot_link/network/lwm2m/wakaama_lwm2m/wakaama-master/core/er-coap-13\er-coap-13.c **** /*-----------------------------------------------------------------------------------*/
 892:g:/iot/IoT_Device_Demo/iot_link/network/lwm2m/wakaama_lwm2m/wakaama-master/core/er-coap-13\er-coap-13.c **** int
 893:g:/iot/IoT_Device_Demo/iot_link/network/lwm2m/wakaama_lwm2m/wakaama-master/core/er-coap-13\er-coap-13.c **** coap_get_query_variable(void *packet, const char *name, const char **output)
 894:g:/iot/IoT_Device_Demo/iot_link/network/lwm2m/wakaama_lwm2m/wakaama-master/core/er-coap-13\er-coap-13.c **** {
 3528              		.loc 1 894 1
 3529              		.cfi_startproc
 3530              		@ args = 0, pretend = 0, frame = 16
 3531              		@ frame_needed = 1, uses_anonymous_args = 0
 3532              		@ link register save eliminated.
 3533 0000 80B4     		push	{r7}
 3534              	.LCFI93:
 3535              		.cfi_def_cfa_offset 4
 3536              		.cfi_offset 7, -4
 3537 0002 85B0     		sub	sp, sp, #20
 3538              	.LCFI94:
 3539              		.cfi_def_cfa_offset 24
 3540 0004 00AF     		add	r7, sp, #0
 3541              	.LCFI95:
 3542              		.cfi_def_cfa_register 7
 3543 0006 F860     		str	r0, [r7, #12]
 3544 0008 B960     		str	r1, [r7, #8]
 3545 000a 7A60     		str	r2, [r7, #4]
 895:g:/iot/IoT_Device_Demo/iot_link/network/lwm2m/wakaama_lwm2m/wakaama-master/core/er-coap-13\er-coap-13.c ****     /*
 896:g:/iot/IoT_Device_Demo/iot_link/network/lwm2m/wakaama_lwm2m/wakaama-master/core/er-coap-13\er-coap-13.c ****       coap_packet_t *const coap_pkt = (coap_packet_t *) packet;
 897:g:/iot/IoT_Device_Demo/iot_link/network/lwm2m/wakaama_lwm2m/wakaama-master/core/er-coap-13\er-coap-13.c **** 
 898:g:/iot/IoT_Device_Demo/iot_link/network/lwm2m/wakaama_lwm2m/wakaama-master/core/er-coap-13\er-coap-13.c ****       if (IS_OPTION(coap_pkt, COAP_OPTION_URI_QUERY)) {
 899:g:/iot/IoT_Device_Demo/iot_link/network/lwm2m/wakaama_lwm2m/wakaama-master/core/er-coap-13\er-coap-13.c ****         return coap_get_variable(coap_pkt->uri_query, coap_pkt->uri_query_len, name, output);
 900:g:/iot/IoT_Device_Demo/iot_link/network/lwm2m/wakaama_lwm2m/wakaama-master/core/er-coap-13\er-coap-13.c ****       }
 901:g:/iot/IoT_Device_Demo/iot_link/network/lwm2m/wakaama_lwm2m/wakaama-master/core/er-coap-13\er-coap-13.c ****     */
 902:g:/iot/IoT_Device_Demo/iot_link/network/lwm2m/wakaama_lwm2m/wakaama-master/core/er-coap-13\er-coap-13.c ****     return 0;
 3546              		.loc 1 902 12
ARM GAS  C:\Users\ADMINI~1\AppData\Local\Temp\cc8DJu9v.s 			page 79


 3547 000c 0023     		movs	r3, #0
 903:g:/iot/IoT_Device_Demo/iot_link/network/lwm2m/wakaama_lwm2m/wakaama-master/core/er-coap-13\er-coap-13.c **** }
 3548              		.loc 1 903 1
 3549 000e 1846     		mov	r0, r3
 3550 0010 1437     		adds	r7, r7, #20
 3551              	.LCFI96:
 3552              		.cfi_def_cfa_offset 4
 3553 0012 BD46     		mov	sp, r7
 3554              	.LCFI97:
 3555              		.cfi_def_cfa_register 13
 3556              		@ sp needed
 3557 0014 5DF8047B 		ldr	r7, [sp], #4
 3558              	.LCFI98:
 3559              		.cfi_restore 7
 3560              		.cfi_def_cfa_offset 0
 3561 0018 7047     		bx	lr
 3562              		.cfi_endproc
 3563              	.LFE22:
 3565              		.section	.text.coap_get_post_variable,"ax",%progbits
 3566              		.align	1
 3567              		.global	coap_get_post_variable
 3568              		.syntax unified
 3569              		.thumb
 3570              		.thumb_func
 3571              		.fpu fpv4-sp-d16
 3573              	coap_get_post_variable:
 3574              	.LFB23:
 904:g:/iot/IoT_Device_Demo/iot_link/network/lwm2m/wakaama_lwm2m/wakaama-master/core/er-coap-13\er-coap-13.c **** 
 905:g:/iot/IoT_Device_Demo/iot_link/network/lwm2m/wakaama_lwm2m/wakaama-master/core/er-coap-13\er-coap-13.c **** int
 906:g:/iot/IoT_Device_Demo/iot_link/network/lwm2m/wakaama_lwm2m/wakaama-master/core/er-coap-13\er-coap-13.c **** coap_get_post_variable(void *packet, const char *name, const char **output)
 907:g:/iot/IoT_Device_Demo/iot_link/network/lwm2m/wakaama_lwm2m/wakaama-master/core/er-coap-13\er-coap-13.c **** {
 3575              		.loc 1 907 1
 3576              		.cfi_startproc
 3577              		@ args = 0, pretend = 0, frame = 24
 3578              		@ frame_needed = 1, uses_anonymous_args = 0
 3579 0000 80B5     		push	{r7, lr}
 3580              	.LCFI99:
 3581              		.cfi_def_cfa_offset 8
 3582              		.cfi_offset 7, -8
 3583              		.cfi_offset 14, -4
 3584 0002 86B0     		sub	sp, sp, #24
 3585              	.LCFI100:
 3586              		.cfi_def_cfa_offset 32
 3587 0004 00AF     		add	r7, sp, #0
 3588              	.LCFI101:
 3589              		.cfi_def_cfa_register 7
 3590 0006 F860     		str	r0, [r7, #12]
 3591 0008 B960     		str	r1, [r7, #8]
 3592 000a 7A60     		str	r2, [r7, #4]
 908:g:/iot/IoT_Device_Demo/iot_link/network/lwm2m/wakaama_lwm2m/wakaama-master/core/er-coap-13\er-coap-13.c ****     coap_packet_t *const coap_pkt = (coap_packet_t *) packet;
 3593              		.loc 1 908 26
 3594 000c FB68     		ldr	r3, [r7, #12]
 3595 000e 7B61     		str	r3, [r7, #20]
 909:g:/iot/IoT_Device_Demo/iot_link/network/lwm2m/wakaama_lwm2m/wakaama-master/core/er-coap-13\er-coap-13.c **** 
 910:g:/iot/IoT_Device_Demo/iot_link/network/lwm2m/wakaama_lwm2m/wakaama-master/core/er-coap-13\er-coap-13.c ****     if (coap_pkt->payload_len)
 3596              		.loc 1 910 17
 3597 0010 7B69     		ldr	r3, [r7, #20]
ARM GAS  C:\Users\ADMINI~1\AppData\Local\Temp\cc8DJu9v.s 			page 80


 3598 0012 B3F88630 		ldrh	r3, [r3, #134]
 3599              		.loc 1 910 8
 3600 0016 002B     		cmp	r3, #0
 3601 0018 0CD0     		beq	.L178
 911:g:/iot/IoT_Device_Demo/iot_link/network/lwm2m/wakaama_lwm2m/wakaama-master/core/er-coap-13\er-coap-13.c ****     {
 912:g:/iot/IoT_Device_Demo/iot_link/network/lwm2m/wakaama_lwm2m/wakaama-master/core/er-coap-13\er-coap-13.c ****         return coap_get_variable(coap_pkt->payload, coap_pkt->payload_len, name, output);
 3602              		.loc 1 912 42
 3603 001a 7B69     		ldr	r3, [r7, #20]
 3604 001c D3F88800 		ldr	r0, [r3, #136]
 3605              		.loc 1 912 61
 3606 0020 7B69     		ldr	r3, [r7, #20]
 3607 0022 B3F88630 		ldrh	r3, [r3, #134]
 3608              		.loc 1 912 16
 3609 0026 1946     		mov	r1, r3
 3610 0028 7B68     		ldr	r3, [r7, #4]
 3611 002a BA68     		ldr	r2, [r7, #8]
 3612 002c FFF7FEFF 		bl	coap_get_variable
 3613 0030 0346     		mov	r3, r0
 3614 0032 00E0     		b	.L179
 3615              	.L178:
 913:g:/iot/IoT_Device_Demo/iot_link/network/lwm2m/wakaama_lwm2m/wakaama-master/core/er-coap-13\er-coap-13.c ****     }
 914:g:/iot/IoT_Device_Demo/iot_link/network/lwm2m/wakaama_lwm2m/wakaama-master/core/er-coap-13\er-coap-13.c ****     return 0;
 3616              		.loc 1 914 12
 3617 0034 0023     		movs	r3, #0
 3618              	.L179:
 915:g:/iot/IoT_Device_Demo/iot_link/network/lwm2m/wakaama_lwm2m/wakaama-master/core/er-coap-13\er-coap-13.c **** }
 3619              		.loc 1 915 1
 3620 0036 1846     		mov	r0, r3
 3621 0038 1837     		adds	r7, r7, #24
 3622              	.LCFI102:
 3623              		.cfi_def_cfa_offset 8
 3624 003a BD46     		mov	sp, r7
 3625              	.LCFI103:
 3626              		.cfi_def_cfa_register 13
 3627              		@ sp needed
 3628 003c 80BD     		pop	{r7, pc}
 3629              		.cfi_endproc
 3630              	.LFE23:
 3632              		.section	.text.coap_set_status_code,"ax",%progbits
 3633              		.align	1
 3634              		.global	coap_set_status_code
 3635              		.syntax unified
 3636              		.thumb
 3637              		.thumb_func
 3638              		.fpu fpv4-sp-d16
 3640              	coap_set_status_code:
 3641              	.LFB24:
 916:g:/iot/IoT_Device_Demo/iot_link/network/lwm2m/wakaama_lwm2m/wakaama-master/core/er-coap-13\er-coap-13.c **** /*-----------------------------------------------------------------------------------*/
 917:g:/iot/IoT_Device_Demo/iot_link/network/lwm2m/wakaama_lwm2m/wakaama-master/core/er-coap-13\er-coap-13.c **** int
 918:g:/iot/IoT_Device_Demo/iot_link/network/lwm2m/wakaama_lwm2m/wakaama-master/core/er-coap-13\er-coap-13.c **** coap_set_status_code(void *packet, unsigned int code)
 919:g:/iot/IoT_Device_Demo/iot_link/network/lwm2m/wakaama_lwm2m/wakaama-master/core/er-coap-13\er-coap-13.c **** {
 3642              		.loc 1 919 1
 3643              		.cfi_startproc
 3644              		@ args = 0, pretend = 0, frame = 8
 3645              		@ frame_needed = 1, uses_anonymous_args = 0
 3646              		@ link register save eliminated.
 3647 0000 80B4     		push	{r7}
ARM GAS  C:\Users\ADMINI~1\AppData\Local\Temp\cc8DJu9v.s 			page 81


 3648              	.LCFI104:
 3649              		.cfi_def_cfa_offset 4
 3650              		.cfi_offset 7, -4
 3651 0002 83B0     		sub	sp, sp, #12
 3652              	.LCFI105:
 3653              		.cfi_def_cfa_offset 16
 3654 0004 00AF     		add	r7, sp, #0
 3655              	.LCFI106:
 3656              		.cfi_def_cfa_register 7
 3657 0006 7860     		str	r0, [r7, #4]
 3658 0008 3960     		str	r1, [r7]
 920:g:/iot/IoT_Device_Demo/iot_link/network/lwm2m/wakaama_lwm2m/wakaama-master/core/er-coap-13\er-coap-13.c ****     if (code <= 0xFF)
 3659              		.loc 1 920 8
 3660 000a 3B68     		ldr	r3, [r7]
 3661 000c FF2B     		cmp	r3, #255
 3662 000e 05D8     		bhi	.L181
 921:g:/iot/IoT_Device_Demo/iot_link/network/lwm2m/wakaama_lwm2m/wakaama-master/core/er-coap-13\er-coap-13.c ****     {
 922:g:/iot/IoT_Device_Demo/iot_link/network/lwm2m/wakaama_lwm2m/wakaama-master/core/er-coap-13\er-coap-13.c ****         ((coap_packet_t *)packet)->code = (uint8_t) code;
 3663              		.loc 1 922 43
 3664 0010 3B68     		ldr	r3, [r7]
 3665 0012 DAB2     		uxtb	r2, r3
 3666              		.loc 1 922 41
 3667 0014 7B68     		ldr	r3, [r7, #4]
 3668 0016 9A71     		strb	r2, [r3, #6]
 923:g:/iot/IoT_Device_Demo/iot_link/network/lwm2m/wakaama_lwm2m/wakaama-master/core/er-coap-13\er-coap-13.c ****         return 1;
 3669              		.loc 1 923 16
 3670 0018 0123     		movs	r3, #1
 3671 001a 00E0     		b	.L182
 3672              	.L181:
 924:g:/iot/IoT_Device_Demo/iot_link/network/lwm2m/wakaama_lwm2m/wakaama-master/core/er-coap-13\er-coap-13.c ****     }
 925:g:/iot/IoT_Device_Demo/iot_link/network/lwm2m/wakaama_lwm2m/wakaama-master/core/er-coap-13\er-coap-13.c ****     else
 926:g:/iot/IoT_Device_Demo/iot_link/network/lwm2m/wakaama_lwm2m/wakaama-master/core/er-coap-13\er-coap-13.c ****     {
 927:g:/iot/IoT_Device_Demo/iot_link/network/lwm2m/wakaama_lwm2m/wakaama-master/core/er-coap-13\er-coap-13.c ****         return 0;
 3673              		.loc 1 927 16
 3674 001c 0023     		movs	r3, #0
 3675              	.L182:
 928:g:/iot/IoT_Device_Demo/iot_link/network/lwm2m/wakaama_lwm2m/wakaama-master/core/er-coap-13\er-coap-13.c ****     }
 929:g:/iot/IoT_Device_Demo/iot_link/network/lwm2m/wakaama_lwm2m/wakaama-master/core/er-coap-13\er-coap-13.c **** }
 3676              		.loc 1 929 1
 3677 001e 1846     		mov	r0, r3
 3678 0020 0C37     		adds	r7, r7, #12
 3679              	.LCFI107:
 3680              		.cfi_def_cfa_offset 4
 3681 0022 BD46     		mov	sp, r7
 3682              	.LCFI108:
 3683              		.cfi_def_cfa_register 13
 3684              		@ sp needed
 3685 0024 5DF8047B 		ldr	r7, [sp], #4
 3686              	.LCFI109:
 3687              		.cfi_restore 7
 3688              		.cfi_def_cfa_offset 0
 3689 0028 7047     		bx	lr
 3690              		.cfi_endproc
 3691              	.LFE24:
 3693              		.section	.text.coap_get_header_content_type,"ax",%progbits
 3694              		.align	1
 3695              		.global	coap_get_header_content_type
ARM GAS  C:\Users\ADMINI~1\AppData\Local\Temp\cc8DJu9v.s 			page 82


 3696              		.syntax unified
 3697              		.thumb
 3698              		.thumb_func
 3699              		.fpu fpv4-sp-d16
 3701              	coap_get_header_content_type:
 3702              	.LFB25:
 930:g:/iot/IoT_Device_Demo/iot_link/network/lwm2m/wakaama_lwm2m/wakaama-master/core/er-coap-13\er-coap-13.c **** /*-----------------------------------------------------------------------------------*/
 931:g:/iot/IoT_Device_Demo/iot_link/network/lwm2m/wakaama_lwm2m/wakaama-master/core/er-coap-13\er-coap-13.c **** /*- HEADER OPTION GETTERS AND SETTERS -----------------------------------------------*/
 932:g:/iot/IoT_Device_Demo/iot_link/network/lwm2m/wakaama_lwm2m/wakaama-master/core/er-coap-13\er-coap-13.c **** /*-----------------------------------------------------------------------------------*/
 933:g:/iot/IoT_Device_Demo/iot_link/network/lwm2m/wakaama_lwm2m/wakaama-master/core/er-coap-13\er-coap-13.c **** unsigned int
 934:g:/iot/IoT_Device_Demo/iot_link/network/lwm2m/wakaama_lwm2m/wakaama-master/core/er-coap-13\er-coap-13.c **** coap_get_header_content_type(void *packet)
 935:g:/iot/IoT_Device_Demo/iot_link/network/lwm2m/wakaama_lwm2m/wakaama-master/core/er-coap-13\er-coap-13.c **** {
 3703              		.loc 1 935 1
 3704              		.cfi_startproc
 3705              		@ args = 0, pretend = 0, frame = 16
 3706              		@ frame_needed = 1, uses_anonymous_args = 0
 3707              		@ link register save eliminated.
 3708 0000 80B4     		push	{r7}
 3709              	.LCFI110:
 3710              		.cfi_def_cfa_offset 4
 3711              		.cfi_offset 7, -4
 3712 0002 85B0     		sub	sp, sp, #20
 3713              	.LCFI111:
 3714              		.cfi_def_cfa_offset 24
 3715 0004 00AF     		add	r7, sp, #0
 3716              	.LCFI112:
 3717              		.cfi_def_cfa_register 7
 3718 0006 7860     		str	r0, [r7, #4]
 936:g:/iot/IoT_Device_Demo/iot_link/network/lwm2m/wakaama_lwm2m/wakaama-master/core/er-coap-13\er-coap-13.c ****     coap_packet_t *const coap_pkt = (coap_packet_t *) packet;
 3719              		.loc 1 936 26
 3720 0008 7B68     		ldr	r3, [r7, #4]
 3721 000a FB60     		str	r3, [r7, #12]
 937:g:/iot/IoT_Device_Demo/iot_link/network/lwm2m/wakaama_lwm2m/wakaama-master/core/er-coap-13\er-coap-13.c **** 
 938:g:/iot/IoT_Device_Demo/iot_link/network/lwm2m/wakaama_lwm2m/wakaama-master/core/er-coap-13\er-coap-13.c ****     if (!IS_OPTION(coap_pkt, COAP_OPTION_CONTENT_TYPE)) return (unsigned int) - 1;
 3722              		.loc 1 938 10
 3723 000c FB68     		ldr	r3, [r7, #12]
 3724 000e DB7A     		ldrb	r3, [r3, #11]	@ zero_extendqisi2
 3725 0010 03F01003 		and	r3, r3, #16
 3726              		.loc 1 938 8
 3727 0014 002B     		cmp	r3, #0
 3728 0016 02D1     		bne	.L184
 3729              		.loc 1 938 64 discriminator 1
 3730 0018 4FF0FF33 		mov	r3, #-1
 3731 001c 01E0     		b	.L185
 3732              	.L184:
 939:g:/iot/IoT_Device_Demo/iot_link/network/lwm2m/wakaama_lwm2m/wakaama-master/core/er-coap-13\er-coap-13.c **** 
 940:g:/iot/IoT_Device_Demo/iot_link/network/lwm2m/wakaama_lwm2m/wakaama-master/core/er-coap-13\er-coap-13.c ****     return coap_pkt->content_type;
 3733              		.loc 1 940 20
 3734 001e FB68     		ldr	r3, [r7, #12]
 3735 0020 1B8A     		ldrh	r3, [r3, #16]
 3736              	.L185:
 941:g:/iot/IoT_Device_Demo/iot_link/network/lwm2m/wakaama_lwm2m/wakaama-master/core/er-coap-13\er-coap-13.c **** }
 3737              		.loc 1 941 1
 3738 0022 1846     		mov	r0, r3
 3739 0024 1437     		adds	r7, r7, #20
 3740              	.LCFI113:
 3741              		.cfi_def_cfa_offset 4
ARM GAS  C:\Users\ADMINI~1\AppData\Local\Temp\cc8DJu9v.s 			page 83


 3742 0026 BD46     		mov	sp, r7
 3743              	.LCFI114:
 3744              		.cfi_def_cfa_register 13
 3745              		@ sp needed
 3746 0028 5DF8047B 		ldr	r7, [sp], #4
 3747              	.LCFI115:
 3748              		.cfi_restore 7
 3749              		.cfi_def_cfa_offset 0
 3750 002c 7047     		bx	lr
 3751              		.cfi_endproc
 3752              	.LFE25:
 3754              		.section	.text.coap_set_header_content_type,"ax",%progbits
 3755              		.align	1
 3756              		.global	coap_set_header_content_type
 3757              		.syntax unified
 3758              		.thumb
 3759              		.thumb_func
 3760              		.fpu fpv4-sp-d16
 3762              	coap_set_header_content_type:
 3763              	.LFB26:
 942:g:/iot/IoT_Device_Demo/iot_link/network/lwm2m/wakaama_lwm2m/wakaama-master/core/er-coap-13\er-coap-13.c **** 
 943:g:/iot/IoT_Device_Demo/iot_link/network/lwm2m/wakaama_lwm2m/wakaama-master/core/er-coap-13\er-coap-13.c **** int
 944:g:/iot/IoT_Device_Demo/iot_link/network/lwm2m/wakaama_lwm2m/wakaama-master/core/er-coap-13\er-coap-13.c **** coap_set_header_content_type(void *packet, unsigned int content_type)
 945:g:/iot/IoT_Device_Demo/iot_link/network/lwm2m/wakaama_lwm2m/wakaama-master/core/er-coap-13\er-coap-13.c **** {
 3764              		.loc 1 945 1
 3765              		.cfi_startproc
 3766              		@ args = 0, pretend = 0, frame = 16
 3767              		@ frame_needed = 1, uses_anonymous_args = 0
 3768              		@ link register save eliminated.
 3769 0000 80B4     		push	{r7}
 3770              	.LCFI116:
 3771              		.cfi_def_cfa_offset 4
 3772              		.cfi_offset 7, -4
 3773 0002 85B0     		sub	sp, sp, #20
 3774              	.LCFI117:
 3775              		.cfi_def_cfa_offset 24
 3776 0004 00AF     		add	r7, sp, #0
 3777              	.LCFI118:
 3778              		.cfi_def_cfa_register 7
 3779 0006 7860     		str	r0, [r7, #4]
 3780 0008 3960     		str	r1, [r7]
 946:g:/iot/IoT_Device_Demo/iot_link/network/lwm2m/wakaama_lwm2m/wakaama-master/core/er-coap-13\er-coap-13.c ****     coap_packet_t *const coap_pkt = (coap_packet_t *) packet;
 3781              		.loc 1 946 26
 3782 000a 7B68     		ldr	r3, [r7, #4]
 3783 000c FB60     		str	r3, [r7, #12]
 947:g:/iot/IoT_Device_Demo/iot_link/network/lwm2m/wakaama_lwm2m/wakaama-master/core/er-coap-13\er-coap-13.c **** 
 948:g:/iot/IoT_Device_Demo/iot_link/network/lwm2m/wakaama_lwm2m/wakaama-master/core/er-coap-13\er-coap-13.c ****     coap_pkt->content_type = (coap_content_type_t) content_type;
 3784              		.loc 1 948 30
 3785 000e 3B68     		ldr	r3, [r7]
 3786 0010 9AB2     		uxth	r2, r3
 3787              		.loc 1 948 28
 3788 0012 FB68     		ldr	r3, [r7, #12]
 3789 0014 1A82     		strh	r2, [r3, #16]	@ movhi
 949:g:/iot/IoT_Device_Demo/iot_link/network/lwm2m/wakaama_lwm2m/wakaama-master/core/er-coap-13\er-coap-13.c ****     SET_OPTION(coap_pkt, COAP_OPTION_CONTENT_TYPE);
 3790              		.loc 1 949 5
 3791 0016 FB68     		ldr	r3, [r7, #12]
 3792 0018 DB7A     		ldrb	r3, [r3, #11]	@ zero_extendqisi2
ARM GAS  C:\Users\ADMINI~1\AppData\Local\Temp\cc8DJu9v.s 			page 84


 3793 001a 43F01003 		orr	r3, r3, #16
 3794 001e DAB2     		uxtb	r2, r3
 3795 0020 FB68     		ldr	r3, [r7, #12]
 3796 0022 DA72     		strb	r2, [r3, #11]
 950:g:/iot/IoT_Device_Demo/iot_link/network/lwm2m/wakaama_lwm2m/wakaama-master/core/er-coap-13\er-coap-13.c ****     return 1;
 3797              		.loc 1 950 12
 3798 0024 0123     		movs	r3, #1
 951:g:/iot/IoT_Device_Demo/iot_link/network/lwm2m/wakaama_lwm2m/wakaama-master/core/er-coap-13\er-coap-13.c **** }
 3799              		.loc 1 951 1
 3800 0026 1846     		mov	r0, r3
 3801 0028 1437     		adds	r7, r7, #20
 3802              	.LCFI119:
 3803              		.cfi_def_cfa_offset 4
 3804 002a BD46     		mov	sp, r7
 3805              	.LCFI120:
 3806              		.cfi_def_cfa_register 13
 3807              		@ sp needed
 3808 002c 5DF8047B 		ldr	r7, [sp], #4
 3809              	.LCFI121:
 3810              		.cfi_restore 7
 3811              		.cfi_def_cfa_offset 0
 3812 0030 7047     		bx	lr
 3813              		.cfi_endproc
 3814              	.LFE26:
 3816              		.section	.text.coap_get_header_accept,"ax",%progbits
 3817              		.align	1
 3818              		.global	coap_get_header_accept
 3819              		.syntax unified
 3820              		.thumb
 3821              		.thumb_func
 3822              		.fpu fpv4-sp-d16
 3824              	coap_get_header_accept:
 3825              	.LFB27:
 952:g:/iot/IoT_Device_Demo/iot_link/network/lwm2m/wakaama_lwm2m/wakaama-master/core/er-coap-13\er-coap-13.c **** /*-----------------------------------------------------------------------------------*/
 953:g:/iot/IoT_Device_Demo/iot_link/network/lwm2m/wakaama_lwm2m/wakaama-master/core/er-coap-13\er-coap-13.c **** int
 954:g:/iot/IoT_Device_Demo/iot_link/network/lwm2m/wakaama_lwm2m/wakaama-master/core/er-coap-13\er-coap-13.c **** coap_get_header_accept(void *packet, const uint16_t **accept)
 955:g:/iot/IoT_Device_Demo/iot_link/network/lwm2m/wakaama_lwm2m/wakaama-master/core/er-coap-13\er-coap-13.c **** {
 3826              		.loc 1 955 1
 3827              		.cfi_startproc
 3828              		@ args = 0, pretend = 0, frame = 16
 3829              		@ frame_needed = 1, uses_anonymous_args = 0
 3830              		@ link register save eliminated.
 3831 0000 80B4     		push	{r7}
 3832              	.LCFI122:
 3833              		.cfi_def_cfa_offset 4
 3834              		.cfi_offset 7, -4
 3835 0002 85B0     		sub	sp, sp, #20
 3836              	.LCFI123:
 3837              		.cfi_def_cfa_offset 24
 3838 0004 00AF     		add	r7, sp, #0
 3839              	.LCFI124:
 3840              		.cfi_def_cfa_register 7
 3841 0006 7860     		str	r0, [r7, #4]
 3842 0008 3960     		str	r1, [r7]
 956:g:/iot/IoT_Device_Demo/iot_link/network/lwm2m/wakaama_lwm2m/wakaama-master/core/er-coap-13\er-coap-13.c ****     coap_packet_t *const coap_pkt = (coap_packet_t *) packet;
 3843              		.loc 1 956 26
 3844 000a 7B68     		ldr	r3, [r7, #4]
ARM GAS  C:\Users\ADMINI~1\AppData\Local\Temp\cc8DJu9v.s 			page 85


 3845 000c FB60     		str	r3, [r7, #12]
 957:g:/iot/IoT_Device_Demo/iot_link/network/lwm2m/wakaama_lwm2m/wakaama-master/core/er-coap-13\er-coap-13.c **** 
 958:g:/iot/IoT_Device_Demo/iot_link/network/lwm2m/wakaama_lwm2m/wakaama-master/core/er-coap-13\er-coap-13.c ****     if (!IS_OPTION(coap_pkt, COAP_OPTION_ACCEPT)) return 0;
 3846              		.loc 1 958 10
 3847 000e FB68     		ldr	r3, [r7, #12]
 3848 0010 1B7B     		ldrb	r3, [r3, #12]	@ zero_extendqisi2
 3849 0012 03F00203 		and	r3, r3, #2
 3850              		.loc 1 958 8
 3851 0016 002B     		cmp	r3, #0
 3852 0018 01D1     		bne	.L189
 3853              		.loc 1 958 58 discriminator 1
 3854 001a 0023     		movs	r3, #0
 3855 001c 07E0     		b	.L190
 3856              	.L189:
 959:g:/iot/IoT_Device_Demo/iot_link/network/lwm2m/wakaama_lwm2m/wakaama-master/core/er-coap-13\er-coap-13.c **** 
 960:g:/iot/IoT_Device_Demo/iot_link/network/lwm2m/wakaama_lwm2m/wakaama-master/core/er-coap-13\er-coap-13.c ****     *accept = coap_pkt->accept;
 3857              		.loc 1 960 15
 3858 001e FB68     		ldr	r3, [r7, #12]
 3859 0020 03F15602 		add	r2, r3, #86
 3860              		.loc 1 960 13
 3861 0024 3B68     		ldr	r3, [r7]
 3862 0026 1A60     		str	r2, [r3]
 961:g:/iot/IoT_Device_Demo/iot_link/network/lwm2m/wakaama_lwm2m/wakaama-master/core/er-coap-13\er-coap-13.c ****     return coap_pkt->accept_num;
 3863              		.loc 1 961 20
 3864 0028 FB68     		ldr	r3, [r7, #12]
 3865 002a 93F85530 		ldrb	r3, [r3, #85]	@ zero_extendqisi2
 3866              	.L190:
 962:g:/iot/IoT_Device_Demo/iot_link/network/lwm2m/wakaama_lwm2m/wakaama-master/core/er-coap-13\er-coap-13.c **** }
 3867              		.loc 1 962 1
 3868 002e 1846     		mov	r0, r3
 3869 0030 1437     		adds	r7, r7, #20
 3870              	.LCFI125:
 3871              		.cfi_def_cfa_offset 4
 3872 0032 BD46     		mov	sp, r7
 3873              	.LCFI126:
 3874              		.cfi_def_cfa_register 13
 3875              		@ sp needed
 3876 0034 5DF8047B 		ldr	r7, [sp], #4
 3877              	.LCFI127:
 3878              		.cfi_restore 7
 3879              		.cfi_def_cfa_offset 0
 3880 0038 7047     		bx	lr
 3881              		.cfi_endproc
 3882              	.LFE27:
 3884              		.section	.text.coap_set_header_accept,"ax",%progbits
 3885              		.align	1
 3886              		.global	coap_set_header_accept
 3887              		.syntax unified
 3888              		.thumb
 3889              		.thumb_func
 3890              		.fpu fpv4-sp-d16
 3892              	coap_set_header_accept:
 3893              	.LFB28:
 963:g:/iot/IoT_Device_Demo/iot_link/network/lwm2m/wakaama_lwm2m/wakaama-master/core/er-coap-13\er-coap-13.c **** 
 964:g:/iot/IoT_Device_Demo/iot_link/network/lwm2m/wakaama_lwm2m/wakaama-master/core/er-coap-13\er-coap-13.c **** int
 965:g:/iot/IoT_Device_Demo/iot_link/network/lwm2m/wakaama_lwm2m/wakaama-master/core/er-coap-13\er-coap-13.c **** coap_set_header_accept(void *packet, uint16_t accept)
 966:g:/iot/IoT_Device_Demo/iot_link/network/lwm2m/wakaama_lwm2m/wakaama-master/core/er-coap-13\er-coap-13.c **** {
ARM GAS  C:\Users\ADMINI~1\AppData\Local\Temp\cc8DJu9v.s 			page 86


 3894              		.loc 1 966 1
 3895              		.cfi_startproc
 3896              		@ args = 0, pretend = 0, frame = 16
 3897              		@ frame_needed = 1, uses_anonymous_args = 0
 3898              		@ link register save eliminated.
 3899 0000 80B4     		push	{r7}
 3900              	.LCFI128:
 3901              		.cfi_def_cfa_offset 4
 3902              		.cfi_offset 7, -4
 3903 0002 85B0     		sub	sp, sp, #20
 3904              	.LCFI129:
 3905              		.cfi_def_cfa_offset 24
 3906 0004 00AF     		add	r7, sp, #0
 3907              	.LCFI130:
 3908              		.cfi_def_cfa_register 7
 3909 0006 7860     		str	r0, [r7, #4]
 3910 0008 0B46     		mov	r3, r1
 3911 000a 7B80     		strh	r3, [r7, #2]	@ movhi
 967:g:/iot/IoT_Device_Demo/iot_link/network/lwm2m/wakaama_lwm2m/wakaama-master/core/er-coap-13\er-coap-13.c ****     coap_packet_t *const coap_pkt = (coap_packet_t *) packet;
 3912              		.loc 1 967 26
 3913 000c 7B68     		ldr	r3, [r7, #4]
 3914 000e FB60     		str	r3, [r7, #12]
 968:g:/iot/IoT_Device_Demo/iot_link/network/lwm2m/wakaama_lwm2m/wakaama-master/core/er-coap-13\er-coap-13.c **** 
 969:g:/iot/IoT_Device_Demo/iot_link/network/lwm2m/wakaama_lwm2m/wakaama-master/core/er-coap-13\er-coap-13.c ****     if (coap_pkt->accept_num < COAP_MAX_ACCEPT_NUM)
 3915              		.loc 1 969 17
 3916 0010 FB68     		ldr	r3, [r7, #12]
 3917 0012 93F85530 		ldrb	r3, [r3, #85]	@ zero_extendqisi2
 3918              		.loc 1 969 8
 3919 0016 012B     		cmp	r3, #1
 3920 0018 17D8     		bhi	.L192
 970:g:/iot/IoT_Device_Demo/iot_link/network/lwm2m/wakaama_lwm2m/wakaama-master/core/er-coap-13\er-coap-13.c ****     {
 971:g:/iot/IoT_Device_Demo/iot_link/network/lwm2m/wakaama_lwm2m/wakaama-master/core/er-coap-13\er-coap-13.c ****         coap_pkt->accept[coap_pkt->accept_num] = accept;
 3921              		.loc 1 971 34
 3922 001a FB68     		ldr	r3, [r7, #12]
 3923 001c 93F85530 		ldrb	r3, [r3, #85]	@ zero_extendqisi2
 3924              		.loc 1 971 48
 3925 0020 FA68     		ldr	r2, [r7, #12]
 3926 0022 2833     		adds	r3, r3, #40
 3927 0024 5B00     		lsls	r3, r3, #1
 3928 0026 1344     		add	r3, r3, r2
 3929 0028 7A88     		ldrh	r2, [r7, #2]	@ movhi
 3930 002a DA80     		strh	r2, [r3, #6]	@ movhi
 972:g:/iot/IoT_Device_Demo/iot_link/network/lwm2m/wakaama_lwm2m/wakaama-master/core/er-coap-13\er-coap-13.c ****         coap_pkt->accept_num += 1;
 3931              		.loc 1 972 30
 3932 002c FB68     		ldr	r3, [r7, #12]
 3933 002e 93F85530 		ldrb	r3, [r3, #85]	@ zero_extendqisi2
 3934 0032 0133     		adds	r3, r3, #1
 3935 0034 DAB2     		uxtb	r2, r3
 3936 0036 FB68     		ldr	r3, [r7, #12]
 3937 0038 83F85520 		strb	r2, [r3, #85]
 973:g:/iot/IoT_Device_Demo/iot_link/network/lwm2m/wakaama_lwm2m/wakaama-master/core/er-coap-13\er-coap-13.c **** 
 974:g:/iot/IoT_Device_Demo/iot_link/network/lwm2m/wakaama_lwm2m/wakaama-master/core/er-coap-13\er-coap-13.c ****         SET_OPTION(coap_pkt, COAP_OPTION_ACCEPT);
 3938              		.loc 1 974 9
 3939 003c FB68     		ldr	r3, [r7, #12]
 3940 003e 1B7B     		ldrb	r3, [r3, #12]	@ zero_extendqisi2
 3941 0040 43F00203 		orr	r3, r3, #2
 3942 0044 DAB2     		uxtb	r2, r3
ARM GAS  C:\Users\ADMINI~1\AppData\Local\Temp\cc8DJu9v.s 			page 87


 3943 0046 FB68     		ldr	r3, [r7, #12]
 3944 0048 1A73     		strb	r2, [r3, #12]
 3945              	.L192:
 975:g:/iot/IoT_Device_Demo/iot_link/network/lwm2m/wakaama_lwm2m/wakaama-master/core/er-coap-13\er-coap-13.c ****     }
 976:g:/iot/IoT_Device_Demo/iot_link/network/lwm2m/wakaama_lwm2m/wakaama-master/core/er-coap-13\er-coap-13.c ****     return coap_pkt->accept_num;
 3946              		.loc 1 976 20
 3947 004a FB68     		ldr	r3, [r7, #12]
 3948 004c 93F85530 		ldrb	r3, [r3, #85]	@ zero_extendqisi2
 977:g:/iot/IoT_Device_Demo/iot_link/network/lwm2m/wakaama_lwm2m/wakaama-master/core/er-coap-13\er-coap-13.c **** }
 3949              		.loc 1 977 1
 3950 0050 1846     		mov	r0, r3
 3951 0052 1437     		adds	r7, r7, #20
 3952              	.LCFI131:
 3953              		.cfi_def_cfa_offset 4
 3954 0054 BD46     		mov	sp, r7
 3955              	.LCFI132:
 3956              		.cfi_def_cfa_register 13
 3957              		@ sp needed
 3958 0056 5DF8047B 		ldr	r7, [sp], #4
 3959              	.LCFI133:
 3960              		.cfi_restore 7
 3961              		.cfi_def_cfa_offset 0
 3962 005a 7047     		bx	lr
 3963              		.cfi_endproc
 3964              	.LFE28:
 3966              		.section	.text.coap_get_header_max_age,"ax",%progbits
 3967              		.align	1
 3968              		.global	coap_get_header_max_age
 3969              		.syntax unified
 3970              		.thumb
 3971              		.thumb_func
 3972              		.fpu fpv4-sp-d16
 3974              	coap_get_header_max_age:
 3975              	.LFB29:
 978:g:/iot/IoT_Device_Demo/iot_link/network/lwm2m/wakaama_lwm2m/wakaama-master/core/er-coap-13\er-coap-13.c **** /*-----------------------------------------------------------------------------------*/
 979:g:/iot/IoT_Device_Demo/iot_link/network/lwm2m/wakaama_lwm2m/wakaama-master/core/er-coap-13\er-coap-13.c **** int
 980:g:/iot/IoT_Device_Demo/iot_link/network/lwm2m/wakaama_lwm2m/wakaama-master/core/er-coap-13\er-coap-13.c **** coap_get_header_max_age(void *packet, uint32_t *age)
 981:g:/iot/IoT_Device_Demo/iot_link/network/lwm2m/wakaama_lwm2m/wakaama-master/core/er-coap-13\er-coap-13.c **** {
 3976              		.loc 1 981 1
 3977              		.cfi_startproc
 3978              		@ args = 0, pretend = 0, frame = 16
 3979              		@ frame_needed = 1, uses_anonymous_args = 0
 3980              		@ link register save eliminated.
 3981 0000 80B4     		push	{r7}
 3982              	.LCFI134:
 3983              		.cfi_def_cfa_offset 4
 3984              		.cfi_offset 7, -4
 3985 0002 85B0     		sub	sp, sp, #20
 3986              	.LCFI135:
 3987              		.cfi_def_cfa_offset 24
 3988 0004 00AF     		add	r7, sp, #0
 3989              	.LCFI136:
 3990              		.cfi_def_cfa_register 7
 3991 0006 7860     		str	r0, [r7, #4]
 3992 0008 3960     		str	r1, [r7]
 982:g:/iot/IoT_Device_Demo/iot_link/network/lwm2m/wakaama_lwm2m/wakaama-master/core/er-coap-13\er-coap-13.c ****     coap_packet_t *const coap_pkt = (coap_packet_t *) packet;
 3993              		.loc 1 982 26
ARM GAS  C:\Users\ADMINI~1\AppData\Local\Temp\cc8DJu9v.s 			page 88


 3994 000a 7B68     		ldr	r3, [r7, #4]
 3995 000c FB60     		str	r3, [r7, #12]
 983:g:/iot/IoT_Device_Demo/iot_link/network/lwm2m/wakaama_lwm2m/wakaama-master/core/er-coap-13\er-coap-13.c **** 
 984:g:/iot/IoT_Device_Demo/iot_link/network/lwm2m/wakaama_lwm2m/wakaama-master/core/er-coap-13\er-coap-13.c ****     if (!IS_OPTION(coap_pkt, COAP_OPTION_MAX_AGE))
 3996              		.loc 1 984 10
 3997 000e FB68     		ldr	r3, [r7, #12]
 3998 0010 DB7A     		ldrb	r3, [r3, #11]	@ zero_extendqisi2
 3999 0012 03F04003 		and	r3, r3, #64
 4000              		.loc 1 984 8
 4001 0016 002B     		cmp	r3, #0
 4002 0018 03D1     		bne	.L195
 985:g:/iot/IoT_Device_Demo/iot_link/network/lwm2m/wakaama_lwm2m/wakaama-master/core/er-coap-13\er-coap-13.c ****     {
 986:g:/iot/IoT_Device_Demo/iot_link/network/lwm2m/wakaama_lwm2m/wakaama-master/core/er-coap-13\er-coap-13.c ****         *age = COAP_DEFAULT_MAX_AGE;
 4003              		.loc 1 986 14
 4004 001a 3B68     		ldr	r3, [r7]
 4005 001c 3C22     		movs	r2, #60
 4006 001e 1A60     		str	r2, [r3]
 4007 0020 03E0     		b	.L196
 4008              	.L195:
 987:g:/iot/IoT_Device_Demo/iot_link/network/lwm2m/wakaama_lwm2m/wakaama-master/core/er-coap-13\er-coap-13.c ****     }
 988:g:/iot/IoT_Device_Demo/iot_link/network/lwm2m/wakaama_lwm2m/wakaama-master/core/er-coap-13\er-coap-13.c ****     else
 989:g:/iot/IoT_Device_Demo/iot_link/network/lwm2m/wakaama_lwm2m/wakaama-master/core/er-coap-13\er-coap-13.c ****     {
 990:g:/iot/IoT_Device_Demo/iot_link/network/lwm2m/wakaama_lwm2m/wakaama-master/core/er-coap-13\er-coap-13.c ****         *age = coap_pkt->max_age;
 4009              		.loc 1 990 24
 4010 0022 FB68     		ldr	r3, [r7, #12]
 4011 0024 5A69     		ldr	r2, [r3, #20]
 4012              		.loc 1 990 14
 4013 0026 3B68     		ldr	r3, [r7]
 4014 0028 1A60     		str	r2, [r3]
 4015              	.L196:
 991:g:/iot/IoT_Device_Demo/iot_link/network/lwm2m/wakaama_lwm2m/wakaama-master/core/er-coap-13\er-coap-13.c ****     }
 992:g:/iot/IoT_Device_Demo/iot_link/network/lwm2m/wakaama_lwm2m/wakaama-master/core/er-coap-13\er-coap-13.c ****     return 1;
 4016              		.loc 1 992 12
 4017 002a 0123     		movs	r3, #1
 993:g:/iot/IoT_Device_Demo/iot_link/network/lwm2m/wakaama_lwm2m/wakaama-master/core/er-coap-13\er-coap-13.c **** }
 4018              		.loc 1 993 1
 4019 002c 1846     		mov	r0, r3
 4020 002e 1437     		adds	r7, r7, #20
 4021              	.LCFI137:
 4022              		.cfi_def_cfa_offset 4
 4023 0030 BD46     		mov	sp, r7
 4024              	.LCFI138:
 4025              		.cfi_def_cfa_register 13
 4026              		@ sp needed
 4027 0032 5DF8047B 		ldr	r7, [sp], #4
 4028              	.LCFI139:
 4029              		.cfi_restore 7
 4030              		.cfi_def_cfa_offset 0
 4031 0036 7047     		bx	lr
 4032              		.cfi_endproc
 4033              	.LFE29:
 4035              		.section	.text.coap_set_header_max_age,"ax",%progbits
 4036              		.align	1
 4037              		.global	coap_set_header_max_age
 4038              		.syntax unified
 4039              		.thumb
 4040              		.thumb_func
ARM GAS  C:\Users\ADMINI~1\AppData\Local\Temp\cc8DJu9v.s 			page 89


 4041              		.fpu fpv4-sp-d16
 4043              	coap_set_header_max_age:
 4044              	.LFB30:
 994:g:/iot/IoT_Device_Demo/iot_link/network/lwm2m/wakaama_lwm2m/wakaama-master/core/er-coap-13\er-coap-13.c **** 
 995:g:/iot/IoT_Device_Demo/iot_link/network/lwm2m/wakaama_lwm2m/wakaama-master/core/er-coap-13\er-coap-13.c **** int
 996:g:/iot/IoT_Device_Demo/iot_link/network/lwm2m/wakaama_lwm2m/wakaama-master/core/er-coap-13\er-coap-13.c **** coap_set_header_max_age(void *packet, uint32_t age)
 997:g:/iot/IoT_Device_Demo/iot_link/network/lwm2m/wakaama_lwm2m/wakaama-master/core/er-coap-13\er-coap-13.c **** {
 4045              		.loc 1 997 1
 4046              		.cfi_startproc
 4047              		@ args = 0, pretend = 0, frame = 16
 4048              		@ frame_needed = 1, uses_anonymous_args = 0
 4049              		@ link register save eliminated.
 4050 0000 80B4     		push	{r7}
 4051              	.LCFI140:
 4052              		.cfi_def_cfa_offset 4
 4053              		.cfi_offset 7, -4
 4054 0002 85B0     		sub	sp, sp, #20
 4055              	.LCFI141:
 4056              		.cfi_def_cfa_offset 24
 4057 0004 00AF     		add	r7, sp, #0
 4058              	.LCFI142:
 4059              		.cfi_def_cfa_register 7
 4060 0006 7860     		str	r0, [r7, #4]
 4061 0008 3960     		str	r1, [r7]
 998:g:/iot/IoT_Device_Demo/iot_link/network/lwm2m/wakaama_lwm2m/wakaama-master/core/er-coap-13\er-coap-13.c ****     coap_packet_t *const coap_pkt = (coap_packet_t *) packet;
 4062              		.loc 1 998 26
 4063 000a 7B68     		ldr	r3, [r7, #4]
 4064 000c FB60     		str	r3, [r7, #12]
 999:g:/iot/IoT_Device_Demo/iot_link/network/lwm2m/wakaama_lwm2m/wakaama-master/core/er-coap-13\er-coap-13.c **** 
1000:g:/iot/IoT_Device_Demo/iot_link/network/lwm2m/wakaama_lwm2m/wakaama-master/core/er-coap-13\er-coap-13.c ****     coap_pkt->max_age = age;
 4065              		.loc 1 1000 23
 4066 000e FB68     		ldr	r3, [r7, #12]
 4067 0010 3A68     		ldr	r2, [r7]
 4068 0012 5A61     		str	r2, [r3, #20]
1001:g:/iot/IoT_Device_Demo/iot_link/network/lwm2m/wakaama_lwm2m/wakaama-master/core/er-coap-13\er-coap-13.c ****     SET_OPTION(coap_pkt, COAP_OPTION_MAX_AGE);
 4069              		.loc 1 1001 5
 4070 0014 FB68     		ldr	r3, [r7, #12]
 4071 0016 DB7A     		ldrb	r3, [r3, #11]	@ zero_extendqisi2
 4072 0018 43F04003 		orr	r3, r3, #64
 4073 001c DAB2     		uxtb	r2, r3
 4074 001e FB68     		ldr	r3, [r7, #12]
 4075 0020 DA72     		strb	r2, [r3, #11]
1002:g:/iot/IoT_Device_Demo/iot_link/network/lwm2m/wakaama_lwm2m/wakaama-master/core/er-coap-13\er-coap-13.c ****     return 1;
 4076              		.loc 1 1002 12
 4077 0022 0123     		movs	r3, #1
1003:g:/iot/IoT_Device_Demo/iot_link/network/lwm2m/wakaama_lwm2m/wakaama-master/core/er-coap-13\er-coap-13.c **** }
 4078              		.loc 1 1003 1
 4079 0024 1846     		mov	r0, r3
 4080 0026 1437     		adds	r7, r7, #20
 4081              	.LCFI143:
 4082              		.cfi_def_cfa_offset 4
 4083 0028 BD46     		mov	sp, r7
 4084              	.LCFI144:
 4085              		.cfi_def_cfa_register 13
 4086              		@ sp needed
 4087 002a 5DF8047B 		ldr	r7, [sp], #4
 4088              	.LCFI145:
ARM GAS  C:\Users\ADMINI~1\AppData\Local\Temp\cc8DJu9v.s 			page 90


 4089              		.cfi_restore 7
 4090              		.cfi_def_cfa_offset 0
 4091 002e 7047     		bx	lr
 4092              		.cfi_endproc
 4093              	.LFE30:
 4095              		.section	.text.coap_get_header_etag,"ax",%progbits
 4096              		.align	1
 4097              		.global	coap_get_header_etag
 4098              		.syntax unified
 4099              		.thumb
 4100              		.thumb_func
 4101              		.fpu fpv4-sp-d16
 4103              	coap_get_header_etag:
 4104              	.LFB31:
1004:g:/iot/IoT_Device_Demo/iot_link/network/lwm2m/wakaama_lwm2m/wakaama-master/core/er-coap-13\er-coap-13.c **** /*-----------------------------------------------------------------------------------*/
1005:g:/iot/IoT_Device_Demo/iot_link/network/lwm2m/wakaama_lwm2m/wakaama-master/core/er-coap-13\er-coap-13.c **** int
1006:g:/iot/IoT_Device_Demo/iot_link/network/lwm2m/wakaama_lwm2m/wakaama-master/core/er-coap-13\er-coap-13.c **** coap_get_header_etag(void *packet, const uint8_t **etag)
1007:g:/iot/IoT_Device_Demo/iot_link/network/lwm2m/wakaama_lwm2m/wakaama-master/core/er-coap-13\er-coap-13.c **** {
 4105              		.loc 1 1007 1
 4106              		.cfi_startproc
 4107              		@ args = 0, pretend = 0, frame = 16
 4108              		@ frame_needed = 1, uses_anonymous_args = 0
 4109              		@ link register save eliminated.
 4110 0000 80B4     		push	{r7}
 4111              	.LCFI146:
 4112              		.cfi_def_cfa_offset 4
 4113              		.cfi_offset 7, -4
 4114 0002 85B0     		sub	sp, sp, #20
 4115              	.LCFI147:
 4116              		.cfi_def_cfa_offset 24
 4117 0004 00AF     		add	r7, sp, #0
 4118              	.LCFI148:
 4119              		.cfi_def_cfa_register 7
 4120 0006 7860     		str	r0, [r7, #4]
 4121 0008 3960     		str	r1, [r7]
1008:g:/iot/IoT_Device_Demo/iot_link/network/lwm2m/wakaama_lwm2m/wakaama-master/core/er-coap-13\er-coap-13.c ****     coap_packet_t *const coap_pkt = (coap_packet_t *) packet;
 4122              		.loc 1 1008 26
 4123 000a 7B68     		ldr	r3, [r7, #4]
 4124 000c FB60     		str	r3, [r7, #12]
1009:g:/iot/IoT_Device_Demo/iot_link/network/lwm2m/wakaama_lwm2m/wakaama-master/core/er-coap-13\er-coap-13.c **** 
1010:g:/iot/IoT_Device_Demo/iot_link/network/lwm2m/wakaama_lwm2m/wakaama-master/core/er-coap-13\er-coap-13.c ****     if (!IS_OPTION(coap_pkt, COAP_OPTION_ETAG)) return 0;
 4125              		.loc 1 1010 10
 4126 000e FB68     		ldr	r3, [r7, #12]
 4127 0010 9B7A     		ldrb	r3, [r3, #10]	@ zero_extendqisi2
 4128 0012 03F01003 		and	r3, r3, #16
 4129              		.loc 1 1010 8
 4130 0016 002B     		cmp	r3, #0
 4131 0018 01D1     		bne	.L201
 4132              		.loc 1 1010 56 discriminator 1
 4133 001a 0023     		movs	r3, #0
 4134 001c 07E0     		b	.L202
 4135              	.L201:
1011:g:/iot/IoT_Device_Demo/iot_link/network/lwm2m/wakaama_lwm2m/wakaama-master/core/er-coap-13\er-coap-13.c **** 
1012:g:/iot/IoT_Device_Demo/iot_link/network/lwm2m/wakaama_lwm2m/wakaama-master/core/er-coap-13\er-coap-13.c ****     *etag = coap_pkt->etag;
 4136              		.loc 1 1012 13
 4137 001e FB68     		ldr	r3, [r7, #12]
 4138 0020 03F12102 		add	r2, r3, #33
ARM GAS  C:\Users\ADMINI~1\AppData\Local\Temp\cc8DJu9v.s 			page 91


 4139              		.loc 1 1012 11
 4140 0024 3B68     		ldr	r3, [r7]
 4141 0026 1A60     		str	r2, [r3]
1013:g:/iot/IoT_Device_Demo/iot_link/network/lwm2m/wakaama_lwm2m/wakaama-master/core/er-coap-13\er-coap-13.c ****     return coap_pkt->etag_len;
 4142              		.loc 1 1013 20
 4143 0028 FB68     		ldr	r3, [r7, #12]
 4144 002a 93F82030 		ldrb	r3, [r3, #32]	@ zero_extendqisi2
 4145              	.L202:
1014:g:/iot/IoT_Device_Demo/iot_link/network/lwm2m/wakaama_lwm2m/wakaama-master/core/er-coap-13\er-coap-13.c **** }
 4146              		.loc 1 1014 1
 4147 002e 1846     		mov	r0, r3
 4148 0030 1437     		adds	r7, r7, #20
 4149              	.LCFI149:
 4150              		.cfi_def_cfa_offset 4
 4151 0032 BD46     		mov	sp, r7
 4152              	.LCFI150:
 4153              		.cfi_def_cfa_register 13
 4154              		@ sp needed
 4155 0034 5DF8047B 		ldr	r7, [sp], #4
 4156              	.LCFI151:
 4157              		.cfi_restore 7
 4158              		.cfi_def_cfa_offset 0
 4159 0038 7047     		bx	lr
 4160              		.cfi_endproc
 4161              	.LFE31:
 4163              		.section	.text.coap_set_header_etag,"ax",%progbits
 4164              		.align	1
 4165              		.global	coap_set_header_etag
 4166              		.syntax unified
 4167              		.thumb
 4168              		.thumb_func
 4169              		.fpu fpv4-sp-d16
 4171              	coap_set_header_etag:
 4172              	.LFB32:
1015:g:/iot/IoT_Device_Demo/iot_link/network/lwm2m/wakaama_lwm2m/wakaama-master/core/er-coap-13\er-coap-13.c **** 
1016:g:/iot/IoT_Device_Demo/iot_link/network/lwm2m/wakaama_lwm2m/wakaama-master/core/er-coap-13\er-coap-13.c **** int
1017:g:/iot/IoT_Device_Demo/iot_link/network/lwm2m/wakaama_lwm2m/wakaama-master/core/er-coap-13\er-coap-13.c **** coap_set_header_etag(void *packet, const uint8_t *etag, size_t etag_len)
1018:g:/iot/IoT_Device_Demo/iot_link/network/lwm2m/wakaama_lwm2m/wakaama-master/core/er-coap-13\er-coap-13.c **** {
 4173              		.loc 1 1018 1
 4174              		.cfi_startproc
 4175              		@ args = 0, pretend = 0, frame = 24
 4176              		@ frame_needed = 1, uses_anonymous_args = 0
 4177 0000 80B5     		push	{r7, lr}
 4178              	.LCFI152:
 4179              		.cfi_def_cfa_offset 8
 4180              		.cfi_offset 7, -8
 4181              		.cfi_offset 14, -4
 4182 0002 86B0     		sub	sp, sp, #24
 4183              	.LCFI153:
 4184              		.cfi_def_cfa_offset 32
 4185 0004 00AF     		add	r7, sp, #0
 4186              	.LCFI154:
 4187              		.cfi_def_cfa_register 7
 4188 0006 F860     		str	r0, [r7, #12]
 4189 0008 B960     		str	r1, [r7, #8]
 4190 000a 7A60     		str	r2, [r7, #4]
1019:g:/iot/IoT_Device_Demo/iot_link/network/lwm2m/wakaama_lwm2m/wakaama-master/core/er-coap-13\er-coap-13.c ****     coap_packet_t *const coap_pkt = (coap_packet_t *) packet;
ARM GAS  C:\Users\ADMINI~1\AppData\Local\Temp\cc8DJu9v.s 			page 92


 4191              		.loc 1 1019 26
 4192 000c FB68     		ldr	r3, [r7, #12]
 4193 000e 7B61     		str	r3, [r7, #20]
1020:g:/iot/IoT_Device_Demo/iot_link/network/lwm2m/wakaama_lwm2m/wakaama-master/core/er-coap-13\er-coap-13.c **** 
1021:g:/iot/IoT_Device_Demo/iot_link/network/lwm2m/wakaama_lwm2m/wakaama-master/core/er-coap-13\er-coap-13.c ****     coap_pkt->etag_len = (uint8_t)(MIN(COAP_ETAG_LEN, etag_len));
 4194              		.loc 1 1021 26
 4195 0010 7B68     		ldr	r3, [r7, #4]
 4196 0012 082B     		cmp	r3, #8
 4197 0014 02D8     		bhi	.L204
 4198              		.loc 1 1021 26 is_stmt 0 discriminator 1
 4199 0016 7B68     		ldr	r3, [r7, #4]
 4200 0018 DAB2     		uxtb	r2, r3
 4201 001a 00E0     		b	.L205
 4202              	.L204:
 4203              		.loc 1 1021 26 discriminator 2
 4204 001c 0822     		movs	r2, #8
 4205              	.L205:
 4206              		.loc 1 1021 24 is_stmt 1 discriminator 4
 4207 001e 7B69     		ldr	r3, [r7, #20]
 4208 0020 83F82020 		strb	r2, [r3, #32]
1022:g:/iot/IoT_Device_Demo/iot_link/network/lwm2m/wakaama_lwm2m/wakaama-master/core/er-coap-13\er-coap-13.c ****     memcpy(coap_pkt->etag, etag, coap_pkt->etag_len);
 4209              		.loc 1 1022 20 discriminator 4
 4210 0024 7B69     		ldr	r3, [r7, #20]
 4211 0026 03F12100 		add	r0, r3, #33
 4212              		.loc 1 1022 42 discriminator 4
 4213 002a 7B69     		ldr	r3, [r7, #20]
 4214 002c 93F82030 		ldrb	r3, [r3, #32]	@ zero_extendqisi2
 4215              		.loc 1 1022 5 discriminator 4
 4216 0030 1A46     		mov	r2, r3
 4217 0032 B968     		ldr	r1, [r7, #8]
 4218 0034 FFF7FEFF 		bl	memcpy
1023:g:/iot/IoT_Device_Demo/iot_link/network/lwm2m/wakaama_lwm2m/wakaama-master/core/er-coap-13\er-coap-13.c **** 
1024:g:/iot/IoT_Device_Demo/iot_link/network/lwm2m/wakaama_lwm2m/wakaama-master/core/er-coap-13\er-coap-13.c ****     SET_OPTION(coap_pkt, COAP_OPTION_ETAG);
 4219              		.loc 1 1024 5 discriminator 4
 4220 0038 7B69     		ldr	r3, [r7, #20]
 4221 003a 9B7A     		ldrb	r3, [r3, #10]	@ zero_extendqisi2
 4222 003c 43F01003 		orr	r3, r3, #16
 4223 0040 DAB2     		uxtb	r2, r3
 4224 0042 7B69     		ldr	r3, [r7, #20]
 4225 0044 9A72     		strb	r2, [r3, #10]
1025:g:/iot/IoT_Device_Demo/iot_link/network/lwm2m/wakaama_lwm2m/wakaama-master/core/er-coap-13\er-coap-13.c ****     return coap_pkt->etag_len;
 4226              		.loc 1 1025 20 discriminator 4
 4227 0046 7B69     		ldr	r3, [r7, #20]
 4228 0048 93F82030 		ldrb	r3, [r3, #32]	@ zero_extendqisi2
1026:g:/iot/IoT_Device_Demo/iot_link/network/lwm2m/wakaama_lwm2m/wakaama-master/core/er-coap-13\er-coap-13.c **** }
 4229              		.loc 1 1026 1 discriminator 4
 4230 004c 1846     		mov	r0, r3
 4231 004e 1837     		adds	r7, r7, #24
 4232              	.LCFI155:
 4233              		.cfi_def_cfa_offset 8
 4234 0050 BD46     		mov	sp, r7
 4235              	.LCFI156:
 4236              		.cfi_def_cfa_register 13
 4237              		@ sp needed
 4238 0052 80BD     		pop	{r7, pc}
 4239              		.cfi_endproc
 4240              	.LFE32:
ARM GAS  C:\Users\ADMINI~1\AppData\Local\Temp\cc8DJu9v.s 			page 93


 4242              		.section	.text.coap_get_header_if_match,"ax",%progbits
 4243              		.align	1
 4244              		.global	coap_get_header_if_match
 4245              		.syntax unified
 4246              		.thumb
 4247              		.thumb_func
 4248              		.fpu fpv4-sp-d16
 4250              	coap_get_header_if_match:
 4251              	.LFB33:
1027:g:/iot/IoT_Device_Demo/iot_link/network/lwm2m/wakaama_lwm2m/wakaama-master/core/er-coap-13\er-coap-13.c **** /*-----------------------------------------------------------------------------------*/
1028:g:/iot/IoT_Device_Demo/iot_link/network/lwm2m/wakaama_lwm2m/wakaama-master/core/er-coap-13\er-coap-13.c **** /*FIXME support multiple ETags */
1029:g:/iot/IoT_Device_Demo/iot_link/network/lwm2m/wakaama_lwm2m/wakaama-master/core/er-coap-13\er-coap-13.c **** int
1030:g:/iot/IoT_Device_Demo/iot_link/network/lwm2m/wakaama_lwm2m/wakaama-master/core/er-coap-13\er-coap-13.c **** coap_get_header_if_match(void *packet, const uint8_t **etag)
1031:g:/iot/IoT_Device_Demo/iot_link/network/lwm2m/wakaama_lwm2m/wakaama-master/core/er-coap-13\er-coap-13.c **** {
 4252              		.loc 1 1031 1
 4253              		.cfi_startproc
 4254              		@ args = 0, pretend = 0, frame = 16
 4255              		@ frame_needed = 1, uses_anonymous_args = 0
 4256              		@ link register save eliminated.
 4257 0000 80B4     		push	{r7}
 4258              	.LCFI157:
 4259              		.cfi_def_cfa_offset 4
 4260              		.cfi_offset 7, -4
 4261 0002 85B0     		sub	sp, sp, #20
 4262              	.LCFI158:
 4263              		.cfi_def_cfa_offset 24
 4264 0004 00AF     		add	r7, sp, #0
 4265              	.LCFI159:
 4266              		.cfi_def_cfa_register 7
 4267 0006 7860     		str	r0, [r7, #4]
 4268 0008 3960     		str	r1, [r7]
1032:g:/iot/IoT_Device_Demo/iot_link/network/lwm2m/wakaama_lwm2m/wakaama-master/core/er-coap-13\er-coap-13.c ****     coap_packet_t *const coap_pkt = (coap_packet_t *) packet;
 4269              		.loc 1 1032 26
 4270 000a 7B68     		ldr	r3, [r7, #4]
 4271 000c FB60     		str	r3, [r7, #12]
1033:g:/iot/IoT_Device_Demo/iot_link/network/lwm2m/wakaama_lwm2m/wakaama-master/core/er-coap-13\er-coap-13.c **** 
1034:g:/iot/IoT_Device_Demo/iot_link/network/lwm2m/wakaama_lwm2m/wakaama-master/core/er-coap-13\er-coap-13.c ****     if (!IS_OPTION(coap_pkt, COAP_OPTION_IF_MATCH)) return 0;
 4272              		.loc 1 1034 10
 4273 000e FB68     		ldr	r3, [r7, #12]
 4274 0010 9B7A     		ldrb	r3, [r3, #10]	@ zero_extendqisi2
 4275 0012 03F00203 		and	r3, r3, #2
 4276              		.loc 1 1034 8
 4277 0016 002B     		cmp	r3, #0
 4278 0018 01D1     		bne	.L208
 4279              		.loc 1 1034 60 discriminator 1
 4280 001a 0023     		movs	r3, #0
 4281 001c 07E0     		b	.L209
 4282              	.L208:
1035:g:/iot/IoT_Device_Demo/iot_link/network/lwm2m/wakaama_lwm2m/wakaama-master/core/er-coap-13\er-coap-13.c **** 
1036:g:/iot/IoT_Device_Demo/iot_link/network/lwm2m/wakaama_lwm2m/wakaama-master/core/er-coap-13\er-coap-13.c ****     *etag = coap_pkt->if_match;
 4283              		.loc 1 1036 13
 4284 001e FB68     		ldr	r3, [r7, #12]
 4285 0020 03F15B02 		add	r2, r3, #91
 4286              		.loc 1 1036 11
 4287 0024 3B68     		ldr	r3, [r7]
 4288 0026 1A60     		str	r2, [r3]
1037:g:/iot/IoT_Device_Demo/iot_link/network/lwm2m/wakaama_lwm2m/wakaama-master/core/er-coap-13\er-coap-13.c ****     return coap_pkt->if_match_len;
ARM GAS  C:\Users\ADMINI~1\AppData\Local\Temp\cc8DJu9v.s 			page 94


 4289              		.loc 1 1037 20
 4290 0028 FB68     		ldr	r3, [r7, #12]
 4291 002a 93F85A30 		ldrb	r3, [r3, #90]	@ zero_extendqisi2
 4292              	.L209:
1038:g:/iot/IoT_Device_Demo/iot_link/network/lwm2m/wakaama_lwm2m/wakaama-master/core/er-coap-13\er-coap-13.c **** }
 4293              		.loc 1 1038 1
 4294 002e 1846     		mov	r0, r3
 4295 0030 1437     		adds	r7, r7, #20
 4296              	.LCFI160:
 4297              		.cfi_def_cfa_offset 4
 4298 0032 BD46     		mov	sp, r7
 4299              	.LCFI161:
 4300              		.cfi_def_cfa_register 13
 4301              		@ sp needed
 4302 0034 5DF8047B 		ldr	r7, [sp], #4
 4303              	.LCFI162:
 4304              		.cfi_restore 7
 4305              		.cfi_def_cfa_offset 0
 4306 0038 7047     		bx	lr
 4307              		.cfi_endproc
 4308              	.LFE33:
 4310              		.section	.text.coap_set_header_if_match,"ax",%progbits
 4311              		.align	1
 4312              		.global	coap_set_header_if_match
 4313              		.syntax unified
 4314              		.thumb
 4315              		.thumb_func
 4316              		.fpu fpv4-sp-d16
 4318              	coap_set_header_if_match:
 4319              	.LFB34:
1039:g:/iot/IoT_Device_Demo/iot_link/network/lwm2m/wakaama_lwm2m/wakaama-master/core/er-coap-13\er-coap-13.c **** 
1040:g:/iot/IoT_Device_Demo/iot_link/network/lwm2m/wakaama_lwm2m/wakaama-master/core/er-coap-13\er-coap-13.c **** int
1041:g:/iot/IoT_Device_Demo/iot_link/network/lwm2m/wakaama_lwm2m/wakaama-master/core/er-coap-13\er-coap-13.c **** coap_set_header_if_match(void *packet, const uint8_t *etag, size_t etag_len)
1042:g:/iot/IoT_Device_Demo/iot_link/network/lwm2m/wakaama_lwm2m/wakaama-master/core/er-coap-13\er-coap-13.c **** {
 4320              		.loc 1 1042 1
 4321              		.cfi_startproc
 4322              		@ args = 0, pretend = 0, frame = 24
 4323              		@ frame_needed = 1, uses_anonymous_args = 0
 4324 0000 80B5     		push	{r7, lr}
 4325              	.LCFI163:
 4326              		.cfi_def_cfa_offset 8
 4327              		.cfi_offset 7, -8
 4328              		.cfi_offset 14, -4
 4329 0002 86B0     		sub	sp, sp, #24
 4330              	.LCFI164:
 4331              		.cfi_def_cfa_offset 32
 4332 0004 00AF     		add	r7, sp, #0
 4333              	.LCFI165:
 4334              		.cfi_def_cfa_register 7
 4335 0006 F860     		str	r0, [r7, #12]
 4336 0008 B960     		str	r1, [r7, #8]
 4337 000a 7A60     		str	r2, [r7, #4]
1043:g:/iot/IoT_Device_Demo/iot_link/network/lwm2m/wakaama_lwm2m/wakaama-master/core/er-coap-13\er-coap-13.c ****     coap_packet_t *const coap_pkt = (coap_packet_t *) packet;
 4338              		.loc 1 1043 26
 4339 000c FB68     		ldr	r3, [r7, #12]
 4340 000e 7B61     		str	r3, [r7, #20]
1044:g:/iot/IoT_Device_Demo/iot_link/network/lwm2m/wakaama_lwm2m/wakaama-master/core/er-coap-13\er-coap-13.c **** 
ARM GAS  C:\Users\ADMINI~1\AppData\Local\Temp\cc8DJu9v.s 			page 95


1045:g:/iot/IoT_Device_Demo/iot_link/network/lwm2m/wakaama_lwm2m/wakaama-master/core/er-coap-13\er-coap-13.c ****     coap_pkt->if_match_len = (uint8_t)(MIN(COAP_ETAG_LEN, etag_len));
 4341              		.loc 1 1045 30
 4342 0010 7B68     		ldr	r3, [r7, #4]
 4343 0012 082B     		cmp	r3, #8
 4344 0014 02D8     		bhi	.L211
 4345              		.loc 1 1045 30 is_stmt 0 discriminator 1
 4346 0016 7B68     		ldr	r3, [r7, #4]
 4347 0018 DAB2     		uxtb	r2, r3
 4348 001a 00E0     		b	.L212
 4349              	.L211:
 4350              		.loc 1 1045 30 discriminator 2
 4351 001c 0822     		movs	r2, #8
 4352              	.L212:
 4353              		.loc 1 1045 28 is_stmt 1 discriminator 4
 4354 001e 7B69     		ldr	r3, [r7, #20]
 4355 0020 83F85A20 		strb	r2, [r3, #90]
1046:g:/iot/IoT_Device_Demo/iot_link/network/lwm2m/wakaama_lwm2m/wakaama-master/core/er-coap-13\er-coap-13.c ****     memcpy(coap_pkt->if_match, etag, coap_pkt->if_match_len);
 4356              		.loc 1 1046 20 discriminator 4
 4357 0024 7B69     		ldr	r3, [r7, #20]
 4358 0026 03F15B00 		add	r0, r3, #91
 4359              		.loc 1 1046 46 discriminator 4
 4360 002a 7B69     		ldr	r3, [r7, #20]
 4361 002c 93F85A30 		ldrb	r3, [r3, #90]	@ zero_extendqisi2
 4362              		.loc 1 1046 5 discriminator 4
 4363 0030 1A46     		mov	r2, r3
 4364 0032 B968     		ldr	r1, [r7, #8]
 4365 0034 FFF7FEFF 		bl	memcpy
1047:g:/iot/IoT_Device_Demo/iot_link/network/lwm2m/wakaama_lwm2m/wakaama-master/core/er-coap-13\er-coap-13.c **** 
1048:g:/iot/IoT_Device_Demo/iot_link/network/lwm2m/wakaama_lwm2m/wakaama-master/core/er-coap-13\er-coap-13.c ****     SET_OPTION(coap_pkt, COAP_OPTION_IF_MATCH);
 4366              		.loc 1 1048 5 discriminator 4
 4367 0038 7B69     		ldr	r3, [r7, #20]
 4368 003a 9B7A     		ldrb	r3, [r3, #10]	@ zero_extendqisi2
 4369 003c 43F00203 		orr	r3, r3, #2
 4370 0040 DAB2     		uxtb	r2, r3
 4371 0042 7B69     		ldr	r3, [r7, #20]
 4372 0044 9A72     		strb	r2, [r3, #10]
1049:g:/iot/IoT_Device_Demo/iot_link/network/lwm2m/wakaama_lwm2m/wakaama-master/core/er-coap-13\er-coap-13.c ****     return coap_pkt->if_match_len;
 4373              		.loc 1 1049 20 discriminator 4
 4374 0046 7B69     		ldr	r3, [r7, #20]
 4375 0048 93F85A30 		ldrb	r3, [r3, #90]	@ zero_extendqisi2
1050:g:/iot/IoT_Device_Demo/iot_link/network/lwm2m/wakaama_lwm2m/wakaama-master/core/er-coap-13\er-coap-13.c **** }
 4376              		.loc 1 1050 1 discriminator 4
 4377 004c 1846     		mov	r0, r3
 4378 004e 1837     		adds	r7, r7, #24
 4379              	.LCFI166:
 4380              		.cfi_def_cfa_offset 8
 4381 0050 BD46     		mov	sp, r7
 4382              	.LCFI167:
 4383              		.cfi_def_cfa_register 13
 4384              		@ sp needed
 4385 0052 80BD     		pop	{r7, pc}
 4386              		.cfi_endproc
 4387              	.LFE34:
 4389              		.section	.text.coap_get_header_if_none_match,"ax",%progbits
 4390              		.align	1
 4391              		.global	coap_get_header_if_none_match
 4392              		.syntax unified
ARM GAS  C:\Users\ADMINI~1\AppData\Local\Temp\cc8DJu9v.s 			page 96


 4393              		.thumb
 4394              		.thumb_func
 4395              		.fpu fpv4-sp-d16
 4397              	coap_get_header_if_none_match:
 4398              	.LFB35:
1051:g:/iot/IoT_Device_Demo/iot_link/network/lwm2m/wakaama_lwm2m/wakaama-master/core/er-coap-13\er-coap-13.c **** /*-----------------------------------------------------------------------------------*/
1052:g:/iot/IoT_Device_Demo/iot_link/network/lwm2m/wakaama_lwm2m/wakaama-master/core/er-coap-13\er-coap-13.c **** int
1053:g:/iot/IoT_Device_Demo/iot_link/network/lwm2m/wakaama_lwm2m/wakaama-master/core/er-coap-13\er-coap-13.c **** coap_get_header_if_none_match(void *packet)
1054:g:/iot/IoT_Device_Demo/iot_link/network/lwm2m/wakaama_lwm2m/wakaama-master/core/er-coap-13\er-coap-13.c **** {
 4399              		.loc 1 1054 1
 4400              		.cfi_startproc
 4401              		@ args = 0, pretend = 0, frame = 8
 4402              		@ frame_needed = 1, uses_anonymous_args = 0
 4403              		@ link register save eliminated.
 4404 0000 80B4     		push	{r7}
 4405              	.LCFI168:
 4406              		.cfi_def_cfa_offset 4
 4407              		.cfi_offset 7, -4
 4408 0002 83B0     		sub	sp, sp, #12
 4409              	.LCFI169:
 4410              		.cfi_def_cfa_offset 16
 4411 0004 00AF     		add	r7, sp, #0
 4412              	.LCFI170:
 4413              		.cfi_def_cfa_register 7
 4414 0006 7860     		str	r0, [r7, #4]
1055:g:/iot/IoT_Device_Demo/iot_link/network/lwm2m/wakaama_lwm2m/wakaama-master/core/er-coap-13\er-coap-13.c ****     return IS_OPTION((coap_packet_t *)packet, COAP_OPTION_IF_NONE_MATCH) ? 1 : 0;
 4415              		.loc 1 1055 12
 4416 0008 7B68     		ldr	r3, [r7, #4]
 4417 000a 9B7A     		ldrb	r3, [r3, #10]	@ zero_extendqisi2
 4418              		.loc 1 1055 78
 4419 000c 5B11     		asrs	r3, r3, #5
 4420 000e 03F00103 		and	r3, r3, #1
1056:g:/iot/IoT_Device_Demo/iot_link/network/lwm2m/wakaama_lwm2m/wakaama-master/core/er-coap-13\er-coap-13.c **** }
 4421              		.loc 1 1056 1
 4422 0012 1846     		mov	r0, r3
 4423 0014 0C37     		adds	r7, r7, #12
 4424              	.LCFI171:
 4425              		.cfi_def_cfa_offset 4
 4426 0016 BD46     		mov	sp, r7
 4427              	.LCFI172:
 4428              		.cfi_def_cfa_register 13
 4429              		@ sp needed
 4430 0018 5DF8047B 		ldr	r7, [sp], #4
 4431              	.LCFI173:
 4432              		.cfi_restore 7
 4433              		.cfi_def_cfa_offset 0
 4434 001c 7047     		bx	lr
 4435              		.cfi_endproc
 4436              	.LFE35:
 4438              		.section	.text.coap_set_header_if_none_match,"ax",%progbits
 4439              		.align	1
 4440              		.global	coap_set_header_if_none_match
 4441              		.syntax unified
 4442              		.thumb
 4443              		.thumb_func
 4444              		.fpu fpv4-sp-d16
 4446              	coap_set_header_if_none_match:
ARM GAS  C:\Users\ADMINI~1\AppData\Local\Temp\cc8DJu9v.s 			page 97


 4447              	.LFB36:
1057:g:/iot/IoT_Device_Demo/iot_link/network/lwm2m/wakaama_lwm2m/wakaama-master/core/er-coap-13\er-coap-13.c **** 
1058:g:/iot/IoT_Device_Demo/iot_link/network/lwm2m/wakaama_lwm2m/wakaama-master/core/er-coap-13\er-coap-13.c **** int
1059:g:/iot/IoT_Device_Demo/iot_link/network/lwm2m/wakaama_lwm2m/wakaama-master/core/er-coap-13\er-coap-13.c **** coap_set_header_if_none_match(void *packet)
1060:g:/iot/IoT_Device_Demo/iot_link/network/lwm2m/wakaama_lwm2m/wakaama-master/core/er-coap-13\er-coap-13.c **** {
 4448              		.loc 1 1060 1
 4449              		.cfi_startproc
 4450              		@ args = 0, pretend = 0, frame = 8
 4451              		@ frame_needed = 1, uses_anonymous_args = 0
 4452              		@ link register save eliminated.
 4453 0000 80B4     		push	{r7}
 4454              	.LCFI174:
 4455              		.cfi_def_cfa_offset 4
 4456              		.cfi_offset 7, -4
 4457 0002 83B0     		sub	sp, sp, #12
 4458              	.LCFI175:
 4459              		.cfi_def_cfa_offset 16
 4460 0004 00AF     		add	r7, sp, #0
 4461              	.LCFI176:
 4462              		.cfi_def_cfa_register 7
 4463 0006 7860     		str	r0, [r7, #4]
1061:g:/iot/IoT_Device_Demo/iot_link/network/lwm2m/wakaama_lwm2m/wakaama-master/core/er-coap-13\er-coap-13.c ****     SET_OPTION((coap_packet_t *)packet, COAP_OPTION_IF_NONE_MATCH);
 4464              		.loc 1 1061 5
 4465 0008 7B68     		ldr	r3, [r7, #4]
 4466 000a 9B7A     		ldrb	r3, [r3, #10]	@ zero_extendqisi2
 4467 000c 43F02003 		orr	r3, r3, #32
 4468 0010 DAB2     		uxtb	r2, r3
 4469 0012 7B68     		ldr	r3, [r7, #4]
 4470 0014 9A72     		strb	r2, [r3, #10]
1062:g:/iot/IoT_Device_Demo/iot_link/network/lwm2m/wakaama_lwm2m/wakaama-master/core/er-coap-13\er-coap-13.c ****     return 1;
 4471              		.loc 1 1062 12
 4472 0016 0123     		movs	r3, #1
1063:g:/iot/IoT_Device_Demo/iot_link/network/lwm2m/wakaama_lwm2m/wakaama-master/core/er-coap-13\er-coap-13.c **** }
 4473              		.loc 1 1063 1
 4474 0018 1846     		mov	r0, r3
 4475 001a 0C37     		adds	r7, r7, #12
 4476              	.LCFI177:
 4477              		.cfi_def_cfa_offset 4
 4478 001c BD46     		mov	sp, r7
 4479              	.LCFI178:
 4480              		.cfi_def_cfa_register 13
 4481              		@ sp needed
 4482 001e 5DF8047B 		ldr	r7, [sp], #4
 4483              	.LCFI179:
 4484              		.cfi_restore 7
 4485              		.cfi_def_cfa_offset 0
 4486 0022 7047     		bx	lr
 4487              		.cfi_endproc
 4488              	.LFE36:
 4490              		.section	.text.coap_get_header_token,"ax",%progbits
 4491              		.align	1
 4492              		.global	coap_get_header_token
 4493              		.syntax unified
 4494              		.thumb
 4495              		.thumb_func
 4496              		.fpu fpv4-sp-d16
 4498              	coap_get_header_token:
ARM GAS  C:\Users\ADMINI~1\AppData\Local\Temp\cc8DJu9v.s 			page 98


 4499              	.LFB37:
1064:g:/iot/IoT_Device_Demo/iot_link/network/lwm2m/wakaama_lwm2m/wakaama-master/core/er-coap-13\er-coap-13.c **** /*-----------------------------------------------------------------------------------*/
1065:g:/iot/IoT_Device_Demo/iot_link/network/lwm2m/wakaama_lwm2m/wakaama-master/core/er-coap-13\er-coap-13.c **** int
1066:g:/iot/IoT_Device_Demo/iot_link/network/lwm2m/wakaama_lwm2m/wakaama-master/core/er-coap-13\er-coap-13.c **** coap_get_header_token(void *packet, const uint8_t **token)
1067:g:/iot/IoT_Device_Demo/iot_link/network/lwm2m/wakaama_lwm2m/wakaama-master/core/er-coap-13\er-coap-13.c **** {
 4500              		.loc 1 1067 1
 4501              		.cfi_startproc
 4502              		@ args = 0, pretend = 0, frame = 16
 4503              		@ frame_needed = 1, uses_anonymous_args = 0
 4504              		@ link register save eliminated.
 4505 0000 80B4     		push	{r7}
 4506              	.LCFI180:
 4507              		.cfi_def_cfa_offset 4
 4508              		.cfi_offset 7, -4
 4509 0002 85B0     		sub	sp, sp, #20
 4510              	.LCFI181:
 4511              		.cfi_def_cfa_offset 24
 4512 0004 00AF     		add	r7, sp, #0
 4513              	.LCFI182:
 4514              		.cfi_def_cfa_register 7
 4515 0006 7860     		str	r0, [r7, #4]
 4516 0008 3960     		str	r1, [r7]
1068:g:/iot/IoT_Device_Demo/iot_link/network/lwm2m/wakaama_lwm2m/wakaama-master/core/er-coap-13\er-coap-13.c ****     coap_packet_t *const coap_pkt = (coap_packet_t *) packet;
 4517              		.loc 1 1068 26
 4518 000a 7B68     		ldr	r3, [r7, #4]
 4519 000c FB60     		str	r3, [r7, #12]
1069:g:/iot/IoT_Device_Demo/iot_link/network/lwm2m/wakaama_lwm2m/wakaama-master/core/er-coap-13\er-coap-13.c **** 
1070:g:/iot/IoT_Device_Demo/iot_link/network/lwm2m/wakaama_lwm2m/wakaama-master/core/er-coap-13\er-coap-13.c ****     if (!IS_OPTION(coap_pkt, COAP_OPTION_TOKEN)) return 0;
 4520              		.loc 1 1070 10
 4521 000e FB68     		ldr	r3, [r7, #12]
 4522 0010 1B7B     		ldrb	r3, [r3, #12]	@ zero_extendqisi2
 4523 0012 03F00803 		and	r3, r3, #8
 4524              		.loc 1 1070 8
 4525 0016 002B     		cmp	r3, #0
 4526 0018 01D1     		bne	.L219
 4527              		.loc 1 1070 57 discriminator 1
 4528 001a 0023     		movs	r3, #0
 4529 001c 07E0     		b	.L220
 4530              	.L219:
1071:g:/iot/IoT_Device_Demo/iot_link/network/lwm2m/wakaama_lwm2m/wakaama-master/core/er-coap-13\er-coap-13.c **** 
1072:g:/iot/IoT_Device_Demo/iot_link/network/lwm2m/wakaama_lwm2m/wakaama-master/core/er-coap-13\er-coap-13.c ****     *token = coap_pkt->token;
 4531              		.loc 1 1072 14
 4532 001e FB68     		ldr	r3, [r7, #12]
 4533 0020 03F14D02 		add	r2, r3, #77
 4534              		.loc 1 1072 12
 4535 0024 3B68     		ldr	r3, [r7]
 4536 0026 1A60     		str	r2, [r3]
1073:g:/iot/IoT_Device_Demo/iot_link/network/lwm2m/wakaama_lwm2m/wakaama-master/core/er-coap-13\er-coap-13.c ****     return coap_pkt->token_len;
 4537              		.loc 1 1073 20
 4538 0028 FB68     		ldr	r3, [r7, #12]
 4539 002a 93F84C30 		ldrb	r3, [r3, #76]	@ zero_extendqisi2
 4540              	.L220:
1074:g:/iot/IoT_Device_Demo/iot_link/network/lwm2m/wakaama_lwm2m/wakaama-master/core/er-coap-13\er-coap-13.c **** }
 4541              		.loc 1 1074 1
 4542 002e 1846     		mov	r0, r3
 4543 0030 1437     		adds	r7, r7, #20
 4544              	.LCFI183:
ARM GAS  C:\Users\ADMINI~1\AppData\Local\Temp\cc8DJu9v.s 			page 99


 4545              		.cfi_def_cfa_offset 4
 4546 0032 BD46     		mov	sp, r7
 4547              	.LCFI184:
 4548              		.cfi_def_cfa_register 13
 4549              		@ sp needed
 4550 0034 5DF8047B 		ldr	r7, [sp], #4
 4551              	.LCFI185:
 4552              		.cfi_restore 7
 4553              		.cfi_def_cfa_offset 0
 4554 0038 7047     		bx	lr
 4555              		.cfi_endproc
 4556              	.LFE37:
 4558              		.section	.text.coap_set_header_token,"ax",%progbits
 4559              		.align	1
 4560              		.global	coap_set_header_token
 4561              		.syntax unified
 4562              		.thumb
 4563              		.thumb_func
 4564              		.fpu fpv4-sp-d16
 4566              	coap_set_header_token:
 4567              	.LFB38:
1075:g:/iot/IoT_Device_Demo/iot_link/network/lwm2m/wakaama_lwm2m/wakaama-master/core/er-coap-13\er-coap-13.c **** 
1076:g:/iot/IoT_Device_Demo/iot_link/network/lwm2m/wakaama_lwm2m/wakaama-master/core/er-coap-13\er-coap-13.c **** int
1077:g:/iot/IoT_Device_Demo/iot_link/network/lwm2m/wakaama_lwm2m/wakaama-master/core/er-coap-13\er-coap-13.c **** coap_set_header_token(void *packet, const uint8_t *token, size_t token_len)
1078:g:/iot/IoT_Device_Demo/iot_link/network/lwm2m/wakaama_lwm2m/wakaama-master/core/er-coap-13\er-coap-13.c **** {
 4568              		.loc 1 1078 1
 4569              		.cfi_startproc
 4570              		@ args = 0, pretend = 0, frame = 24
 4571              		@ frame_needed = 1, uses_anonymous_args = 0
 4572 0000 80B5     		push	{r7, lr}
 4573              	.LCFI186:
 4574              		.cfi_def_cfa_offset 8
 4575              		.cfi_offset 7, -8
 4576              		.cfi_offset 14, -4
 4577 0002 86B0     		sub	sp, sp, #24
 4578              	.LCFI187:
 4579              		.cfi_def_cfa_offset 32
 4580 0004 00AF     		add	r7, sp, #0
 4581              	.LCFI188:
 4582              		.cfi_def_cfa_register 7
 4583 0006 F860     		str	r0, [r7, #12]
 4584 0008 B960     		str	r1, [r7, #8]
 4585 000a 7A60     		str	r2, [r7, #4]
1079:g:/iot/IoT_Device_Demo/iot_link/network/lwm2m/wakaama_lwm2m/wakaama-master/core/er-coap-13\er-coap-13.c ****     coap_packet_t *const coap_pkt = (coap_packet_t *) packet;
 4586              		.loc 1 1079 26
 4587 000c FB68     		ldr	r3, [r7, #12]
 4588 000e 7B61     		str	r3, [r7, #20]
1080:g:/iot/IoT_Device_Demo/iot_link/network/lwm2m/wakaama_lwm2m/wakaama-master/core/er-coap-13\er-coap-13.c **** 
1081:g:/iot/IoT_Device_Demo/iot_link/network/lwm2m/wakaama_lwm2m/wakaama-master/core/er-coap-13\er-coap-13.c ****     coap_pkt->token_len = (uint8_t)(MIN(COAP_TOKEN_LEN, token_len));
 4589              		.loc 1 1081 27
 4590 0010 7B68     		ldr	r3, [r7, #4]
 4591 0012 082B     		cmp	r3, #8
 4592 0014 02D8     		bhi	.L222
 4593              		.loc 1 1081 27 is_stmt 0 discriminator 1
 4594 0016 7B68     		ldr	r3, [r7, #4]
 4595 0018 DAB2     		uxtb	r2, r3
 4596 001a 00E0     		b	.L223
ARM GAS  C:\Users\ADMINI~1\AppData\Local\Temp\cc8DJu9v.s 			page 100


 4597              	.L222:
 4598              		.loc 1 1081 27 discriminator 2
 4599 001c 0822     		movs	r2, #8
 4600              	.L223:
 4601              		.loc 1 1081 25 is_stmt 1 discriminator 4
 4602 001e 7B69     		ldr	r3, [r7, #20]
 4603 0020 83F84C20 		strb	r2, [r3, #76]
1082:g:/iot/IoT_Device_Demo/iot_link/network/lwm2m/wakaama_lwm2m/wakaama-master/core/er-coap-13\er-coap-13.c ****     memcpy(coap_pkt->token, token, coap_pkt->token_len);
 4604              		.loc 1 1082 20 discriminator 4
 4605 0024 7B69     		ldr	r3, [r7, #20]
 4606 0026 03F14D00 		add	r0, r3, #77
 4607              		.loc 1 1082 44 discriminator 4
 4608 002a 7B69     		ldr	r3, [r7, #20]
 4609 002c 93F84C30 		ldrb	r3, [r3, #76]	@ zero_extendqisi2
 4610              		.loc 1 1082 5 discriminator 4
 4611 0030 1A46     		mov	r2, r3
 4612 0032 B968     		ldr	r1, [r7, #8]
 4613 0034 FFF7FEFF 		bl	memcpy
1083:g:/iot/IoT_Device_Demo/iot_link/network/lwm2m/wakaama_lwm2m/wakaama-master/core/er-coap-13\er-coap-13.c **** 
1084:g:/iot/IoT_Device_Demo/iot_link/network/lwm2m/wakaama_lwm2m/wakaama-master/core/er-coap-13\er-coap-13.c ****     SET_OPTION(coap_pkt, COAP_OPTION_TOKEN);
 4614              		.loc 1 1084 5 discriminator 4
 4615 0038 7B69     		ldr	r3, [r7, #20]
 4616 003a 1B7B     		ldrb	r3, [r3, #12]	@ zero_extendqisi2
 4617 003c 43F00803 		orr	r3, r3, #8
 4618 0040 DAB2     		uxtb	r2, r3
 4619 0042 7B69     		ldr	r3, [r7, #20]
 4620 0044 1A73     		strb	r2, [r3, #12]
1085:g:/iot/IoT_Device_Demo/iot_link/network/lwm2m/wakaama_lwm2m/wakaama-master/core/er-coap-13\er-coap-13.c ****     return coap_pkt->token_len;
 4621              		.loc 1 1085 20 discriminator 4
 4622 0046 7B69     		ldr	r3, [r7, #20]
 4623 0048 93F84C30 		ldrb	r3, [r3, #76]	@ zero_extendqisi2
1086:g:/iot/IoT_Device_Demo/iot_link/network/lwm2m/wakaama_lwm2m/wakaama-master/core/er-coap-13\er-coap-13.c **** }
 4624              		.loc 1 1086 1 discriminator 4
 4625 004c 1846     		mov	r0, r3
 4626 004e 1837     		adds	r7, r7, #24
 4627              	.LCFI189:
 4628              		.cfi_def_cfa_offset 8
 4629 0050 BD46     		mov	sp, r7
 4630              	.LCFI190:
 4631              		.cfi_def_cfa_register 13
 4632              		@ sp needed
 4633 0052 80BD     		pop	{r7, pc}
 4634              		.cfi_endproc
 4635              	.LFE38:
 4637              		.section	.text.coap_get_header_proxy_uri,"ax",%progbits
 4638              		.align	1
 4639              		.global	coap_get_header_proxy_uri
 4640              		.syntax unified
 4641              		.thumb
 4642              		.thumb_func
 4643              		.fpu fpv4-sp-d16
 4645              	coap_get_header_proxy_uri:
 4646              	.LFB39:
1087:g:/iot/IoT_Device_Demo/iot_link/network/lwm2m/wakaama_lwm2m/wakaama-master/core/er-coap-13\er-coap-13.c **** /*-----------------------------------------------------------------------------------*/
1088:g:/iot/IoT_Device_Demo/iot_link/network/lwm2m/wakaama_lwm2m/wakaama-master/core/er-coap-13\er-coap-13.c **** int
1089:g:/iot/IoT_Device_Demo/iot_link/network/lwm2m/wakaama_lwm2m/wakaama-master/core/er-coap-13\er-coap-13.c **** coap_get_header_proxy_uri(void *packet, const char **uri)
1090:g:/iot/IoT_Device_Demo/iot_link/network/lwm2m/wakaama_lwm2m/wakaama-master/core/er-coap-13\er-coap-13.c **** {
ARM GAS  C:\Users\ADMINI~1\AppData\Local\Temp\cc8DJu9v.s 			page 101


 4647              		.loc 1 1090 1
 4648              		.cfi_startproc
 4649              		@ args = 0, pretend = 0, frame = 16
 4650              		@ frame_needed = 1, uses_anonymous_args = 0
 4651              		@ link register save eliminated.
 4652 0000 80B4     		push	{r7}
 4653              	.LCFI191:
 4654              		.cfi_def_cfa_offset 4
 4655              		.cfi_offset 7, -4
 4656 0002 85B0     		sub	sp, sp, #20
 4657              	.LCFI192:
 4658              		.cfi_def_cfa_offset 24
 4659 0004 00AF     		add	r7, sp, #0
 4660              	.LCFI193:
 4661              		.cfi_def_cfa_register 7
 4662 0006 7860     		str	r0, [r7, #4]
 4663 0008 3960     		str	r1, [r7]
1091:g:/iot/IoT_Device_Demo/iot_link/network/lwm2m/wakaama_lwm2m/wakaama-master/core/er-coap-13\er-coap-13.c ****     coap_packet_t *const coap_pkt = (coap_packet_t *) packet;
 4664              		.loc 1 1091 26
 4665 000a 7B68     		ldr	r3, [r7, #4]
 4666 000c FB60     		str	r3, [r7, #12]
1092:g:/iot/IoT_Device_Demo/iot_link/network/lwm2m/wakaama_lwm2m/wakaama-master/core/er-coap-13\er-coap-13.c **** 
1093:g:/iot/IoT_Device_Demo/iot_link/network/lwm2m/wakaama_lwm2m/wakaama-master/core/er-coap-13\er-coap-13.c ****     if (!IS_OPTION(coap_pkt, COAP_OPTION_PROXY_URI)) return 0;
 4667              		.loc 1 1093 10
 4668 000e FB68     		ldr	r3, [r7, #12]
 4669 0010 9B7B     		ldrb	r3, [r3, #14]	@ zero_extendqisi2
 4670 0012 03F00803 		and	r3, r3, #8
 4671              		.loc 1 1093 8
 4672 0016 002B     		cmp	r3, #0
 4673 0018 01D1     		bne	.L226
 4674              		.loc 1 1093 61 discriminator 1
 4675 001a 0023     		movs	r3, #0
 4676 001c 05E0     		b	.L227
 4677              	.L226:
1094:g:/iot/IoT_Device_Demo/iot_link/network/lwm2m/wakaama_lwm2m/wakaama-master/core/er-coap-13\er-coap-13.c **** 
1095:g:/iot/IoT_Device_Demo/iot_link/network/lwm2m/wakaama_lwm2m/wakaama-master/core/er-coap-13\er-coap-13.c ****     *uri = (const char *)coap_pkt->proxy_uri;
 4678              		.loc 1 1095 34
 4679 001e FB68     		ldr	r3, [r7, #12]
 4680 0020 DA69     		ldr	r2, [r3, #28]
 4681              		.loc 1 1095 10
 4682 0022 3B68     		ldr	r3, [r7]
 4683 0024 1A60     		str	r2, [r3]
1096:g:/iot/IoT_Device_Demo/iot_link/network/lwm2m/wakaama_lwm2m/wakaama-master/core/er-coap-13\er-coap-13.c ****     return coap_pkt->proxy_uri_len;
 4684              		.loc 1 1096 20
 4685 0026 FB68     		ldr	r3, [r7, #12]
 4686 0028 9B69     		ldr	r3, [r3, #24]
 4687              	.L227:
1097:g:/iot/IoT_Device_Demo/iot_link/network/lwm2m/wakaama_lwm2m/wakaama-master/core/er-coap-13\er-coap-13.c **** }
 4688              		.loc 1 1097 1
 4689 002a 1846     		mov	r0, r3
 4690 002c 1437     		adds	r7, r7, #20
 4691              	.LCFI194:
 4692              		.cfi_def_cfa_offset 4
 4693 002e BD46     		mov	sp, r7
 4694              	.LCFI195:
 4695              		.cfi_def_cfa_register 13
 4696              		@ sp needed
ARM GAS  C:\Users\ADMINI~1\AppData\Local\Temp\cc8DJu9v.s 			page 102


 4697 0030 5DF8047B 		ldr	r7, [sp], #4
 4698              	.LCFI196:
 4699              		.cfi_restore 7
 4700              		.cfi_def_cfa_offset 0
 4701 0034 7047     		bx	lr
 4702              		.cfi_endproc
 4703              	.LFE39:
 4705              		.section	.text.coap_set_header_proxy_uri,"ax",%progbits
 4706              		.align	1
 4707              		.global	coap_set_header_proxy_uri
 4708              		.syntax unified
 4709              		.thumb
 4710              		.thumb_func
 4711              		.fpu fpv4-sp-d16
 4713              	coap_set_header_proxy_uri:
 4714              	.LFB40:
1098:g:/iot/IoT_Device_Demo/iot_link/network/lwm2m/wakaama_lwm2m/wakaama-master/core/er-coap-13\er-coap-13.c **** 
1099:g:/iot/IoT_Device_Demo/iot_link/network/lwm2m/wakaama_lwm2m/wakaama-master/core/er-coap-13\er-coap-13.c **** int
1100:g:/iot/IoT_Device_Demo/iot_link/network/lwm2m/wakaama_lwm2m/wakaama-master/core/er-coap-13\er-coap-13.c **** coap_set_header_proxy_uri(void *packet, const char *uri)
1101:g:/iot/IoT_Device_Demo/iot_link/network/lwm2m/wakaama_lwm2m/wakaama-master/core/er-coap-13\er-coap-13.c **** {
 4715              		.loc 1 1101 1
 4716              		.cfi_startproc
 4717              		@ args = 0, pretend = 0, frame = 16
 4718              		@ frame_needed = 1, uses_anonymous_args = 0
 4719 0000 80B5     		push	{r7, lr}
 4720              	.LCFI197:
 4721              		.cfi_def_cfa_offset 8
 4722              		.cfi_offset 7, -8
 4723              		.cfi_offset 14, -4
 4724 0002 84B0     		sub	sp, sp, #16
 4725              	.LCFI198:
 4726              		.cfi_def_cfa_offset 24
 4727 0004 00AF     		add	r7, sp, #0
 4728              	.LCFI199:
 4729              		.cfi_def_cfa_register 7
 4730 0006 7860     		str	r0, [r7, #4]
 4731 0008 3960     		str	r1, [r7]
1102:g:/iot/IoT_Device_Demo/iot_link/network/lwm2m/wakaama_lwm2m/wakaama-master/core/er-coap-13\er-coap-13.c ****     coap_packet_t *const coap_pkt = (coap_packet_t *) packet;
 4732              		.loc 1 1102 26
 4733 000a 7B68     		ldr	r3, [r7, #4]
 4734 000c FB60     		str	r3, [r7, #12]
1103:g:/iot/IoT_Device_Demo/iot_link/network/lwm2m/wakaama_lwm2m/wakaama-master/core/er-coap-13\er-coap-13.c **** 
1104:g:/iot/IoT_Device_Demo/iot_link/network/lwm2m/wakaama_lwm2m/wakaama-master/core/er-coap-13\er-coap-13.c ****     coap_pkt->proxy_uri = (uint8_t *)uri;
 4735              		.loc 1 1104 25
 4736 000e FB68     		ldr	r3, [r7, #12]
 4737 0010 3A68     		ldr	r2, [r7]
 4738 0012 DA61     		str	r2, [r3, #28]
1105:g:/iot/IoT_Device_Demo/iot_link/network/lwm2m/wakaama_lwm2m/wakaama-master/core/er-coap-13\er-coap-13.c ****     coap_pkt->proxy_uri_len = strlen(uri);
 4739              		.loc 1 1105 31
 4740 0014 3868     		ldr	r0, [r7]
 4741 0016 FFF7FEFF 		bl	strlen
 4742 001a 0246     		mov	r2, r0
 4743              		.loc 1 1105 29
 4744 001c FB68     		ldr	r3, [r7, #12]
 4745 001e 9A61     		str	r2, [r3, #24]
1106:g:/iot/IoT_Device_Demo/iot_link/network/lwm2m/wakaama_lwm2m/wakaama-master/core/er-coap-13\er-coap-13.c **** 
1107:g:/iot/IoT_Device_Demo/iot_link/network/lwm2m/wakaama_lwm2m/wakaama-master/core/er-coap-13\er-coap-13.c ****     SET_OPTION(coap_pkt, COAP_OPTION_PROXY_URI);
ARM GAS  C:\Users\ADMINI~1\AppData\Local\Temp\cc8DJu9v.s 			page 103


 4746              		.loc 1 1107 5
 4747 0020 FB68     		ldr	r3, [r7, #12]
 4748 0022 9B7B     		ldrb	r3, [r3, #14]	@ zero_extendqisi2
 4749 0024 43F00803 		orr	r3, r3, #8
 4750 0028 DAB2     		uxtb	r2, r3
 4751 002a FB68     		ldr	r3, [r7, #12]
 4752 002c 9A73     		strb	r2, [r3, #14]
1108:g:/iot/IoT_Device_Demo/iot_link/network/lwm2m/wakaama_lwm2m/wakaama-master/core/er-coap-13\er-coap-13.c ****     return coap_pkt->proxy_uri_len;
 4753              		.loc 1 1108 20
 4754 002e FB68     		ldr	r3, [r7, #12]
 4755 0030 9B69     		ldr	r3, [r3, #24]
1109:g:/iot/IoT_Device_Demo/iot_link/network/lwm2m/wakaama_lwm2m/wakaama-master/core/er-coap-13\er-coap-13.c **** }
 4756              		.loc 1 1109 1
 4757 0032 1846     		mov	r0, r3
 4758 0034 1037     		adds	r7, r7, #16
 4759              	.LCFI200:
 4760              		.cfi_def_cfa_offset 8
 4761 0036 BD46     		mov	sp, r7
 4762              	.LCFI201:
 4763              		.cfi_def_cfa_register 13
 4764              		@ sp needed
 4765 0038 80BD     		pop	{r7, pc}
 4766              		.cfi_endproc
 4767              	.LFE40:
 4769              		.section	.text.coap_get_header_uri_host,"ax",%progbits
 4770              		.align	1
 4771              		.global	coap_get_header_uri_host
 4772              		.syntax unified
 4773              		.thumb
 4774              		.thumb_func
 4775              		.fpu fpv4-sp-d16
 4777              	coap_get_header_uri_host:
 4778              	.LFB41:
1110:g:/iot/IoT_Device_Demo/iot_link/network/lwm2m/wakaama_lwm2m/wakaama-master/core/er-coap-13\er-coap-13.c **** /*-----------------------------------------------------------------------------------*/
1111:g:/iot/IoT_Device_Demo/iot_link/network/lwm2m/wakaama_lwm2m/wakaama-master/core/er-coap-13\er-coap-13.c **** int
1112:g:/iot/IoT_Device_Demo/iot_link/network/lwm2m/wakaama_lwm2m/wakaama-master/core/er-coap-13\er-coap-13.c **** coap_get_header_uri_host(void *packet, const char **host)
1113:g:/iot/IoT_Device_Demo/iot_link/network/lwm2m/wakaama_lwm2m/wakaama-master/core/er-coap-13\er-coap-13.c **** {
 4779              		.loc 1 1113 1
 4780              		.cfi_startproc
 4781              		@ args = 0, pretend = 0, frame = 16
 4782              		@ frame_needed = 1, uses_anonymous_args = 0
 4783              		@ link register save eliminated.
 4784 0000 80B4     		push	{r7}
 4785              	.LCFI202:
 4786              		.cfi_def_cfa_offset 4
 4787              		.cfi_offset 7, -4
 4788 0002 85B0     		sub	sp, sp, #20
 4789              	.LCFI203:
 4790              		.cfi_def_cfa_offset 24
 4791 0004 00AF     		add	r7, sp, #0
 4792              	.LCFI204:
 4793              		.cfi_def_cfa_register 7
 4794 0006 7860     		str	r0, [r7, #4]
 4795 0008 3960     		str	r1, [r7]
1114:g:/iot/IoT_Device_Demo/iot_link/network/lwm2m/wakaama_lwm2m/wakaama-master/core/er-coap-13\er-coap-13.c ****     coap_packet_t *const coap_pkt = (coap_packet_t *) packet;
 4796              		.loc 1 1114 26
 4797 000a 7B68     		ldr	r3, [r7, #4]
ARM GAS  C:\Users\ADMINI~1\AppData\Local\Temp\cc8DJu9v.s 			page 104


 4798 000c FB60     		str	r3, [r7, #12]
1115:g:/iot/IoT_Device_Demo/iot_link/network/lwm2m/wakaama_lwm2m/wakaama-master/core/er-coap-13\er-coap-13.c **** 
1116:g:/iot/IoT_Device_Demo/iot_link/network/lwm2m/wakaama_lwm2m/wakaama-master/core/er-coap-13\er-coap-13.c ****     if (!IS_OPTION(coap_pkt, COAP_OPTION_URI_HOST)) return 0;
 4799              		.loc 1 1116 10
 4800 000e FB68     		ldr	r3, [r7, #12]
 4801 0010 9B7A     		ldrb	r3, [r3, #10]	@ zero_extendqisi2
 4802 0012 03F00803 		and	r3, r3, #8
 4803              		.loc 1 1116 8
 4804 0016 002B     		cmp	r3, #0
 4805 0018 01D1     		bne	.L231
 4806              		.loc 1 1116 60 discriminator 1
 4807 001a 0023     		movs	r3, #0
 4808 001c 05E0     		b	.L232
 4809              	.L231:
1117:g:/iot/IoT_Device_Demo/iot_link/network/lwm2m/wakaama_lwm2m/wakaama-master/core/er-coap-13\er-coap-13.c **** 
1118:g:/iot/IoT_Device_Demo/iot_link/network/lwm2m/wakaama_lwm2m/wakaama-master/core/er-coap-13\er-coap-13.c ****     *host = (char *)coap_pkt->uri_host;
 4810              		.loc 1 1118 29
 4811 001e FB68     		ldr	r3, [r7, #12]
 4812 0020 1A6B     		ldr	r2, [r3, #48]
 4813              		.loc 1 1118 11
 4814 0022 3B68     		ldr	r3, [r7]
 4815 0024 1A60     		str	r2, [r3]
1119:g:/iot/IoT_Device_Demo/iot_link/network/lwm2m/wakaama_lwm2m/wakaama-master/core/er-coap-13\er-coap-13.c ****     return coap_pkt->uri_host_len;
 4816              		.loc 1 1119 20
 4817 0026 FB68     		ldr	r3, [r7, #12]
 4818 0028 DB6A     		ldr	r3, [r3, #44]
 4819              	.L232:
1120:g:/iot/IoT_Device_Demo/iot_link/network/lwm2m/wakaama_lwm2m/wakaama-master/core/er-coap-13\er-coap-13.c **** }
 4820              		.loc 1 1120 1
 4821 002a 1846     		mov	r0, r3
 4822 002c 1437     		adds	r7, r7, #20
 4823              	.LCFI205:
 4824              		.cfi_def_cfa_offset 4
 4825 002e BD46     		mov	sp, r7
 4826              	.LCFI206:
 4827              		.cfi_def_cfa_register 13
 4828              		@ sp needed
 4829 0030 5DF8047B 		ldr	r7, [sp], #4
 4830              	.LCFI207:
 4831              		.cfi_restore 7
 4832              		.cfi_def_cfa_offset 0
 4833 0034 7047     		bx	lr
 4834              		.cfi_endproc
 4835              	.LFE41:
 4837              		.section	.text.coap_set_header_uri_host,"ax",%progbits
 4838              		.align	1
 4839              		.global	coap_set_header_uri_host
 4840              		.syntax unified
 4841              		.thumb
 4842              		.thumb_func
 4843              		.fpu fpv4-sp-d16
 4845              	coap_set_header_uri_host:
 4846              	.LFB42:
1121:g:/iot/IoT_Device_Demo/iot_link/network/lwm2m/wakaama_lwm2m/wakaama-master/core/er-coap-13\er-coap-13.c **** 
1122:g:/iot/IoT_Device_Demo/iot_link/network/lwm2m/wakaama_lwm2m/wakaama-master/core/er-coap-13\er-coap-13.c **** int
1123:g:/iot/IoT_Device_Demo/iot_link/network/lwm2m/wakaama_lwm2m/wakaama-master/core/er-coap-13\er-coap-13.c **** coap_set_header_uri_host(void *packet, const char *host)
1124:g:/iot/IoT_Device_Demo/iot_link/network/lwm2m/wakaama_lwm2m/wakaama-master/core/er-coap-13\er-coap-13.c **** {
ARM GAS  C:\Users\ADMINI~1\AppData\Local\Temp\cc8DJu9v.s 			page 105


 4847              		.loc 1 1124 1
 4848              		.cfi_startproc
 4849              		@ args = 0, pretend = 0, frame = 16
 4850              		@ frame_needed = 1, uses_anonymous_args = 0
 4851 0000 80B5     		push	{r7, lr}
 4852              	.LCFI208:
 4853              		.cfi_def_cfa_offset 8
 4854              		.cfi_offset 7, -8
 4855              		.cfi_offset 14, -4
 4856 0002 84B0     		sub	sp, sp, #16
 4857              	.LCFI209:
 4858              		.cfi_def_cfa_offset 24
 4859 0004 00AF     		add	r7, sp, #0
 4860              	.LCFI210:
 4861              		.cfi_def_cfa_register 7
 4862 0006 7860     		str	r0, [r7, #4]
 4863 0008 3960     		str	r1, [r7]
1125:g:/iot/IoT_Device_Demo/iot_link/network/lwm2m/wakaama_lwm2m/wakaama-master/core/er-coap-13\er-coap-13.c ****     coap_packet_t *const coap_pkt = (coap_packet_t *) packet;
 4864              		.loc 1 1125 26
 4865 000a 7B68     		ldr	r3, [r7, #4]
 4866 000c FB60     		str	r3, [r7, #12]
1126:g:/iot/IoT_Device_Demo/iot_link/network/lwm2m/wakaama_lwm2m/wakaama-master/core/er-coap-13\er-coap-13.c **** 
1127:g:/iot/IoT_Device_Demo/iot_link/network/lwm2m/wakaama_lwm2m/wakaama-master/core/er-coap-13\er-coap-13.c ****     coap_pkt->uri_host = (uint8_t *)host;
 4867              		.loc 1 1127 24
 4868 000e FB68     		ldr	r3, [r7, #12]
 4869 0010 3A68     		ldr	r2, [r7]
 4870 0012 1A63     		str	r2, [r3, #48]
1128:g:/iot/IoT_Device_Demo/iot_link/network/lwm2m/wakaama_lwm2m/wakaama-master/core/er-coap-13\er-coap-13.c ****     coap_pkt->uri_host_len = strlen(host);
 4871              		.loc 1 1128 30
 4872 0014 3868     		ldr	r0, [r7]
 4873 0016 FFF7FEFF 		bl	strlen
 4874 001a 0246     		mov	r2, r0
 4875              		.loc 1 1128 28
 4876 001c FB68     		ldr	r3, [r7, #12]
 4877 001e DA62     		str	r2, [r3, #44]
1129:g:/iot/IoT_Device_Demo/iot_link/network/lwm2m/wakaama_lwm2m/wakaama-master/core/er-coap-13\er-coap-13.c **** 
1130:g:/iot/IoT_Device_Demo/iot_link/network/lwm2m/wakaama_lwm2m/wakaama-master/core/er-coap-13\er-coap-13.c ****     SET_OPTION(coap_pkt, COAP_OPTION_URI_HOST);
 4878              		.loc 1 1130 5
 4879 0020 FB68     		ldr	r3, [r7, #12]
 4880 0022 9B7A     		ldrb	r3, [r3, #10]	@ zero_extendqisi2
 4881 0024 43F00803 		orr	r3, r3, #8
 4882 0028 DAB2     		uxtb	r2, r3
 4883 002a FB68     		ldr	r3, [r7, #12]
 4884 002c 9A72     		strb	r2, [r3, #10]
1131:g:/iot/IoT_Device_Demo/iot_link/network/lwm2m/wakaama_lwm2m/wakaama-master/core/er-coap-13\er-coap-13.c ****     return coap_pkt->uri_host_len;
 4885              		.loc 1 1131 20
 4886 002e FB68     		ldr	r3, [r7, #12]
 4887 0030 DB6A     		ldr	r3, [r3, #44]
1132:g:/iot/IoT_Device_Demo/iot_link/network/lwm2m/wakaama_lwm2m/wakaama-master/core/er-coap-13\er-coap-13.c **** }
 4888              		.loc 1 1132 1
 4889 0032 1846     		mov	r0, r3
 4890 0034 1037     		adds	r7, r7, #16
 4891              	.LCFI211:
 4892              		.cfi_def_cfa_offset 8
 4893 0036 BD46     		mov	sp, r7
 4894              	.LCFI212:
 4895              		.cfi_def_cfa_register 13
ARM GAS  C:\Users\ADMINI~1\AppData\Local\Temp\cc8DJu9v.s 			page 106


 4896              		@ sp needed
 4897 0038 80BD     		pop	{r7, pc}
 4898              		.cfi_endproc
 4899              	.LFE42:
 4901              		.section	.text.coap_get_header_uri_path,"ax",%progbits
 4902              		.align	1
 4903              		.global	coap_get_header_uri_path
 4904              		.syntax unified
 4905              		.thumb
 4906              		.thumb_func
 4907              		.fpu fpv4-sp-d16
 4909              	coap_get_header_uri_path:
 4910              	.LFB43:
1133:g:/iot/IoT_Device_Demo/iot_link/network/lwm2m/wakaama_lwm2m/wakaama-master/core/er-coap-13\er-coap-13.c **** /*-----------------------------------------------------------------------------------*/
1134:g:/iot/IoT_Device_Demo/iot_link/network/lwm2m/wakaama_lwm2m/wakaama-master/core/er-coap-13\er-coap-13.c **** int
1135:g:/iot/IoT_Device_Demo/iot_link/network/lwm2m/wakaama_lwm2m/wakaama-master/core/er-coap-13\er-coap-13.c **** coap_get_header_uri_path(void *packet, const char **path)
1136:g:/iot/IoT_Device_Demo/iot_link/network/lwm2m/wakaama_lwm2m/wakaama-master/core/er-coap-13\er-coap-13.c **** {
 4911              		.loc 1 1136 1
 4912              		.cfi_startproc
 4913              		@ args = 0, pretend = 0, frame = 16
 4914              		@ frame_needed = 1, uses_anonymous_args = 0
 4915              		@ link register save eliminated.
 4916 0000 80B4     		push	{r7}
 4917              	.LCFI213:
 4918              		.cfi_def_cfa_offset 4
 4919              		.cfi_offset 7, -4
 4920 0002 85B0     		sub	sp, sp, #20
 4921              	.LCFI214:
 4922              		.cfi_def_cfa_offset 24
 4923 0004 00AF     		add	r7, sp, #0
 4924              	.LCFI215:
 4925              		.cfi_def_cfa_register 7
 4926 0006 7860     		str	r0, [r7, #4]
 4927 0008 3960     		str	r1, [r7]
1137:g:/iot/IoT_Device_Demo/iot_link/network/lwm2m/wakaama_lwm2m/wakaama-master/core/er-coap-13\er-coap-13.c ****     coap_packet_t *const coap_pkt = (coap_packet_t *) packet;
 4928              		.loc 1 1137 26
 4929 000a 7B68     		ldr	r3, [r7, #4]
 4930 000c FB60     		str	r3, [r7, #12]
1138:g:/iot/IoT_Device_Demo/iot_link/network/lwm2m/wakaama_lwm2m/wakaama-master/core/er-coap-13\er-coap-13.c **** 
1139:g:/iot/IoT_Device_Demo/iot_link/network/lwm2m/wakaama_lwm2m/wakaama-master/core/er-coap-13\er-coap-13.c ****     if (!IS_OPTION(coap_pkt, COAP_OPTION_URI_PATH)) return 0;
 4931              		.loc 1 1139 10
 4932 000e FB68     		ldr	r3, [r7, #12]
 4933 0010 DB7A     		ldrb	r3, [r3, #11]	@ zero_extendqisi2
 4934 0012 03F00803 		and	r3, r3, #8
 4935              		.loc 1 1139 8
 4936 0016 002B     		cmp	r3, #0
 4937 0018 01D1     		bne	.L236
 4938              		.loc 1 1139 60 discriminator 1
 4939 001a 0023     		movs	r3, #0
 4940 001c 03E0     		b	.L237
 4941              	.L236:
1140:g:/iot/IoT_Device_Demo/iot_link/network/lwm2m/wakaama_lwm2m/wakaama-master/core/er-coap-13\er-coap-13.c **** 
1141:g:/iot/IoT_Device_Demo/iot_link/network/lwm2m/wakaama_lwm2m/wakaama-master/core/er-coap-13\er-coap-13.c ****     *path = NULL; //coap_pkt->uri_path;
 4942              		.loc 1 1141 11
 4943 001e 3B68     		ldr	r3, [r7]
 4944 0020 0022     		movs	r2, #0
 4945 0022 1A60     		str	r2, [r3]
ARM GAS  C:\Users\ADMINI~1\AppData\Local\Temp\cc8DJu9v.s 			page 107


1142:g:/iot/IoT_Device_Demo/iot_link/network/lwm2m/wakaama_lwm2m/wakaama-master/core/er-coap-13\er-coap-13.c ****     return 0; //coap_pkt->uri_path_len;
 4946              		.loc 1 1142 12
 4947 0024 0023     		movs	r3, #0
 4948              	.L237:
1143:g:/iot/IoT_Device_Demo/iot_link/network/lwm2m/wakaama_lwm2m/wakaama-master/core/er-coap-13\er-coap-13.c **** }
 4949              		.loc 1 1143 1
 4950 0026 1846     		mov	r0, r3
 4951 0028 1437     		adds	r7, r7, #20
 4952              	.LCFI216:
 4953              		.cfi_def_cfa_offset 4
 4954 002a BD46     		mov	sp, r7
 4955              	.LCFI217:
 4956              		.cfi_def_cfa_register 13
 4957              		@ sp needed
 4958 002c 5DF8047B 		ldr	r7, [sp], #4
 4959              	.LCFI218:
 4960              		.cfi_restore 7
 4961              		.cfi_def_cfa_offset 0
 4962 0030 7047     		bx	lr
 4963              		.cfi_endproc
 4964              	.LFE43:
 4966              		.section	.text.coap_set_header_uri_path,"ax",%progbits
 4967              		.align	1
 4968              		.global	coap_set_header_uri_path
 4969              		.syntax unified
 4970              		.thumb
 4971              		.thumb_func
 4972              		.fpu fpv4-sp-d16
 4974              	coap_set_header_uri_path:
 4975              	.LFB44:
1144:g:/iot/IoT_Device_Demo/iot_link/network/lwm2m/wakaama_lwm2m/wakaama-master/core/er-coap-13\er-coap-13.c **** 
1145:g:/iot/IoT_Device_Demo/iot_link/network/lwm2m/wakaama_lwm2m/wakaama-master/core/er-coap-13\er-coap-13.c **** int
1146:g:/iot/IoT_Device_Demo/iot_link/network/lwm2m/wakaama_lwm2m/wakaama-master/core/er-coap-13\er-coap-13.c **** coap_set_header_uri_path(void *packet, const char *path)
1147:g:/iot/IoT_Device_Demo/iot_link/network/lwm2m/wakaama_lwm2m/wakaama-master/core/er-coap-13\er-coap-13.c **** {
 4976              		.loc 1 1147 1
 4977              		.cfi_startproc
 4978              		@ args = 0, pretend = 0, frame = 24
 4979              		@ frame_needed = 1, uses_anonymous_args = 0
 4980 0000 80B5     		push	{r7, lr}
 4981              	.LCFI219:
 4982              		.cfi_def_cfa_offset 8
 4983              		.cfi_offset 7, -8
 4984              		.cfi_offset 14, -4
 4985 0002 86B0     		sub	sp, sp, #24
 4986              	.LCFI220:
 4987              		.cfi_def_cfa_offset 32
 4988 0004 00AF     		add	r7, sp, #0
 4989              	.LCFI221:
 4990              		.cfi_def_cfa_register 7
 4991 0006 7860     		str	r0, [r7, #4]
 4992 0008 3960     		str	r1, [r7]
1148:g:/iot/IoT_Device_Demo/iot_link/network/lwm2m/wakaama_lwm2m/wakaama-master/core/er-coap-13\er-coap-13.c ****     coap_packet_t *coap_pkt = (coap_packet_t *) packet;
 4993              		.loc 1 1148 20
 4994 000a 7B68     		ldr	r3, [r7, #4]
 4995 000c FB60     		str	r3, [r7, #12]
1149:g:/iot/IoT_Device_Demo/iot_link/network/lwm2m/wakaama_lwm2m/wakaama-master/core/er-coap-13\er-coap-13.c ****     int length = 0;
 4996              		.loc 1 1149 9
ARM GAS  C:\Users\ADMINI~1\AppData\Local\Temp\cc8DJu9v.s 			page 108


 4997 000e 0023     		movs	r3, #0
 4998 0010 7B61     		str	r3, [r7, #20]
1150:g:/iot/IoT_Device_Demo/iot_link/network/lwm2m/wakaama_lwm2m/wakaama-master/core/er-coap-13\er-coap-13.c **** 
1151:g:/iot/IoT_Device_Demo/iot_link/network/lwm2m/wakaama_lwm2m/wakaama-master/core/er-coap-13\er-coap-13.c ****     free_multi_option(coap_pkt->uri_path);
 4999              		.loc 1 1151 5
 5000 0012 FB68     		ldr	r3, [r7, #12]
 5001 0014 5B6C     		ldr	r3, [r3, #68]
 5002 0016 1846     		mov	r0, r3
 5003 0018 FFF7FEFF 		bl	free_multi_option
1152:g:/iot/IoT_Device_Demo/iot_link/network/lwm2m/wakaama_lwm2m/wakaama-master/core/er-coap-13\er-coap-13.c ****     coap_pkt->uri_path = NULL;
 5004              		.loc 1 1152 24
 5005 001c FB68     		ldr	r3, [r7, #12]
 5006 001e 0022     		movs	r2, #0
 5007 0020 5A64     		str	r2, [r3, #68]
1153:g:/iot/IoT_Device_Demo/iot_link/network/lwm2m/wakaama_lwm2m/wakaama-master/core/er-coap-13\er-coap-13.c **** 
1154:g:/iot/IoT_Device_Demo/iot_link/network/lwm2m/wakaama_lwm2m/wakaama-master/core/er-coap-13\er-coap-13.c ****     if (path[0] == '/') ++path;
 5008              		.loc 1 1154 13
 5009 0022 3B68     		ldr	r3, [r7]
 5010 0024 1B78     		ldrb	r3, [r3]	@ zero_extendqisi2
 5011              		.loc 1 1154 8
 5012 0026 2F2B     		cmp	r3, #47
 5013 0028 02D1     		bne	.L244
 5014              		.loc 1 1154 25 discriminator 1
 5015 002a 3B68     		ldr	r3, [r7]
 5016 002c 0133     		adds	r3, r3, #1
 5017 002e 3B60     		str	r3, [r7]
 5018              	.L244:
 5019              	.LBB12:
1155:g:/iot/IoT_Device_Demo/iot_link/network/lwm2m/wakaama_lwm2m/wakaama-master/core/er-coap-13\er-coap-13.c **** 
1156:g:/iot/IoT_Device_Demo/iot_link/network/lwm2m/wakaama_lwm2m/wakaama-master/core/er-coap-13\er-coap-13.c ****     do
1157:g:/iot/IoT_Device_Demo/iot_link/network/lwm2m/wakaama_lwm2m/wakaama-master/core/er-coap-13\er-coap-13.c ****     {
1158:g:/iot/IoT_Device_Demo/iot_link/network/lwm2m/wakaama_lwm2m/wakaama-master/core/er-coap-13\er-coap-13.c ****         int i = 0;
 5020              		.loc 1 1158 13
 5021 0030 0023     		movs	r3, #0
 5022 0032 3B61     		str	r3, [r7, #16]
1159:g:/iot/IoT_Device_Demo/iot_link/network/lwm2m/wakaama_lwm2m/wakaama-master/core/er-coap-13\er-coap-13.c **** 
1160:g:/iot/IoT_Device_Demo/iot_link/network/lwm2m/wakaama_lwm2m/wakaama-master/core/er-coap-13\er-coap-13.c ****         while (path[i] != 0 && path[i] != '/') i++;
 5023              		.loc 1 1160 15
 5024 0034 02E0     		b	.L240
 5025              	.L242:
 5026              		.loc 1 1160 49 discriminator 3
 5027 0036 3B69     		ldr	r3, [r7, #16]
 5028 0038 0133     		adds	r3, r3, #1
 5029 003a 3B61     		str	r3, [r7, #16]
 5030              	.L240:
 5031              		.loc 1 1160 20 discriminator 1
 5032 003c 3B69     		ldr	r3, [r7, #16]
 5033 003e 3A68     		ldr	r2, [r7]
 5034 0040 1344     		add	r3, r3, r2
 5035 0042 1B78     		ldrb	r3, [r3]	@ zero_extendqisi2
 5036              		.loc 1 1160 15 discriminator 1
 5037 0044 002B     		cmp	r3, #0
 5038 0046 05D0     		beq	.L241
 5039              		.loc 1 1160 36 discriminator 2
 5040 0048 3B69     		ldr	r3, [r7, #16]
 5041 004a 3A68     		ldr	r2, [r7]
 5042 004c 1344     		add	r3, r3, r2
ARM GAS  C:\Users\ADMINI~1\AppData\Local\Temp\cc8DJu9v.s 			page 109


 5043 004e 1B78     		ldrb	r3, [r3]	@ zero_extendqisi2
 5044              		.loc 1 1160 29 discriminator 2
 5045 0050 2F2B     		cmp	r3, #47
 5046 0052 F0D1     		bne	.L242
 5047              	.L241:
1161:g:/iot/IoT_Device_Demo/iot_link/network/lwm2m/wakaama_lwm2m/wakaama-master/core/er-coap-13\er-coap-13.c ****         coap_add_multi_option(&(coap_pkt->uri_path), (uint8_t *)path, i, 0);
 5048              		.loc 1 1161 9
 5049 0054 FB68     		ldr	r3, [r7, #12]
 5050 0056 03F14400 		add	r0, r3, #68
 5051 005a 3A69     		ldr	r2, [r7, #16]
 5052 005c 0023     		movs	r3, #0
 5053 005e 3968     		ldr	r1, [r7]
 5054 0060 FFF7FEFF 		bl	coap_add_multi_option
1162:g:/iot/IoT_Device_Demo/iot_link/network/lwm2m/wakaama_lwm2m/wakaama-master/core/er-coap-13\er-coap-13.c **** 
1163:g:/iot/IoT_Device_Demo/iot_link/network/lwm2m/wakaama_lwm2m/wakaama-master/core/er-coap-13\er-coap-13.c ****         if (path[i] == '/') i++;
 5055              		.loc 1 1163 17
 5056 0064 3B69     		ldr	r3, [r7, #16]
 5057 0066 3A68     		ldr	r2, [r7]
 5058 0068 1344     		add	r3, r3, r2
 5059 006a 1B78     		ldrb	r3, [r3]	@ zero_extendqisi2
 5060              		.loc 1 1163 12
 5061 006c 2F2B     		cmp	r3, #47
 5062 006e 02D1     		bne	.L243
 5063              		.loc 1 1163 30 discriminator 1
 5064 0070 3B69     		ldr	r3, [r7, #16]
 5065 0072 0133     		adds	r3, r3, #1
 5066 0074 3B61     		str	r3, [r7, #16]
 5067              	.L243:
1164:g:/iot/IoT_Device_Demo/iot_link/network/lwm2m/wakaama_lwm2m/wakaama-master/core/er-coap-13\er-coap-13.c ****         path += i;
 5068              		.loc 1 1164 14
 5069 0076 3B69     		ldr	r3, [r7, #16]
 5070 0078 3A68     		ldr	r2, [r7]
 5071 007a 1344     		add	r3, r3, r2
 5072 007c 3B60     		str	r3, [r7]
1165:g:/iot/IoT_Device_Demo/iot_link/network/lwm2m/wakaama_lwm2m/wakaama-master/core/er-coap-13\er-coap-13.c ****         length += i;
 5073              		.loc 1 1165 16
 5074 007e 7A69     		ldr	r2, [r7, #20]
 5075 0080 3B69     		ldr	r3, [r7, #16]
 5076 0082 1344     		add	r3, r3, r2
 5077 0084 7B61     		str	r3, [r7, #20]
 5078              	.LBE12:
1166:g:/iot/IoT_Device_Demo/iot_link/network/lwm2m/wakaama_lwm2m/wakaama-master/core/er-coap-13\er-coap-13.c ****     }
1167:g:/iot/IoT_Device_Demo/iot_link/network/lwm2m/wakaama_lwm2m/wakaama-master/core/er-coap-13\er-coap-13.c ****     while (path[0] != 0);
 5079              		.loc 1 1167 16
 5080 0086 3B68     		ldr	r3, [r7]
 5081 0088 1B78     		ldrb	r3, [r3]	@ zero_extendqisi2
 5082              		.loc 1 1167 5
 5083 008a 002B     		cmp	r3, #0
 5084 008c D0D1     		bne	.L244
1168:g:/iot/IoT_Device_Demo/iot_link/network/lwm2m/wakaama_lwm2m/wakaama-master/core/er-coap-13\er-coap-13.c **** 
1169:g:/iot/IoT_Device_Demo/iot_link/network/lwm2m/wakaama_lwm2m/wakaama-master/core/er-coap-13\er-coap-13.c ****     SET_OPTION(coap_pkt, COAP_OPTION_URI_PATH);
 5085              		.loc 1 1169 5 discriminator 1
 5086 008e FB68     		ldr	r3, [r7, #12]
 5087 0090 DB7A     		ldrb	r3, [r3, #11]	@ zero_extendqisi2
 5088 0092 43F00803 		orr	r3, r3, #8
 5089 0096 DAB2     		uxtb	r2, r3
 5090 0098 FB68     		ldr	r3, [r7, #12]
ARM GAS  C:\Users\ADMINI~1\AppData\Local\Temp\cc8DJu9v.s 			page 110


 5091 009a DA72     		strb	r2, [r3, #11]
1170:g:/iot/IoT_Device_Demo/iot_link/network/lwm2m/wakaama_lwm2m/wakaama-master/core/er-coap-13\er-coap-13.c ****     return length;
 5092              		.loc 1 1170 12 discriminator 1
 5093 009c 7B69     		ldr	r3, [r7, #20]
1171:g:/iot/IoT_Device_Demo/iot_link/network/lwm2m/wakaama_lwm2m/wakaama-master/core/er-coap-13\er-coap-13.c **** }
 5094              		.loc 1 1171 1 discriminator 1
 5095 009e 1846     		mov	r0, r3
 5096 00a0 1837     		adds	r7, r7, #24
 5097              	.LCFI222:
 5098              		.cfi_def_cfa_offset 8
 5099 00a2 BD46     		mov	sp, r7
 5100              	.LCFI223:
 5101              		.cfi_def_cfa_register 13
 5102              		@ sp needed
 5103 00a4 80BD     		pop	{r7, pc}
 5104              		.cfi_endproc
 5105              	.LFE44:
 5107              		.section	.text.coap_set_header_uri_path_segment,"ax",%progbits
 5108              		.align	1
 5109              		.global	coap_set_header_uri_path_segment
 5110              		.syntax unified
 5111              		.thumb
 5112              		.thumb_func
 5113              		.fpu fpv4-sp-d16
 5115              	coap_set_header_uri_path_segment:
 5116              	.LFB45:
1172:g:/iot/IoT_Device_Demo/iot_link/network/lwm2m/wakaama_lwm2m/wakaama-master/core/er-coap-13\er-coap-13.c **** 
1173:g:/iot/IoT_Device_Demo/iot_link/network/lwm2m/wakaama_lwm2m/wakaama-master/core/er-coap-13\er-coap-13.c **** int
1174:g:/iot/IoT_Device_Demo/iot_link/network/lwm2m/wakaama_lwm2m/wakaama-master/core/er-coap-13\er-coap-13.c **** coap_set_header_uri_path_segment(void *packet, const char *segment)
1175:g:/iot/IoT_Device_Demo/iot_link/network/lwm2m/wakaama_lwm2m/wakaama-master/core/er-coap-13\er-coap-13.c **** {
 5117              		.loc 1 1175 1
 5118              		.cfi_startproc
 5119              		@ args = 0, pretend = 0, frame = 16
 5120              		@ frame_needed = 1, uses_anonymous_args = 0
 5121 0000 80B5     		push	{r7, lr}
 5122              	.LCFI224:
 5123              		.cfi_def_cfa_offset 8
 5124              		.cfi_offset 7, -8
 5125              		.cfi_offset 14, -4
 5126 0002 84B0     		sub	sp, sp, #16
 5127              	.LCFI225:
 5128              		.cfi_def_cfa_offset 24
 5129 0004 00AF     		add	r7, sp, #0
 5130              	.LCFI226:
 5131              		.cfi_def_cfa_register 7
 5132 0006 7860     		str	r0, [r7, #4]
 5133 0008 3960     		str	r1, [r7]
1176:g:/iot/IoT_Device_Demo/iot_link/network/lwm2m/wakaama_lwm2m/wakaama-master/core/er-coap-13\er-coap-13.c ****     coap_packet_t *coap_pkt = (coap_packet_t *) packet;
 5134              		.loc 1 1176 20
 5135 000a 7B68     		ldr	r3, [r7, #4]
 5136 000c BB60     		str	r3, [r7, #8]
1177:g:/iot/IoT_Device_Demo/iot_link/network/lwm2m/wakaama_lwm2m/wakaama-master/core/er-coap-13\er-coap-13.c ****     int length;
1178:g:/iot/IoT_Device_Demo/iot_link/network/lwm2m/wakaama_lwm2m/wakaama-master/core/er-coap-13\er-coap-13.c **** 
1179:g:/iot/IoT_Device_Demo/iot_link/network/lwm2m/wakaama_lwm2m/wakaama-master/core/er-coap-13\er-coap-13.c ****     if (segment == NULL || segment[0] == 0)
 5137              		.loc 1 1179 8
 5138 000e 3B68     		ldr	r3, [r7]
 5139 0010 002B     		cmp	r3, #0
ARM GAS  C:\Users\ADMINI~1\AppData\Local\Temp\cc8DJu9v.s 			page 111


 5140 0012 03D0     		beq	.L247
 5141              		.loc 1 1179 35 discriminator 1
 5142 0014 3B68     		ldr	r3, [r7]
 5143 0016 1B78     		ldrb	r3, [r3]	@ zero_extendqisi2
 5144              		.loc 1 1179 25 discriminator 1
 5145 0018 002B     		cmp	r3, #0
 5146 001a 0AD1     		bne	.L248
 5147              	.L247:
1180:g:/iot/IoT_Device_Demo/iot_link/network/lwm2m/wakaama_lwm2m/wakaama-master/core/er-coap-13\er-coap-13.c ****     {
1181:g:/iot/IoT_Device_Demo/iot_link/network/lwm2m/wakaama_lwm2m/wakaama-master/core/er-coap-13\er-coap-13.c ****         coap_add_multi_option(&(coap_pkt->uri_path), NULL, 0, 1);
 5148              		.loc 1 1181 9
 5149 001c BB68     		ldr	r3, [r7, #8]
 5150 001e 03F14400 		add	r0, r3, #68
 5151 0022 0123     		movs	r3, #1
 5152 0024 0022     		movs	r2, #0
 5153 0026 0021     		movs	r1, #0
 5154 0028 FFF7FEFF 		bl	coap_add_multi_option
1182:g:/iot/IoT_Device_Demo/iot_link/network/lwm2m/wakaama_lwm2m/wakaama-master/core/er-coap-13\er-coap-13.c ****         length = 0;
 5155              		.loc 1 1182 16
 5156 002c 0023     		movs	r3, #0
 5157 002e FB60     		str	r3, [r7, #12]
 5158 0030 0CE0     		b	.L251
 5159              	.L248:
1183:g:/iot/IoT_Device_Demo/iot_link/network/lwm2m/wakaama_lwm2m/wakaama-master/core/er-coap-13\er-coap-13.c ****     }
1184:g:/iot/IoT_Device_Demo/iot_link/network/lwm2m/wakaama_lwm2m/wakaama-master/core/er-coap-13\er-coap-13.c ****     else
1185:g:/iot/IoT_Device_Demo/iot_link/network/lwm2m/wakaama_lwm2m/wakaama-master/core/er-coap-13\er-coap-13.c ****     {
1186:g:/iot/IoT_Device_Demo/iot_link/network/lwm2m/wakaama_lwm2m/wakaama-master/core/er-coap-13\er-coap-13.c ****         length = strlen(segment);
 5160              		.loc 1 1186 18
 5161 0032 3868     		ldr	r0, [r7]
 5162 0034 FFF7FEFF 		bl	strlen
 5163 0038 0346     		mov	r3, r0
 5164              		.loc 1 1186 16
 5165 003a FB60     		str	r3, [r7, #12]
1187:g:/iot/IoT_Device_Demo/iot_link/network/lwm2m/wakaama_lwm2m/wakaama-master/core/er-coap-13\er-coap-13.c ****         coap_add_multi_option(&(coap_pkt->uri_path), (uint8_t *)segment, length, 0);
 5166              		.loc 1 1187 9
 5167 003c BB68     		ldr	r3, [r7, #8]
 5168 003e 03F14400 		add	r0, r3, #68
 5169 0042 FA68     		ldr	r2, [r7, #12]
 5170 0044 0023     		movs	r3, #0
 5171 0046 3968     		ldr	r1, [r7]
 5172 0048 FFF7FEFF 		bl	coap_add_multi_option
 5173              	.L251:
1188:g:/iot/IoT_Device_Demo/iot_link/network/lwm2m/wakaama_lwm2m/wakaama-master/core/er-coap-13\er-coap-13.c ****     }
1189:g:/iot/IoT_Device_Demo/iot_link/network/lwm2m/wakaama_lwm2m/wakaama-master/core/er-coap-13\er-coap-13.c **** 
1190:g:/iot/IoT_Device_Demo/iot_link/network/lwm2m/wakaama_lwm2m/wakaama-master/core/er-coap-13\er-coap-13.c ****     SET_OPTION(coap_pkt, COAP_OPTION_URI_PATH);
 5174              		.loc 1 1190 5 discriminator 1
 5175 004c BB68     		ldr	r3, [r7, #8]
 5176 004e DB7A     		ldrb	r3, [r3, #11]	@ zero_extendqisi2
 5177 0050 43F00803 		orr	r3, r3, #8
 5178 0054 DAB2     		uxtb	r2, r3
 5179 0056 BB68     		ldr	r3, [r7, #8]
 5180 0058 DA72     		strb	r2, [r3, #11]
1191:g:/iot/IoT_Device_Demo/iot_link/network/lwm2m/wakaama_lwm2m/wakaama-master/core/er-coap-13\er-coap-13.c ****     return length;
 5181              		.loc 1 1191 12 discriminator 1
 5182 005a FB68     		ldr	r3, [r7, #12]
1192:g:/iot/IoT_Device_Demo/iot_link/network/lwm2m/wakaama_lwm2m/wakaama-master/core/er-coap-13\er-coap-13.c **** }
 5183              		.loc 1 1192 1 discriminator 1
ARM GAS  C:\Users\ADMINI~1\AppData\Local\Temp\cc8DJu9v.s 			page 112


 5184 005c 1846     		mov	r0, r3
 5185 005e 1037     		adds	r7, r7, #16
 5186              	.LCFI227:
 5187              		.cfi_def_cfa_offset 8
 5188 0060 BD46     		mov	sp, r7
 5189              	.LCFI228:
 5190              		.cfi_def_cfa_register 13
 5191              		@ sp needed
 5192 0062 80BD     		pop	{r7, pc}
 5193              		.cfi_endproc
 5194              	.LFE45:
 5196              		.section	.text.coap_get_header_uri_query,"ax",%progbits
 5197              		.align	1
 5198              		.global	coap_get_header_uri_query
 5199              		.syntax unified
 5200              		.thumb
 5201              		.thumb_func
 5202              		.fpu fpv4-sp-d16
 5204              	coap_get_header_uri_query:
 5205              	.LFB46:
1193:g:/iot/IoT_Device_Demo/iot_link/network/lwm2m/wakaama_lwm2m/wakaama-master/core/er-coap-13\er-coap-13.c **** /*-----------------------------------------------------------------------------------*/
1194:g:/iot/IoT_Device_Demo/iot_link/network/lwm2m/wakaama_lwm2m/wakaama-master/core/er-coap-13\er-coap-13.c **** int
1195:g:/iot/IoT_Device_Demo/iot_link/network/lwm2m/wakaama_lwm2m/wakaama-master/core/er-coap-13\er-coap-13.c **** coap_get_header_uri_query(void *packet, const char **query)
1196:g:/iot/IoT_Device_Demo/iot_link/network/lwm2m/wakaama_lwm2m/wakaama-master/core/er-coap-13\er-coap-13.c **** {
 5206              		.loc 1 1196 1
 5207              		.cfi_startproc
 5208              		@ args = 0, pretend = 0, frame = 16
 5209              		@ frame_needed = 1, uses_anonymous_args = 0
 5210              		@ link register save eliminated.
 5211 0000 80B4     		push	{r7}
 5212              	.LCFI229:
 5213              		.cfi_def_cfa_offset 4
 5214              		.cfi_offset 7, -4
 5215 0002 85B0     		sub	sp, sp, #20
 5216              	.LCFI230:
 5217              		.cfi_def_cfa_offset 24
 5218 0004 00AF     		add	r7, sp, #0
 5219              	.LCFI231:
 5220              		.cfi_def_cfa_register 7
 5221 0006 7860     		str	r0, [r7, #4]
 5222 0008 3960     		str	r1, [r7]
1197:g:/iot/IoT_Device_Demo/iot_link/network/lwm2m/wakaama_lwm2m/wakaama-master/core/er-coap-13\er-coap-13.c ****     coap_packet_t *const coap_pkt = (coap_packet_t *) packet;
 5223              		.loc 1 1197 26
 5224 000a 7B68     		ldr	r3, [r7, #4]
 5225 000c FB60     		str	r3, [r7, #12]
1198:g:/iot/IoT_Device_Demo/iot_link/network/lwm2m/wakaama_lwm2m/wakaama-master/core/er-coap-13\er-coap-13.c **** 
1199:g:/iot/IoT_Device_Demo/iot_link/network/lwm2m/wakaama_lwm2m/wakaama-master/core/er-coap-13\er-coap-13.c ****     if (!IS_OPTION(coap_pkt, COAP_OPTION_URI_QUERY)) return 0;
 5226              		.loc 1 1199 10
 5227 000e FB68     		ldr	r3, [r7, #12]
 5228 0010 DB7A     		ldrb	r3, [r3, #11]	@ zero_extendqisi2
 5229              		.loc 1 1199 9
 5230 0012 5BB2     		sxtb	r3, r3
 5231              		.loc 1 1199 8
 5232 0014 002B     		cmp	r3, #0
 5233 0016 01DB     		blt	.L253
 5234              		.loc 1 1199 61 discriminator 1
 5235 0018 0023     		movs	r3, #0
ARM GAS  C:\Users\ADMINI~1\AppData\Local\Temp\cc8DJu9v.s 			page 113


 5236 001a 03E0     		b	.L254
 5237              	.L253:
1200:g:/iot/IoT_Device_Demo/iot_link/network/lwm2m/wakaama_lwm2m/wakaama-master/core/er-coap-13\er-coap-13.c **** 
1201:g:/iot/IoT_Device_Demo/iot_link/network/lwm2m/wakaama_lwm2m/wakaama-master/core/er-coap-13\er-coap-13.c ****     *query = NULL; //coap_pkt->uri_query;
 5238              		.loc 1 1201 12
 5239 001c 3B68     		ldr	r3, [r7]
 5240 001e 0022     		movs	r2, #0
 5241 0020 1A60     		str	r2, [r3]
1202:g:/iot/IoT_Device_Demo/iot_link/network/lwm2m/wakaama_lwm2m/wakaama-master/core/er-coap-13\er-coap-13.c ****     return 0; //coap_pkt->uri_query_len;
 5242              		.loc 1 1202 12
 5243 0022 0023     		movs	r3, #0
 5244              	.L254:
1203:g:/iot/IoT_Device_Demo/iot_link/network/lwm2m/wakaama_lwm2m/wakaama-master/core/er-coap-13\er-coap-13.c **** }
 5245              		.loc 1 1203 1
 5246 0024 1846     		mov	r0, r3
 5247 0026 1437     		adds	r7, r7, #20
 5248              	.LCFI232:
 5249              		.cfi_def_cfa_offset 4
 5250 0028 BD46     		mov	sp, r7
 5251              	.LCFI233:
 5252              		.cfi_def_cfa_register 13
 5253              		@ sp needed
 5254 002a 5DF8047B 		ldr	r7, [sp], #4
 5255              	.LCFI234:
 5256              		.cfi_restore 7
 5257              		.cfi_def_cfa_offset 0
 5258 002e 7047     		bx	lr
 5259              		.cfi_endproc
 5260              	.LFE46:
 5262              		.section	.text.coap_set_header_uri_query,"ax",%progbits
 5263              		.align	1
 5264              		.global	coap_set_header_uri_query
 5265              		.syntax unified
 5266              		.thumb
 5267              		.thumb_func
 5268              		.fpu fpv4-sp-d16
 5270              	coap_set_header_uri_query:
 5271              	.LFB47:
1204:g:/iot/IoT_Device_Demo/iot_link/network/lwm2m/wakaama_lwm2m/wakaama-master/core/er-coap-13\er-coap-13.c **** 
1205:g:/iot/IoT_Device_Demo/iot_link/network/lwm2m/wakaama_lwm2m/wakaama-master/core/er-coap-13\er-coap-13.c **** int
1206:g:/iot/IoT_Device_Demo/iot_link/network/lwm2m/wakaama_lwm2m/wakaama-master/core/er-coap-13\er-coap-13.c **** coap_set_header_uri_query(void *packet, const char *query)
1207:g:/iot/IoT_Device_Demo/iot_link/network/lwm2m/wakaama_lwm2m/wakaama-master/core/er-coap-13\er-coap-13.c **** {
 5272              		.loc 1 1207 1
 5273              		.cfi_startproc
 5274              		@ args = 0, pretend = 0, frame = 24
 5275              		@ frame_needed = 1, uses_anonymous_args = 0
 5276 0000 80B5     		push	{r7, lr}
 5277              	.LCFI235:
 5278              		.cfi_def_cfa_offset 8
 5279              		.cfi_offset 7, -8
 5280              		.cfi_offset 14, -4
 5281 0002 86B0     		sub	sp, sp, #24
 5282              	.LCFI236:
 5283              		.cfi_def_cfa_offset 32
 5284 0004 00AF     		add	r7, sp, #0
 5285              	.LCFI237:
 5286              		.cfi_def_cfa_register 7
ARM GAS  C:\Users\ADMINI~1\AppData\Local\Temp\cc8DJu9v.s 			page 114


 5287 0006 7860     		str	r0, [r7, #4]
 5288 0008 3960     		str	r1, [r7]
1208:g:/iot/IoT_Device_Demo/iot_link/network/lwm2m/wakaama_lwm2m/wakaama-master/core/er-coap-13\er-coap-13.c ****     int length = 0;
 5289              		.loc 1 1208 9
 5290 000a 0023     		movs	r3, #0
 5291 000c 7B61     		str	r3, [r7, #20]
1209:g:/iot/IoT_Device_Demo/iot_link/network/lwm2m/wakaama_lwm2m/wakaama-master/core/er-coap-13\er-coap-13.c ****     coap_packet_t *const coap_pkt = (coap_packet_t *) packet;
 5292              		.loc 1 1209 26
 5293 000e 7B68     		ldr	r3, [r7, #4]
 5294 0010 FB60     		str	r3, [r7, #12]
1210:g:/iot/IoT_Device_Demo/iot_link/network/lwm2m/wakaama_lwm2m/wakaama-master/core/er-coap-13\er-coap-13.c **** 
1211:g:/iot/IoT_Device_Demo/iot_link/network/lwm2m/wakaama_lwm2m/wakaama-master/core/er-coap-13\er-coap-13.c ****     free_multi_option(coap_pkt->uri_query);
 5295              		.loc 1 1211 5
 5296 0012 FB68     		ldr	r3, [r7, #12]
 5297 0014 D3F88030 		ldr	r3, [r3, #128]
 5298 0018 1846     		mov	r0, r3
 5299 001a FFF7FEFF 		bl	free_multi_option
1212:g:/iot/IoT_Device_Demo/iot_link/network/lwm2m/wakaama_lwm2m/wakaama-master/core/er-coap-13\er-coap-13.c ****     coap_pkt->uri_query = NULL;
 5300              		.loc 1 1212 25
 5301 001e FB68     		ldr	r3, [r7, #12]
 5302 0020 0022     		movs	r2, #0
 5303 0022 C3F88020 		str	r2, [r3, #128]
1213:g:/iot/IoT_Device_Demo/iot_link/network/lwm2m/wakaama_lwm2m/wakaama-master/core/er-coap-13\er-coap-13.c **** 
1214:g:/iot/IoT_Device_Demo/iot_link/network/lwm2m/wakaama_lwm2m/wakaama-master/core/er-coap-13\er-coap-13.c ****     if (query[0] == '?') ++query;
 5304              		.loc 1 1214 14
 5305 0026 3B68     		ldr	r3, [r7]
 5306 0028 1B78     		ldrb	r3, [r3]	@ zero_extendqisi2
 5307              		.loc 1 1214 8
 5308 002a 3F2B     		cmp	r3, #63
 5309 002c 02D1     		bne	.L261
 5310              		.loc 1 1214 26 discriminator 1
 5311 002e 3B68     		ldr	r3, [r7]
 5312 0030 0133     		adds	r3, r3, #1
 5313 0032 3B60     		str	r3, [r7]
 5314              	.L261:
 5315              	.LBB13:
1215:g:/iot/IoT_Device_Demo/iot_link/network/lwm2m/wakaama_lwm2m/wakaama-master/core/er-coap-13\er-coap-13.c **** 
1216:g:/iot/IoT_Device_Demo/iot_link/network/lwm2m/wakaama_lwm2m/wakaama-master/core/er-coap-13\er-coap-13.c ****     do
1217:g:/iot/IoT_Device_Demo/iot_link/network/lwm2m/wakaama_lwm2m/wakaama-master/core/er-coap-13\er-coap-13.c ****     {
1218:g:/iot/IoT_Device_Demo/iot_link/network/lwm2m/wakaama_lwm2m/wakaama-master/core/er-coap-13\er-coap-13.c ****         int i = 0;
 5316              		.loc 1 1218 13
 5317 0034 0023     		movs	r3, #0
 5318 0036 3B61     		str	r3, [r7, #16]
1219:g:/iot/IoT_Device_Demo/iot_link/network/lwm2m/wakaama_lwm2m/wakaama-master/core/er-coap-13\er-coap-13.c **** 
1220:g:/iot/IoT_Device_Demo/iot_link/network/lwm2m/wakaama_lwm2m/wakaama-master/core/er-coap-13\er-coap-13.c ****         while (query[i] != 0 && query[i] != '&') i++;
 5319              		.loc 1 1220 15
 5320 0038 02E0     		b	.L257
 5321              	.L259:
 5322              		.loc 1 1220 51 discriminator 3
 5323 003a 3B69     		ldr	r3, [r7, #16]
 5324 003c 0133     		adds	r3, r3, #1
 5325 003e 3B61     		str	r3, [r7, #16]
 5326              	.L257:
 5327              		.loc 1 1220 21 discriminator 1
 5328 0040 3B69     		ldr	r3, [r7, #16]
 5329 0042 3A68     		ldr	r2, [r7]
 5330 0044 1344     		add	r3, r3, r2
ARM GAS  C:\Users\ADMINI~1\AppData\Local\Temp\cc8DJu9v.s 			page 115


 5331 0046 1B78     		ldrb	r3, [r3]	@ zero_extendqisi2
 5332              		.loc 1 1220 15 discriminator 1
 5333 0048 002B     		cmp	r3, #0
 5334 004a 05D0     		beq	.L258
 5335              		.loc 1 1220 38 discriminator 2
 5336 004c 3B69     		ldr	r3, [r7, #16]
 5337 004e 3A68     		ldr	r2, [r7]
 5338 0050 1344     		add	r3, r3, r2
 5339 0052 1B78     		ldrb	r3, [r3]	@ zero_extendqisi2
 5340              		.loc 1 1220 30 discriminator 2
 5341 0054 262B     		cmp	r3, #38
 5342 0056 F0D1     		bne	.L259
 5343              	.L258:
1221:g:/iot/IoT_Device_Demo/iot_link/network/lwm2m/wakaama_lwm2m/wakaama-master/core/er-coap-13\er-coap-13.c ****         coap_add_multi_option(&(coap_pkt->uri_query), (uint8_t *)query, i, 0);
 5344              		.loc 1 1221 9
 5345 0058 FB68     		ldr	r3, [r7, #12]
 5346 005a 03F18000 		add	r0, r3, #128
 5347 005e 3A69     		ldr	r2, [r7, #16]
 5348 0060 0023     		movs	r3, #0
 5349 0062 3968     		ldr	r1, [r7]
 5350 0064 FFF7FEFF 		bl	coap_add_multi_option
1222:g:/iot/IoT_Device_Demo/iot_link/network/lwm2m/wakaama_lwm2m/wakaama-master/core/er-coap-13\er-coap-13.c **** 
1223:g:/iot/IoT_Device_Demo/iot_link/network/lwm2m/wakaama_lwm2m/wakaama-master/core/er-coap-13\er-coap-13.c ****         if (query[i] == '&') i++;
 5351              		.loc 1 1223 18
 5352 0068 3B69     		ldr	r3, [r7, #16]
 5353 006a 3A68     		ldr	r2, [r7]
 5354 006c 1344     		add	r3, r3, r2
 5355 006e 1B78     		ldrb	r3, [r3]	@ zero_extendqisi2
 5356              		.loc 1 1223 12
 5357 0070 262B     		cmp	r3, #38
 5358 0072 02D1     		bne	.L260
 5359              		.loc 1 1223 31 discriminator 1
 5360 0074 3B69     		ldr	r3, [r7, #16]
 5361 0076 0133     		adds	r3, r3, #1
 5362 0078 3B61     		str	r3, [r7, #16]
 5363              	.L260:
1224:g:/iot/IoT_Device_Demo/iot_link/network/lwm2m/wakaama_lwm2m/wakaama-master/core/er-coap-13\er-coap-13.c ****         query += i;
 5364              		.loc 1 1224 15
 5365 007a 3B69     		ldr	r3, [r7, #16]
 5366 007c 3A68     		ldr	r2, [r7]
 5367 007e 1344     		add	r3, r3, r2
 5368 0080 3B60     		str	r3, [r7]
1225:g:/iot/IoT_Device_Demo/iot_link/network/lwm2m/wakaama_lwm2m/wakaama-master/core/er-coap-13\er-coap-13.c ****         length += i;
 5369              		.loc 1 1225 16
 5370 0082 7A69     		ldr	r2, [r7, #20]
 5371 0084 3B69     		ldr	r3, [r7, #16]
 5372 0086 1344     		add	r3, r3, r2
 5373 0088 7B61     		str	r3, [r7, #20]
 5374              	.LBE13:
1226:g:/iot/IoT_Device_Demo/iot_link/network/lwm2m/wakaama_lwm2m/wakaama-master/core/er-coap-13\er-coap-13.c ****     }
1227:g:/iot/IoT_Device_Demo/iot_link/network/lwm2m/wakaama_lwm2m/wakaama-master/core/er-coap-13\er-coap-13.c ****     while (query[0] != 0);
 5375              		.loc 1 1227 17
 5376 008a 3B68     		ldr	r3, [r7]
 5377 008c 1B78     		ldrb	r3, [r3]	@ zero_extendqisi2
 5378              		.loc 1 1227 5
 5379 008e 002B     		cmp	r3, #0
 5380 0090 D0D1     		bne	.L261
ARM GAS  C:\Users\ADMINI~1\AppData\Local\Temp\cc8DJu9v.s 			page 116


1228:g:/iot/IoT_Device_Demo/iot_link/network/lwm2m/wakaama_lwm2m/wakaama-master/core/er-coap-13\er-coap-13.c **** 
1229:g:/iot/IoT_Device_Demo/iot_link/network/lwm2m/wakaama_lwm2m/wakaama-master/core/er-coap-13\er-coap-13.c ****     SET_OPTION(coap_pkt, COAP_OPTION_URI_QUERY);
 5381              		.loc 1 1229 5 discriminator 1
 5382 0092 FB68     		ldr	r3, [r7, #12]
 5383 0094 DB7A     		ldrb	r3, [r3, #11]	@ zero_extendqisi2
 5384 0096 63F07F03 		orn	r3, r3, #127
 5385 009a DAB2     		uxtb	r2, r3
 5386 009c FB68     		ldr	r3, [r7, #12]
 5387 009e DA72     		strb	r2, [r3, #11]
1230:g:/iot/IoT_Device_Demo/iot_link/network/lwm2m/wakaama_lwm2m/wakaama-master/core/er-coap-13\er-coap-13.c ****     return length;
 5388              		.loc 1 1230 12 discriminator 1
 5389 00a0 7B69     		ldr	r3, [r7, #20]
1231:g:/iot/IoT_Device_Demo/iot_link/network/lwm2m/wakaama_lwm2m/wakaama-master/core/er-coap-13\er-coap-13.c **** }
 5390              		.loc 1 1231 1 discriminator 1
 5391 00a2 1846     		mov	r0, r3
 5392 00a4 1837     		adds	r7, r7, #24
 5393              	.LCFI238:
 5394              		.cfi_def_cfa_offset 8
 5395 00a6 BD46     		mov	sp, r7
 5396              	.LCFI239:
 5397              		.cfi_def_cfa_register 13
 5398              		@ sp needed
 5399 00a8 80BD     		pop	{r7, pc}
 5400              		.cfi_endproc
 5401              	.LFE47:
 5403              		.section	.text.coap_get_header_location_path,"ax",%progbits
 5404              		.align	1
 5405              		.global	coap_get_header_location_path
 5406              		.syntax unified
 5407              		.thumb
 5408              		.thumb_func
 5409              		.fpu fpv4-sp-d16
 5411              	coap_get_header_location_path:
 5412              	.LFB48:
1232:g:/iot/IoT_Device_Demo/iot_link/network/lwm2m/wakaama_lwm2m/wakaama-master/core/er-coap-13\er-coap-13.c **** /*-----------------------------------------------------------------------------------*/
1233:g:/iot/IoT_Device_Demo/iot_link/network/lwm2m/wakaama_lwm2m/wakaama-master/core/er-coap-13\er-coap-13.c **** int
1234:g:/iot/IoT_Device_Demo/iot_link/network/lwm2m/wakaama_lwm2m/wakaama-master/core/er-coap-13\er-coap-13.c **** coap_get_header_location_path(void *packet, const char **path)
1235:g:/iot/IoT_Device_Demo/iot_link/network/lwm2m/wakaama_lwm2m/wakaama-master/core/er-coap-13\er-coap-13.c **** {
 5413              		.loc 1 1235 1
 5414              		.cfi_startproc
 5415              		@ args = 0, pretend = 0, frame = 16
 5416              		@ frame_needed = 1, uses_anonymous_args = 0
 5417              		@ link register save eliminated.
 5418 0000 80B4     		push	{r7}
 5419              	.LCFI240:
 5420              		.cfi_def_cfa_offset 4
 5421              		.cfi_offset 7, -4
 5422 0002 85B0     		sub	sp, sp, #20
 5423              	.LCFI241:
 5424              		.cfi_def_cfa_offset 24
 5425 0004 00AF     		add	r7, sp, #0
 5426              	.LCFI242:
 5427              		.cfi_def_cfa_register 7
 5428 0006 7860     		str	r0, [r7, #4]
 5429 0008 3960     		str	r1, [r7]
1236:g:/iot/IoT_Device_Demo/iot_link/network/lwm2m/wakaama_lwm2m/wakaama-master/core/er-coap-13\er-coap-13.c ****     coap_packet_t *const coap_pkt = (coap_packet_t *) packet;
 5430              		.loc 1 1236 26
ARM GAS  C:\Users\ADMINI~1\AppData\Local\Temp\cc8DJu9v.s 			page 117


 5431 000a 7B68     		ldr	r3, [r7, #4]
 5432 000c FB60     		str	r3, [r7, #12]
1237:g:/iot/IoT_Device_Demo/iot_link/network/lwm2m/wakaama_lwm2m/wakaama-master/core/er-coap-13\er-coap-13.c **** 
1238:g:/iot/IoT_Device_Demo/iot_link/network/lwm2m/wakaama_lwm2m/wakaama-master/core/er-coap-13\er-coap-13.c ****     if (!IS_OPTION(coap_pkt, COAP_OPTION_LOCATION_PATH)) return 0;
 5433              		.loc 1 1238 10
 5434 000e FB68     		ldr	r3, [r7, #12]
 5435 0010 DB7A     		ldrb	r3, [r3, #11]	@ zero_extendqisi2
 5436 0012 03F00103 		and	r3, r3, #1
 5437              		.loc 1 1238 8
 5438 0016 002B     		cmp	r3, #0
 5439 0018 01D1     		bne	.L264
 5440              		.loc 1 1238 65 discriminator 1
 5441 001a 0023     		movs	r3, #0
 5442 001c 03E0     		b	.L265
 5443              	.L264:
1239:g:/iot/IoT_Device_Demo/iot_link/network/lwm2m/wakaama_lwm2m/wakaama-master/core/er-coap-13\er-coap-13.c **** 
1240:g:/iot/IoT_Device_Demo/iot_link/network/lwm2m/wakaama_lwm2m/wakaama-master/core/er-coap-13\er-coap-13.c ****     *path = NULL; //coap_pkt->location_path;
 5444              		.loc 1 1240 11
 5445 001e 3B68     		ldr	r3, [r7]
 5446 0020 0022     		movs	r2, #0
 5447 0022 1A60     		str	r2, [r3]
1241:g:/iot/IoT_Device_Demo/iot_link/network/lwm2m/wakaama_lwm2m/wakaama-master/core/er-coap-13\er-coap-13.c ****     return 0; //coap_pkt->location_path_len;
 5448              		.loc 1 1241 12
 5449 0024 0023     		movs	r3, #0
 5450              	.L265:
1242:g:/iot/IoT_Device_Demo/iot_link/network/lwm2m/wakaama_lwm2m/wakaama-master/core/er-coap-13\er-coap-13.c **** }
 5451              		.loc 1 1242 1
 5452 0026 1846     		mov	r0, r3
 5453 0028 1437     		adds	r7, r7, #20
 5454              	.LCFI243:
 5455              		.cfi_def_cfa_offset 4
 5456 002a BD46     		mov	sp, r7
 5457              	.LCFI244:
 5458              		.cfi_def_cfa_register 13
 5459              		@ sp needed
 5460 002c 5DF8047B 		ldr	r7, [sp], #4
 5461              	.LCFI245:
 5462              		.cfi_restore 7
 5463              		.cfi_def_cfa_offset 0
 5464 0030 7047     		bx	lr
 5465              		.cfi_endproc
 5466              	.LFE48:
 5468              		.section	.text.coap_set_header_location_path,"ax",%progbits
 5469              		.align	1
 5470              		.global	coap_set_header_location_path
 5471              		.syntax unified
 5472              		.thumb
 5473              		.thumb_func
 5474              		.fpu fpv4-sp-d16
 5476              	coap_set_header_location_path:
 5477              	.LFB49:
1243:g:/iot/IoT_Device_Demo/iot_link/network/lwm2m/wakaama_lwm2m/wakaama-master/core/er-coap-13\er-coap-13.c **** 
1244:g:/iot/IoT_Device_Demo/iot_link/network/lwm2m/wakaama_lwm2m/wakaama-master/core/er-coap-13\er-coap-13.c **** int
1245:g:/iot/IoT_Device_Demo/iot_link/network/lwm2m/wakaama_lwm2m/wakaama-master/core/er-coap-13\er-coap-13.c **** coap_set_header_location_path(void *packet, const char *path)
1246:g:/iot/IoT_Device_Demo/iot_link/network/lwm2m/wakaama_lwm2m/wakaama-master/core/er-coap-13\er-coap-13.c **** {
 5478              		.loc 1 1246 1
 5479              		.cfi_startproc
ARM GAS  C:\Users\ADMINI~1\AppData\Local\Temp\cc8DJu9v.s 			page 118


 5480              		@ args = 0, pretend = 0, frame = 24
 5481              		@ frame_needed = 1, uses_anonymous_args = 0
 5482 0000 80B5     		push	{r7, lr}
 5483              	.LCFI246:
 5484              		.cfi_def_cfa_offset 8
 5485              		.cfi_offset 7, -8
 5486              		.cfi_offset 14, -4
 5487 0002 86B0     		sub	sp, sp, #24
 5488              	.LCFI247:
 5489              		.cfi_def_cfa_offset 32
 5490 0004 00AF     		add	r7, sp, #0
 5491              	.LCFI248:
 5492              		.cfi_def_cfa_register 7
 5493 0006 7860     		str	r0, [r7, #4]
 5494 0008 3960     		str	r1, [r7]
1247:g:/iot/IoT_Device_Demo/iot_link/network/lwm2m/wakaama_lwm2m/wakaama-master/core/er-coap-13\er-coap-13.c ****     coap_packet_t *coap_pkt = (coap_packet_t *) packet;
 5495              		.loc 1 1247 20
 5496 000a 7B68     		ldr	r3, [r7, #4]
 5497 000c FB60     		str	r3, [r7, #12]
1248:g:/iot/IoT_Device_Demo/iot_link/network/lwm2m/wakaama_lwm2m/wakaama-master/core/er-coap-13\er-coap-13.c ****     int length = 0;
 5498              		.loc 1 1248 9
 5499 000e 0023     		movs	r3, #0
 5500 0010 7B61     		str	r3, [r7, #20]
1249:g:/iot/IoT_Device_Demo/iot_link/network/lwm2m/wakaama_lwm2m/wakaama-master/core/er-coap-13\er-coap-13.c **** 
1250:g:/iot/IoT_Device_Demo/iot_link/network/lwm2m/wakaama_lwm2m/wakaama-master/core/er-coap-13\er-coap-13.c ****     free_multi_option(coap_pkt->location_path);
 5501              		.loc 1 1250 5
 5502 0012 FB68     		ldr	r3, [r7, #12]
 5503 0014 5B6B     		ldr	r3, [r3, #52]
 5504 0016 1846     		mov	r0, r3
 5505 0018 FFF7FEFF 		bl	free_multi_option
1251:g:/iot/IoT_Device_Demo/iot_link/network/lwm2m/wakaama_lwm2m/wakaama-master/core/er-coap-13\er-coap-13.c ****     coap_pkt->location_path = NULL;
 5506              		.loc 1 1251 29
 5507 001c FB68     		ldr	r3, [r7, #12]
 5508 001e 0022     		movs	r2, #0
 5509 0020 5A63     		str	r2, [r3, #52]
1252:g:/iot/IoT_Device_Demo/iot_link/network/lwm2m/wakaama_lwm2m/wakaama-master/core/er-coap-13\er-coap-13.c **** 
1253:g:/iot/IoT_Device_Demo/iot_link/network/lwm2m/wakaama_lwm2m/wakaama-master/core/er-coap-13\er-coap-13.c ****     if (path[0] == '/') ++path;
 5510              		.loc 1 1253 13
 5511 0022 3B68     		ldr	r3, [r7]
 5512 0024 1B78     		ldrb	r3, [r3]	@ zero_extendqisi2
 5513              		.loc 1 1253 8
 5514 0026 2F2B     		cmp	r3, #47
 5515 0028 02D1     		bne	.L272
 5516              		.loc 1 1253 25 discriminator 1
 5517 002a 3B68     		ldr	r3, [r7]
 5518 002c 0133     		adds	r3, r3, #1
 5519 002e 3B60     		str	r3, [r7]
 5520              	.L272:
 5521              	.LBB14:
1254:g:/iot/IoT_Device_Demo/iot_link/network/lwm2m/wakaama_lwm2m/wakaama-master/core/er-coap-13\er-coap-13.c **** 
1255:g:/iot/IoT_Device_Demo/iot_link/network/lwm2m/wakaama_lwm2m/wakaama-master/core/er-coap-13\er-coap-13.c ****     do
1256:g:/iot/IoT_Device_Demo/iot_link/network/lwm2m/wakaama_lwm2m/wakaama-master/core/er-coap-13\er-coap-13.c ****     {
1257:g:/iot/IoT_Device_Demo/iot_link/network/lwm2m/wakaama_lwm2m/wakaama-master/core/er-coap-13\er-coap-13.c ****         int i = 0;
 5522              		.loc 1 1257 13
 5523 0030 0023     		movs	r3, #0
 5524 0032 3B61     		str	r3, [r7, #16]
1258:g:/iot/IoT_Device_Demo/iot_link/network/lwm2m/wakaama_lwm2m/wakaama-master/core/er-coap-13\er-coap-13.c **** 
ARM GAS  C:\Users\ADMINI~1\AppData\Local\Temp\cc8DJu9v.s 			page 119


1259:g:/iot/IoT_Device_Demo/iot_link/network/lwm2m/wakaama_lwm2m/wakaama-master/core/er-coap-13\er-coap-13.c ****         while (path[i] != 0 && path[i] != '/') i++;
 5525              		.loc 1 1259 15
 5526 0034 02E0     		b	.L268
 5527              	.L270:
 5528              		.loc 1 1259 49 discriminator 3
 5529 0036 3B69     		ldr	r3, [r7, #16]
 5530 0038 0133     		adds	r3, r3, #1
 5531 003a 3B61     		str	r3, [r7, #16]
 5532              	.L268:
 5533              		.loc 1 1259 20 discriminator 1
 5534 003c 3B69     		ldr	r3, [r7, #16]
 5535 003e 3A68     		ldr	r2, [r7]
 5536 0040 1344     		add	r3, r3, r2
 5537 0042 1B78     		ldrb	r3, [r3]	@ zero_extendqisi2
 5538              		.loc 1 1259 15 discriminator 1
 5539 0044 002B     		cmp	r3, #0
 5540 0046 05D0     		beq	.L269
 5541              		.loc 1 1259 36 discriminator 2
 5542 0048 3B69     		ldr	r3, [r7, #16]
 5543 004a 3A68     		ldr	r2, [r7]
 5544 004c 1344     		add	r3, r3, r2
 5545 004e 1B78     		ldrb	r3, [r3]	@ zero_extendqisi2
 5546              		.loc 1 1259 29 discriminator 2
 5547 0050 2F2B     		cmp	r3, #47
 5548 0052 F0D1     		bne	.L270
 5549              	.L269:
1260:g:/iot/IoT_Device_Demo/iot_link/network/lwm2m/wakaama_lwm2m/wakaama-master/core/er-coap-13\er-coap-13.c ****         coap_add_multi_option(&(coap_pkt->location_path), (uint8_t *)path, i, 0);
 5550              		.loc 1 1260 9
 5551 0054 FB68     		ldr	r3, [r7, #12]
 5552 0056 03F13400 		add	r0, r3, #52
 5553 005a 3A69     		ldr	r2, [r7, #16]
 5554 005c 0023     		movs	r3, #0
 5555 005e 3968     		ldr	r1, [r7]
 5556 0060 FFF7FEFF 		bl	coap_add_multi_option
1261:g:/iot/IoT_Device_Demo/iot_link/network/lwm2m/wakaama_lwm2m/wakaama-master/core/er-coap-13\er-coap-13.c **** 
1262:g:/iot/IoT_Device_Demo/iot_link/network/lwm2m/wakaama_lwm2m/wakaama-master/core/er-coap-13\er-coap-13.c ****         if (path[i] == '/') i++;
 5557              		.loc 1 1262 17
 5558 0064 3B69     		ldr	r3, [r7, #16]
 5559 0066 3A68     		ldr	r2, [r7]
 5560 0068 1344     		add	r3, r3, r2
 5561 006a 1B78     		ldrb	r3, [r3]	@ zero_extendqisi2
 5562              		.loc 1 1262 12
 5563 006c 2F2B     		cmp	r3, #47
 5564 006e 02D1     		bne	.L271
 5565              		.loc 1 1262 30 discriminator 1
 5566 0070 3B69     		ldr	r3, [r7, #16]
 5567 0072 0133     		adds	r3, r3, #1
 5568 0074 3B61     		str	r3, [r7, #16]
 5569              	.L271:
1263:g:/iot/IoT_Device_Demo/iot_link/network/lwm2m/wakaama_lwm2m/wakaama-master/core/er-coap-13\er-coap-13.c ****         path += i;
 5570              		.loc 1 1263 14
 5571 0076 3B69     		ldr	r3, [r7, #16]
 5572 0078 3A68     		ldr	r2, [r7]
 5573 007a 1344     		add	r3, r3, r2
 5574 007c 3B60     		str	r3, [r7]
1264:g:/iot/IoT_Device_Demo/iot_link/network/lwm2m/wakaama_lwm2m/wakaama-master/core/er-coap-13\er-coap-13.c ****         length += i;
 5575              		.loc 1 1264 16
ARM GAS  C:\Users\ADMINI~1\AppData\Local\Temp\cc8DJu9v.s 			page 120


 5576 007e 7A69     		ldr	r2, [r7, #20]
 5577 0080 3B69     		ldr	r3, [r7, #16]
 5578 0082 1344     		add	r3, r3, r2
 5579 0084 7B61     		str	r3, [r7, #20]
 5580              	.LBE14:
1265:g:/iot/IoT_Device_Demo/iot_link/network/lwm2m/wakaama_lwm2m/wakaama-master/core/er-coap-13\er-coap-13.c ****     }
1266:g:/iot/IoT_Device_Demo/iot_link/network/lwm2m/wakaama_lwm2m/wakaama-master/core/er-coap-13\er-coap-13.c ****     while (path[0] != 0);
 5581              		.loc 1 1266 16
 5582 0086 3B68     		ldr	r3, [r7]
 5583 0088 1B78     		ldrb	r3, [r3]	@ zero_extendqisi2
 5584              		.loc 1 1266 5
 5585 008a 002B     		cmp	r3, #0
 5586 008c D0D1     		bne	.L272
1267:g:/iot/IoT_Device_Demo/iot_link/network/lwm2m/wakaama_lwm2m/wakaama-master/core/er-coap-13\er-coap-13.c **** 
1268:g:/iot/IoT_Device_Demo/iot_link/network/lwm2m/wakaama_lwm2m/wakaama-master/core/er-coap-13\er-coap-13.c ****     SET_OPTION(coap_pkt, COAP_OPTION_LOCATION_PATH);
 5587              		.loc 1 1268 5 discriminator 1
 5588 008e FB68     		ldr	r3, [r7, #12]
 5589 0090 DB7A     		ldrb	r3, [r3, #11]	@ zero_extendqisi2
 5590 0092 43F00103 		orr	r3, r3, #1
 5591 0096 DAB2     		uxtb	r2, r3
 5592 0098 FB68     		ldr	r3, [r7, #12]
 5593 009a DA72     		strb	r2, [r3, #11]
1269:g:/iot/IoT_Device_Demo/iot_link/network/lwm2m/wakaama_lwm2m/wakaama-master/core/er-coap-13\er-coap-13.c ****     return length;
 5594              		.loc 1 1269 12 discriminator 1
 5595 009c 7B69     		ldr	r3, [r7, #20]
1270:g:/iot/IoT_Device_Demo/iot_link/network/lwm2m/wakaama_lwm2m/wakaama-master/core/er-coap-13\er-coap-13.c **** }
 5596              		.loc 1 1270 1 discriminator 1
 5597 009e 1846     		mov	r0, r3
 5598 00a0 1837     		adds	r7, r7, #24
 5599              	.LCFI249:
 5600              		.cfi_def_cfa_offset 8
 5601 00a2 BD46     		mov	sp, r7
 5602              	.LCFI250:
 5603              		.cfi_def_cfa_register 13
 5604              		@ sp needed
 5605 00a4 80BD     		pop	{r7, pc}
 5606              		.cfi_endproc
 5607              	.LFE49:
 5609              		.section	.text.coap_get_header_location_query,"ax",%progbits
 5610              		.align	1
 5611              		.global	coap_get_header_location_query
 5612              		.syntax unified
 5613              		.thumb
 5614              		.thumb_func
 5615              		.fpu fpv4-sp-d16
 5617              	coap_get_header_location_query:
 5618              	.LFB50:
1271:g:/iot/IoT_Device_Demo/iot_link/network/lwm2m/wakaama_lwm2m/wakaama-master/core/er-coap-13\er-coap-13.c **** /*-----------------------------------------------------------------------------------*/
1272:g:/iot/IoT_Device_Demo/iot_link/network/lwm2m/wakaama_lwm2m/wakaama-master/core/er-coap-13\er-coap-13.c **** int
1273:g:/iot/IoT_Device_Demo/iot_link/network/lwm2m/wakaama_lwm2m/wakaama-master/core/er-coap-13\er-coap-13.c **** coap_get_header_location_query(void *packet, const char **query)
1274:g:/iot/IoT_Device_Demo/iot_link/network/lwm2m/wakaama_lwm2m/wakaama-master/core/er-coap-13\er-coap-13.c **** {
 5619              		.loc 1 1274 1
 5620              		.cfi_startproc
 5621              		@ args = 0, pretend = 0, frame = 16
 5622              		@ frame_needed = 1, uses_anonymous_args = 0
 5623              		@ link register save eliminated.
 5624 0000 80B4     		push	{r7}
ARM GAS  C:\Users\ADMINI~1\AppData\Local\Temp\cc8DJu9v.s 			page 121


 5625              	.LCFI251:
 5626              		.cfi_def_cfa_offset 4
 5627              		.cfi_offset 7, -4
 5628 0002 85B0     		sub	sp, sp, #20
 5629              	.LCFI252:
 5630              		.cfi_def_cfa_offset 24
 5631 0004 00AF     		add	r7, sp, #0
 5632              	.LCFI253:
 5633              		.cfi_def_cfa_register 7
 5634 0006 7860     		str	r0, [r7, #4]
 5635 0008 3960     		str	r1, [r7]
1275:g:/iot/IoT_Device_Demo/iot_link/network/lwm2m/wakaama_lwm2m/wakaama-master/core/er-coap-13\er-coap-13.c ****     coap_packet_t *const coap_pkt = (coap_packet_t *) packet;
 5636              		.loc 1 1275 26
 5637 000a 7B68     		ldr	r3, [r7, #4]
 5638 000c FB60     		str	r3, [r7, #12]
1276:g:/iot/IoT_Device_Demo/iot_link/network/lwm2m/wakaama_lwm2m/wakaama-master/core/er-coap-13\er-coap-13.c **** 
1277:g:/iot/IoT_Device_Demo/iot_link/network/lwm2m/wakaama_lwm2m/wakaama-master/core/er-coap-13\er-coap-13.c ****     if (!IS_OPTION(coap_pkt, COAP_OPTION_LOCATION_QUERY)) return 0;
 5639              		.loc 1 1277 10
 5640 000e FB68     		ldr	r3, [r7, #12]
 5641 0010 1B7B     		ldrb	r3, [r3, #12]	@ zero_extendqisi2
 5642 0012 03F01003 		and	r3, r3, #16
 5643              		.loc 1 1277 8
 5644 0016 002B     		cmp	r3, #0
 5645 0018 01D1     		bne	.L275
 5646              		.loc 1 1277 66 discriminator 1
 5647 001a 0023     		movs	r3, #0
 5648 001c 05E0     		b	.L276
 5649              	.L275:
1278:g:/iot/IoT_Device_Demo/iot_link/network/lwm2m/wakaama_lwm2m/wakaama-master/core/er-coap-13\er-coap-13.c **** 
1279:g:/iot/IoT_Device_Demo/iot_link/network/lwm2m/wakaama_lwm2m/wakaama-master/core/er-coap-13\er-coap-13.c ****     *query = (const char *)coap_pkt->location_query;
 5650              		.loc 1 1279 36
 5651 001e FB68     		ldr	r3, [r7, #12]
 5652 0020 1A6C     		ldr	r2, [r3, #64]
 5653              		.loc 1 1279 12
 5654 0022 3B68     		ldr	r3, [r7]
 5655 0024 1A60     		str	r2, [r3]
1280:g:/iot/IoT_Device_Demo/iot_link/network/lwm2m/wakaama_lwm2m/wakaama-master/core/er-coap-13\er-coap-13.c ****     return coap_pkt->location_query_len;
 5656              		.loc 1 1280 20
 5657 0026 FB68     		ldr	r3, [r7, #12]
 5658 0028 DB6B     		ldr	r3, [r3, #60]
 5659              	.L276:
1281:g:/iot/IoT_Device_Demo/iot_link/network/lwm2m/wakaama_lwm2m/wakaama-master/core/er-coap-13\er-coap-13.c **** }
 5660              		.loc 1 1281 1
 5661 002a 1846     		mov	r0, r3
 5662 002c 1437     		adds	r7, r7, #20
 5663              	.LCFI254:
 5664              		.cfi_def_cfa_offset 4
 5665 002e BD46     		mov	sp, r7
 5666              	.LCFI255:
 5667              		.cfi_def_cfa_register 13
 5668              		@ sp needed
 5669 0030 5DF8047B 		ldr	r7, [sp], #4
 5670              	.LCFI256:
 5671              		.cfi_restore 7
 5672              		.cfi_def_cfa_offset 0
 5673 0034 7047     		bx	lr
 5674              		.cfi_endproc
ARM GAS  C:\Users\ADMINI~1\AppData\Local\Temp\cc8DJu9v.s 			page 122


 5675              	.LFE50:
 5677              		.section	.text.coap_set_header_location_query,"ax",%progbits
 5678              		.align	1
 5679              		.global	coap_set_header_location_query
 5680              		.syntax unified
 5681              		.thumb
 5682              		.thumb_func
 5683              		.fpu fpv4-sp-d16
 5685              	coap_set_header_location_query:
 5686              	.LFB51:
1282:g:/iot/IoT_Device_Demo/iot_link/network/lwm2m/wakaama_lwm2m/wakaama-master/core/er-coap-13\er-coap-13.c **** 
1283:g:/iot/IoT_Device_Demo/iot_link/network/lwm2m/wakaama_lwm2m/wakaama-master/core/er-coap-13\er-coap-13.c **** int
1284:g:/iot/IoT_Device_Demo/iot_link/network/lwm2m/wakaama_lwm2m/wakaama-master/core/er-coap-13\er-coap-13.c **** coap_set_header_location_query(void *packet, char *query)
1285:g:/iot/IoT_Device_Demo/iot_link/network/lwm2m/wakaama_lwm2m/wakaama-master/core/er-coap-13\er-coap-13.c **** {
 5687              		.loc 1 1285 1
 5688              		.cfi_startproc
 5689              		@ args = 0, pretend = 0, frame = 16
 5690              		@ frame_needed = 1, uses_anonymous_args = 0
 5691 0000 80B5     		push	{r7, lr}
 5692              	.LCFI257:
 5693              		.cfi_def_cfa_offset 8
 5694              		.cfi_offset 7, -8
 5695              		.cfi_offset 14, -4
 5696 0002 84B0     		sub	sp, sp, #16
 5697              	.LCFI258:
 5698              		.cfi_def_cfa_offset 24
 5699 0004 00AF     		add	r7, sp, #0
 5700              	.LCFI259:
 5701              		.cfi_def_cfa_register 7
 5702 0006 7860     		str	r0, [r7, #4]
 5703 0008 3960     		str	r1, [r7]
1286:g:/iot/IoT_Device_Demo/iot_link/network/lwm2m/wakaama_lwm2m/wakaama-master/core/er-coap-13\er-coap-13.c ****     coap_packet_t *const coap_pkt = (coap_packet_t *) packet;
 5704              		.loc 1 1286 26
 5705 000a 7B68     		ldr	r3, [r7, #4]
 5706 000c FB60     		str	r3, [r7, #12]
1287:g:/iot/IoT_Device_Demo/iot_link/network/lwm2m/wakaama_lwm2m/wakaama-master/core/er-coap-13\er-coap-13.c **** 
1288:g:/iot/IoT_Device_Demo/iot_link/network/lwm2m/wakaama_lwm2m/wakaama-master/core/er-coap-13\er-coap-13.c ****     while (query[0] == '?') ++query;
 5707              		.loc 1 1288 11
 5708 000e 02E0     		b	.L278
 5709              	.L279:
 5710              		.loc 1 1288 29 discriminator 2
 5711 0010 3B68     		ldr	r3, [r7]
 5712 0012 0133     		adds	r3, r3, #1
 5713 0014 3B60     		str	r3, [r7]
 5714              	.L278:
 5715              		.loc 1 1288 17 discriminator 1
 5716 0016 3B68     		ldr	r3, [r7]
 5717 0018 1B78     		ldrb	r3, [r3]	@ zero_extendqisi2
 5718              		.loc 1 1288 11 discriminator 1
 5719 001a 3F2B     		cmp	r3, #63
 5720 001c F8D0     		beq	.L279
1289:g:/iot/IoT_Device_Demo/iot_link/network/lwm2m/wakaama_lwm2m/wakaama-master/core/er-coap-13\er-coap-13.c **** 
1290:g:/iot/IoT_Device_Demo/iot_link/network/lwm2m/wakaama_lwm2m/wakaama-master/core/er-coap-13\er-coap-13.c ****     coap_pkt->location_query = (uint8_t *)query;
 5721              		.loc 1 1290 30
 5722 001e FB68     		ldr	r3, [r7, #12]
 5723 0020 3A68     		ldr	r2, [r7]
 5724 0022 1A64     		str	r2, [r3, #64]
ARM GAS  C:\Users\ADMINI~1\AppData\Local\Temp\cc8DJu9v.s 			page 123


1291:g:/iot/IoT_Device_Demo/iot_link/network/lwm2m/wakaama_lwm2m/wakaama-master/core/er-coap-13\er-coap-13.c ****     coap_pkt->location_query_len = strlen(query);
 5725              		.loc 1 1291 36
 5726 0024 3868     		ldr	r0, [r7]
 5727 0026 FFF7FEFF 		bl	strlen
 5728 002a 0246     		mov	r2, r0
 5729              		.loc 1 1291 34
 5730 002c FB68     		ldr	r3, [r7, #12]
 5731 002e DA63     		str	r2, [r3, #60]
1292:g:/iot/IoT_Device_Demo/iot_link/network/lwm2m/wakaama_lwm2m/wakaama-master/core/er-coap-13\er-coap-13.c **** 
1293:g:/iot/IoT_Device_Demo/iot_link/network/lwm2m/wakaama_lwm2m/wakaama-master/core/er-coap-13\er-coap-13.c ****     SET_OPTION(coap_pkt, COAP_OPTION_LOCATION_QUERY);
 5732              		.loc 1 1293 5
 5733 0030 FB68     		ldr	r3, [r7, #12]
 5734 0032 1B7B     		ldrb	r3, [r3, #12]	@ zero_extendqisi2
 5735 0034 43F01003 		orr	r3, r3, #16
 5736 0038 DAB2     		uxtb	r2, r3
 5737 003a FB68     		ldr	r3, [r7, #12]
 5738 003c 1A73     		strb	r2, [r3, #12]
1294:g:/iot/IoT_Device_Demo/iot_link/network/lwm2m/wakaama_lwm2m/wakaama-master/core/er-coap-13\er-coap-13.c ****     return coap_pkt->location_query_len;
 5739              		.loc 1 1294 20
 5740 003e FB68     		ldr	r3, [r7, #12]
 5741 0040 DB6B     		ldr	r3, [r3, #60]
1295:g:/iot/IoT_Device_Demo/iot_link/network/lwm2m/wakaama_lwm2m/wakaama-master/core/er-coap-13\er-coap-13.c **** }
 5742              		.loc 1 1295 1
 5743 0042 1846     		mov	r0, r3
 5744 0044 1037     		adds	r7, r7, #16
 5745              	.LCFI260:
 5746              		.cfi_def_cfa_offset 8
 5747 0046 BD46     		mov	sp, r7
 5748              	.LCFI261:
 5749              		.cfi_def_cfa_register 13
 5750              		@ sp needed
 5751 0048 80BD     		pop	{r7, pc}
 5752              		.cfi_endproc
 5753              	.LFE51:
 5755              		.section	.text.coap_get_header_observe,"ax",%progbits
 5756              		.align	1
 5757              		.global	coap_get_header_observe
 5758              		.syntax unified
 5759              		.thumb
 5760              		.thumb_func
 5761              		.fpu fpv4-sp-d16
 5763              	coap_get_header_observe:
 5764              	.LFB52:
1296:g:/iot/IoT_Device_Demo/iot_link/network/lwm2m/wakaama_lwm2m/wakaama-master/core/er-coap-13\er-coap-13.c **** /*-----------------------------------------------------------------------------------*/
1297:g:/iot/IoT_Device_Demo/iot_link/network/lwm2m/wakaama_lwm2m/wakaama-master/core/er-coap-13\er-coap-13.c **** int
1298:g:/iot/IoT_Device_Demo/iot_link/network/lwm2m/wakaama_lwm2m/wakaama-master/core/er-coap-13\er-coap-13.c **** coap_get_header_observe(void *packet, uint32_t *observe)
1299:g:/iot/IoT_Device_Demo/iot_link/network/lwm2m/wakaama_lwm2m/wakaama-master/core/er-coap-13\er-coap-13.c **** {
 5765              		.loc 1 1299 1
 5766              		.cfi_startproc
 5767              		@ args = 0, pretend = 0, frame = 16
 5768              		@ frame_needed = 1, uses_anonymous_args = 0
 5769              		@ link register save eliminated.
 5770 0000 80B4     		push	{r7}
 5771              	.LCFI262:
 5772              		.cfi_def_cfa_offset 4
 5773              		.cfi_offset 7, -4
 5774 0002 85B0     		sub	sp, sp, #20
ARM GAS  C:\Users\ADMINI~1\AppData\Local\Temp\cc8DJu9v.s 			page 124


 5775              	.LCFI263:
 5776              		.cfi_def_cfa_offset 24
 5777 0004 00AF     		add	r7, sp, #0
 5778              	.LCFI264:
 5779              		.cfi_def_cfa_register 7
 5780 0006 7860     		str	r0, [r7, #4]
 5781 0008 3960     		str	r1, [r7]
1300:g:/iot/IoT_Device_Demo/iot_link/network/lwm2m/wakaama_lwm2m/wakaama-master/core/er-coap-13\er-coap-13.c ****     coap_packet_t *const coap_pkt = (coap_packet_t *) packet;
 5782              		.loc 1 1300 26
 5783 000a 7B68     		ldr	r3, [r7, #4]
 5784 000c FB60     		str	r3, [r7, #12]
1301:g:/iot/IoT_Device_Demo/iot_link/network/lwm2m/wakaama_lwm2m/wakaama-master/core/er-coap-13\er-coap-13.c **** 
1302:g:/iot/IoT_Device_Demo/iot_link/network/lwm2m/wakaama_lwm2m/wakaama-master/core/er-coap-13\er-coap-13.c ****     if (!IS_OPTION(coap_pkt, COAP_OPTION_OBSERVE)) return 0;
 5785              		.loc 1 1302 10
 5786 000e FB68     		ldr	r3, [r7, #12]
 5787 0010 9B7A     		ldrb	r3, [r3, #10]	@ zero_extendqisi2
 5788 0012 03F04003 		and	r3, r3, #64
 5789              		.loc 1 1302 8
 5790 0016 002B     		cmp	r3, #0
 5791 0018 01D1     		bne	.L282
 5792              		.loc 1 1302 59 discriminator 1
 5793 001a 0023     		movs	r3, #0
 5794 001c 04E0     		b	.L283
 5795              	.L282:
1303:g:/iot/IoT_Device_Demo/iot_link/network/lwm2m/wakaama_lwm2m/wakaama-master/core/er-coap-13\er-coap-13.c **** 
1304:g:/iot/IoT_Device_Demo/iot_link/network/lwm2m/wakaama_lwm2m/wakaama-master/core/er-coap-13\er-coap-13.c ****     *observe = coap_pkt->observe;
 5796              		.loc 1 1304 24
 5797 001e FB68     		ldr	r3, [r7, #12]
 5798 0020 9A6C     		ldr	r2, [r3, #72]
 5799              		.loc 1 1304 14
 5800 0022 3B68     		ldr	r3, [r7]
 5801 0024 1A60     		str	r2, [r3]
1305:g:/iot/IoT_Device_Demo/iot_link/network/lwm2m/wakaama_lwm2m/wakaama-master/core/er-coap-13\er-coap-13.c ****     return 1;
 5802              		.loc 1 1305 12
 5803 0026 0123     		movs	r3, #1
 5804              	.L283:
1306:g:/iot/IoT_Device_Demo/iot_link/network/lwm2m/wakaama_lwm2m/wakaama-master/core/er-coap-13\er-coap-13.c **** }
 5805              		.loc 1 1306 1
 5806 0028 1846     		mov	r0, r3
 5807 002a 1437     		adds	r7, r7, #20
 5808              	.LCFI265:
 5809              		.cfi_def_cfa_offset 4
 5810 002c BD46     		mov	sp, r7
 5811              	.LCFI266:
 5812              		.cfi_def_cfa_register 13
 5813              		@ sp needed
 5814 002e 5DF8047B 		ldr	r7, [sp], #4
 5815              	.LCFI267:
 5816              		.cfi_restore 7
 5817              		.cfi_def_cfa_offset 0
 5818 0032 7047     		bx	lr
 5819              		.cfi_endproc
 5820              	.LFE52:
 5822              		.section	.text.coap_set_header_observe,"ax",%progbits
 5823              		.align	1
 5824              		.global	coap_set_header_observe
 5825              		.syntax unified
ARM GAS  C:\Users\ADMINI~1\AppData\Local\Temp\cc8DJu9v.s 			page 125


 5826              		.thumb
 5827              		.thumb_func
 5828              		.fpu fpv4-sp-d16
 5830              	coap_set_header_observe:
 5831              	.LFB53:
1307:g:/iot/IoT_Device_Demo/iot_link/network/lwm2m/wakaama_lwm2m/wakaama-master/core/er-coap-13\er-coap-13.c **** 
1308:g:/iot/IoT_Device_Demo/iot_link/network/lwm2m/wakaama_lwm2m/wakaama-master/core/er-coap-13\er-coap-13.c **** int
1309:g:/iot/IoT_Device_Demo/iot_link/network/lwm2m/wakaama_lwm2m/wakaama-master/core/er-coap-13\er-coap-13.c **** coap_set_header_observe(void *packet, uint32_t observe)
1310:g:/iot/IoT_Device_Demo/iot_link/network/lwm2m/wakaama_lwm2m/wakaama-master/core/er-coap-13\er-coap-13.c **** {
 5832              		.loc 1 1310 1
 5833              		.cfi_startproc
 5834              		@ args = 0, pretend = 0, frame = 16
 5835              		@ frame_needed = 1, uses_anonymous_args = 0
 5836              		@ link register save eliminated.
 5837 0000 80B4     		push	{r7}
 5838              	.LCFI268:
 5839              		.cfi_def_cfa_offset 4
 5840              		.cfi_offset 7, -4
 5841 0002 85B0     		sub	sp, sp, #20
 5842              	.LCFI269:
 5843              		.cfi_def_cfa_offset 24
 5844 0004 00AF     		add	r7, sp, #0
 5845              	.LCFI270:
 5846              		.cfi_def_cfa_register 7
 5847 0006 7860     		str	r0, [r7, #4]
 5848 0008 3960     		str	r1, [r7]
1311:g:/iot/IoT_Device_Demo/iot_link/network/lwm2m/wakaama_lwm2m/wakaama-master/core/er-coap-13\er-coap-13.c ****     coap_packet_t *const coap_pkt = (coap_packet_t *) packet;
 5849              		.loc 1 1311 26
 5850 000a 7B68     		ldr	r3, [r7, #4]
 5851 000c FB60     		str	r3, [r7, #12]
1312:g:/iot/IoT_Device_Demo/iot_link/network/lwm2m/wakaama_lwm2m/wakaama-master/core/er-coap-13\er-coap-13.c **** 
1313:g:/iot/IoT_Device_Demo/iot_link/network/lwm2m/wakaama_lwm2m/wakaama-master/core/er-coap-13\er-coap-13.c ****     coap_pkt->observe = 0x00FFFFFF & observe;
 5852              		.loc 1 1313 36
 5853 000e 3B68     		ldr	r3, [r7]
 5854 0010 23F07F42 		bic	r2, r3, #-16777216
 5855              		.loc 1 1313 23
 5856 0014 FB68     		ldr	r3, [r7, #12]
 5857 0016 9A64     		str	r2, [r3, #72]
1314:g:/iot/IoT_Device_Demo/iot_link/network/lwm2m/wakaama_lwm2m/wakaama-master/core/er-coap-13\er-coap-13.c ****     SET_OPTION(coap_pkt, COAP_OPTION_OBSERVE);
 5858              		.loc 1 1314 5
 5859 0018 FB68     		ldr	r3, [r7, #12]
 5860 001a 9B7A     		ldrb	r3, [r3, #10]	@ zero_extendqisi2
 5861 001c 43F04003 		orr	r3, r3, #64
 5862 0020 DAB2     		uxtb	r2, r3
 5863 0022 FB68     		ldr	r3, [r7, #12]
 5864 0024 9A72     		strb	r2, [r3, #10]
1315:g:/iot/IoT_Device_Demo/iot_link/network/lwm2m/wakaama_lwm2m/wakaama-master/core/er-coap-13\er-coap-13.c ****     return 1;
 5865              		.loc 1 1315 12
 5866 0026 0123     		movs	r3, #1
1316:g:/iot/IoT_Device_Demo/iot_link/network/lwm2m/wakaama_lwm2m/wakaama-master/core/er-coap-13\er-coap-13.c **** }
 5867              		.loc 1 1316 1
 5868 0028 1846     		mov	r0, r3
 5869 002a 1437     		adds	r7, r7, #20
 5870              	.LCFI271:
 5871              		.cfi_def_cfa_offset 4
 5872 002c BD46     		mov	sp, r7
 5873              	.LCFI272:
ARM GAS  C:\Users\ADMINI~1\AppData\Local\Temp\cc8DJu9v.s 			page 126


 5874              		.cfi_def_cfa_register 13
 5875              		@ sp needed
 5876 002e 5DF8047B 		ldr	r7, [sp], #4
 5877              	.LCFI273:
 5878              		.cfi_restore 7
 5879              		.cfi_def_cfa_offset 0
 5880 0032 7047     		bx	lr
 5881              		.cfi_endproc
 5882              	.LFE53:
 5884              		.section	.text.coap_get_header_block2,"ax",%progbits
 5885              		.align	1
 5886              		.global	coap_get_header_block2
 5887              		.syntax unified
 5888              		.thumb
 5889              		.thumb_func
 5890              		.fpu fpv4-sp-d16
 5892              	coap_get_header_block2:
 5893              	.LFB54:
1317:g:/iot/IoT_Device_Demo/iot_link/network/lwm2m/wakaama_lwm2m/wakaama-master/core/er-coap-13\er-coap-13.c **** /*-----------------------------------------------------------------------------------*/
1318:g:/iot/IoT_Device_Demo/iot_link/network/lwm2m/wakaama_lwm2m/wakaama-master/core/er-coap-13\er-coap-13.c **** int
1319:g:/iot/IoT_Device_Demo/iot_link/network/lwm2m/wakaama_lwm2m/wakaama-master/core/er-coap-13\er-coap-13.c **** coap_get_header_block2(void *packet, uint32_t *num, uint8_t *more, uint16_t *size, uint32_t *offset
1320:g:/iot/IoT_Device_Demo/iot_link/network/lwm2m/wakaama_lwm2m/wakaama-master/core/er-coap-13\er-coap-13.c **** {
 5894              		.loc 1 1320 1
 5895              		.cfi_startproc
 5896              		@ args = 4, pretend = 0, frame = 24
 5897              		@ frame_needed = 1, uses_anonymous_args = 0
 5898              		@ link register save eliminated.
 5899 0000 80B4     		push	{r7}
 5900              	.LCFI274:
 5901              		.cfi_def_cfa_offset 4
 5902              		.cfi_offset 7, -4
 5903 0002 87B0     		sub	sp, sp, #28
 5904              	.LCFI275:
 5905              		.cfi_def_cfa_offset 32
 5906 0004 00AF     		add	r7, sp, #0
 5907              	.LCFI276:
 5908              		.cfi_def_cfa_register 7
 5909 0006 F860     		str	r0, [r7, #12]
 5910 0008 B960     		str	r1, [r7, #8]
 5911 000a 7A60     		str	r2, [r7, #4]
 5912 000c 3B60     		str	r3, [r7]
1321:g:/iot/IoT_Device_Demo/iot_link/network/lwm2m/wakaama_lwm2m/wakaama-master/core/er-coap-13\er-coap-13.c ****     coap_packet_t *const coap_pkt = (coap_packet_t *) packet;
 5913              		.loc 1 1321 26
 5914 000e FB68     		ldr	r3, [r7, #12]
 5915 0010 7B61     		str	r3, [r7, #20]
1322:g:/iot/IoT_Device_Demo/iot_link/network/lwm2m/wakaama_lwm2m/wakaama-master/core/er-coap-13\er-coap-13.c **** 
1323:g:/iot/IoT_Device_Demo/iot_link/network/lwm2m/wakaama_lwm2m/wakaama-master/core/er-coap-13\er-coap-13.c ****     if (!IS_OPTION(coap_pkt, COAP_OPTION_BLOCK2)) return 0;
 5916              		.loc 1 1323 10
 5917 0012 7B69     		ldr	r3, [r7, #20]
 5918 0014 1B7B     		ldrb	r3, [r3, #12]	@ zero_extendqisi2
 5919              		.loc 1 1323 9
 5920 0016 5BB2     		sxtb	r3, r3
 5921              		.loc 1 1323 8
 5922 0018 002B     		cmp	r3, #0
 5923 001a 01DB     		blt	.L287
 5924              		.loc 1 1323 58 discriminator 1
 5925 001c 0023     		movs	r3, #0
ARM GAS  C:\Users\ADMINI~1\AppData\Local\Temp\cc8DJu9v.s 			page 127


 5926 001e 1EE0     		b	.L288
 5927              	.L287:
1324:g:/iot/IoT_Device_Demo/iot_link/network/lwm2m/wakaama_lwm2m/wakaama-master/core/er-coap-13\er-coap-13.c **** 
1325:g:/iot/IoT_Device_Demo/iot_link/network/lwm2m/wakaama_lwm2m/wakaama-master/core/er-coap-13\er-coap-13.c ****     /* pointers may be NULL to get only specific block parameters */
1326:g:/iot/IoT_Device_Demo/iot_link/network/lwm2m/wakaama_lwm2m/wakaama-master/core/er-coap-13\er-coap-13.c ****     if (num != NULL) *num = coap_pkt->block2_num;
 5928              		.loc 1 1326 8
 5929 0020 BB68     		ldr	r3, [r7, #8]
 5930 0022 002B     		cmp	r3, #0
 5931 0024 03D0     		beq	.L289
 5932              		.loc 1 1326 37 discriminator 1
 5933 0026 7B69     		ldr	r3, [r7, #20]
 5934 0028 5A6E     		ldr	r2, [r3, #100]
 5935              		.loc 1 1326 27 discriminator 1
 5936 002a BB68     		ldr	r3, [r7, #8]
 5937 002c 1A60     		str	r2, [r3]
 5938              	.L289:
1327:g:/iot/IoT_Device_Demo/iot_link/network/lwm2m/wakaama_lwm2m/wakaama-master/core/er-coap-13\er-coap-13.c ****     if (more != NULL) *more = coap_pkt->block2_more;
 5939              		.loc 1 1327 8
 5940 002e 7B68     		ldr	r3, [r7, #4]
 5941 0030 002B     		cmp	r3, #0
 5942 0032 04D0     		beq	.L290
 5943              		.loc 1 1327 39 discriminator 1
 5944 0034 7B69     		ldr	r3, [r7, #20]
 5945 0036 93F86820 		ldrb	r2, [r3, #104]	@ zero_extendqisi2
 5946              		.loc 1 1327 29 discriminator 1
 5947 003a 7B68     		ldr	r3, [r7, #4]
 5948 003c 1A70     		strb	r2, [r3]
 5949              	.L290:
1328:g:/iot/IoT_Device_Demo/iot_link/network/lwm2m/wakaama_lwm2m/wakaama-master/core/er-coap-13\er-coap-13.c ****     if (size != NULL) *size = coap_pkt->block2_size;
 5950              		.loc 1 1328 8
 5951 003e 3B68     		ldr	r3, [r7]
 5952 0040 002B     		cmp	r3, #0
 5953 0042 04D0     		beq	.L291
 5954              		.loc 1 1328 39 discriminator 1
 5955 0044 7B69     		ldr	r3, [r7, #20]
 5956 0046 B3F86A20 		ldrh	r2, [r3, #106]
 5957              		.loc 1 1328 29 discriminator 1
 5958 004a 3B68     		ldr	r3, [r7]
 5959 004c 1A80     		strh	r2, [r3]	@ movhi
 5960              	.L291:
1329:g:/iot/IoT_Device_Demo/iot_link/network/lwm2m/wakaama_lwm2m/wakaama-master/core/er-coap-13\er-coap-13.c ****     if (offset != NULL) *offset = coap_pkt->block2_offset;
 5961              		.loc 1 1329 8
 5962 004e 3B6A     		ldr	r3, [r7, #32]
 5963 0050 002B     		cmp	r3, #0
 5964 0052 03D0     		beq	.L292
 5965              		.loc 1 1329 43 discriminator 1
 5966 0054 7B69     		ldr	r3, [r7, #20]
 5967 0056 DA6E     		ldr	r2, [r3, #108]
 5968              		.loc 1 1329 33 discriminator 1
 5969 0058 3B6A     		ldr	r3, [r7, #32]
 5970 005a 1A60     		str	r2, [r3]
 5971              	.L292:
1330:g:/iot/IoT_Device_Demo/iot_link/network/lwm2m/wakaama_lwm2m/wakaama-master/core/er-coap-13\er-coap-13.c **** 
1331:g:/iot/IoT_Device_Demo/iot_link/network/lwm2m/wakaama_lwm2m/wakaama-master/core/er-coap-13\er-coap-13.c ****     return 1;
 5972              		.loc 1 1331 12
 5973 005c 0123     		movs	r3, #1
 5974              	.L288:
ARM GAS  C:\Users\ADMINI~1\AppData\Local\Temp\cc8DJu9v.s 			page 128


1332:g:/iot/IoT_Device_Demo/iot_link/network/lwm2m/wakaama_lwm2m/wakaama-master/core/er-coap-13\er-coap-13.c **** }
 5975              		.loc 1 1332 1
 5976 005e 1846     		mov	r0, r3
 5977 0060 1C37     		adds	r7, r7, #28
 5978              	.LCFI277:
 5979              		.cfi_def_cfa_offset 4
 5980 0062 BD46     		mov	sp, r7
 5981              	.LCFI278:
 5982              		.cfi_def_cfa_register 13
 5983              		@ sp needed
 5984 0064 5DF8047B 		ldr	r7, [sp], #4
 5985              	.LCFI279:
 5986              		.cfi_restore 7
 5987              		.cfi_def_cfa_offset 0
 5988 0068 7047     		bx	lr
 5989              		.cfi_endproc
 5990              	.LFE54:
 5992              		.section	.text.coap_set_header_block2,"ax",%progbits
 5993              		.align	1
 5994              		.global	coap_set_header_block2
 5995              		.syntax unified
 5996              		.thumb
 5997              		.thumb_func
 5998              		.fpu fpv4-sp-d16
 6000              	coap_set_header_block2:
 6001              	.LFB55:
1333:g:/iot/IoT_Device_Demo/iot_link/network/lwm2m/wakaama_lwm2m/wakaama-master/core/er-coap-13\er-coap-13.c **** 
1334:g:/iot/IoT_Device_Demo/iot_link/network/lwm2m/wakaama_lwm2m/wakaama-master/core/er-coap-13\er-coap-13.c **** int
1335:g:/iot/IoT_Device_Demo/iot_link/network/lwm2m/wakaama_lwm2m/wakaama-master/core/er-coap-13\er-coap-13.c **** coap_set_header_block2(void *packet, uint32_t num, uint8_t more, uint16_t size)
1336:g:/iot/IoT_Device_Demo/iot_link/network/lwm2m/wakaama_lwm2m/wakaama-master/core/er-coap-13\er-coap-13.c **** {
 6002              		.loc 1 1336 1
 6003              		.cfi_startproc
 6004              		@ args = 0, pretend = 0, frame = 24
 6005              		@ frame_needed = 1, uses_anonymous_args = 0
 6006              		@ link register save eliminated.
 6007 0000 80B4     		push	{r7}
 6008              	.LCFI280:
 6009              		.cfi_def_cfa_offset 4
 6010              		.cfi_offset 7, -4
 6011 0002 87B0     		sub	sp, sp, #28
 6012              	.LCFI281:
 6013              		.cfi_def_cfa_offset 32
 6014 0004 00AF     		add	r7, sp, #0
 6015              	.LCFI282:
 6016              		.cfi_def_cfa_register 7
 6017 0006 F860     		str	r0, [r7, #12]
 6018 0008 B960     		str	r1, [r7, #8]
 6019 000a 1146     		mov	r1, r2
 6020 000c 1A46     		mov	r2, r3
 6021 000e 0B46     		mov	r3, r1
 6022 0010 FB71     		strb	r3, [r7, #7]
 6023 0012 1346     		mov	r3, r2	@ movhi
 6024 0014 BB80     		strh	r3, [r7, #4]	@ movhi
1337:g:/iot/IoT_Device_Demo/iot_link/network/lwm2m/wakaama_lwm2m/wakaama-master/core/er-coap-13\er-coap-13.c ****     coap_packet_t *const coap_pkt = (coap_packet_t *) packet;
 6025              		.loc 1 1337 26
 6026 0016 FB68     		ldr	r3, [r7, #12]
 6027 0018 7B61     		str	r3, [r7, #20]
ARM GAS  C:\Users\ADMINI~1\AppData\Local\Temp\cc8DJu9v.s 			page 129


1338:g:/iot/IoT_Device_Demo/iot_link/network/lwm2m/wakaama_lwm2m/wakaama-master/core/er-coap-13\er-coap-13.c **** 
1339:g:/iot/IoT_Device_Demo/iot_link/network/lwm2m/wakaama_lwm2m/wakaama-master/core/er-coap-13\er-coap-13.c ****     if (size < 16) return 0;
 6028              		.loc 1 1339 8
 6029 001a BB88     		ldrh	r3, [r7, #4]
 6030 001c 0F2B     		cmp	r3, #15
 6031 001e 01D8     		bhi	.L294
 6032              		.loc 1 1339 27 discriminator 1
 6033 0020 0023     		movs	r3, #0
 6034 0022 24E0     		b	.L295
 6035              	.L294:
1340:g:/iot/IoT_Device_Demo/iot_link/network/lwm2m/wakaama_lwm2m/wakaama-master/core/er-coap-13\er-coap-13.c ****     if (size > 2048) return 0;
 6036              		.loc 1 1340 8
 6037 0024 BB88     		ldrh	r3, [r7, #4]
 6038 0026 B3F5006F 		cmp	r3, #2048
 6039 002a 01D9     		bls	.L296
 6040              		.loc 1 1340 29 discriminator 1
 6041 002c 0023     		movs	r3, #0
 6042 002e 1EE0     		b	.L295
 6043              	.L296:
1341:g:/iot/IoT_Device_Demo/iot_link/network/lwm2m/wakaama_lwm2m/wakaama-master/core/er-coap-13\er-coap-13.c ****     if (num > 0x0FFFFF) return 0;
 6044              		.loc 1 1341 8
 6045 0030 BB68     		ldr	r3, [r7, #8]
 6046 0032 B3F5801F 		cmp	r3, #1048576
 6047 0036 01D3     		bcc	.L297
 6048              		.loc 1 1341 32 discriminator 1
 6049 0038 0023     		movs	r3, #0
 6050 003a 18E0     		b	.L295
 6051              	.L297:
1342:g:/iot/IoT_Device_Demo/iot_link/network/lwm2m/wakaama_lwm2m/wakaama-master/core/er-coap-13\er-coap-13.c **** 
1343:g:/iot/IoT_Device_Demo/iot_link/network/lwm2m/wakaama_lwm2m/wakaama-master/core/er-coap-13\er-coap-13.c ****     coap_pkt->block2_num = num;
 6052              		.loc 1 1343 26
 6053 003c 7B69     		ldr	r3, [r7, #20]
 6054 003e BA68     		ldr	r2, [r7, #8]
 6055 0040 5A66     		str	r2, [r3, #100]
1344:g:/iot/IoT_Device_Demo/iot_link/network/lwm2m/wakaama_lwm2m/wakaama-master/core/er-coap-13\er-coap-13.c ****     coap_pkt->block2_more = more ? 1 : 0;
 6056              		.loc 1 1344 38
 6057 0042 FB79     		ldrb	r3, [r7, #7]	@ zero_extendqisi2
 6058 0044 002B     		cmp	r3, #0
 6059 0046 14BF     		ite	ne
 6060 0048 0123     		movne	r3, #1
 6061 004a 0023     		moveq	r3, #0
 6062 004c DBB2     		uxtb	r3, r3
 6063 004e 1A46     		mov	r2, r3
 6064              		.loc 1 1344 27
 6065 0050 7B69     		ldr	r3, [r7, #20]
 6066 0052 83F86820 		strb	r2, [r3, #104]
1345:g:/iot/IoT_Device_Demo/iot_link/network/lwm2m/wakaama_lwm2m/wakaama-master/core/er-coap-13\er-coap-13.c ****     coap_pkt->block2_size = size;
 6067              		.loc 1 1345 27
 6068 0056 7B69     		ldr	r3, [r7, #20]
 6069 0058 BA88     		ldrh	r2, [r7, #4]	@ movhi
 6070 005a A3F86A20 		strh	r2, [r3, #106]	@ movhi
1346:g:/iot/IoT_Device_Demo/iot_link/network/lwm2m/wakaama_lwm2m/wakaama-master/core/er-coap-13\er-coap-13.c **** 
1347:g:/iot/IoT_Device_Demo/iot_link/network/lwm2m/wakaama_lwm2m/wakaama-master/core/er-coap-13\er-coap-13.c ****     SET_OPTION(coap_pkt, COAP_OPTION_BLOCK2);
 6071              		.loc 1 1347 5
 6072 005e 7B69     		ldr	r3, [r7, #20]
 6073 0060 1B7B     		ldrb	r3, [r3, #12]	@ zero_extendqisi2
 6074 0062 63F07F03 		orn	r3, r3, #127
ARM GAS  C:\Users\ADMINI~1\AppData\Local\Temp\cc8DJu9v.s 			page 130


 6075 0066 DAB2     		uxtb	r2, r3
 6076 0068 7B69     		ldr	r3, [r7, #20]
 6077 006a 1A73     		strb	r2, [r3, #12]
1348:g:/iot/IoT_Device_Demo/iot_link/network/lwm2m/wakaama_lwm2m/wakaama-master/core/er-coap-13\er-coap-13.c ****     return 1;
 6078              		.loc 1 1348 12
 6079 006c 0123     		movs	r3, #1
 6080              	.L295:
1349:g:/iot/IoT_Device_Demo/iot_link/network/lwm2m/wakaama_lwm2m/wakaama-master/core/er-coap-13\er-coap-13.c **** }
 6081              		.loc 1 1349 1
 6082 006e 1846     		mov	r0, r3
 6083 0070 1C37     		adds	r7, r7, #28
 6084              	.LCFI283:
 6085              		.cfi_def_cfa_offset 4
 6086 0072 BD46     		mov	sp, r7
 6087              	.LCFI284:
 6088              		.cfi_def_cfa_register 13
 6089              		@ sp needed
 6090 0074 5DF8047B 		ldr	r7, [sp], #4
 6091              	.LCFI285:
 6092              		.cfi_restore 7
 6093              		.cfi_def_cfa_offset 0
 6094 0078 7047     		bx	lr
 6095              		.cfi_endproc
 6096              	.LFE55:
 6098              		.section	.text.coap_get_header_block1,"ax",%progbits
 6099              		.align	1
 6100              		.global	coap_get_header_block1
 6101              		.syntax unified
 6102              		.thumb
 6103              		.thumb_func
 6104              		.fpu fpv4-sp-d16
 6106              	coap_get_header_block1:
 6107              	.LFB56:
1350:g:/iot/IoT_Device_Demo/iot_link/network/lwm2m/wakaama_lwm2m/wakaama-master/core/er-coap-13\er-coap-13.c **** /*-----------------------------------------------------------------------------------*/
1351:g:/iot/IoT_Device_Demo/iot_link/network/lwm2m/wakaama_lwm2m/wakaama-master/core/er-coap-13\er-coap-13.c **** int
1352:g:/iot/IoT_Device_Demo/iot_link/network/lwm2m/wakaama_lwm2m/wakaama-master/core/er-coap-13\er-coap-13.c **** coap_get_header_block1(void *packet, uint32_t *num, uint8_t *more, uint16_t *size, uint32_t *offset
1353:g:/iot/IoT_Device_Demo/iot_link/network/lwm2m/wakaama_lwm2m/wakaama-master/core/er-coap-13\er-coap-13.c **** {
 6108              		.loc 1 1353 1
 6109              		.cfi_startproc
 6110              		@ args = 4, pretend = 0, frame = 24
 6111              		@ frame_needed = 1, uses_anonymous_args = 0
 6112              		@ link register save eliminated.
 6113 0000 80B4     		push	{r7}
 6114              	.LCFI286:
 6115              		.cfi_def_cfa_offset 4
 6116              		.cfi_offset 7, -4
 6117 0002 87B0     		sub	sp, sp, #28
 6118              	.LCFI287:
 6119              		.cfi_def_cfa_offset 32
 6120 0004 00AF     		add	r7, sp, #0
 6121              	.LCFI288:
 6122              		.cfi_def_cfa_register 7
 6123 0006 F860     		str	r0, [r7, #12]
 6124 0008 B960     		str	r1, [r7, #8]
 6125 000a 7A60     		str	r2, [r7, #4]
 6126 000c 3B60     		str	r3, [r7]
1354:g:/iot/IoT_Device_Demo/iot_link/network/lwm2m/wakaama_lwm2m/wakaama-master/core/er-coap-13\er-coap-13.c ****     coap_packet_t *const coap_pkt = (coap_packet_t *) packet;
ARM GAS  C:\Users\ADMINI~1\AppData\Local\Temp\cc8DJu9v.s 			page 131


 6127              		.loc 1 1354 26
 6128 000e FB68     		ldr	r3, [r7, #12]
 6129 0010 7B61     		str	r3, [r7, #20]
1355:g:/iot/IoT_Device_Demo/iot_link/network/lwm2m/wakaama_lwm2m/wakaama-master/core/er-coap-13\er-coap-13.c **** 
1356:g:/iot/IoT_Device_Demo/iot_link/network/lwm2m/wakaama_lwm2m/wakaama-master/core/er-coap-13\er-coap-13.c ****     if (!IS_OPTION(coap_pkt, COAP_OPTION_BLOCK1)) return 0;
 6130              		.loc 1 1356 10
 6131 0012 7B69     		ldr	r3, [r7, #20]
 6132 0014 5B7B     		ldrb	r3, [r3, #13]	@ zero_extendqisi2
 6133 0016 03F00803 		and	r3, r3, #8
 6134              		.loc 1 1356 8
 6135 001a 002B     		cmp	r3, #0
 6136 001c 01D1     		bne	.L299
 6137              		.loc 1 1356 58 discriminator 1
 6138 001e 0023     		movs	r3, #0
 6139 0020 1EE0     		b	.L300
 6140              	.L299:
1357:g:/iot/IoT_Device_Demo/iot_link/network/lwm2m/wakaama_lwm2m/wakaama-master/core/er-coap-13\er-coap-13.c **** 
1358:g:/iot/IoT_Device_Demo/iot_link/network/lwm2m/wakaama_lwm2m/wakaama-master/core/er-coap-13\er-coap-13.c ****     /* pointers may be NULL to get only specific block parameters */
1359:g:/iot/IoT_Device_Demo/iot_link/network/lwm2m/wakaama_lwm2m/wakaama-master/core/er-coap-13\er-coap-13.c ****     if (num != NULL) *num = coap_pkt->block1_num;
 6141              		.loc 1 1359 8
 6142 0022 BB68     		ldr	r3, [r7, #8]
 6143 0024 002B     		cmp	r3, #0
 6144 0026 03D0     		beq	.L301
 6145              		.loc 1 1359 37 discriminator 1
 6146 0028 7B69     		ldr	r3, [r7, #20]
 6147 002a 1A6F     		ldr	r2, [r3, #112]
 6148              		.loc 1 1359 27 discriminator 1
 6149 002c BB68     		ldr	r3, [r7, #8]
 6150 002e 1A60     		str	r2, [r3]
 6151              	.L301:
1360:g:/iot/IoT_Device_Demo/iot_link/network/lwm2m/wakaama_lwm2m/wakaama-master/core/er-coap-13\er-coap-13.c ****     if (more != NULL) *more = coap_pkt->block1_more;
 6152              		.loc 1 1360 8
 6153 0030 7B68     		ldr	r3, [r7, #4]
 6154 0032 002B     		cmp	r3, #0
 6155 0034 04D0     		beq	.L302
 6156              		.loc 1 1360 39 discriminator 1
 6157 0036 7B69     		ldr	r3, [r7, #20]
 6158 0038 93F87420 		ldrb	r2, [r3, #116]	@ zero_extendqisi2
 6159              		.loc 1 1360 29 discriminator 1
 6160 003c 7B68     		ldr	r3, [r7, #4]
 6161 003e 1A70     		strb	r2, [r3]
 6162              	.L302:
1361:g:/iot/IoT_Device_Demo/iot_link/network/lwm2m/wakaama_lwm2m/wakaama-master/core/er-coap-13\er-coap-13.c ****     if (size != NULL) *size = coap_pkt->block1_size;
 6163              		.loc 1 1361 8
 6164 0040 3B68     		ldr	r3, [r7]
 6165 0042 002B     		cmp	r3, #0
 6166 0044 04D0     		beq	.L303
 6167              		.loc 1 1361 39 discriminator 1
 6168 0046 7B69     		ldr	r3, [r7, #20]
 6169 0048 B3F87620 		ldrh	r2, [r3, #118]
 6170              		.loc 1 1361 29 discriminator 1
 6171 004c 3B68     		ldr	r3, [r7]
 6172 004e 1A80     		strh	r2, [r3]	@ movhi
 6173              	.L303:
1362:g:/iot/IoT_Device_Demo/iot_link/network/lwm2m/wakaama_lwm2m/wakaama-master/core/er-coap-13\er-coap-13.c ****     if (offset != NULL) *offset = coap_pkt->block1_offset;
 6174              		.loc 1 1362 8
 6175 0050 3B6A     		ldr	r3, [r7, #32]
ARM GAS  C:\Users\ADMINI~1\AppData\Local\Temp\cc8DJu9v.s 			page 132


 6176 0052 002B     		cmp	r3, #0
 6177 0054 03D0     		beq	.L304
 6178              		.loc 1 1362 43 discriminator 1
 6179 0056 7B69     		ldr	r3, [r7, #20]
 6180 0058 9A6F     		ldr	r2, [r3, #120]
 6181              		.loc 1 1362 33 discriminator 1
 6182 005a 3B6A     		ldr	r3, [r7, #32]
 6183 005c 1A60     		str	r2, [r3]
 6184              	.L304:
1363:g:/iot/IoT_Device_Demo/iot_link/network/lwm2m/wakaama_lwm2m/wakaama-master/core/er-coap-13\er-coap-13.c **** 
1364:g:/iot/IoT_Device_Demo/iot_link/network/lwm2m/wakaama_lwm2m/wakaama-master/core/er-coap-13\er-coap-13.c ****     return 1;
 6185              		.loc 1 1364 12
 6186 005e 0123     		movs	r3, #1
 6187              	.L300:
1365:g:/iot/IoT_Device_Demo/iot_link/network/lwm2m/wakaama_lwm2m/wakaama-master/core/er-coap-13\er-coap-13.c **** }
 6188              		.loc 1 1365 1
 6189 0060 1846     		mov	r0, r3
 6190 0062 1C37     		adds	r7, r7, #28
 6191              	.LCFI289:
 6192              		.cfi_def_cfa_offset 4
 6193 0064 BD46     		mov	sp, r7
 6194              	.LCFI290:
 6195              		.cfi_def_cfa_register 13
 6196              		@ sp needed
 6197 0066 5DF8047B 		ldr	r7, [sp], #4
 6198              	.LCFI291:
 6199              		.cfi_restore 7
 6200              		.cfi_def_cfa_offset 0
 6201 006a 7047     		bx	lr
 6202              		.cfi_endproc
 6203              	.LFE56:
 6205              		.section	.text.coap_set_header_block1,"ax",%progbits
 6206              		.align	1
 6207              		.global	coap_set_header_block1
 6208              		.syntax unified
 6209              		.thumb
 6210              		.thumb_func
 6211              		.fpu fpv4-sp-d16
 6213              	coap_set_header_block1:
 6214              	.LFB57:
1366:g:/iot/IoT_Device_Demo/iot_link/network/lwm2m/wakaama_lwm2m/wakaama-master/core/er-coap-13\er-coap-13.c **** 
1367:g:/iot/IoT_Device_Demo/iot_link/network/lwm2m/wakaama_lwm2m/wakaama-master/core/er-coap-13\er-coap-13.c **** int
1368:g:/iot/IoT_Device_Demo/iot_link/network/lwm2m/wakaama_lwm2m/wakaama-master/core/er-coap-13\er-coap-13.c **** coap_set_header_block1(void *packet, uint32_t num, uint8_t more, uint16_t size)
1369:g:/iot/IoT_Device_Demo/iot_link/network/lwm2m/wakaama_lwm2m/wakaama-master/core/er-coap-13\er-coap-13.c **** {
 6215              		.loc 1 1369 1
 6216              		.cfi_startproc
 6217              		@ args = 0, pretend = 0, frame = 24
 6218              		@ frame_needed = 1, uses_anonymous_args = 0
 6219              		@ link register save eliminated.
 6220 0000 80B4     		push	{r7}
 6221              	.LCFI292:
 6222              		.cfi_def_cfa_offset 4
 6223              		.cfi_offset 7, -4
 6224 0002 87B0     		sub	sp, sp, #28
 6225              	.LCFI293:
 6226              		.cfi_def_cfa_offset 32
 6227 0004 00AF     		add	r7, sp, #0
ARM GAS  C:\Users\ADMINI~1\AppData\Local\Temp\cc8DJu9v.s 			page 133


 6228              	.LCFI294:
 6229              		.cfi_def_cfa_register 7
 6230 0006 F860     		str	r0, [r7, #12]
 6231 0008 B960     		str	r1, [r7, #8]
 6232 000a 1146     		mov	r1, r2
 6233 000c 1A46     		mov	r2, r3
 6234 000e 0B46     		mov	r3, r1
 6235 0010 FB71     		strb	r3, [r7, #7]
 6236 0012 1346     		mov	r3, r2	@ movhi
 6237 0014 BB80     		strh	r3, [r7, #4]	@ movhi
1370:g:/iot/IoT_Device_Demo/iot_link/network/lwm2m/wakaama_lwm2m/wakaama-master/core/er-coap-13\er-coap-13.c ****     coap_packet_t *const coap_pkt = (coap_packet_t *) packet;
 6238              		.loc 1 1370 26
 6239 0016 FB68     		ldr	r3, [r7, #12]
 6240 0018 7B61     		str	r3, [r7, #20]
1371:g:/iot/IoT_Device_Demo/iot_link/network/lwm2m/wakaama_lwm2m/wakaama-master/core/er-coap-13\er-coap-13.c **** 
1372:g:/iot/IoT_Device_Demo/iot_link/network/lwm2m/wakaama_lwm2m/wakaama-master/core/er-coap-13\er-coap-13.c ****     if (size < 16) return 0;
 6241              		.loc 1 1372 8
 6242 001a BB88     		ldrh	r3, [r7, #4]
 6243 001c 0F2B     		cmp	r3, #15
 6244 001e 01D8     		bhi	.L306
 6245              		.loc 1 1372 27 discriminator 1
 6246 0020 0023     		movs	r3, #0
 6247 0022 1EE0     		b	.L307
 6248              	.L306:
1373:g:/iot/IoT_Device_Demo/iot_link/network/lwm2m/wakaama_lwm2m/wakaama-master/core/er-coap-13\er-coap-13.c ****     if (size > 2048) return 0;
 6249              		.loc 1 1373 8
 6250 0024 BB88     		ldrh	r3, [r7, #4]
 6251 0026 B3F5006F 		cmp	r3, #2048
 6252 002a 01D9     		bls	.L308
 6253              		.loc 1 1373 29 discriminator 1
 6254 002c 0023     		movs	r3, #0
 6255 002e 18E0     		b	.L307
 6256              	.L308:
1374:g:/iot/IoT_Device_Demo/iot_link/network/lwm2m/wakaama_lwm2m/wakaama-master/core/er-coap-13\er-coap-13.c ****     if (num > 0x0FFFFF) return 0;
 6257              		.loc 1 1374 8
 6258 0030 BB68     		ldr	r3, [r7, #8]
 6259 0032 B3F5801F 		cmp	r3, #1048576
 6260 0036 01D3     		bcc	.L309
 6261              		.loc 1 1374 32 discriminator 1
 6262 0038 0023     		movs	r3, #0
 6263 003a 12E0     		b	.L307
 6264              	.L309:
1375:g:/iot/IoT_Device_Demo/iot_link/network/lwm2m/wakaama_lwm2m/wakaama-master/core/er-coap-13\er-coap-13.c **** 
1376:g:/iot/IoT_Device_Demo/iot_link/network/lwm2m/wakaama_lwm2m/wakaama-master/core/er-coap-13\er-coap-13.c ****     coap_pkt->block1_num = num;
 6265              		.loc 1 1376 26
 6266 003c 7B69     		ldr	r3, [r7, #20]
 6267 003e BA68     		ldr	r2, [r7, #8]
 6268 0040 1A67     		str	r2, [r3, #112]
1377:g:/iot/IoT_Device_Demo/iot_link/network/lwm2m/wakaama_lwm2m/wakaama-master/core/er-coap-13\er-coap-13.c ****     coap_pkt->block1_more = more;
 6269              		.loc 1 1377 27
 6270 0042 7B69     		ldr	r3, [r7, #20]
 6271 0044 FA79     		ldrb	r2, [r7, #7]
 6272 0046 83F87420 		strb	r2, [r3, #116]
1378:g:/iot/IoT_Device_Demo/iot_link/network/lwm2m/wakaama_lwm2m/wakaama-master/core/er-coap-13\er-coap-13.c ****     coap_pkt->block1_size = size;
 6273              		.loc 1 1378 27
 6274 004a 7B69     		ldr	r3, [r7, #20]
 6275 004c BA88     		ldrh	r2, [r7, #4]	@ movhi
ARM GAS  C:\Users\ADMINI~1\AppData\Local\Temp\cc8DJu9v.s 			page 134


 6276 004e A3F87620 		strh	r2, [r3, #118]	@ movhi
1379:g:/iot/IoT_Device_Demo/iot_link/network/lwm2m/wakaama_lwm2m/wakaama-master/core/er-coap-13\er-coap-13.c **** 
1380:g:/iot/IoT_Device_Demo/iot_link/network/lwm2m/wakaama_lwm2m/wakaama-master/core/er-coap-13\er-coap-13.c ****     SET_OPTION(coap_pkt, COAP_OPTION_BLOCK1);
 6277              		.loc 1 1380 5
 6278 0052 7B69     		ldr	r3, [r7, #20]
 6279 0054 5B7B     		ldrb	r3, [r3, #13]	@ zero_extendqisi2
 6280 0056 43F00803 		orr	r3, r3, #8
 6281 005a DAB2     		uxtb	r2, r3
 6282 005c 7B69     		ldr	r3, [r7, #20]
 6283 005e 5A73     		strb	r2, [r3, #13]
1381:g:/iot/IoT_Device_Demo/iot_link/network/lwm2m/wakaama_lwm2m/wakaama-master/core/er-coap-13\er-coap-13.c ****     return 1;
 6284              		.loc 1 1381 12
 6285 0060 0123     		movs	r3, #1
 6286              	.L307:
1382:g:/iot/IoT_Device_Demo/iot_link/network/lwm2m/wakaama_lwm2m/wakaama-master/core/er-coap-13\er-coap-13.c **** }
 6287              		.loc 1 1382 1
 6288 0062 1846     		mov	r0, r3
 6289 0064 1C37     		adds	r7, r7, #28
 6290              	.LCFI295:
 6291              		.cfi_def_cfa_offset 4
 6292 0066 BD46     		mov	sp, r7
 6293              	.LCFI296:
 6294              		.cfi_def_cfa_register 13
 6295              		@ sp needed
 6296 0068 5DF8047B 		ldr	r7, [sp], #4
 6297              	.LCFI297:
 6298              		.cfi_restore 7
 6299              		.cfi_def_cfa_offset 0
 6300 006c 7047     		bx	lr
 6301              		.cfi_endproc
 6302              	.LFE57:
 6304              		.section	.text.coap_get_header_size,"ax",%progbits
 6305              		.align	1
 6306              		.global	coap_get_header_size
 6307              		.syntax unified
 6308              		.thumb
 6309              		.thumb_func
 6310              		.fpu fpv4-sp-d16
 6312              	coap_get_header_size:
 6313              	.LFB58:
1383:g:/iot/IoT_Device_Demo/iot_link/network/lwm2m/wakaama_lwm2m/wakaama-master/core/er-coap-13\er-coap-13.c **** /*-----------------------------------------------------------------------------------*/
1384:g:/iot/IoT_Device_Demo/iot_link/network/lwm2m/wakaama_lwm2m/wakaama-master/core/er-coap-13\er-coap-13.c **** int
1385:g:/iot/IoT_Device_Demo/iot_link/network/lwm2m/wakaama_lwm2m/wakaama-master/core/er-coap-13\er-coap-13.c **** coap_get_header_size(void *packet, uint32_t *size)
1386:g:/iot/IoT_Device_Demo/iot_link/network/lwm2m/wakaama_lwm2m/wakaama-master/core/er-coap-13\er-coap-13.c **** {
 6314              		.loc 1 1386 1
 6315              		.cfi_startproc
 6316              		@ args = 0, pretend = 0, frame = 16
 6317              		@ frame_needed = 1, uses_anonymous_args = 0
 6318              		@ link register save eliminated.
 6319 0000 80B4     		push	{r7}
 6320              	.LCFI298:
 6321              		.cfi_def_cfa_offset 4
 6322              		.cfi_offset 7, -4
 6323 0002 85B0     		sub	sp, sp, #20
 6324              	.LCFI299:
 6325              		.cfi_def_cfa_offset 24
 6326 0004 00AF     		add	r7, sp, #0
ARM GAS  C:\Users\ADMINI~1\AppData\Local\Temp\cc8DJu9v.s 			page 135


 6327              	.LCFI300:
 6328              		.cfi_def_cfa_register 7
 6329 0006 7860     		str	r0, [r7, #4]
 6330 0008 3960     		str	r1, [r7]
1387:g:/iot/IoT_Device_Demo/iot_link/network/lwm2m/wakaama_lwm2m/wakaama-master/core/er-coap-13\er-coap-13.c ****     coap_packet_t *const coap_pkt = (coap_packet_t *) packet;
 6331              		.loc 1 1387 26
 6332 000a 7B68     		ldr	r3, [r7, #4]
 6333 000c FB60     		str	r3, [r7, #12]
1388:g:/iot/IoT_Device_Demo/iot_link/network/lwm2m/wakaama_lwm2m/wakaama-master/core/er-coap-13\er-coap-13.c **** 
1389:g:/iot/IoT_Device_Demo/iot_link/network/lwm2m/wakaama_lwm2m/wakaama-master/core/er-coap-13\er-coap-13.c ****     if (!IS_OPTION(coap_pkt, COAP_OPTION_SIZE)) return 0;
 6334              		.loc 1 1389 10
 6335 000e FB68     		ldr	r3, [r7, #12]
 6336 0010 5B7B     		ldrb	r3, [r3, #13]	@ zero_extendqisi2
 6337 0012 03F01003 		and	r3, r3, #16
 6338              		.loc 1 1389 8
 6339 0016 002B     		cmp	r3, #0
 6340 0018 01D1     		bne	.L311
 6341              		.loc 1 1389 56 discriminator 1
 6342 001a 0023     		movs	r3, #0
 6343 001c 04E0     		b	.L312
 6344              	.L311:
1390:g:/iot/IoT_Device_Demo/iot_link/network/lwm2m/wakaama_lwm2m/wakaama-master/core/er-coap-13\er-coap-13.c **** 
1391:g:/iot/IoT_Device_Demo/iot_link/network/lwm2m/wakaama_lwm2m/wakaama-master/core/er-coap-13\er-coap-13.c ****     *size = coap_pkt->size;
 6345              		.loc 1 1391 21
 6346 001e FB68     		ldr	r3, [r7, #12]
 6347 0020 DA6F     		ldr	r2, [r3, #124]
 6348              		.loc 1 1391 11
 6349 0022 3B68     		ldr	r3, [r7]
 6350 0024 1A60     		str	r2, [r3]
1392:g:/iot/IoT_Device_Demo/iot_link/network/lwm2m/wakaama_lwm2m/wakaama-master/core/er-coap-13\er-coap-13.c ****     return 1;
 6351              		.loc 1 1392 12
 6352 0026 0123     		movs	r3, #1
 6353              	.L312:
1393:g:/iot/IoT_Device_Demo/iot_link/network/lwm2m/wakaama_lwm2m/wakaama-master/core/er-coap-13\er-coap-13.c **** }
 6354              		.loc 1 1393 1
 6355 0028 1846     		mov	r0, r3
 6356 002a 1437     		adds	r7, r7, #20
 6357              	.LCFI301:
 6358              		.cfi_def_cfa_offset 4
 6359 002c BD46     		mov	sp, r7
 6360              	.LCFI302:
 6361              		.cfi_def_cfa_register 13
 6362              		@ sp needed
 6363 002e 5DF8047B 		ldr	r7, [sp], #4
 6364              	.LCFI303:
 6365              		.cfi_restore 7
 6366              		.cfi_def_cfa_offset 0
 6367 0032 7047     		bx	lr
 6368              		.cfi_endproc
 6369              	.LFE58:
 6371              		.section	.text.coap_set_header_size,"ax",%progbits
 6372              		.align	1
 6373              		.global	coap_set_header_size
 6374              		.syntax unified
 6375              		.thumb
 6376              		.thumb_func
 6377              		.fpu fpv4-sp-d16
ARM GAS  C:\Users\ADMINI~1\AppData\Local\Temp\cc8DJu9v.s 			page 136


 6379              	coap_set_header_size:
 6380              	.LFB59:
1394:g:/iot/IoT_Device_Demo/iot_link/network/lwm2m/wakaama_lwm2m/wakaama-master/core/er-coap-13\er-coap-13.c **** 
1395:g:/iot/IoT_Device_Demo/iot_link/network/lwm2m/wakaama_lwm2m/wakaama-master/core/er-coap-13\er-coap-13.c **** int
1396:g:/iot/IoT_Device_Demo/iot_link/network/lwm2m/wakaama_lwm2m/wakaama-master/core/er-coap-13\er-coap-13.c **** coap_set_header_size(void *packet, uint32_t size)
1397:g:/iot/IoT_Device_Demo/iot_link/network/lwm2m/wakaama_lwm2m/wakaama-master/core/er-coap-13\er-coap-13.c **** {
 6381              		.loc 1 1397 1
 6382              		.cfi_startproc
 6383              		@ args = 0, pretend = 0, frame = 16
 6384              		@ frame_needed = 1, uses_anonymous_args = 0
 6385              		@ link register save eliminated.
 6386 0000 80B4     		push	{r7}
 6387              	.LCFI304:
 6388              		.cfi_def_cfa_offset 4
 6389              		.cfi_offset 7, -4
 6390 0002 85B0     		sub	sp, sp, #20
 6391              	.LCFI305:
 6392              		.cfi_def_cfa_offset 24
 6393 0004 00AF     		add	r7, sp, #0
 6394              	.LCFI306:
 6395              		.cfi_def_cfa_register 7
 6396 0006 7860     		str	r0, [r7, #4]
 6397 0008 3960     		str	r1, [r7]
1398:g:/iot/IoT_Device_Demo/iot_link/network/lwm2m/wakaama_lwm2m/wakaama-master/core/er-coap-13\er-coap-13.c ****     coap_packet_t *const coap_pkt = (coap_packet_t *) packet;
 6398              		.loc 1 1398 26
 6399 000a 7B68     		ldr	r3, [r7, #4]
 6400 000c FB60     		str	r3, [r7, #12]
1399:g:/iot/IoT_Device_Demo/iot_link/network/lwm2m/wakaama_lwm2m/wakaama-master/core/er-coap-13\er-coap-13.c **** 
1400:g:/iot/IoT_Device_Demo/iot_link/network/lwm2m/wakaama_lwm2m/wakaama-master/core/er-coap-13\er-coap-13.c ****     coap_pkt->size = size;
 6401              		.loc 1 1400 20
 6402 000e FB68     		ldr	r3, [r7, #12]
 6403 0010 3A68     		ldr	r2, [r7]
 6404 0012 DA67     		str	r2, [r3, #124]
1401:g:/iot/IoT_Device_Demo/iot_link/network/lwm2m/wakaama_lwm2m/wakaama-master/core/er-coap-13\er-coap-13.c ****     SET_OPTION(coap_pkt, COAP_OPTION_SIZE);
 6405              		.loc 1 1401 5
 6406 0014 FB68     		ldr	r3, [r7, #12]
 6407 0016 5B7B     		ldrb	r3, [r3, #13]	@ zero_extendqisi2
 6408 0018 43F01003 		orr	r3, r3, #16
 6409 001c DAB2     		uxtb	r2, r3
 6410 001e FB68     		ldr	r3, [r7, #12]
 6411 0020 5A73     		strb	r2, [r3, #13]
1402:g:/iot/IoT_Device_Demo/iot_link/network/lwm2m/wakaama_lwm2m/wakaama-master/core/er-coap-13\er-coap-13.c ****     return 1;
 6412              		.loc 1 1402 12
 6413 0022 0123     		movs	r3, #1
1403:g:/iot/IoT_Device_Demo/iot_link/network/lwm2m/wakaama_lwm2m/wakaama-master/core/er-coap-13\er-coap-13.c **** }
 6414              		.loc 1 1403 1
 6415 0024 1846     		mov	r0, r3
 6416 0026 1437     		adds	r7, r7, #20
 6417              	.LCFI307:
 6418              		.cfi_def_cfa_offset 4
 6419 0028 BD46     		mov	sp, r7
 6420              	.LCFI308:
 6421              		.cfi_def_cfa_register 13
 6422              		@ sp needed
 6423 002a 5DF8047B 		ldr	r7, [sp], #4
 6424              	.LCFI309:
 6425              		.cfi_restore 7
ARM GAS  C:\Users\ADMINI~1\AppData\Local\Temp\cc8DJu9v.s 			page 137


 6426              		.cfi_def_cfa_offset 0
 6427 002e 7047     		bx	lr
 6428              		.cfi_endproc
 6429              	.LFE59:
 6431              		.section	.text.coap_get_payload,"ax",%progbits
 6432              		.align	1
 6433              		.global	coap_get_payload
 6434              		.syntax unified
 6435              		.thumb
 6436              		.thumb_func
 6437              		.fpu fpv4-sp-d16
 6439              	coap_get_payload:
 6440              	.LFB60:
1404:g:/iot/IoT_Device_Demo/iot_link/network/lwm2m/wakaama_lwm2m/wakaama-master/core/er-coap-13\er-coap-13.c **** /*-----------------------------------------------------------------------------------*/
1405:g:/iot/IoT_Device_Demo/iot_link/network/lwm2m/wakaama_lwm2m/wakaama-master/core/er-coap-13\er-coap-13.c **** /*- PAYLOAD -------------------------------------------------------------------------*/
1406:g:/iot/IoT_Device_Demo/iot_link/network/lwm2m/wakaama_lwm2m/wakaama-master/core/er-coap-13\er-coap-13.c **** /*-----------------------------------------------------------------------------------*/
1407:g:/iot/IoT_Device_Demo/iot_link/network/lwm2m/wakaama_lwm2m/wakaama-master/core/er-coap-13\er-coap-13.c **** int
1408:g:/iot/IoT_Device_Demo/iot_link/network/lwm2m/wakaama_lwm2m/wakaama-master/core/er-coap-13\er-coap-13.c **** coap_get_payload(void *packet, const uint8_t **payload)
1409:g:/iot/IoT_Device_Demo/iot_link/network/lwm2m/wakaama_lwm2m/wakaama-master/core/er-coap-13\er-coap-13.c **** {
 6441              		.loc 1 1409 1
 6442              		.cfi_startproc
 6443              		@ args = 0, pretend = 0, frame = 16
 6444              		@ frame_needed = 1, uses_anonymous_args = 0
 6445              		@ link register save eliminated.
 6446 0000 80B4     		push	{r7}
 6447              	.LCFI310:
 6448              		.cfi_def_cfa_offset 4
 6449              		.cfi_offset 7, -4
 6450 0002 85B0     		sub	sp, sp, #20
 6451              	.LCFI311:
 6452              		.cfi_def_cfa_offset 24
 6453 0004 00AF     		add	r7, sp, #0
 6454              	.LCFI312:
 6455              		.cfi_def_cfa_register 7
 6456 0006 7860     		str	r0, [r7, #4]
 6457 0008 3960     		str	r1, [r7]
1410:g:/iot/IoT_Device_Demo/iot_link/network/lwm2m/wakaama_lwm2m/wakaama-master/core/er-coap-13\er-coap-13.c ****     coap_packet_t *const coap_pkt = (coap_packet_t *) packet;
 6458              		.loc 1 1410 26
 6459 000a 7B68     		ldr	r3, [r7, #4]
 6460 000c FB60     		str	r3, [r7, #12]
1411:g:/iot/IoT_Device_Demo/iot_link/network/lwm2m/wakaama_lwm2m/wakaama-master/core/er-coap-13\er-coap-13.c **** 
1412:g:/iot/IoT_Device_Demo/iot_link/network/lwm2m/wakaama_lwm2m/wakaama-master/core/er-coap-13\er-coap-13.c ****     if (coap_pkt->payload)
 6461              		.loc 1 1412 17
 6462 000e FB68     		ldr	r3, [r7, #12]
 6463 0010 D3F88830 		ldr	r3, [r3, #136]
 6464              		.loc 1 1412 8
 6465 0014 002B     		cmp	r3, #0
 6466 0016 08D0     		beq	.L316
1413:g:/iot/IoT_Device_Demo/iot_link/network/lwm2m/wakaama_lwm2m/wakaama-master/core/er-coap-13\er-coap-13.c ****     {
1414:g:/iot/IoT_Device_Demo/iot_link/network/lwm2m/wakaama_lwm2m/wakaama-master/core/er-coap-13\er-coap-13.c ****         *payload = coap_pkt->payload;
 6467              		.loc 1 1414 28
 6468 0018 FB68     		ldr	r3, [r7, #12]
 6469 001a D3F88820 		ldr	r2, [r3, #136]
 6470              		.loc 1 1414 18
 6471 001e 3B68     		ldr	r3, [r7]
 6472 0020 1A60     		str	r2, [r3]
1415:g:/iot/IoT_Device_Demo/iot_link/network/lwm2m/wakaama_lwm2m/wakaama-master/core/er-coap-13\er-coap-13.c ****         return coap_pkt->payload_len;
ARM GAS  C:\Users\ADMINI~1\AppData\Local\Temp\cc8DJu9v.s 			page 138


 6473              		.loc 1 1415 24
 6474 0022 FB68     		ldr	r3, [r7, #12]
 6475 0024 B3F88630 		ldrh	r3, [r3, #134]
 6476 0028 03E0     		b	.L317
 6477              	.L316:
1416:g:/iot/IoT_Device_Demo/iot_link/network/lwm2m/wakaama_lwm2m/wakaama-master/core/er-coap-13\er-coap-13.c ****     }
1417:g:/iot/IoT_Device_Demo/iot_link/network/lwm2m/wakaama_lwm2m/wakaama-master/core/er-coap-13\er-coap-13.c ****     else
1418:g:/iot/IoT_Device_Demo/iot_link/network/lwm2m/wakaama_lwm2m/wakaama-master/core/er-coap-13\er-coap-13.c ****     {
1419:g:/iot/IoT_Device_Demo/iot_link/network/lwm2m/wakaama_lwm2m/wakaama-master/core/er-coap-13\er-coap-13.c ****         *payload = NULL;
 6478              		.loc 1 1419 18
 6479 002a 3B68     		ldr	r3, [r7]
 6480 002c 0022     		movs	r2, #0
 6481 002e 1A60     		str	r2, [r3]
1420:g:/iot/IoT_Device_Demo/iot_link/network/lwm2m/wakaama_lwm2m/wakaama-master/core/er-coap-13\er-coap-13.c ****         return 0;
 6482              		.loc 1 1420 16
 6483 0030 0023     		movs	r3, #0
 6484              	.L317:
1421:g:/iot/IoT_Device_Demo/iot_link/network/lwm2m/wakaama_lwm2m/wakaama-master/core/er-coap-13\er-coap-13.c ****     }
1422:g:/iot/IoT_Device_Demo/iot_link/network/lwm2m/wakaama_lwm2m/wakaama-master/core/er-coap-13\er-coap-13.c **** }
 6485              		.loc 1 1422 1
 6486 0032 1846     		mov	r0, r3
 6487 0034 1437     		adds	r7, r7, #20
 6488              	.LCFI313:
 6489              		.cfi_def_cfa_offset 4
 6490 0036 BD46     		mov	sp, r7
 6491              	.LCFI314:
 6492              		.cfi_def_cfa_register 13
 6493              		@ sp needed
 6494 0038 5DF8047B 		ldr	r7, [sp], #4
 6495              	.LCFI315:
 6496              		.cfi_restore 7
 6497              		.cfi_def_cfa_offset 0
 6498 003c 7047     		bx	lr
 6499              		.cfi_endproc
 6500              	.LFE60:
 6502              		.section	.text.coap_set_payload,"ax",%progbits
 6503              		.align	1
 6504              		.global	coap_set_payload
 6505              		.syntax unified
 6506              		.thumb
 6507              		.thumb_func
 6508              		.fpu fpv4-sp-d16
 6510              	coap_set_payload:
 6511              	.LFB61:
1423:g:/iot/IoT_Device_Demo/iot_link/network/lwm2m/wakaama_lwm2m/wakaama-master/core/er-coap-13\er-coap-13.c **** 
1424:g:/iot/IoT_Device_Demo/iot_link/network/lwm2m/wakaama_lwm2m/wakaama-master/core/er-coap-13\er-coap-13.c **** int
1425:g:/iot/IoT_Device_Demo/iot_link/network/lwm2m/wakaama_lwm2m/wakaama-master/core/er-coap-13\er-coap-13.c **** coap_set_payload(void *packet, const void *payload, size_t length)
1426:g:/iot/IoT_Device_Demo/iot_link/network/lwm2m/wakaama_lwm2m/wakaama-master/core/er-coap-13\er-coap-13.c **** {
 6512              		.loc 1 1426 1
 6513              		.cfi_startproc
 6514              		@ args = 0, pretend = 0, frame = 24
 6515              		@ frame_needed = 1, uses_anonymous_args = 0
 6516              		@ link register save eliminated.
 6517 0000 80B4     		push	{r7}
 6518              	.LCFI316:
 6519              		.cfi_def_cfa_offset 4
 6520              		.cfi_offset 7, -4
ARM GAS  C:\Users\ADMINI~1\AppData\Local\Temp\cc8DJu9v.s 			page 139


 6521 0002 87B0     		sub	sp, sp, #28
 6522              	.LCFI317:
 6523              		.cfi_def_cfa_offset 32
 6524 0004 00AF     		add	r7, sp, #0
 6525              	.LCFI318:
 6526              		.cfi_def_cfa_register 7
 6527 0006 F860     		str	r0, [r7, #12]
 6528 0008 B960     		str	r1, [r7, #8]
 6529 000a 7A60     		str	r2, [r7, #4]
1427:g:/iot/IoT_Device_Demo/iot_link/network/lwm2m/wakaama_lwm2m/wakaama-master/core/er-coap-13\er-coap-13.c ****     coap_packet_t *const coap_pkt = (coap_packet_t *) packet;
 6530              		.loc 1 1427 26
 6531 000c FB68     		ldr	r3, [r7, #12]
 6532 000e 7B61     		str	r3, [r7, #20]
1428:g:/iot/IoT_Device_Demo/iot_link/network/lwm2m/wakaama_lwm2m/wakaama-master/core/er-coap-13\er-coap-13.c **** 
1429:g:/iot/IoT_Device_Demo/iot_link/network/lwm2m/wakaama_lwm2m/wakaama-master/core/er-coap-13\er-coap-13.c ****     coap_pkt->payload = (uint8_t *) payload;
 6533              		.loc 1 1429 23
 6534 0010 7B69     		ldr	r3, [r7, #20]
 6535 0012 BA68     		ldr	r2, [r7, #8]
 6536 0014 C3F88820 		str	r2, [r3, #136]
1430:g:/iot/IoT_Device_Demo/iot_link/network/lwm2m/wakaama_lwm2m/wakaama-master/core/er-coap-13\er-coap-13.c ****     coap_pkt->payload_len = (uint16_t)(length);
 6537              		.loc 1 1430 29
 6538 0018 7B68     		ldr	r3, [r7, #4]
 6539 001a 9AB2     		uxth	r2, r3
 6540              		.loc 1 1430 27
 6541 001c 7B69     		ldr	r3, [r7, #20]
 6542 001e A3F88620 		strh	r2, [r3, #134]	@ movhi
1431:g:/iot/IoT_Device_Demo/iot_link/network/lwm2m/wakaama_lwm2m/wakaama-master/core/er-coap-13\er-coap-13.c **** 
1432:g:/iot/IoT_Device_Demo/iot_link/network/lwm2m/wakaama_lwm2m/wakaama-master/core/er-coap-13\er-coap-13.c ****     return coap_pkt->payload_len;
 6543              		.loc 1 1432 20
 6544 0022 7B69     		ldr	r3, [r7, #20]
 6545 0024 B3F88630 		ldrh	r3, [r3, #134]
1433:g:/iot/IoT_Device_Demo/iot_link/network/lwm2m/wakaama_lwm2m/wakaama-master/core/er-coap-13\er-coap-13.c **** }
 6546              		.loc 1 1433 1
 6547 0028 1846     		mov	r0, r3
 6548 002a 1C37     		adds	r7, r7, #28
 6549              	.LCFI319:
 6550              		.cfi_def_cfa_offset 4
 6551 002c BD46     		mov	sp, r7
 6552              	.LCFI320:
 6553              		.cfi_def_cfa_register 13
 6554              		@ sp needed
 6555 002e 5DF8047B 		ldr	r7, [sp], #4
 6556              	.LCFI321:
 6557              		.cfi_restore 7
 6558              		.cfi_def_cfa_offset 0
 6559 0032 7047     		bx	lr
 6560              		.cfi_endproc
 6561              	.LFE61:
 6563              		.text
 6564              	.Letext0:
 6565              		.file 2 "g:\\iot\\.huawei-liteos-studio\\tools\\arm-none-eabi\\lib\\gcc\\arm-none-eabi\\9.2.1\\inc
 6566              		.file 3 "g:\\iot\\.huawei-liteos-studio\\tools\\arm-none-eabi\\arm-none-eabi\\include\\machine\\_d
 6567              		.file 4 "g:\\iot\\.huawei-liteos-studio\\tools\\arm-none-eabi\\arm-none-eabi\\include\\sys\\lock.h
 6568              		.file 5 "g:\\iot\\.huawei-liteos-studio\\tools\\arm-none-eabi\\arm-none-eabi\\include\\sys\\_types
 6569              		.file 6 "g:\\iot\\.huawei-liteos-studio\\tools\\arm-none-eabi\\arm-none-eabi\\include\\sys\\reent.
 6570              		.file 7 "g:\\iot\\.huawei-liteos-studio\\tools\\arm-none-eabi\\arm-none-eabi\\include\\stdlib.h"
 6571              		.file 8 "g:\\iot\\.huawei-liteos-studio\\tools\\arm-none-eabi\\arm-none-eabi\\include\\sys\\_stdin
ARM GAS  C:\Users\ADMINI~1\AppData\Local\Temp\cc8DJu9v.s 			page 140


 6572              		.file 9 "g:/iot/IoT_Device_Demo/iot_link/network/lwm2m/wakaama_lwm2m/wakaama-master/core/er-coap-1
 6573              		.file 10 "g:\\iot\\.huawei-liteos-studio\\tools\\arm-none-eabi\\arm-none-eabi\\include\\time.h"
 6574              		.file 11 "g:\\iot\\.huawei-liteos-studio\\tools\\arm-none-eabi\\arm-none-eabi\\include\\ctype.h"
 6575              		.file 12 "g:/iot/IoT_Device_Demo/iot_link/network/lwm2m/wakaama_lwm2m/port/connection.h"
ARM GAS  C:\Users\ADMINI~1\AppData\Local\Temp\cc8DJu9v.s 			page 141


DEFINED SYMBOLS
                            *ABS*:00000000 er-coap-13.c
C:\Users\ADMINI~1\AppData\Local\Temp\cc8DJu9v.s:18     .bss.current_mid:00000000 $d
C:\Users\ADMINI~1\AppData\Local\Temp\cc8DJu9v.s:21     .bss.current_mid:00000000 current_mid
C:\Users\ADMINI~1\AppData\Local\Temp\cc8DJu9v.s:27     .bss.coap_error_code:00000000 coap_error_code
C:\Users\ADMINI~1\AppData\Local\Temp\cc8DJu9v.s:28     .bss.coap_error_code:00000000 $d
C:\Users\ADMINI~1\AppData\Local\Temp\cc8DJu9v.s:38     .data.coap_error_message:00000000 coap_error_message
C:\Users\ADMINI~1\AppData\Local\Temp\cc8DJu9v.s:31     .rodata:00000000 $d
C:\Users\ADMINI~1\AppData\Local\Temp\cc8DJu9v.s:35     .data.coap_error_message:00000000 $d
C:\Users\ADMINI~1\AppData\Local\Temp\cc8DJu9v.s:41     .text.coap_log_2:00000000 $t
C:\Users\ADMINI~1\AppData\Local\Temp\cc8DJu9v.s:48     .text.coap_log_2:00000000 coap_log_2
C:\Users\ADMINI~1\AppData\Local\Temp\cc8DJu9v.s:115    .text.coap_parse_int_option:00000000 $t
C:\Users\ADMINI~1\AppData\Local\Temp\cc8DJu9v.s:121    .text.coap_parse_int_option:00000000 coap_parse_int_option
C:\Users\ADMINI~1\AppData\Local\Temp\cc8DJu9v.s:192    .text.coap_option_nibble:00000000 $t
C:\Users\ADMINI~1\AppData\Local\Temp\cc8DJu9v.s:198    .text.coap_option_nibble:00000000 coap_option_nibble
C:\Users\ADMINI~1\AppData\Local\Temp\cc8DJu9v.s:254    .text.coap_set_option_header:00000000 $t
C:\Users\ADMINI~1\AppData\Local\Temp\cc8DJu9v.s:260    .text.coap_set_option_header:00000000 coap_set_option_header
C:\Users\ADMINI~1\AppData\Local\Temp\cc8DJu9v.s:408    .text.coap_serialize_int_option:00000000 $t
C:\Users\ADMINI~1\AppData\Local\Temp\cc8DJu9v.s:414    .text.coap_serialize_int_option:00000000 coap_serialize_int_option
C:\Users\ADMINI~1\AppData\Local\Temp\cc8DJu9v.s:587    .text.coap_serialize_array_option:00000000 $t
C:\Users\ADMINI~1\AppData\Local\Temp\cc8DJu9v.s:593    .text.coap_serialize_array_option:00000000 coap_serialize_array_option
C:\Users\ADMINI~1\AppData\Local\Temp\cc8DJu9v.s:761    .text.coap_serialize_multi_option:00000000 $t
C:\Users\ADMINI~1\AppData\Local\Temp\cc8DJu9v.s:767    .text.coap_serialize_multi_option:00000000 coap_serialize_multi_option
C:\Users\ADMINI~1\AppData\Local\Temp\cc8DJu9v.s:865    .text.coap_merge_multi_option:00000000 $t
C:\Users\ADMINI~1\AppData\Local\Temp\cc8DJu9v.s:871    .text.coap_merge_multi_option:00000000 coap_merge_multi_option
C:\Users\ADMINI~1\AppData\Local\Temp\cc8DJu9v.s:961    .text.coap_add_multi_option:00000000 $t
C:\Users\ADMINI~1\AppData\Local\Temp\cc8DJu9v.s:968    .text.coap_add_multi_option:00000000 coap_add_multi_option
C:\Users\ADMINI~1\AppData\Local\Temp\cc8DJu9v.s:1103   .text.free_multi_option:00000000 $t
C:\Users\ADMINI~1\AppData\Local\Temp\cc8DJu9v.s:1110   .text.free_multi_option:00000000 free_multi_option
C:\Users\ADMINI~1\AppData\Local\Temp\cc8DJu9v.s:1176   .text.coap_get_multi_option_as_string:00000000 $t
C:\Users\ADMINI~1\AppData\Local\Temp\cc8DJu9v.s:1183   .text.coap_get_multi_option_as_string:00000000 coap_get_multi_option_as_string
C:\Users\ADMINI~1\AppData\Local\Temp\cc8DJu9v.s:1314   .text.coap_get_variable:00000000 $t
C:\Users\ADMINI~1\AppData\Local\Temp\cc8DJu9v.s:1320   .text.coap_get_variable:00000000 coap_get_variable
C:\Users\ADMINI~1\AppData\Local\Temp\cc8DJu9v.s:1466   .text.coap_get_mid:00000000 $t
C:\Users\ADMINI~1\AppData\Local\Temp\cc8DJu9v.s:1473   .text.coap_get_mid:00000000 coap_get_mid
C:\Users\ADMINI~1\AppData\Local\Temp\cc8DJu9v.s:1510   .text.coap_get_mid:00000020 $d
C:\Users\ADMINI~1\AppData\Local\Temp\cc8DJu9v.s:1515   .text.coap_init_message:00000000 $t
C:\Users\ADMINI~1\AppData\Local\Temp\cc8DJu9v.s:1522   .text.coap_init_message:00000000 coap_init_message
C:\Users\ADMINI~1\AppData\Local\Temp\cc8DJu9v.s:1583   .text.coap_free_header:00000000 $t
C:\Users\ADMINI~1\AppData\Local\Temp\cc8DJu9v.s:1590   .text.coap_free_header:00000000 coap_free_header
C:\Users\ADMINI~1\AppData\Local\Temp\cc8DJu9v.s:1652   .text.coap_serialize_get_size:00000000 $t
C:\Users\ADMINI~1\AppData\Local\Temp\cc8DJu9v.s:1659   .text.coap_serialize_get_size:00000000 coap_serialize_get_size
C:\Users\ADMINI~1\AppData\Local\Temp\cc8DJu9v.s:2030   .text.coap_serialize_message:00000000 $t
C:\Users\ADMINI~1\AppData\Local\Temp\cc8DJu9v.s:2037   .text.coap_serialize_message:00000000 coap_serialize_message
C:\Users\ADMINI~1\AppData\Local\Temp\cc8DJu9v.s:2729   .text.coap_parse_message:00000000 $t
C:\Users\ADMINI~1\AppData\Local\Temp\cc8DJu9v.s:2736   .text.coap_parse_message:00000000 coap_parse_message
C:\Users\ADMINI~1\AppData\Local\Temp\cc8DJu9v.s:3079   .text.coap_parse_message:00000204 $d
C:\Users\ADMINI~1\AppData\Local\Temp\cc8DJu9v.s:3114   .text.coap_parse_message:00000290 $t
C:\Users\ADMINI~1\AppData\Local\Temp\cc8DJu9v.s:3242   .text.coap_parse_message:00000354 $d
C:\Users\ADMINI~1\AppData\Local\Temp\cc8DJu9v.s:3246   .text.coap_parse_message:0000035c $t
C:\Users\ADMINI~1\AppData\Local\Temp\cc8DJu9v.s:3512   .text.coap_parse_message:000004f8 $d
C:\Users\ADMINI~1\AppData\Local\Temp\cc8DJu9v.s:3519   .text.coap_get_query_variable:00000000 $t
C:\Users\ADMINI~1\AppData\Local\Temp\cc8DJu9v.s:3526   .text.coap_get_query_variable:00000000 coap_get_query_variable
C:\Users\ADMINI~1\AppData\Local\Temp\cc8DJu9v.s:3566   .text.coap_get_post_variable:00000000 $t
C:\Users\ADMINI~1\AppData\Local\Temp\cc8DJu9v.s:3573   .text.coap_get_post_variable:00000000 coap_get_post_variable
C:\Users\ADMINI~1\AppData\Local\Temp\cc8DJu9v.s:3633   .text.coap_set_status_code:00000000 $t
C:\Users\ADMINI~1\AppData\Local\Temp\cc8DJu9v.s:3640   .text.coap_set_status_code:00000000 coap_set_status_code
ARM GAS  C:\Users\ADMINI~1\AppData\Local\Temp\cc8DJu9v.s 			page 142


C:\Users\ADMINI~1\AppData\Local\Temp\cc8DJu9v.s:3694   .text.coap_get_header_content_type:00000000 $t
C:\Users\ADMINI~1\AppData\Local\Temp\cc8DJu9v.s:3701   .text.coap_get_header_content_type:00000000 coap_get_header_content_type
C:\Users\ADMINI~1\AppData\Local\Temp\cc8DJu9v.s:3755   .text.coap_set_header_content_type:00000000 $t
C:\Users\ADMINI~1\AppData\Local\Temp\cc8DJu9v.s:3762   .text.coap_set_header_content_type:00000000 coap_set_header_content_type
C:\Users\ADMINI~1\AppData\Local\Temp\cc8DJu9v.s:3817   .text.coap_get_header_accept:00000000 $t
C:\Users\ADMINI~1\AppData\Local\Temp\cc8DJu9v.s:3824   .text.coap_get_header_accept:00000000 coap_get_header_accept
C:\Users\ADMINI~1\AppData\Local\Temp\cc8DJu9v.s:3885   .text.coap_set_header_accept:00000000 $t
C:\Users\ADMINI~1\AppData\Local\Temp\cc8DJu9v.s:3892   .text.coap_set_header_accept:00000000 coap_set_header_accept
C:\Users\ADMINI~1\AppData\Local\Temp\cc8DJu9v.s:3967   .text.coap_get_header_max_age:00000000 $t
C:\Users\ADMINI~1\AppData\Local\Temp\cc8DJu9v.s:3974   .text.coap_get_header_max_age:00000000 coap_get_header_max_age
C:\Users\ADMINI~1\AppData\Local\Temp\cc8DJu9v.s:4036   .text.coap_set_header_max_age:00000000 $t
C:\Users\ADMINI~1\AppData\Local\Temp\cc8DJu9v.s:4043   .text.coap_set_header_max_age:00000000 coap_set_header_max_age
C:\Users\ADMINI~1\AppData\Local\Temp\cc8DJu9v.s:4096   .text.coap_get_header_etag:00000000 $t
C:\Users\ADMINI~1\AppData\Local\Temp\cc8DJu9v.s:4103   .text.coap_get_header_etag:00000000 coap_get_header_etag
C:\Users\ADMINI~1\AppData\Local\Temp\cc8DJu9v.s:4164   .text.coap_set_header_etag:00000000 $t
C:\Users\ADMINI~1\AppData\Local\Temp\cc8DJu9v.s:4171   .text.coap_set_header_etag:00000000 coap_set_header_etag
C:\Users\ADMINI~1\AppData\Local\Temp\cc8DJu9v.s:4243   .text.coap_get_header_if_match:00000000 $t
C:\Users\ADMINI~1\AppData\Local\Temp\cc8DJu9v.s:4250   .text.coap_get_header_if_match:00000000 coap_get_header_if_match
C:\Users\ADMINI~1\AppData\Local\Temp\cc8DJu9v.s:4311   .text.coap_set_header_if_match:00000000 $t
C:\Users\ADMINI~1\AppData\Local\Temp\cc8DJu9v.s:4318   .text.coap_set_header_if_match:00000000 coap_set_header_if_match
C:\Users\ADMINI~1\AppData\Local\Temp\cc8DJu9v.s:4390   .text.coap_get_header_if_none_match:00000000 $t
C:\Users\ADMINI~1\AppData\Local\Temp\cc8DJu9v.s:4397   .text.coap_get_header_if_none_match:00000000 coap_get_header_if_none_match
C:\Users\ADMINI~1\AppData\Local\Temp\cc8DJu9v.s:4439   .text.coap_set_header_if_none_match:00000000 $t
C:\Users\ADMINI~1\AppData\Local\Temp\cc8DJu9v.s:4446   .text.coap_set_header_if_none_match:00000000 coap_set_header_if_none_match
C:\Users\ADMINI~1\AppData\Local\Temp\cc8DJu9v.s:4491   .text.coap_get_header_token:00000000 $t
C:\Users\ADMINI~1\AppData\Local\Temp\cc8DJu9v.s:4498   .text.coap_get_header_token:00000000 coap_get_header_token
C:\Users\ADMINI~1\AppData\Local\Temp\cc8DJu9v.s:4559   .text.coap_set_header_token:00000000 $t
C:\Users\ADMINI~1\AppData\Local\Temp\cc8DJu9v.s:4566   .text.coap_set_header_token:00000000 coap_set_header_token
C:\Users\ADMINI~1\AppData\Local\Temp\cc8DJu9v.s:4638   .text.coap_get_header_proxy_uri:00000000 $t
C:\Users\ADMINI~1\AppData\Local\Temp\cc8DJu9v.s:4645   .text.coap_get_header_proxy_uri:00000000 coap_get_header_proxy_uri
C:\Users\ADMINI~1\AppData\Local\Temp\cc8DJu9v.s:4706   .text.coap_set_header_proxy_uri:00000000 $t
C:\Users\ADMINI~1\AppData\Local\Temp\cc8DJu9v.s:4713   .text.coap_set_header_proxy_uri:00000000 coap_set_header_proxy_uri
C:\Users\ADMINI~1\AppData\Local\Temp\cc8DJu9v.s:4770   .text.coap_get_header_uri_host:00000000 $t
C:\Users\ADMINI~1\AppData\Local\Temp\cc8DJu9v.s:4777   .text.coap_get_header_uri_host:00000000 coap_get_header_uri_host
C:\Users\ADMINI~1\AppData\Local\Temp\cc8DJu9v.s:4838   .text.coap_set_header_uri_host:00000000 $t
C:\Users\ADMINI~1\AppData\Local\Temp\cc8DJu9v.s:4845   .text.coap_set_header_uri_host:00000000 coap_set_header_uri_host
C:\Users\ADMINI~1\AppData\Local\Temp\cc8DJu9v.s:4902   .text.coap_get_header_uri_path:00000000 $t
C:\Users\ADMINI~1\AppData\Local\Temp\cc8DJu9v.s:4909   .text.coap_get_header_uri_path:00000000 coap_get_header_uri_path
C:\Users\ADMINI~1\AppData\Local\Temp\cc8DJu9v.s:4967   .text.coap_set_header_uri_path:00000000 $t
C:\Users\ADMINI~1\AppData\Local\Temp\cc8DJu9v.s:4974   .text.coap_set_header_uri_path:00000000 coap_set_header_uri_path
C:\Users\ADMINI~1\AppData\Local\Temp\cc8DJu9v.s:5108   .text.coap_set_header_uri_path_segment:00000000 $t
C:\Users\ADMINI~1\AppData\Local\Temp\cc8DJu9v.s:5115   .text.coap_set_header_uri_path_segment:00000000 coap_set_header_uri_path_segment
C:\Users\ADMINI~1\AppData\Local\Temp\cc8DJu9v.s:5197   .text.coap_get_header_uri_query:00000000 $t
C:\Users\ADMINI~1\AppData\Local\Temp\cc8DJu9v.s:5204   .text.coap_get_header_uri_query:00000000 coap_get_header_uri_query
C:\Users\ADMINI~1\AppData\Local\Temp\cc8DJu9v.s:5263   .text.coap_set_header_uri_query:00000000 $t
C:\Users\ADMINI~1\AppData\Local\Temp\cc8DJu9v.s:5270   .text.coap_set_header_uri_query:00000000 coap_set_header_uri_query
C:\Users\ADMINI~1\AppData\Local\Temp\cc8DJu9v.s:5404   .text.coap_get_header_location_path:00000000 $t
C:\Users\ADMINI~1\AppData\Local\Temp\cc8DJu9v.s:5411   .text.coap_get_header_location_path:00000000 coap_get_header_location_path
C:\Users\ADMINI~1\AppData\Local\Temp\cc8DJu9v.s:5469   .text.coap_set_header_location_path:00000000 $t
C:\Users\ADMINI~1\AppData\Local\Temp\cc8DJu9v.s:5476   .text.coap_set_header_location_path:00000000 coap_set_header_location_path
C:\Users\ADMINI~1\AppData\Local\Temp\cc8DJu9v.s:5610   .text.coap_get_header_location_query:00000000 $t
C:\Users\ADMINI~1\AppData\Local\Temp\cc8DJu9v.s:5617   .text.coap_get_header_location_query:00000000 coap_get_header_location_query
C:\Users\ADMINI~1\AppData\Local\Temp\cc8DJu9v.s:5678   .text.coap_set_header_location_query:00000000 $t
C:\Users\ADMINI~1\AppData\Local\Temp\cc8DJu9v.s:5685   .text.coap_set_header_location_query:00000000 coap_set_header_location_query
C:\Users\ADMINI~1\AppData\Local\Temp\cc8DJu9v.s:5756   .text.coap_get_header_observe:00000000 $t
C:\Users\ADMINI~1\AppData\Local\Temp\cc8DJu9v.s:5763   .text.coap_get_header_observe:00000000 coap_get_header_observe
C:\Users\ADMINI~1\AppData\Local\Temp\cc8DJu9v.s:5823   .text.coap_set_header_observe:00000000 $t
ARM GAS  C:\Users\ADMINI~1\AppData\Local\Temp\cc8DJu9v.s 			page 143


C:\Users\ADMINI~1\AppData\Local\Temp\cc8DJu9v.s:5830   .text.coap_set_header_observe:00000000 coap_set_header_observe
C:\Users\ADMINI~1\AppData\Local\Temp\cc8DJu9v.s:5885   .text.coap_get_header_block2:00000000 $t
C:\Users\ADMINI~1\AppData\Local\Temp\cc8DJu9v.s:5892   .text.coap_get_header_block2:00000000 coap_get_header_block2
C:\Users\ADMINI~1\AppData\Local\Temp\cc8DJu9v.s:5993   .text.coap_set_header_block2:00000000 $t
C:\Users\ADMINI~1\AppData\Local\Temp\cc8DJu9v.s:6000   .text.coap_set_header_block2:00000000 coap_set_header_block2
C:\Users\ADMINI~1\AppData\Local\Temp\cc8DJu9v.s:6099   .text.coap_get_header_block1:00000000 $t
C:\Users\ADMINI~1\AppData\Local\Temp\cc8DJu9v.s:6106   .text.coap_get_header_block1:00000000 coap_get_header_block1
C:\Users\ADMINI~1\AppData\Local\Temp\cc8DJu9v.s:6206   .text.coap_set_header_block1:00000000 $t
C:\Users\ADMINI~1\AppData\Local\Temp\cc8DJu9v.s:6213   .text.coap_set_header_block1:00000000 coap_set_header_block1
C:\Users\ADMINI~1\AppData\Local\Temp\cc8DJu9v.s:6305   .text.coap_get_header_size:00000000 $t
C:\Users\ADMINI~1\AppData\Local\Temp\cc8DJu9v.s:6312   .text.coap_get_header_size:00000000 coap_get_header_size
C:\Users\ADMINI~1\AppData\Local\Temp\cc8DJu9v.s:6372   .text.coap_set_header_size:00000000 $t
C:\Users\ADMINI~1\AppData\Local\Temp\cc8DJu9v.s:6379   .text.coap_set_header_size:00000000 coap_set_header_size
C:\Users\ADMINI~1\AppData\Local\Temp\cc8DJu9v.s:6432   .text.coap_get_payload:00000000 $t
C:\Users\ADMINI~1\AppData\Local\Temp\cc8DJu9v.s:6439   .text.coap_get_payload:00000000 coap_get_payload
C:\Users\ADMINI~1\AppData\Local\Temp\cc8DJu9v.s:6503   .text.coap_set_payload:00000000 $t
C:\Users\ADMINI~1\AppData\Local\Temp\cc8DJu9v.s:6510   .text.coap_set_payload:00000000 coap_set_payload

UNDEFINED SYMBOLS
memcpy
memmove
lwm2m_malloc
lwm2m_free
strlen
strncmp
memchr
memset
