ARM GAS  C:\Users\ADMINI~1\AppData\Local\Temp\ccULSjfE.s 			page 1


   1              		.cpu cortex-m4
   2              		.eabi_attribute 27, 1
   3              		.eabi_attribute 28, 1
   4              		.eabi_attribute 20, 1
   5              		.eabi_attribute 21, 1
   6              		.eabi_attribute 23, 3
   7              		.eabi_attribute 24, 1
   8              		.eabi_attribute 25, 1
   9              		.eabi_attribute 26, 1
  10              		.eabi_attribute 30, 6
  11              		.eabi_attribute 34, 1
  12              		.eabi_attribute 18, 4
  13              		.file	"hal_qspi_flash.c"
  14              		.text
  15              	.Ltext0:
  16              		.cfi_sections	.debug_frame
  17              		.comm	hqspi,76,4
  18              		.section	.text.HAL_QSPI_MspInit,"ax",%progbits
  19              		.align	1
  20              		.global	HAL_QSPI_MspInit
  21              		.arch armv7e-m
  22              		.syntax unified
  23              		.thumb
  24              		.thumb_func
  25              		.fpu fpv4-sp-d16
  27              	HAL_QSPI_MspInit:
  28              	.LFB287:
  29              		.file 1 "g:/iot/IoT_Device_Demo/targets/STM32L431_BearPi/Hardware/Src/hal_qspi_flash.c"
   1:g:/iot/IoT_Device_Demo/targets/STM32L431_BearPi/Hardware/Src\hal_qspi_flash.c **** /*----------------------------------------------------------------------------
   2:g:/iot/IoT_Device_Demo/targets/STM32L431_BearPi/Hardware/Src\hal_qspi_flash.c ****  * Copyright (c) <2016-2018>, <Huawei Technologies Co., Ltd>
   3:g:/iot/IoT_Device_Demo/targets/STM32L431_BearPi/Hardware/Src\hal_qspi_flash.c ****  * All rights reserved.
   4:g:/iot/IoT_Device_Demo/targets/STM32L431_BearPi/Hardware/Src\hal_qspi_flash.c ****  * Redistribution and use in source and binary forms, with or without modification,
   5:g:/iot/IoT_Device_Demo/targets/STM32L431_BearPi/Hardware/Src\hal_qspi_flash.c ****  * are permitted provided that the following conditions are met:
   6:g:/iot/IoT_Device_Demo/targets/STM32L431_BearPi/Hardware/Src\hal_qspi_flash.c ****  * 1. Redistributions of source code must retain the above copyright notice, this list of
   7:g:/iot/IoT_Device_Demo/targets/STM32L431_BearPi/Hardware/Src\hal_qspi_flash.c ****  * conditions and the following disclaimer.
   8:g:/iot/IoT_Device_Demo/targets/STM32L431_BearPi/Hardware/Src\hal_qspi_flash.c ****  * 2. Redistributions in binary form must reproduce the above copyright notice, this list
   9:g:/iot/IoT_Device_Demo/targets/STM32L431_BearPi/Hardware/Src\hal_qspi_flash.c ****  * of conditions and the following disclaimer in the documentation and/or other materials
  10:g:/iot/IoT_Device_Demo/targets/STM32L431_BearPi/Hardware/Src\hal_qspi_flash.c ****  * provided with the distribution.
  11:g:/iot/IoT_Device_Demo/targets/STM32L431_BearPi/Hardware/Src\hal_qspi_flash.c ****  * 3. Neither the name of the copyright holder nor the names of its contributors may be used
  12:g:/iot/IoT_Device_Demo/targets/STM32L431_BearPi/Hardware/Src\hal_qspi_flash.c ****  * to endorse or promote products derived from this software without specific prior written
  13:g:/iot/IoT_Device_Demo/targets/STM32L431_BearPi/Hardware/Src\hal_qspi_flash.c ****  * permission.
  14:g:/iot/IoT_Device_Demo/targets/STM32L431_BearPi/Hardware/Src\hal_qspi_flash.c ****  * THIS SOFTWARE IS PROVIDED BY THE COPYRIGHT HOLDERS AND CONTRIBUTORS
  15:g:/iot/IoT_Device_Demo/targets/STM32L431_BearPi/Hardware/Src\hal_qspi_flash.c ****  * "AS IS" AND ANY EXPRESS OR IMPLIED WARRANTIES, INCLUDING, BUT NOT LIMITED TO,
  16:g:/iot/IoT_Device_Demo/targets/STM32L431_BearPi/Hardware/Src\hal_qspi_flash.c ****  * THE IMPLIED WARRANTIES OF MERCHANTABILITY AND FITNESS FOR A PARTICULAR
  17:g:/iot/IoT_Device_Demo/targets/STM32L431_BearPi/Hardware/Src\hal_qspi_flash.c ****  * PURPOSE ARE DISCLAIMED. IN NO EVENT SHALL THE COPYRIGHT HOLDER OR
  18:g:/iot/IoT_Device_Demo/targets/STM32L431_BearPi/Hardware/Src\hal_qspi_flash.c ****  * CONTRIBUTORS BE LIABLE FOR ANY DIRECT, INDIRECT, INCIDENTAL, SPECIAL,
  19:g:/iot/IoT_Device_Demo/targets/STM32L431_BearPi/Hardware/Src\hal_qspi_flash.c ****  * EXEMPLARY, OR CONSEQUENTIAL DAMAGES (INCLUDING, BUT NOT LIMITED TO,
  20:g:/iot/IoT_Device_Demo/targets/STM32L431_BearPi/Hardware/Src\hal_qspi_flash.c ****  * PROCUREMENT OF SUBSTITUTE GOODS OR SERVICES; LOSS OF USE, DATA, OR PROFITS;
  21:g:/iot/IoT_Device_Demo/targets/STM32L431_BearPi/Hardware/Src\hal_qspi_flash.c ****  * OR BUSINESS INTERRUPTION) HOWEVER CAUSED AND ON ANY THEORY OF LIABILITY,
  22:g:/iot/IoT_Device_Demo/targets/STM32L431_BearPi/Hardware/Src\hal_qspi_flash.c ****  * WHETHER IN CONTRACT, STRICT LIABILITY, OR TORT (INCLUDING NEGLIGENCE OR
  23:g:/iot/IoT_Device_Demo/targets/STM32L431_BearPi/Hardware/Src\hal_qspi_flash.c ****  * OTHERWISE) ARISING IN ANY WAY OUT OF THE USE OF THIS SOFTWARE, EVEN IF
  24:g:/iot/IoT_Device_Demo/targets/STM32L431_BearPi/Hardware/Src\hal_qspi_flash.c ****  * ADVISED OF THE POSSIBILITY OF SUCH DAMAGE.
  25:g:/iot/IoT_Device_Demo/targets/STM32L431_BearPi/Hardware/Src\hal_qspi_flash.c ****  *---------------------------------------------------------------------------*/
  26:g:/iot/IoT_Device_Demo/targets/STM32L431_BearPi/Hardware/Src\hal_qspi_flash.c **** /*----------------------------------------------------------------------------
  27:g:/iot/IoT_Device_Demo/targets/STM32L431_BearPi/Hardware/Src\hal_qspi_flash.c ****  * Notice of Export Control Law
  28:g:/iot/IoT_Device_Demo/targets/STM32L431_BearPi/Hardware/Src\hal_qspi_flash.c ****  * ===============================================
  29:g:/iot/IoT_Device_Demo/targets/STM32L431_BearPi/Hardware/Src\hal_qspi_flash.c ****  * Huawei LiteOS may be subject to applicable export control laws and regulations, which might
ARM GAS  C:\Users\ADMINI~1\AppData\Local\Temp\ccULSjfE.s 			page 2


  30:g:/iot/IoT_Device_Demo/targets/STM32L431_BearPi/Hardware/Src\hal_qspi_flash.c ****  * include those applicable to Huawei LiteOS of U.S. and the country in which you are located.
  31:g:/iot/IoT_Device_Demo/targets/STM32L431_BearPi/Hardware/Src\hal_qspi_flash.c ****  * Import, export and usage of Huawei LiteOS in any manner by you shall be in compliance with such
  32:g:/iot/IoT_Device_Demo/targets/STM32L431_BearPi/Hardware/Src\hal_qspi_flash.c ****  * applicable export control laws and regulations.
  33:g:/iot/IoT_Device_Demo/targets/STM32L431_BearPi/Hardware/Src\hal_qspi_flash.c ****  *---------------------------------------------------------------------------*/
  34:g:/iot/IoT_Device_Demo/targets/STM32L431_BearPi/Hardware/Src\hal_qspi_flash.c **** 
  35:g:/iot/IoT_Device_Demo/targets/STM32L431_BearPi/Hardware/Src\hal_qspi_flash.c **** #include "hal_qspi_flash.h"
  36:g:/iot/IoT_Device_Demo/targets/STM32L431_BearPi/Hardware/Src\hal_qspi_flash.c **** #include "stm32l4xx.h"
  37:g:/iot/IoT_Device_Demo/targets/STM32L431_BearPi/Hardware/Src\hal_qspi_flash.c **** 
  38:g:/iot/IoT_Device_Demo/targets/STM32L431_BearPi/Hardware/Src\hal_qspi_flash.c **** #ifdef HAL_QSPI_MODULE_ENABLED
  39:g:/iot/IoT_Device_Demo/targets/STM32L431_BearPi/Hardware/Src\hal_qspi_flash.c **** 
  40:g:/iot/IoT_Device_Demo/targets/STM32L431_BearPi/Hardware/Src\hal_qspi_flash.c **** #define QSPI_FLASH_PAGESIZE                         256
  41:g:/iot/IoT_Device_Demo/targets/STM32L431_BearPi/Hardware/Src\hal_qspi_flash.c **** #define QSPI_FLASH_SECTOR                           4096
  42:g:/iot/IoT_Device_Demo/targets/STM32L431_BearPi/Hardware/Src\hal_qspi_flash.c **** #define QSPI_FLASH_ID                               0xEF4017
  43:g:/iot/IoT_Device_Demo/targets/STM32L431_BearPi/Hardware/Src\hal_qspi_flash.c **** #define QSPI_FLASH_TOTAL_SIZE                       0x7FFFFF
  44:g:/iot/IoT_Device_Demo/targets/STM32L431_BearPi/Hardware/Src\hal_qspi_flash.c **** 
  45:g:/iot/IoT_Device_Demo/targets/STM32L431_BearPi/Hardware/Src\hal_qspi_flash.c **** #define QSPI_FLASH_WriteEnable                      0x06
  46:g:/iot/IoT_Device_Demo/targets/STM32L431_BearPi/Hardware/Src\hal_qspi_flash.c **** #define QSPI_FLASH_WriteDisable                     0x04
  47:g:/iot/IoT_Device_Demo/targets/STM32L431_BearPi/Hardware/Src\hal_qspi_flash.c **** #define QSPI_FLASH_ReadStatusReg                    0x05
  48:g:/iot/IoT_Device_Demo/targets/STM32L431_BearPi/Hardware/Src\hal_qspi_flash.c **** #define QSPI_FLASH_WriteStatusReg                   0x01
  49:g:/iot/IoT_Device_Demo/targets/STM32L431_BearPi/Hardware/Src\hal_qspi_flash.c **** #define QSPI_FLASH_ReadData                         0x03
  50:g:/iot/IoT_Device_Demo/targets/STM32L431_BearPi/Hardware/Src\hal_qspi_flash.c **** #define QSPI_FLASH_FastReadData                     0x0B
  51:g:/iot/IoT_Device_Demo/targets/STM32L431_BearPi/Hardware/Src\hal_qspi_flash.c **** #define QSPI_FLASH_FastReadDual                     0x3B
  52:g:/iot/IoT_Device_Demo/targets/STM32L431_BearPi/Hardware/Src\hal_qspi_flash.c **** #define QSPI_FLASH_PageProgram                      0x02
  53:g:/iot/IoT_Device_Demo/targets/STM32L431_BearPi/Hardware/Src\hal_qspi_flash.c **** #define QSPI_FLASH_BlockErase                       0xD8
  54:g:/iot/IoT_Device_Demo/targets/STM32L431_BearPi/Hardware/Src\hal_qspi_flash.c **** #define QSPI_FLASH_SectorErase                      0x20
  55:g:/iot/IoT_Device_Demo/targets/STM32L431_BearPi/Hardware/Src\hal_qspi_flash.c **** #define QSPI_FLASH_ChipErase                        0xC7
  56:g:/iot/IoT_Device_Demo/targets/STM32L431_BearPi/Hardware/Src\hal_qspi_flash.c **** #define QSPI_FLASH_PowerDown                        0xB9
  57:g:/iot/IoT_Device_Demo/targets/STM32L431_BearPi/Hardware/Src\hal_qspi_flash.c **** #define QSPI_FLASH_ReleasePowerDown                 0xAB
  58:g:/iot/IoT_Device_Demo/targets/STM32L431_BearPi/Hardware/Src\hal_qspi_flash.c **** #define QSPI_FLASH_DeviceID                         0xAB
  59:g:/iot/IoT_Device_Demo/targets/STM32L431_BearPi/Hardware/Src\hal_qspi_flash.c **** #define QSPI_FLASH_ManufactDeviceID                 0x90
  60:g:/iot/IoT_Device_Demo/targets/STM32L431_BearPi/Hardware/Src\hal_qspi_flash.c **** #define QSPI_FLASH_JedecDeviceID                    0x9F
  61:g:/iot/IoT_Device_Demo/targets/STM32L431_BearPi/Hardware/Src\hal_qspi_flash.c **** #define QSPI_FLASH_WIP_FLAG                         0x01
  62:g:/iot/IoT_Device_Demo/targets/STM32L431_BearPi/Hardware/Src\hal_qspi_flash.c **** #define QSPI_FLASH_DUMMY_BYTE                       0xFF
  63:g:/iot/IoT_Device_Demo/targets/STM32L431_BearPi/Hardware/Src\hal_qspi_flash.c **** 
  64:g:/iot/IoT_Device_Demo/targets/STM32L431_BearPi/Hardware/Src\hal_qspi_flash.c **** #define CHOOSE_BIT_16                              16
  65:g:/iot/IoT_Device_Demo/targets/STM32L431_BearPi/Hardware/Src\hal_qspi_flash.c **** #define CHOOSE_BIT_8                               8
  66:g:/iot/IoT_Device_Demo/targets/STM32L431_BearPi/Hardware/Src\hal_qspi_flash.c **** 
  67:g:/iot/IoT_Device_Demo/targets/STM32L431_BearPi/Hardware/Src\hal_qspi_flash.c **** 
  68:g:/iot/IoT_Device_Demo/targets/STM32L431_BearPi/Hardware/Src\hal_qspi_flash.c **** #define CHECK_RET_RETURN(ret) \
  69:g:/iot/IoT_Device_Demo/targets/STM32L431_BearPi/Hardware/Src\hal_qspi_flash.c ****     do \
  70:g:/iot/IoT_Device_Demo/targets/STM32L431_BearPi/Hardware/Src\hal_qspi_flash.c ****     { \
  71:g:/iot/IoT_Device_Demo/targets/STM32L431_BearPi/Hardware/Src\hal_qspi_flash.c ****         if ((ret) < 0) \
  72:g:/iot/IoT_Device_Demo/targets/STM32L431_BearPi/Hardware/Src\hal_qspi_flash.c ****         { \
  73:g:/iot/IoT_Device_Demo/targets/STM32L431_BearPi/Hardware/Src\hal_qspi_flash.c ****             return ret; \
  74:g:/iot/IoT_Device_Demo/targets/STM32L431_BearPi/Hardware/Src\hal_qspi_flash.c ****         } \
  75:g:/iot/IoT_Device_Demo/targets/STM32L431_BearPi/Hardware/Src\hal_qspi_flash.c ****     } while (0)
  76:g:/iot/IoT_Device_Demo/targets/STM32L431_BearPi/Hardware/Src\hal_qspi_flash.c **** 
  77:g:/iot/IoT_Device_Demo/targets/STM32L431_BearPi/Hardware/Src\hal_qspi_flash.c **** QSPI_HandleTypeDef hqspi;
  78:g:/iot/IoT_Device_Demo/targets/STM32L431_BearPi/Hardware/Src\hal_qspi_flash.c **** 
  79:g:/iot/IoT_Device_Demo/targets/STM32L431_BearPi/Hardware/Src\hal_qspi_flash.c **** /* This function is called by inner-HAL lib */
  80:g:/iot/IoT_Device_Demo/targets/STM32L431_BearPi/Hardware/Src\hal_qspi_flash.c **** void HAL_QSPI_MspInit(QSPI_HandleTypeDef* qspiHandle)
  81:g:/iot/IoT_Device_Demo/targets/STM32L431_BearPi/Hardware/Src\hal_qspi_flash.c **** {
  30              		.loc 1 81 1
  31              		.cfi_startproc
  32              		@ args = 0, pretend = 0, frame = 32
  33              		@ frame_needed = 1, uses_anonymous_args = 0
  34 0000 80B5     		push	{r7, lr}
ARM GAS  C:\Users\ADMINI~1\AppData\Local\Temp\ccULSjfE.s 			page 3


  35              	.LCFI0:
  36              		.cfi_def_cfa_offset 8
  37              		.cfi_offset 7, -8
  38              		.cfi_offset 14, -4
  39 0002 88B0     		sub	sp, sp, #32
  40              	.LCFI1:
  41              		.cfi_def_cfa_offset 40
  42 0004 00AF     		add	r7, sp, #0
  43              	.LCFI2:
  44              		.cfi_def_cfa_register 7
  45 0006 7860     		str	r0, [r7, #4]
  82:g:/iot/IoT_Device_Demo/targets/STM32L431_BearPi/Hardware/Src\hal_qspi_flash.c **** 
  83:g:/iot/IoT_Device_Demo/targets/STM32L431_BearPi/Hardware/Src\hal_qspi_flash.c ****   GPIO_InitTypeDef GPIO_InitStruct;
  84:g:/iot/IoT_Device_Demo/targets/STM32L431_BearPi/Hardware/Src\hal_qspi_flash.c ****   if(qspiHandle->Instance==QUADSPI)
  46              		.loc 1 84 16
  47 0008 7B68     		ldr	r3, [r7, #4]
  48 000a 1B68     		ldr	r3, [r3]
  49              		.loc 1 84 5
  50 000c 114A     		ldr	r2, .L4
  51 000e 9342     		cmp	r3, r2
  52 0010 1CD1     		bne	.L3
  53              	.LBB4:
  85:g:/iot/IoT_Device_Demo/targets/STM32L431_BearPi/Hardware/Src\hal_qspi_flash.c ****   {
  86:g:/iot/IoT_Device_Demo/targets/STM32L431_BearPi/Hardware/Src\hal_qspi_flash.c ****   /* USER CODE BEGIN QUADSPI_MspInit 0 */
  87:g:/iot/IoT_Device_Demo/targets/STM32L431_BearPi/Hardware/Src\hal_qspi_flash.c **** 
  88:g:/iot/IoT_Device_Demo/targets/STM32L431_BearPi/Hardware/Src\hal_qspi_flash.c ****   /* USER CODE END QUADSPI_MspInit 0 */
  89:g:/iot/IoT_Device_Demo/targets/STM32L431_BearPi/Hardware/Src\hal_qspi_flash.c ****     /* QUADSPI clock enable */
  90:g:/iot/IoT_Device_Demo/targets/STM32L431_BearPi/Hardware/Src\hal_qspi_flash.c ****     __HAL_RCC_QSPI_CLK_ENABLE();
  54              		.loc 1 90 5
  55 0012 114B     		ldr	r3, .L4+4
  56 0014 1B6D     		ldr	r3, [r3, #80]
  57 0016 104A     		ldr	r2, .L4+4
  58 0018 43F48073 		orr	r3, r3, #256
  59 001c 1365     		str	r3, [r2, #80]
  60 001e 0E4B     		ldr	r3, .L4+4
  61 0020 1B6D     		ldr	r3, [r3, #80]
  62 0022 03F48073 		and	r3, r3, #256
  63 0026 BB60     		str	r3, [r7, #8]
  64 0028 BB68     		ldr	r3, [r7, #8]
  65              	.LBE4:
  91:g:/iot/IoT_Device_Demo/targets/STM32L431_BearPi/Hardware/Src\hal_qspi_flash.c ****   
  92:g:/iot/IoT_Device_Demo/targets/STM32L431_BearPi/Hardware/Src\hal_qspi_flash.c ****     /**QUADSPI GPIO Configuration    
  93:g:/iot/IoT_Device_Demo/targets/STM32L431_BearPi/Hardware/Src\hal_qspi_flash.c ****     PB0     ------> QUADSPI_BK1_IO1
  94:g:/iot/IoT_Device_Demo/targets/STM32L431_BearPi/Hardware/Src\hal_qspi_flash.c ****     PB1     ------> QUADSPI_BK1_IO0
  95:g:/iot/IoT_Device_Demo/targets/STM32L431_BearPi/Hardware/Src\hal_qspi_flash.c ****     PB10     ------> QUADSPI_CLK
  96:g:/iot/IoT_Device_Demo/targets/STM32L431_BearPi/Hardware/Src\hal_qspi_flash.c ****     PB11     ------> QUADSPI_BK1_NCS 
  97:g:/iot/IoT_Device_Demo/targets/STM32L431_BearPi/Hardware/Src\hal_qspi_flash.c ****     */
  98:g:/iot/IoT_Device_Demo/targets/STM32L431_BearPi/Hardware/Src\hal_qspi_flash.c ****     GPIO_InitStruct.Pin = GPIO_PIN_0|GPIO_PIN_1|GPIO_PIN_10|GPIO_PIN_11;
  66              		.loc 1 98 25
  67 002a 40F60343 		movw	r3, #3075
  68 002e FB60     		str	r3, [r7, #12]
  99:g:/iot/IoT_Device_Demo/targets/STM32L431_BearPi/Hardware/Src\hal_qspi_flash.c ****     GPIO_InitStruct.Mode = GPIO_MODE_AF_PP;
  69              		.loc 1 99 26
  70 0030 0223     		movs	r3, #2
  71 0032 3B61     		str	r3, [r7, #16]
 100:g:/iot/IoT_Device_Demo/targets/STM32L431_BearPi/Hardware/Src\hal_qspi_flash.c ****     GPIO_InitStruct.Pull = GPIO_NOPULL;
  72              		.loc 1 100 26
ARM GAS  C:\Users\ADMINI~1\AppData\Local\Temp\ccULSjfE.s 			page 4


  73 0034 0023     		movs	r3, #0
  74 0036 7B61     		str	r3, [r7, #20]
 101:g:/iot/IoT_Device_Demo/targets/STM32L431_BearPi/Hardware/Src\hal_qspi_flash.c ****     GPIO_InitStruct.Speed = GPIO_SPEED_FREQ_VERY_HIGH;
  75              		.loc 1 101 27
  76 0038 0323     		movs	r3, #3
  77 003a BB61     		str	r3, [r7, #24]
 102:g:/iot/IoT_Device_Demo/targets/STM32L431_BearPi/Hardware/Src\hal_qspi_flash.c ****     GPIO_InitStruct.Alternate = GPIO_AF10_QUADSPI;
  78              		.loc 1 102 31
  79 003c 0A23     		movs	r3, #10
  80 003e FB61     		str	r3, [r7, #28]
 103:g:/iot/IoT_Device_Demo/targets/STM32L431_BearPi/Hardware/Src\hal_qspi_flash.c ****     HAL_GPIO_Init(GPIOB, &GPIO_InitStruct);
  81              		.loc 1 103 5
  82 0040 07F10C03 		add	r3, r7, #12
  83 0044 1946     		mov	r1, r3
  84 0046 0548     		ldr	r0, .L4+8
  85 0048 FFF7FEFF 		bl	HAL_GPIO_Init
  86              	.L3:
 104:g:/iot/IoT_Device_Demo/targets/STM32L431_BearPi/Hardware/Src\hal_qspi_flash.c **** 
 105:g:/iot/IoT_Device_Demo/targets/STM32L431_BearPi/Hardware/Src\hal_qspi_flash.c ****   /* USER CODE BEGIN QUADSPI_MspInit 1 */
 106:g:/iot/IoT_Device_Demo/targets/STM32L431_BearPi/Hardware/Src\hal_qspi_flash.c **** 
 107:g:/iot/IoT_Device_Demo/targets/STM32L431_BearPi/Hardware/Src\hal_qspi_flash.c ****   /* USER CODE END QUADSPI_MspInit 1 */
 108:g:/iot/IoT_Device_Demo/targets/STM32L431_BearPi/Hardware/Src\hal_qspi_flash.c ****   }
 109:g:/iot/IoT_Device_Demo/targets/STM32L431_BearPi/Hardware/Src\hal_qspi_flash.c **** }
  87              		.loc 1 109 1
  88 004c 00BF     		nop
  89 004e 2037     		adds	r7, r7, #32
  90              	.LCFI3:
  91              		.cfi_def_cfa_offset 8
  92 0050 BD46     		mov	sp, r7
  93              	.LCFI4:
  94              		.cfi_def_cfa_register 13
  95              		@ sp needed
  96 0052 80BD     		pop	{r7, pc}
  97              	.L5:
  98              		.align	2
  99              	.L4:
 100 0054 001000A0 		.word	-1610608640
 101 0058 00100240 		.word	1073876992
 102 005c 00040048 		.word	1207960576
 103              		.cfi_endproc
 104              	.LFE287:
 106              		.section	.text.HAL_QSPI_MspDeInit,"ax",%progbits
 107              		.align	1
 108              		.global	HAL_QSPI_MspDeInit
 109              		.syntax unified
 110              		.thumb
 111              		.thumb_func
 112              		.fpu fpv4-sp-d16
 114              	HAL_QSPI_MspDeInit:
 115              	.LFB288:
 110:g:/iot/IoT_Device_Demo/targets/STM32L431_BearPi/Hardware/Src\hal_qspi_flash.c **** 
 111:g:/iot/IoT_Device_Demo/targets/STM32L431_BearPi/Hardware/Src\hal_qspi_flash.c **** /* This function is called by inner-HAL lib */
 112:g:/iot/IoT_Device_Demo/targets/STM32L431_BearPi/Hardware/Src\hal_qspi_flash.c **** void HAL_QSPI_MspDeInit(QSPI_HandleTypeDef* qspiHandle)
 113:g:/iot/IoT_Device_Demo/targets/STM32L431_BearPi/Hardware/Src\hal_qspi_flash.c **** {
 116              		.loc 1 113 1
 117              		.cfi_startproc
 118              		@ args = 0, pretend = 0, frame = 8
ARM GAS  C:\Users\ADMINI~1\AppData\Local\Temp\ccULSjfE.s 			page 5


 119              		@ frame_needed = 1, uses_anonymous_args = 0
 120 0000 80B5     		push	{r7, lr}
 121              	.LCFI5:
 122              		.cfi_def_cfa_offset 8
 123              		.cfi_offset 7, -8
 124              		.cfi_offset 14, -4
 125 0002 82B0     		sub	sp, sp, #8
 126              	.LCFI6:
 127              		.cfi_def_cfa_offset 16
 128 0004 00AF     		add	r7, sp, #0
 129              	.LCFI7:
 130              		.cfi_def_cfa_register 7
 131 0006 7860     		str	r0, [r7, #4]
 114:g:/iot/IoT_Device_Demo/targets/STM32L431_BearPi/Hardware/Src\hal_qspi_flash.c **** 
 115:g:/iot/IoT_Device_Demo/targets/STM32L431_BearPi/Hardware/Src\hal_qspi_flash.c ****   if(qspiHandle->Instance==QUADSPI)
 132              		.loc 1 115 16
 133 0008 7B68     		ldr	r3, [r7, #4]
 134 000a 1B68     		ldr	r3, [r3]
 135              		.loc 1 115 5
 136 000c 084A     		ldr	r2, .L9
 137 000e 9342     		cmp	r3, r2
 138 0010 0AD1     		bne	.L8
 116:g:/iot/IoT_Device_Demo/targets/STM32L431_BearPi/Hardware/Src\hal_qspi_flash.c ****   {
 117:g:/iot/IoT_Device_Demo/targets/STM32L431_BearPi/Hardware/Src\hal_qspi_flash.c ****   /* USER CODE BEGIN QUADSPI_MspDeInit 0 */
 118:g:/iot/IoT_Device_Demo/targets/STM32L431_BearPi/Hardware/Src\hal_qspi_flash.c **** 
 119:g:/iot/IoT_Device_Demo/targets/STM32L431_BearPi/Hardware/Src\hal_qspi_flash.c ****   /* USER CODE END QUADSPI_MspDeInit 0 */
 120:g:/iot/IoT_Device_Demo/targets/STM32L431_BearPi/Hardware/Src\hal_qspi_flash.c ****     /* Peripheral clock disable */
 121:g:/iot/IoT_Device_Demo/targets/STM32L431_BearPi/Hardware/Src\hal_qspi_flash.c ****     __HAL_RCC_QSPI_CLK_DISABLE();
 139              		.loc 1 121 5
 140 0012 084B     		ldr	r3, .L9+4
 141 0014 1B6D     		ldr	r3, [r3, #80]
 142 0016 074A     		ldr	r2, .L9+4
 143 0018 23F48073 		bic	r3, r3, #256
 144 001c 1365     		str	r3, [r2, #80]
 122:g:/iot/IoT_Device_Demo/targets/STM32L431_BearPi/Hardware/Src\hal_qspi_flash.c ****   
 123:g:/iot/IoT_Device_Demo/targets/STM32L431_BearPi/Hardware/Src\hal_qspi_flash.c ****     /**QUADSPI GPIO Configuration    
 124:g:/iot/IoT_Device_Demo/targets/STM32L431_BearPi/Hardware/Src\hal_qspi_flash.c ****     PB0     ------> QUADSPI_BK1_IO1
 125:g:/iot/IoT_Device_Demo/targets/STM32L431_BearPi/Hardware/Src\hal_qspi_flash.c ****     PB1     ------> QUADSPI_BK1_IO0
 126:g:/iot/IoT_Device_Demo/targets/STM32L431_BearPi/Hardware/Src\hal_qspi_flash.c ****     PB10     ------> QUADSPI_CLK
 127:g:/iot/IoT_Device_Demo/targets/STM32L431_BearPi/Hardware/Src\hal_qspi_flash.c ****     PB11     ------> QUADSPI_BK1_NCS 
 128:g:/iot/IoT_Device_Demo/targets/STM32L431_BearPi/Hardware/Src\hal_qspi_flash.c ****     */
 129:g:/iot/IoT_Device_Demo/targets/STM32L431_BearPi/Hardware/Src\hal_qspi_flash.c ****     HAL_GPIO_DeInit(GPIOB, GPIO_PIN_0|GPIO_PIN_1|GPIO_PIN_10|GPIO_PIN_11);
 145              		.loc 1 129 5
 146 001e 40F60341 		movw	r1, #3075
 147 0022 0548     		ldr	r0, .L9+8
 148 0024 FFF7FEFF 		bl	HAL_GPIO_DeInit
 149              	.L8:
 130:g:/iot/IoT_Device_Demo/targets/STM32L431_BearPi/Hardware/Src\hal_qspi_flash.c **** 
 131:g:/iot/IoT_Device_Demo/targets/STM32L431_BearPi/Hardware/Src\hal_qspi_flash.c ****   /* USER CODE BEGIN QUADSPI_MspDeInit 1 */
 132:g:/iot/IoT_Device_Demo/targets/STM32L431_BearPi/Hardware/Src\hal_qspi_flash.c **** 
 133:g:/iot/IoT_Device_Demo/targets/STM32L431_BearPi/Hardware/Src\hal_qspi_flash.c ****   /* USER CODE END QUADSPI_MspDeInit 1 */
 134:g:/iot/IoT_Device_Demo/targets/STM32L431_BearPi/Hardware/Src\hal_qspi_flash.c ****   }
 135:g:/iot/IoT_Device_Demo/targets/STM32L431_BearPi/Hardware/Src\hal_qspi_flash.c **** }
 150              		.loc 1 135 1
 151 0028 00BF     		nop
 152 002a 0837     		adds	r7, r7, #8
 153              	.LCFI8:
ARM GAS  C:\Users\ADMINI~1\AppData\Local\Temp\ccULSjfE.s 			page 6


 154              		.cfi_def_cfa_offset 8
 155 002c BD46     		mov	sp, r7
 156              	.LCFI9:
 157              		.cfi_def_cfa_register 13
 158              		@ sp needed
 159 002e 80BD     		pop	{r7, pc}
 160              	.L10:
 161              		.align	2
 162              	.L9:
 163 0030 001000A0 		.word	-1610608640
 164 0034 00100240 		.word	1073876992
 165 0038 00040048 		.word	1207960576
 166              		.cfi_endproc
 167              	.LFE288:
 169              		.section	.text.QSPI_Send_CMD,"ax",%progbits
 170              		.align	1
 171              		.global	QSPI_Send_CMD
 172              		.syntax unified
 173              		.thumb
 174              		.thumb_func
 175              		.fpu fpv4-sp-d16
 177              	QSPI_Send_CMD:
 178              	.LFB289:
 136:g:/iot/IoT_Device_Demo/targets/STM32L431_BearPi/Hardware/Src\hal_qspi_flash.c **** 
 137:g:/iot/IoT_Device_Demo/targets/STM32L431_BearPi/Hardware/Src\hal_qspi_flash.c **** 
 138:g:/iot/IoT_Device_Demo/targets/STM32L431_BearPi/Hardware/Src\hal_qspi_flash.c **** /**
 139:g:/iot/IoT_Device_Demo/targets/STM32L431_BearPi/Hardware/Src\hal_qspi_flash.c ****  * @brief	QSPI发送命令
 140:g:/iot/IoT_Device_Demo/targets/STM32L431_BearPi/Hardware/Src\hal_qspi_flash.c ****  *
 141:g:/iot/IoT_Device_Demo/targets/STM32L431_BearPi/Hardware/Src\hal_qspi_flash.c ****  * @param   instruction		要发送的指令
 142:g:/iot/IoT_Device_Demo/targets/STM32L431_BearPi/Hardware/Src\hal_qspi_flash.c ****  * @param   address			发送到的目的地址
 143:g:/iot/IoT_Device_Demo/targets/STM32L431_BearPi/Hardware/Src\hal_qspi_flash.c ****  * @param   dummyCycles		空指令周期数
 144:g:/iot/IoT_Device_Demo/targets/STM32L431_BearPi/Hardware/Src\hal_qspi_flash.c ****  * @param   instructionMode	指令模式;QSPI_INSTRUCTION_NONE,QSPI_INSTRUCTION_1_LINE,QSPI_INSTRUCTION
 145:g:/iot/IoT_Device_Demo/targets/STM32L431_BearPi/Hardware/Src\hal_qspi_flash.c ****  * @param   addressMode		地址模式; QSPI_ADDRESS_NONE,QSPI_ADDRESS_1_LINE,QSPI_ADDRESS_2_LINE,QSPI_A
 146:g:/iot/IoT_Device_Demo/targets/STM32L431_BearPi/Hardware/Src\hal_qspi_flash.c ****  * @param   addressSize		地址长度;QSPI_ADDRESS_8_BITS,QSPI_ADDRESS_16_BITS,QSPI_ADDRESS_24_BITS,QSP
 147:g:/iot/IoT_Device_Demo/targets/STM32L431_BearPi/Hardware/Src\hal_qspi_flash.c ****  * @param   dataMode		数据模式; QSPI_DATA_NONE,QSPI_DATA_1_LINE,QSPI_DATA_2_LINE,QSPI_DATA_4_LINE
 148:g:/iot/IoT_Device_Demo/targets/STM32L431_BearPi/Hardware/Src\hal_qspi_flash.c ****  *
 149:g:/iot/IoT_Device_Demo/targets/STM32L431_BearPi/Hardware/Src\hal_qspi_flash.c ****  * @return  void
 150:g:/iot/IoT_Device_Demo/targets/STM32L431_BearPi/Hardware/Src\hal_qspi_flash.c ****  */
 151:g:/iot/IoT_Device_Demo/targets/STM32L431_BearPi/Hardware/Src\hal_qspi_flash.c **** uint32_t QSPI_Send_CMD(uint32_t instruction, uint32_t address, uint32_t dummyCycles, uint32_t instr
 152:g:/iot/IoT_Device_Demo/targets/STM32L431_BearPi/Hardware/Src\hal_qspi_flash.c **** {
 179              		.loc 1 152 1
 180              		.cfi_startproc
 181              		@ args = 12, pretend = 0, frame = 72
 182              		@ frame_needed = 1, uses_anonymous_args = 0
 183 0000 80B5     		push	{r7, lr}
 184              	.LCFI10:
 185              		.cfi_def_cfa_offset 8
 186              		.cfi_offset 7, -8
 187              		.cfi_offset 14, -4
 188 0002 92B0     		sub	sp, sp, #72
 189              	.LCFI11:
 190              		.cfi_def_cfa_offset 80
 191 0004 00AF     		add	r7, sp, #0
 192              	.LCFI12:
 193              		.cfi_def_cfa_register 7
 194 0006 F860     		str	r0, [r7, #12]
 195 0008 B960     		str	r1, [r7, #8]
ARM GAS  C:\Users\ADMINI~1\AppData\Local\Temp\ccULSjfE.s 			page 7


 196 000a 7A60     		str	r2, [r7, #4]
 197 000c 3B60     		str	r3, [r7]
 153:g:/iot/IoT_Device_Demo/targets/STM32L431_BearPi/Hardware/Src\hal_qspi_flash.c ****     QSPI_CommandTypeDef s_command;
 154:g:/iot/IoT_Device_Demo/targets/STM32L431_BearPi/Hardware/Src\hal_qspi_flash.c **** 
 155:g:/iot/IoT_Device_Demo/targets/STM32L431_BearPi/Hardware/Src\hal_qspi_flash.c ****     s_command.Instruction = instruction;                 	//指令
 198              		.loc 1 155 27
 199 000e FB68     		ldr	r3, [r7, #12]
 200 0010 3B61     		str	r3, [r7, #16]
 156:g:/iot/IoT_Device_Demo/targets/STM32L431_BearPi/Hardware/Src\hal_qspi_flash.c ****     s_command.Address = address;                            	//地址
 201              		.loc 1 156 23
 202 0012 BB68     		ldr	r3, [r7, #8]
 203 0014 7B61     		str	r3, [r7, #20]
 157:g:/iot/IoT_Device_Demo/targets/STM32L431_BearPi/Hardware/Src\hal_qspi_flash.c ****     s_command.DummyCycles = dummyCycles;                   //设置空指令周期数
 204              		.loc 1 157 27
 205 0016 7B68     		ldr	r3, [r7, #4]
 206 0018 7B62     		str	r3, [r7, #36]
 158:g:/iot/IoT_Device_Demo/targets/STM32L431_BearPi/Hardware/Src\hal_qspi_flash.c ****     s_command.InstructionMode = instructionMode;				//指令模式
 207              		.loc 1 158 31
 208 001a 3B68     		ldr	r3, [r7]
 209 001c BB62     		str	r3, [r7, #40]
 159:g:/iot/IoT_Device_Demo/targets/STM32L431_BearPi/Hardware/Src\hal_qspi_flash.c ****     s_command.AddressMode = addressMode;   					//地址模式
 210              		.loc 1 159 27
 211 001e 3B6D     		ldr	r3, [r7, #80]
 212 0020 FB62     		str	r3, [r7, #44]
 160:g:/iot/IoT_Device_Demo/targets/STM32L431_BearPi/Hardware/Src\hal_qspi_flash.c ****     s_command.AddressSize = addressSize;   					//地址长度
 213              		.loc 1 160 27
 214 0022 7B6D     		ldr	r3, [r7, #84]
 215 0024 FB61     		str	r3, [r7, #28]
 161:g:/iot/IoT_Device_Demo/targets/STM32L431_BearPi/Hardware/Src\hal_qspi_flash.c ****     s_command.DataMode = dataMode;             				//数据模式
 216              		.loc 1 161 24
 217 0026 BB6D     		ldr	r3, [r7, #88]
 218 0028 7B63     		str	r3, [r7, #52]
 162:g:/iot/IoT_Device_Demo/targets/STM32L431_BearPi/Hardware/Src\hal_qspi_flash.c ****     s_command.SIOOMode = QSPI_SIOO_INST_EVERY_CMD;       	//每次都发送指令
 219              		.loc 1 162 24
 220 002a 0023     		movs	r3, #0
 221 002c 7B64     		str	r3, [r7, #68]
 163:g:/iot/IoT_Device_Demo/targets/STM32L431_BearPi/Hardware/Src\hal_qspi_flash.c ****     s_command.AlternateByteMode = QSPI_ALTERNATE_BYTES_NONE; //无交替字节
 222              		.loc 1 163 33
 223 002e 0023     		movs	r3, #0
 224 0030 3B63     		str	r3, [r7, #48]
 164:g:/iot/IoT_Device_Demo/targets/STM32L431_BearPi/Hardware/Src\hal_qspi_flash.c ****     s_command.DdrMode = QSPI_DDR_MODE_DISABLE;           	//关闭DDR模式
 225              		.loc 1 164 23
 226 0032 0023     		movs	r3, #0
 227 0034 FB63     		str	r3, [r7, #60]
 165:g:/iot/IoT_Device_Demo/targets/STM32L431_BearPi/Hardware/Src\hal_qspi_flash.c ****     s_command.DdrHoldHalfCycle = QSPI_DDR_HHC_ANALOG_DELAY;
 228              		.loc 1 165 32
 229 0036 0023     		movs	r3, #0
 230 0038 3B64     		str	r3, [r7, #64]
 166:g:/iot/IoT_Device_Demo/targets/STM32L431_BearPi/Hardware/Src\hal_qspi_flash.c **** 	
 167:g:/iot/IoT_Device_Demo/targets/STM32L431_BearPi/Hardware/Src\hal_qspi_flash.c ****     return HAL_QSPI_Command(&hqspi, &s_command, 5000);
 231              		.loc 1 167 12
 232 003a 07F11003 		add	r3, r7, #16
 233 003e 41F28832 		movw	r2, #5000
 234 0042 1946     		mov	r1, r3
 235 0044 0348     		ldr	r0, .L13
 236 0046 FFF7FEFF 		bl	HAL_QSPI_Command
 237 004a 0346     		mov	r3, r0
ARM GAS  C:\Users\ADMINI~1\AppData\Local\Temp\ccULSjfE.s 			page 8


 168:g:/iot/IoT_Device_Demo/targets/STM32L431_BearPi/Hardware/Src\hal_qspi_flash.c **** }
 238              		.loc 1 168 1
 239 004c 1846     		mov	r0, r3
 240 004e 4837     		adds	r7, r7, #72
 241              	.LCFI13:
 242              		.cfi_def_cfa_offset 8
 243 0050 BD46     		mov	sp, r7
 244              	.LCFI14:
 245              		.cfi_def_cfa_register 13
 246              		@ sp needed
 247 0052 80BD     		pop	{r7, pc}
 248              	.L14:
 249              		.align	2
 250              	.L13:
 251 0054 00000000 		.word	hqspi
 252              		.cfi_endproc
 253              	.LFE289:
 255              		.section	.text.QSPI_Receive,"ax",%progbits
 256              		.align	1
 257              		.global	QSPI_Receive
 258              		.syntax unified
 259              		.thumb
 260              		.thumb_func
 261              		.fpu fpv4-sp-d16
 263              	QSPI_Receive:
 264              	.LFB290:
 169:g:/iot/IoT_Device_Demo/targets/STM32L431_BearPi/Hardware/Src\hal_qspi_flash.c **** 
 170:g:/iot/IoT_Device_Demo/targets/STM32L431_BearPi/Hardware/Src\hal_qspi_flash.c **** uint8_t QSPI_Receive(const uint8_t * buf, uint32_t datalen)
 171:g:/iot/IoT_Device_Demo/targets/STM32L431_BearPi/Hardware/Src\hal_qspi_flash.c **** {
 265              		.loc 1 171 1
 266              		.cfi_startproc
 267              		@ args = 0, pretend = 0, frame = 8
 268              		@ frame_needed = 1, uses_anonymous_args = 0
 269 0000 80B5     		push	{r7, lr}
 270              	.LCFI15:
 271              		.cfi_def_cfa_offset 8
 272              		.cfi_offset 7, -8
 273              		.cfi_offset 14, -4
 274 0002 82B0     		sub	sp, sp, #8
 275              	.LCFI16:
 276              		.cfi_def_cfa_offset 16
 277 0004 00AF     		add	r7, sp, #0
 278              	.LCFI17:
 279              		.cfi_def_cfa_register 7
 280 0006 7860     		str	r0, [r7, #4]
 281 0008 3960     		str	r1, [r7]
 172:g:/iot/IoT_Device_Demo/targets/STM32L431_BearPi/Hardware/Src\hal_qspi_flash.c ****     hqspi.Instance->DLR = datalen - 1;                       //Configuration data length
 282              		.loc 1 172 10
 283 000a 0A4B     		ldr	r3, .L18
 284 000c 1B68     		ldr	r3, [r3]
 285              		.loc 1 172 35
 286 000e 3A68     		ldr	r2, [r7]
 287 0010 013A     		subs	r2, r2, #1
 288              		.loc 1 172 25
 289 0012 1A61     		str	r2, [r3, #16]
 173:g:/iot/IoT_Device_Demo/targets/STM32L431_BearPi/Hardware/Src\hal_qspi_flash.c ****     if(HAL_QSPI_Receive(&hqspi, (uint8_t * )buf, 5000) == HAL_OK) return 0; //receive data
 290              		.loc 1 173 8
ARM GAS  C:\Users\ADMINI~1\AppData\Local\Temp\ccULSjfE.s 			page 9


 291 0014 41F28832 		movw	r2, #5000
 292 0018 7968     		ldr	r1, [r7, #4]
 293 001a 0648     		ldr	r0, .L18
 294 001c FFF7FEFF 		bl	HAL_QSPI_Receive
 295 0020 0346     		mov	r3, r0
 296              		.loc 1 173 7
 297 0022 002B     		cmp	r3, #0
 298 0024 01D1     		bne	.L16
 299              		.loc 1 173 74 discriminator 1
 300 0026 0023     		movs	r3, #0
 301 0028 00E0     		b	.L17
 302              	.L16:
 174:g:/iot/IoT_Device_Demo/targets/STM32L431_BearPi/Hardware/Src\hal_qspi_flash.c **** 
 175:g:/iot/IoT_Device_Demo/targets/STM32L431_BearPi/Hardware/Src\hal_qspi_flash.c ****     else return 1;
 303              		.loc 1 175 17
 304 002a 0123     		movs	r3, #1
 305              	.L17:
 176:g:/iot/IoT_Device_Demo/targets/STM32L431_BearPi/Hardware/Src\hal_qspi_flash.c **** }
 306              		.loc 1 176 1
 307 002c 1846     		mov	r0, r3
 308 002e 0837     		adds	r7, r7, #8
 309              	.LCFI18:
 310              		.cfi_def_cfa_offset 8
 311 0030 BD46     		mov	sp, r7
 312              	.LCFI19:
 313              		.cfi_def_cfa_register 13
 314              		@ sp needed
 315 0032 80BD     		pop	{r7, pc}
 316              	.L19:
 317              		.align	2
 318              	.L18:
 319 0034 00000000 		.word	hqspi
 320              		.cfi_endproc
 321              	.LFE290:
 323              		.section	.text.QSPI_Transmit,"ax",%progbits
 324              		.align	1
 325              		.global	QSPI_Transmit
 326              		.syntax unified
 327              		.thumb
 328              		.thumb_func
 329              		.fpu fpv4-sp-d16
 331              	QSPI_Transmit:
 332              	.LFB291:
 177:g:/iot/IoT_Device_Demo/targets/STM32L431_BearPi/Hardware/Src\hal_qspi_flash.c **** 
 178:g:/iot/IoT_Device_Demo/targets/STM32L431_BearPi/Hardware/Src\hal_qspi_flash.c **** uint8_t QSPI_Transmit(const int8_t * buf, uint32_t datalen)
 179:g:/iot/IoT_Device_Demo/targets/STM32L431_BearPi/Hardware/Src\hal_qspi_flash.c **** {
 333              		.loc 1 179 1
 334              		.cfi_startproc
 335              		@ args = 0, pretend = 0, frame = 8
 336              		@ frame_needed = 1, uses_anonymous_args = 0
 337 0000 80B5     		push	{r7, lr}
 338              	.LCFI20:
 339              		.cfi_def_cfa_offset 8
 340              		.cfi_offset 7, -8
 341              		.cfi_offset 14, -4
 342 0002 82B0     		sub	sp, sp, #8
 343              	.LCFI21:
ARM GAS  C:\Users\ADMINI~1\AppData\Local\Temp\ccULSjfE.s 			page 10


 344              		.cfi_def_cfa_offset 16
 345 0004 00AF     		add	r7, sp, #0
 346              	.LCFI22:
 347              		.cfi_def_cfa_register 7
 348 0006 7860     		str	r0, [r7, #4]
 349 0008 3960     		str	r1, [r7]
 180:g:/iot/IoT_Device_Demo/targets/STM32L431_BearPi/Hardware/Src\hal_qspi_flash.c ****     hqspi.Instance->DLR = datalen - 1;                        //Configuration data length
 350              		.loc 1 180 10
 351 000a 0A4B     		ldr	r3, .L23
 352 000c 1B68     		ldr	r3, [r3]
 353              		.loc 1 180 35
 354 000e 3A68     		ldr	r2, [r7]
 355 0010 013A     		subs	r2, r2, #1
 356              		.loc 1 180 25
 357 0012 1A61     		str	r2, [r3, #16]
 181:g:/iot/IoT_Device_Demo/targets/STM32L431_BearPi/Hardware/Src\hal_qspi_flash.c ****     if(HAL_QSPI_Transmit(&hqspi, (uint8_t * )buf, 5000) == HAL_OK) return 0; //send data
 358              		.loc 1 181 8
 359 0014 41F28832 		movw	r2, #5000
 360 0018 7968     		ldr	r1, [r7, #4]
 361 001a 0648     		ldr	r0, .L23
 362 001c FFF7FEFF 		bl	HAL_QSPI_Transmit
 363 0020 0346     		mov	r3, r0
 364              		.loc 1 181 7
 365 0022 002B     		cmp	r3, #0
 366 0024 01D1     		bne	.L21
 367              		.loc 1 181 75 discriminator 1
 368 0026 0023     		movs	r3, #0
 369 0028 00E0     		b	.L22
 370              	.L21:
 182:g:/iot/IoT_Device_Demo/targets/STM32L431_BearPi/Hardware/Src\hal_qspi_flash.c **** 
 183:g:/iot/IoT_Device_Demo/targets/STM32L431_BearPi/Hardware/Src\hal_qspi_flash.c ****     else return 1;
 371              		.loc 1 183 17
 372 002a 0123     		movs	r3, #1
 373              	.L22:
 184:g:/iot/IoT_Device_Demo/targets/STM32L431_BearPi/Hardware/Src\hal_qspi_flash.c **** }
 374              		.loc 1 184 1
 375 002c 1846     		mov	r0, r3
 376 002e 0837     		adds	r7, r7, #8
 377              	.LCFI23:
 378              		.cfi_def_cfa_offset 8
 379 0030 BD46     		mov	sp, r7
 380              	.LCFI24:
 381              		.cfi_def_cfa_register 13
 382              		@ sp needed
 383 0032 80BD     		pop	{r7, pc}
 384              	.L24:
 385              		.align	2
 386              	.L23:
 387 0034 00000000 		.word	hqspi
 388              		.cfi_endproc
 389              	.LFE291:
 391              		.section	.text.prv_spi_flash_write_enable,"ax",%progbits
 392              		.align	1
 393              		.syntax unified
 394              		.thumb
 395              		.thumb_func
 396              		.fpu fpv4-sp-d16
ARM GAS  C:\Users\ADMINI~1\AppData\Local\Temp\ccULSjfE.s 			page 11


 398              	prv_spi_flash_write_enable:
 399              	.LFB292:
 185:g:/iot/IoT_Device_Demo/targets/STM32L431_BearPi/Hardware/Src\hal_qspi_flash.c **** 
 186:g:/iot/IoT_Device_Demo/targets/STM32L431_BearPi/Hardware/Src\hal_qspi_flash.c **** static void prv_spi_flash_write_enable(void)
 187:g:/iot/IoT_Device_Demo/targets/STM32L431_BearPi/Hardware/Src\hal_qspi_flash.c **** {
 400              		.loc 1 187 1
 401              		.cfi_startproc
 402              		@ args = 0, pretend = 0, frame = 0
 403              		@ frame_needed = 1, uses_anonymous_args = 0
 404 0000 80B5     		push	{r7, lr}
 405              	.LCFI25:
 406              		.cfi_def_cfa_offset 8
 407              		.cfi_offset 7, -8
 408              		.cfi_offset 14, -4
 409 0002 84B0     		sub	sp, sp, #16
 410              	.LCFI26:
 411              		.cfi_def_cfa_offset 24
 412 0004 04AF     		add	r7, sp, #16
 413              	.LCFI27:
 414              		.cfi_def_cfa 7, 8
 188:g:/iot/IoT_Device_Demo/targets/STM32L431_BearPi/Hardware/Src\hal_qspi_flash.c **** 		QSPI_Send_CMD(QSPI_FLASH_WriteEnable, 0, 0, QSPI_INSTRUCTION_1_LINE, QSPI_ADDRESS_NONE, QSPI_ADDR
 415              		.loc 1 188 3
 416 0006 0023     		movs	r3, #0
 417 0008 0293     		str	r3, [sp, #8]
 418 000a 0023     		movs	r3, #0
 419 000c 0193     		str	r3, [sp, #4]
 420 000e 0023     		movs	r3, #0
 421 0010 0093     		str	r3, [sp]
 422 0012 4FF48073 		mov	r3, #256
 423 0016 0022     		movs	r2, #0
 424 0018 0021     		movs	r1, #0
 425 001a 0620     		movs	r0, #6
 426 001c FFF7FEFF 		bl	QSPI_Send_CMD
 189:g:/iot/IoT_Device_Demo/targets/STM32L431_BearPi/Hardware/Src\hal_qspi_flash.c **** }
 427              		.loc 1 189 1
 428 0020 00BF     		nop
 429 0022 BD46     		mov	sp, r7
 430              	.LCFI28:
 431              		.cfi_def_cfa_register 13
 432              		@ sp needed
 433 0024 80BD     		pop	{r7, pc}
 434              		.cfi_endproc
 435              	.LFE292:
 437              		.section	.text.prv_spi_flash_wait_write_end,"ax",%progbits
 438              		.align	1
 439              		.syntax unified
 440              		.thumb
 441              		.thumb_func
 442              		.fpu fpv4-sp-d16
 444              	prv_spi_flash_wait_write_end:
 445              	.LFB293:
 190:g:/iot/IoT_Device_Demo/targets/STM32L431_BearPi/Hardware/Src\hal_qspi_flash.c **** 
 191:g:/iot/IoT_Device_Demo/targets/STM32L431_BearPi/Hardware/Src\hal_qspi_flash.c **** static void prv_spi_flash_wait_write_end(void)
 192:g:/iot/IoT_Device_Demo/targets/STM32L431_BearPi/Hardware/Src\hal_qspi_flash.c **** {
 446              		.loc 1 192 1
 447              		.cfi_startproc
 448              		@ args = 0, pretend = 0, frame = 8
ARM GAS  C:\Users\ADMINI~1\AppData\Local\Temp\ccULSjfE.s 			page 12


 449              		@ frame_needed = 1, uses_anonymous_args = 0
 450 0000 80B5     		push	{r7, lr}
 451              	.LCFI29:
 452              		.cfi_def_cfa_offset 8
 453              		.cfi_offset 7, -8
 454              		.cfi_offset 14, -4
 455 0002 86B0     		sub	sp, sp, #24
 456              	.LCFI30:
 457              		.cfi_def_cfa_offset 32
 458 0004 04AF     		add	r7, sp, #16
 459              	.LCFI31:
 460              		.cfi_def_cfa 7, 16
 193:g:/iot/IoT_Device_Demo/targets/STM32L431_BearPi/Hardware/Src\hal_qspi_flash.c ****     uint8_t status = 0;
 461              		.loc 1 193 13
 462 0006 0023     		movs	r3, #0
 463 0008 FB71     		strb	r3, [r7, #7]
 464              	.L27:
 194:g:/iot/IoT_Device_Demo/targets/STM32L431_BearPi/Hardware/Src\hal_qspi_flash.c **** 
 195:g:/iot/IoT_Device_Demo/targets/STM32L431_BearPi/Hardware/Src\hal_qspi_flash.c **** 
 196:g:/iot/IoT_Device_Demo/targets/STM32L431_BearPi/Hardware/Src\hal_qspi_flash.c ****     /* Loop as long as the memory is busy with a write cycle */
 197:g:/iot/IoT_Device_Demo/targets/STM32L431_BearPi/Hardware/Src\hal_qspi_flash.c ****     do
 198:g:/iot/IoT_Device_Demo/targets/STM32L431_BearPi/Hardware/Src\hal_qspi_flash.c ****     {
 199:g:/iot/IoT_Device_Demo/targets/STM32L431_BearPi/Hardware/Src\hal_qspi_flash.c ****         /* Send a dummy byte to generate the clock needed by the FLASH
 200:g:/iot/IoT_Device_Demo/targets/STM32L431_BearPi/Hardware/Src\hal_qspi_flash.c ****         and put the value of the status register in status variable */
 201:g:/iot/IoT_Device_Demo/targets/STM32L431_BearPi/Hardware/Src\hal_qspi_flash.c **** 		QSPI_Send_CMD(QSPI_FLASH_ReadStatusReg, 0, 0, QSPI_INSTRUCTION_1_LINE, QSPI_ADDRESS_NONE, QSPI_AD
 465              		.loc 1 201 3 discriminator 1
 466 000a 4FF08073 		mov	r3, #16777216
 467 000e 0293     		str	r3, [sp, #8]
 468 0010 0023     		movs	r3, #0
 469 0012 0193     		str	r3, [sp, #4]
 470 0014 0023     		movs	r3, #0
 471 0016 0093     		str	r3, [sp]
 472 0018 4FF48073 		mov	r3, #256
 473 001c 0022     		movs	r2, #0
 474 001e 0021     		movs	r1, #0
 475 0020 0520     		movs	r0, #5
 476 0022 FFF7FEFF 		bl	QSPI_Send_CMD
 202:g:/iot/IoT_Device_Demo/targets/STM32L431_BearPi/Hardware/Src\hal_qspi_flash.c ****     QSPI_Receive(&status, 1);
 477              		.loc 1 202 5 discriminator 1
 478 0026 FB1D     		adds	r3, r7, #7
 479 0028 0121     		movs	r1, #1
 480 002a 1846     		mov	r0, r3
 481 002c FFF7FEFF 		bl	QSPI_Receive
 203:g:/iot/IoT_Device_Demo/targets/STM32L431_BearPi/Hardware/Src\hal_qspi_flash.c **** 			
 204:g:/iot/IoT_Device_Demo/targets/STM32L431_BearPi/Hardware/Src\hal_qspi_flash.c ****     } while ((status & QSPI_FLASH_WIP_FLAG) == SET); /* Write in progress */
 482              		.loc 1 204 22 discriminator 1
 483 0030 FB79     		ldrb	r3, [r7, #7]	@ zero_extendqisi2
 484 0032 03F00103 		and	r3, r3, #1
 485              		.loc 1 204 5 discriminator 1
 486 0036 002B     		cmp	r3, #0
 487 0038 E7D1     		bne	.L27
 205:g:/iot/IoT_Device_Demo/targets/STM32L431_BearPi/Hardware/Src\hal_qspi_flash.c **** 
 206:g:/iot/IoT_Device_Demo/targets/STM32L431_BearPi/Hardware/Src\hal_qspi_flash.c **** }
 488              		.loc 1 206 1
 489 003a 00BF     		nop
 490 003c 00BF     		nop
 491 003e 0837     		adds	r7, r7, #8
ARM GAS  C:\Users\ADMINI~1\AppData\Local\Temp\ccULSjfE.s 			page 13


 492              	.LCFI32:
 493              		.cfi_def_cfa_offset 8
 494 0040 BD46     		mov	sp, r7
 495              	.LCFI33:
 496              		.cfi_def_cfa_register 13
 497              		@ sp needed
 498 0042 80BD     		pop	{r7, pc}
 499              		.cfi_endproc
 500              	.LFE293:
 502              		.section	.text.prv_spi_flash_write_page,"ax",%progbits
 503              		.align	1
 504              		.syntax unified
 505              		.thumb
 506              		.thumb_func
 507              		.fpu fpv4-sp-d16
 509              	prv_spi_flash_write_page:
 510              	.LFB294:
 207:g:/iot/IoT_Device_Demo/targets/STM32L431_BearPi/Hardware/Src\hal_qspi_flash.c **** 
 208:g:/iot/IoT_Device_Demo/targets/STM32L431_BearPi/Hardware/Src\hal_qspi_flash.c **** static int prv_spi_flash_write_page(const uint8_t* buf, uint32_t addr, int32_t len)
 209:g:/iot/IoT_Device_Demo/targets/STM32L431_BearPi/Hardware/Src\hal_qspi_flash.c **** {
 511              		.loc 1 209 1
 512              		.cfi_startproc
 513              		@ args = 0, pretend = 0, frame = 24
 514              		@ frame_needed = 1, uses_anonymous_args = 0
 515 0000 80B5     		push	{r7, lr}
 516              	.LCFI34:
 517              		.cfi_def_cfa_offset 8
 518              		.cfi_offset 7, -8
 519              		.cfi_offset 14, -4
 520 0002 8AB0     		sub	sp, sp, #40
 521              	.LCFI35:
 522              		.cfi_def_cfa_offset 48
 523 0004 04AF     		add	r7, sp, #16
 524              	.LCFI36:
 525              		.cfi_def_cfa 7, 32
 526 0006 F860     		str	r0, [r7, #12]
 527 0008 B960     		str	r1, [r7, #8]
 528 000a 7A60     		str	r2, [r7, #4]
 210:g:/iot/IoT_Device_Demo/targets/STM32L431_BearPi/Hardware/Src\hal_qspi_flash.c ****     int ret = 0;
 529              		.loc 1 210 9
 530 000c 0023     		movs	r3, #0
 531 000e 7B61     		str	r3, [r7, #20]
 211:g:/iot/IoT_Device_Demo/targets/STM32L431_BearPi/Hardware/Src\hal_qspi_flash.c **** 
 212:g:/iot/IoT_Device_Demo/targets/STM32L431_BearPi/Hardware/Src\hal_qspi_flash.c ****     if(0 == len)
 532              		.loc 1 212 7
 533 0010 7B68     		ldr	r3, [r7, #4]
 534 0012 002B     		cmp	r3, #0
 535 0014 01D1     		bne	.L29
 213:g:/iot/IoT_Device_Demo/targets/STM32L431_BearPi/Hardware/Src\hal_qspi_flash.c ****     {
 214:g:/iot/IoT_Device_Demo/targets/STM32L431_BearPi/Hardware/Src\hal_qspi_flash.c ****         return 0;
 536              		.loc 1 214 16
 537 0016 0023     		movs	r3, #0
 538 0018 19E0     		b	.L30
 539              	.L29:
 215:g:/iot/IoT_Device_Demo/targets/STM32L431_BearPi/Hardware/Src\hal_qspi_flash.c ****     }
 216:g:/iot/IoT_Device_Demo/targets/STM32L431_BearPi/Hardware/Src\hal_qspi_flash.c **** 
 217:g:/iot/IoT_Device_Demo/targets/STM32L431_BearPi/Hardware/Src\hal_qspi_flash.c ****     prv_spi_flash_write_enable();					//Write enable
ARM GAS  C:\Users\ADMINI~1\AppData\Local\Temp\ccULSjfE.s 			page 14


 540              		.loc 1 217 5
 541 001a FFF7FEFF 		bl	prv_spi_flash_write_enable
 218:g:/iot/IoT_Device_Demo/targets/STM32L431_BearPi/Hardware/Src\hal_qspi_flash.c **** 		
 219:g:/iot/IoT_Device_Demo/targets/STM32L431_BearPi/Hardware/Src\hal_qspi_flash.c ****     QSPI_Send_CMD(QSPI_FLASH_PageProgram, addr, 0, QSPI_INSTRUCTION_1_LINE, QSPI_ADDRESS_1_LINE, QS
 542              		.loc 1 219 5
 543 001e 4FF08073 		mov	r3, #16777216
 544 0022 0293     		str	r3, [sp, #8]
 545 0024 4FF40053 		mov	r3, #8192
 546 0028 0193     		str	r3, [sp, #4]
 547 002a 4FF48063 		mov	r3, #1024
 548 002e 0093     		str	r3, [sp]
 549 0030 4FF48073 		mov	r3, #256
 550 0034 0022     		movs	r2, #0
 551 0036 B968     		ldr	r1, [r7, #8]
 552 0038 0220     		movs	r0, #2
 553 003a FFF7FEFF 		bl	QSPI_Send_CMD
 220:g:/iot/IoT_Device_Demo/targets/STM32L431_BearPi/Hardware/Src\hal_qspi_flash.c ****     QSPI_Transmit((const int8_t *)buf, len);
 554              		.loc 1 220 5
 555 003e 7B68     		ldr	r3, [r7, #4]
 556 0040 1946     		mov	r1, r3
 557 0042 F868     		ldr	r0, [r7, #12]
 558 0044 FFF7FEFF 		bl	QSPI_Transmit
 221:g:/iot/IoT_Device_Demo/targets/STM32L431_BearPi/Hardware/Src\hal_qspi_flash.c ****     
 222:g:/iot/IoT_Device_Demo/targets/STM32L431_BearPi/Hardware/Src\hal_qspi_flash.c **** 		prv_spi_flash_wait_write_end();					   //Waiting for Writing to End
 559              		.loc 1 222 3
 560 0048 FFF7FEFF 		bl	prv_spi_flash_wait_write_end
 223:g:/iot/IoT_Device_Demo/targets/STM32L431_BearPi/Hardware/Src\hal_qspi_flash.c ****    
 224:g:/iot/IoT_Device_Demo/targets/STM32L431_BearPi/Hardware/Src\hal_qspi_flash.c **** 		return ret;
 561              		.loc 1 224 10
 562 004c 7B69     		ldr	r3, [r7, #20]
 563              	.L30:
 225:g:/iot/IoT_Device_Demo/targets/STM32L431_BearPi/Hardware/Src\hal_qspi_flash.c **** }
 564              		.loc 1 225 1
 565 004e 1846     		mov	r0, r3
 566 0050 1837     		adds	r7, r7, #24
 567              	.LCFI37:
 568              		.cfi_def_cfa_offset 8
 569 0052 BD46     		mov	sp, r7
 570              	.LCFI38:
 571              		.cfi_def_cfa_register 13
 572              		@ sp needed
 573 0054 80BD     		pop	{r7, pc}
 574              		.cfi_endproc
 575              	.LFE294:
 577              		.section	.text.prv_spi_flash_erase_sector,"ax",%progbits
 578              		.align	1
 579              		.global	prv_spi_flash_erase_sector
 580              		.syntax unified
 581              		.thumb
 582              		.thumb_func
 583              		.fpu fpv4-sp-d16
 585              	prv_spi_flash_erase_sector:
 586              	.LFB295:
 226:g:/iot/IoT_Device_Demo/targets/STM32L431_BearPi/Hardware/Src\hal_qspi_flash.c **** 
 227:g:/iot/IoT_Device_Demo/targets/STM32L431_BearPi/Hardware/Src\hal_qspi_flash.c ****  int prv_spi_flash_erase_sector(uint32_t addr)
 228:g:/iot/IoT_Device_Demo/targets/STM32L431_BearPi/Hardware/Src\hal_qspi_flash.c **** {
 587              		.loc 1 228 1
ARM GAS  C:\Users\ADMINI~1\AppData\Local\Temp\ccULSjfE.s 			page 15


 588              		.cfi_startproc
 589              		@ args = 0, pretend = 0, frame = 16
 590              		@ frame_needed = 1, uses_anonymous_args = 0
 591 0000 80B5     		push	{r7, lr}
 592              	.LCFI39:
 593              		.cfi_def_cfa_offset 8
 594              		.cfi_offset 7, -8
 595              		.cfi_offset 14, -4
 596 0002 88B0     		sub	sp, sp, #32
 597              	.LCFI40:
 598              		.cfi_def_cfa_offset 40
 599 0004 04AF     		add	r7, sp, #16
 600              	.LCFI41:
 601              		.cfi_def_cfa 7, 24
 602 0006 7860     		str	r0, [r7, #4]
 229:g:/iot/IoT_Device_Demo/targets/STM32L431_BearPi/Hardware/Src\hal_qspi_flash.c **** 		//printf("fe:%x\r\n",addr);			//监视flash擦除情况,测试用  
 230:g:/iot/IoT_Device_Demo/targets/STM32L431_BearPi/Hardware/Src\hal_qspi_flash.c **** 		int ret = 0;
 603              		.loc 1 230 7
 604 0008 0023     		movs	r3, #0
 605 000a FB60     		str	r3, [r7, #12]
 231:g:/iot/IoT_Device_Demo/targets/STM32L431_BearPi/Hardware/Src\hal_qspi_flash.c ****     prv_spi_flash_write_enable();                  //Write enable
 606              		.loc 1 231 5
 607 000c FFF7FEFF 		bl	prv_spi_flash_write_enable
 232:g:/iot/IoT_Device_Demo/targets/STM32L431_BearPi/Hardware/Src\hal_qspi_flash.c ****     prv_spi_flash_wait_write_end();
 608              		.loc 1 232 5
 609 0010 FFF7FEFF 		bl	prv_spi_flash_wait_write_end
 233:g:/iot/IoT_Device_Demo/targets/STM32L431_BearPi/Hardware/Src\hal_qspi_flash.c ****     
 234:g:/iot/IoT_Device_Demo/targets/STM32L431_BearPi/Hardware/Src\hal_qspi_flash.c **** 		ret=QSPI_Send_CMD(QSPI_FLASH_SectorErase, addr, 0, QSPI_INSTRUCTION_1_LINE, QSPI_ADDRESS_1_LINE, 
 610              		.loc 1 234 7
 611 0014 0023     		movs	r3, #0
 612 0016 0293     		str	r3, [sp, #8]
 613 0018 4FF40053 		mov	r3, #8192
 614 001c 0193     		str	r3, [sp, #4]
 615 001e 4FF48063 		mov	r3, #1024
 616 0022 0093     		str	r3, [sp]
 617 0024 4FF48073 		mov	r3, #256
 618 0028 0022     		movs	r2, #0
 619 002a 7968     		ldr	r1, [r7, #4]
 620 002c 2020     		movs	r0, #32
 621 002e FFF7FEFF 		bl	QSPI_Send_CMD
 622 0032 0346     		mov	r3, r0
 623              		.loc 1 234 6
 624 0034 FB60     		str	r3, [r7, #12]
 235:g:/iot/IoT_Device_Demo/targets/STM32L431_BearPi/Hardware/Src\hal_qspi_flash.c ****     
 236:g:/iot/IoT_Device_Demo/targets/STM32L431_BearPi/Hardware/Src\hal_qspi_flash.c **** 		prv_spi_flash_wait_write_end();   				    //Waiting for Writing to End
 625              		.loc 1 236 3
 626 0036 FFF7FEFF 		bl	prv_spi_flash_wait_write_end
 237:g:/iot/IoT_Device_Demo/targets/STM32L431_BearPi/Hardware/Src\hal_qspi_flash.c **** 	
 238:g:/iot/IoT_Device_Demo/targets/STM32L431_BearPi/Hardware/Src\hal_qspi_flash.c **** 		return ret;
 627              		.loc 1 238 10
 628 003a FB68     		ldr	r3, [r7, #12]
 239:g:/iot/IoT_Device_Demo/targets/STM32L431_BearPi/Hardware/Src\hal_qspi_flash.c **** }
 629              		.loc 1 239 1
 630 003c 1846     		mov	r0, r3
 631 003e 1037     		adds	r7, r7, #16
 632              	.LCFI42:
 633              		.cfi_def_cfa_offset 8
ARM GAS  C:\Users\ADMINI~1\AppData\Local\Temp\ccULSjfE.s 			page 16


 634 0040 BD46     		mov	sp, r7
 635              	.LCFI43:
 636              		.cfi_def_cfa_register 13
 637              		@ sp needed
 638 0042 80BD     		pop	{r7, pc}
 639              		.cfi_endproc
 640              	.LFE295:
 642              		.section	.rodata
 643              		.align	2
 644              	.LC0:
 645 0000 673A2F69 		.ascii	"g:/iot/IoT_Device_Demo/targets/STM32L431_BearPi/Har"
 645      6F742F49 
 645      6F545F44 
 645      65766963 
 645      655F4465 
 646 0033 64776172 		.ascii	"dware/Src/hal_qspi_flash.c\000"
 646      652F5372 
 646      632F6861 
 646      6C5F7173 
 646      70695F66 
 647              		.section	.text.hal_spi_flash_config,"ax",%progbits
 648              		.align	1
 649              		.global	hal_spi_flash_config
 650              		.syntax unified
 651              		.thumb
 652              		.thumb_func
 653              		.fpu fpv4-sp-d16
 655              	hal_spi_flash_config:
 656              	.LFB296:
 240:g:/iot/IoT_Device_Demo/targets/STM32L431_BearPi/Hardware/Src\hal_qspi_flash.c **** 
 241:g:/iot/IoT_Device_Demo/targets/STM32L431_BearPi/Hardware/Src\hal_qspi_flash.c **** void hal_spi_flash_config(void)
 242:g:/iot/IoT_Device_Demo/targets/STM32L431_BearPi/Hardware/Src\hal_qspi_flash.c **** {
 657              		.loc 1 242 1
 658              		.cfi_startproc
 659              		@ args = 0, pretend = 0, frame = 8
 660              		@ frame_needed = 1, uses_anonymous_args = 0
 661 0000 80B5     		push	{r7, lr}
 662              	.LCFI44:
 663              		.cfi_def_cfa_offset 8
 664              		.cfi_offset 7, -8
 665              		.cfi_offset 14, -4
 666 0002 82B0     		sub	sp, sp, #8
 667              	.LCFI45:
 668              		.cfi_def_cfa_offset 16
 669 0004 00AF     		add	r7, sp, #0
 670              	.LCFI46:
 671              		.cfi_def_cfa_register 7
 243:g:/iot/IoT_Device_Demo/targets/STM32L431_BearPi/Hardware/Src\hal_qspi_flash.c ****   hqspi.Instance = QUADSPI;
 672              		.loc 1 243 18
 673 0006 1A4B     		ldr	r3, .L37
 674 0008 1A4A     		ldr	r2, .L37+4
 675 000a 1A60     		str	r2, [r3]
 244:g:/iot/IoT_Device_Demo/targets/STM32L431_BearPi/Hardware/Src\hal_qspi_flash.c ****   hqspi.Init.ClockPrescaler = 0;
 676              		.loc 1 244 29
 677 000c 184B     		ldr	r3, .L37
 678 000e 0022     		movs	r2, #0
 679 0010 5A60     		str	r2, [r3, #4]
ARM GAS  C:\Users\ADMINI~1\AppData\Local\Temp\ccULSjfE.s 			page 17


 245:g:/iot/IoT_Device_Demo/targets/STM32L431_BearPi/Hardware/Src\hal_qspi_flash.c ****   hqspi.Init.FifoThreshold = 4;
 680              		.loc 1 245 28
 681 0012 174B     		ldr	r3, .L37
 682 0014 0422     		movs	r2, #4
 683 0016 9A60     		str	r2, [r3, #8]
 246:g:/iot/IoT_Device_Demo/targets/STM32L431_BearPi/Hardware/Src\hal_qspi_flash.c ****   hqspi.Init.SampleShifting = QSPI_SAMPLE_SHIFTING_HALFCYCLE;
 684              		.loc 1 246 29
 685 0018 154B     		ldr	r3, .L37
 686 001a 1022     		movs	r2, #16
 687 001c DA60     		str	r2, [r3, #12]
 688 001e 4FF08073 		mov	r3, #16777216
 689 0022 7B60     		str	r3, [r7, #4]
 690              	.LBB5:
 691              	.LBB6:
 692              		.file 2 "g:/iot/IoT_Device_Demo/iot_link/os/liteos/arch/arm/common/cmsis/cmsis_gcc.h"
   1:g:/iot/IoT_Device_Demo/iot_link/os/liteos/arch/arm/common/cmsis\cmsis_gcc.h **** /**************************************************************************//**
   2:g:/iot/IoT_Device_Demo/iot_link/os/liteos/arch/arm/common/cmsis\cmsis_gcc.h ****  * @file     cmsis_gcc.h
   3:g:/iot/IoT_Device_Demo/iot_link/os/liteos/arch/arm/common/cmsis\cmsis_gcc.h ****  * @brief    CMSIS compiler GCC header file
   4:g:/iot/IoT_Device_Demo/iot_link/os/liteos/arch/arm/common/cmsis\cmsis_gcc.h ****  * @version  V5.0.1
   5:g:/iot/IoT_Device_Demo/iot_link/os/liteos/arch/arm/common/cmsis\cmsis_gcc.h ****  * @date     02. February 2017
   6:g:/iot/IoT_Device_Demo/iot_link/os/liteos/arch/arm/common/cmsis\cmsis_gcc.h ****  ******************************************************************************/
   7:g:/iot/IoT_Device_Demo/iot_link/os/liteos/arch/arm/common/cmsis\cmsis_gcc.h **** /*
   8:g:/iot/IoT_Device_Demo/iot_link/os/liteos/arch/arm/common/cmsis\cmsis_gcc.h ****  * Copyright (c) 2009-2017 ARM Limited. All rights reserved.
   9:g:/iot/IoT_Device_Demo/iot_link/os/liteos/arch/arm/common/cmsis\cmsis_gcc.h ****  *
  10:g:/iot/IoT_Device_Demo/iot_link/os/liteos/arch/arm/common/cmsis\cmsis_gcc.h ****  * SPDX-License-Identifier: Apache-2.0
  11:g:/iot/IoT_Device_Demo/iot_link/os/liteos/arch/arm/common/cmsis\cmsis_gcc.h ****  *
  12:g:/iot/IoT_Device_Demo/iot_link/os/liteos/arch/arm/common/cmsis\cmsis_gcc.h ****  * Licensed under the Apache License, Version 2.0 (the License); you may
  13:g:/iot/IoT_Device_Demo/iot_link/os/liteos/arch/arm/common/cmsis\cmsis_gcc.h ****  * not use this file except in compliance with the License.
  14:g:/iot/IoT_Device_Demo/iot_link/os/liteos/arch/arm/common/cmsis\cmsis_gcc.h ****  * You may obtain a copy of the License at
  15:g:/iot/IoT_Device_Demo/iot_link/os/liteos/arch/arm/common/cmsis\cmsis_gcc.h ****  *
  16:g:/iot/IoT_Device_Demo/iot_link/os/liteos/arch/arm/common/cmsis\cmsis_gcc.h ****  * www.apache.org/licenses/LICENSE-2.0
  17:g:/iot/IoT_Device_Demo/iot_link/os/liteos/arch/arm/common/cmsis\cmsis_gcc.h ****  *
  18:g:/iot/IoT_Device_Demo/iot_link/os/liteos/arch/arm/common/cmsis\cmsis_gcc.h ****  * Unless required by applicable law or agreed to in writing, software
  19:g:/iot/IoT_Device_Demo/iot_link/os/liteos/arch/arm/common/cmsis\cmsis_gcc.h ****  * distributed under the License is distributed on an AS IS BASIS, WITHOUT
  20:g:/iot/IoT_Device_Demo/iot_link/os/liteos/arch/arm/common/cmsis\cmsis_gcc.h ****  * WARRANTIES OR CONDITIONS OF ANY KIND, either express or implied.
  21:g:/iot/IoT_Device_Demo/iot_link/os/liteos/arch/arm/common/cmsis\cmsis_gcc.h ****  * See the License for the specific language governing permissions and
  22:g:/iot/IoT_Device_Demo/iot_link/os/liteos/arch/arm/common/cmsis\cmsis_gcc.h ****  * limitations under the License.
  23:g:/iot/IoT_Device_Demo/iot_link/os/liteos/arch/arm/common/cmsis\cmsis_gcc.h ****  */
  24:g:/iot/IoT_Device_Demo/iot_link/os/liteos/arch/arm/common/cmsis\cmsis_gcc.h **** 
  25:g:/iot/IoT_Device_Demo/iot_link/os/liteos/arch/arm/common/cmsis\cmsis_gcc.h **** #ifndef __CMSIS_GCC_H
  26:g:/iot/IoT_Device_Demo/iot_link/os/liteos/arch/arm/common/cmsis\cmsis_gcc.h **** #define __CMSIS_GCC_H
  27:g:/iot/IoT_Device_Demo/iot_link/os/liteos/arch/arm/common/cmsis\cmsis_gcc.h **** 
  28:g:/iot/IoT_Device_Demo/iot_link/os/liteos/arch/arm/common/cmsis\cmsis_gcc.h **** /* ignore some GCC warnings */
  29:g:/iot/IoT_Device_Demo/iot_link/os/liteos/arch/arm/common/cmsis\cmsis_gcc.h **** #pragma GCC diagnostic push
  30:g:/iot/IoT_Device_Demo/iot_link/os/liteos/arch/arm/common/cmsis\cmsis_gcc.h **** #pragma GCC diagnostic ignored "-Wsign-conversion"
  31:g:/iot/IoT_Device_Demo/iot_link/os/liteos/arch/arm/common/cmsis\cmsis_gcc.h **** #pragma GCC diagnostic ignored "-Wconversion"
  32:g:/iot/IoT_Device_Demo/iot_link/os/liteos/arch/arm/common/cmsis\cmsis_gcc.h **** #pragma GCC diagnostic ignored "-Wunused-parameter"
  33:g:/iot/IoT_Device_Demo/iot_link/os/liteos/arch/arm/common/cmsis\cmsis_gcc.h **** 
  34:g:/iot/IoT_Device_Demo/iot_link/os/liteos/arch/arm/common/cmsis\cmsis_gcc.h **** /* CMSIS compiler specific defines */
  35:g:/iot/IoT_Device_Demo/iot_link/os/liteos/arch/arm/common/cmsis\cmsis_gcc.h **** #ifndef   __ASM
  36:g:/iot/IoT_Device_Demo/iot_link/os/liteos/arch/arm/common/cmsis\cmsis_gcc.h ****   #define __ASM                     __asm
  37:g:/iot/IoT_Device_Demo/iot_link/os/liteos/arch/arm/common/cmsis\cmsis_gcc.h **** #endif
  38:g:/iot/IoT_Device_Demo/iot_link/os/liteos/arch/arm/common/cmsis\cmsis_gcc.h **** #ifndef   __INLINE
  39:g:/iot/IoT_Device_Demo/iot_link/os/liteos/arch/arm/common/cmsis\cmsis_gcc.h ****   #define __INLINE                  inline
  40:g:/iot/IoT_Device_Demo/iot_link/os/liteos/arch/arm/common/cmsis\cmsis_gcc.h **** #endif
  41:g:/iot/IoT_Device_Demo/iot_link/os/liteos/arch/arm/common/cmsis\cmsis_gcc.h **** #ifndef   __STATIC_INLINE
  42:g:/iot/IoT_Device_Demo/iot_link/os/liteos/arch/arm/common/cmsis\cmsis_gcc.h ****   #define __STATIC_INLINE           static inline
ARM GAS  C:\Users\ADMINI~1\AppData\Local\Temp\ccULSjfE.s 			page 18


  43:g:/iot/IoT_Device_Demo/iot_link/os/liteos/arch/arm/common/cmsis\cmsis_gcc.h **** #endif
  44:g:/iot/IoT_Device_Demo/iot_link/os/liteos/arch/arm/common/cmsis\cmsis_gcc.h **** #ifndef   __NO_RETURN
  45:g:/iot/IoT_Device_Demo/iot_link/os/liteos/arch/arm/common/cmsis\cmsis_gcc.h ****   #define __NO_RETURN               __attribute__((noreturn))
  46:g:/iot/IoT_Device_Demo/iot_link/os/liteos/arch/arm/common/cmsis\cmsis_gcc.h **** #endif
  47:g:/iot/IoT_Device_Demo/iot_link/os/liteos/arch/arm/common/cmsis\cmsis_gcc.h **** #ifndef   __USED
  48:g:/iot/IoT_Device_Demo/iot_link/os/liteos/arch/arm/common/cmsis\cmsis_gcc.h ****   #define __USED                    __attribute__((used))
  49:g:/iot/IoT_Device_Demo/iot_link/os/liteos/arch/arm/common/cmsis\cmsis_gcc.h **** #endif
  50:g:/iot/IoT_Device_Demo/iot_link/os/liteos/arch/arm/common/cmsis\cmsis_gcc.h **** #ifndef   __WEAK
  51:g:/iot/IoT_Device_Demo/iot_link/os/liteos/arch/arm/common/cmsis\cmsis_gcc.h ****   #define __WEAK                    __attribute__((weak))
  52:g:/iot/IoT_Device_Demo/iot_link/os/liteos/arch/arm/common/cmsis\cmsis_gcc.h **** #endif
  53:g:/iot/IoT_Device_Demo/iot_link/os/liteos/arch/arm/common/cmsis\cmsis_gcc.h **** #ifndef   __UNALIGNED_UINT32
  54:g:/iot/IoT_Device_Demo/iot_link/os/liteos/arch/arm/common/cmsis\cmsis_gcc.h **** #pragma GCC diagnostic push
  55:g:/iot/IoT_Device_Demo/iot_link/os/liteos/arch/arm/common/cmsis\cmsis_gcc.h **** #pragma GCC diagnostic ignored "-Wpacked"
  56:g:/iot/IoT_Device_Demo/iot_link/os/liteos/arch/arm/common/cmsis\cmsis_gcc.h **** #pragma GCC diagnostic ignored "-Wattributes"
  57:g:/iot/IoT_Device_Demo/iot_link/os/liteos/arch/arm/common/cmsis\cmsis_gcc.h ****   struct __attribute__((packed)) T_UINT32 { uint32_t v; };
  58:g:/iot/IoT_Device_Demo/iot_link/os/liteos/arch/arm/common/cmsis\cmsis_gcc.h **** #pragma GCC diagnostic pop
  59:g:/iot/IoT_Device_Demo/iot_link/os/liteos/arch/arm/common/cmsis\cmsis_gcc.h ****   #define __UNALIGNED_UINT32(x)     (((struct T_UINT32 *)(x))->v)
  60:g:/iot/IoT_Device_Demo/iot_link/os/liteos/arch/arm/common/cmsis\cmsis_gcc.h **** #endif
  61:g:/iot/IoT_Device_Demo/iot_link/os/liteos/arch/arm/common/cmsis\cmsis_gcc.h **** #ifndef   __ALIGNED
  62:g:/iot/IoT_Device_Demo/iot_link/os/liteos/arch/arm/common/cmsis\cmsis_gcc.h ****   #define __ALIGNED(x)              __attribute__((aligned(x)))
  63:g:/iot/IoT_Device_Demo/iot_link/os/liteos/arch/arm/common/cmsis\cmsis_gcc.h **** #endif
  64:g:/iot/IoT_Device_Demo/iot_link/os/liteos/arch/arm/common/cmsis\cmsis_gcc.h **** #ifndef   __PACKED
  65:g:/iot/IoT_Device_Demo/iot_link/os/liteos/arch/arm/common/cmsis\cmsis_gcc.h ****   #define __PACKED                  __attribute__((packed, aligned(1)))
  66:g:/iot/IoT_Device_Demo/iot_link/os/liteos/arch/arm/common/cmsis\cmsis_gcc.h **** #endif
  67:g:/iot/IoT_Device_Demo/iot_link/os/liteos/arch/arm/common/cmsis\cmsis_gcc.h **** #ifndef   __PACKED_STRUCT
  68:g:/iot/IoT_Device_Demo/iot_link/os/liteos/arch/arm/common/cmsis\cmsis_gcc.h ****   #define __PACKED_STRUCT           struct __attribute__((packed, aligned(1)))
  69:g:/iot/IoT_Device_Demo/iot_link/os/liteos/arch/arm/common/cmsis\cmsis_gcc.h **** #endif
  70:g:/iot/IoT_Device_Demo/iot_link/os/liteos/arch/arm/common/cmsis\cmsis_gcc.h **** 
  71:g:/iot/IoT_Device_Demo/iot_link/os/liteos/arch/arm/common/cmsis\cmsis_gcc.h **** 
  72:g:/iot/IoT_Device_Demo/iot_link/os/liteos/arch/arm/common/cmsis\cmsis_gcc.h **** /* ###########################  Core Function Access  ########################### */
  73:g:/iot/IoT_Device_Demo/iot_link/os/liteos/arch/arm/common/cmsis\cmsis_gcc.h **** /** \ingroup  CMSIS_Core_FunctionInterface
  74:g:/iot/IoT_Device_Demo/iot_link/os/liteos/arch/arm/common/cmsis\cmsis_gcc.h ****     \defgroup CMSIS_Core_RegAccFunctions CMSIS Core Register Access Functions
  75:g:/iot/IoT_Device_Demo/iot_link/os/liteos/arch/arm/common/cmsis\cmsis_gcc.h ****   @{
  76:g:/iot/IoT_Device_Demo/iot_link/os/liteos/arch/arm/common/cmsis\cmsis_gcc.h ****  */
  77:g:/iot/IoT_Device_Demo/iot_link/os/liteos/arch/arm/common/cmsis\cmsis_gcc.h **** 
  78:g:/iot/IoT_Device_Demo/iot_link/os/liteos/arch/arm/common/cmsis\cmsis_gcc.h **** /**
  79:g:/iot/IoT_Device_Demo/iot_link/os/liteos/arch/arm/common/cmsis\cmsis_gcc.h ****   \brief   Enable IRQ Interrupts
  80:g:/iot/IoT_Device_Demo/iot_link/os/liteos/arch/arm/common/cmsis\cmsis_gcc.h ****   \details Enables IRQ interrupts by clearing the I-bit in the CPSR.
  81:g:/iot/IoT_Device_Demo/iot_link/os/liteos/arch/arm/common/cmsis\cmsis_gcc.h ****            Can only be executed in Privileged modes.
  82:g:/iot/IoT_Device_Demo/iot_link/os/liteos/arch/arm/common/cmsis\cmsis_gcc.h ****  */
  83:g:/iot/IoT_Device_Demo/iot_link/os/liteos/arch/arm/common/cmsis\cmsis_gcc.h **** __attribute__((always_inline)) __STATIC_INLINE void __enable_irq(void)
  84:g:/iot/IoT_Device_Demo/iot_link/os/liteos/arch/arm/common/cmsis\cmsis_gcc.h **** {
  85:g:/iot/IoT_Device_Demo/iot_link/os/liteos/arch/arm/common/cmsis\cmsis_gcc.h ****   __ASM volatile ("cpsie i" : : : "memory");
  86:g:/iot/IoT_Device_Demo/iot_link/os/liteos/arch/arm/common/cmsis\cmsis_gcc.h **** }
  87:g:/iot/IoT_Device_Demo/iot_link/os/liteos/arch/arm/common/cmsis\cmsis_gcc.h **** 
  88:g:/iot/IoT_Device_Demo/iot_link/os/liteos/arch/arm/common/cmsis\cmsis_gcc.h **** 
  89:g:/iot/IoT_Device_Demo/iot_link/os/liteos/arch/arm/common/cmsis\cmsis_gcc.h **** /**
  90:g:/iot/IoT_Device_Demo/iot_link/os/liteos/arch/arm/common/cmsis\cmsis_gcc.h ****   \brief   Disable IRQ Interrupts
  91:g:/iot/IoT_Device_Demo/iot_link/os/liteos/arch/arm/common/cmsis\cmsis_gcc.h ****   \details Disables IRQ interrupts by setting the I-bit in the CPSR.
  92:g:/iot/IoT_Device_Demo/iot_link/os/liteos/arch/arm/common/cmsis\cmsis_gcc.h ****            Can only be executed in Privileged modes.
  93:g:/iot/IoT_Device_Demo/iot_link/os/liteos/arch/arm/common/cmsis\cmsis_gcc.h ****  */
  94:g:/iot/IoT_Device_Demo/iot_link/os/liteos/arch/arm/common/cmsis\cmsis_gcc.h **** __attribute__((always_inline)) __STATIC_INLINE void __disable_irq(void)
  95:g:/iot/IoT_Device_Demo/iot_link/os/liteos/arch/arm/common/cmsis\cmsis_gcc.h **** {
  96:g:/iot/IoT_Device_Demo/iot_link/os/liteos/arch/arm/common/cmsis\cmsis_gcc.h ****   __ASM volatile ("cpsid i" : : : "memory");
  97:g:/iot/IoT_Device_Demo/iot_link/os/liteos/arch/arm/common/cmsis\cmsis_gcc.h **** }
  98:g:/iot/IoT_Device_Demo/iot_link/os/liteos/arch/arm/common/cmsis\cmsis_gcc.h **** 
  99:g:/iot/IoT_Device_Demo/iot_link/os/liteos/arch/arm/common/cmsis\cmsis_gcc.h **** 
ARM GAS  C:\Users\ADMINI~1\AppData\Local\Temp\ccULSjfE.s 			page 19


 100:g:/iot/IoT_Device_Demo/iot_link/os/liteos/arch/arm/common/cmsis\cmsis_gcc.h **** /**
 101:g:/iot/IoT_Device_Demo/iot_link/os/liteos/arch/arm/common/cmsis\cmsis_gcc.h ****   \brief   Get Control Register
 102:g:/iot/IoT_Device_Demo/iot_link/os/liteos/arch/arm/common/cmsis\cmsis_gcc.h ****   \details Returns the content of the Control Register.
 103:g:/iot/IoT_Device_Demo/iot_link/os/liteos/arch/arm/common/cmsis\cmsis_gcc.h ****   \return               Control Register value
 104:g:/iot/IoT_Device_Demo/iot_link/os/liteos/arch/arm/common/cmsis\cmsis_gcc.h ****  */
 105:g:/iot/IoT_Device_Demo/iot_link/os/liteos/arch/arm/common/cmsis\cmsis_gcc.h **** __attribute__((always_inline)) __STATIC_INLINE uint32_t __get_CONTROL(void)
 106:g:/iot/IoT_Device_Demo/iot_link/os/liteos/arch/arm/common/cmsis\cmsis_gcc.h **** {
 107:g:/iot/IoT_Device_Demo/iot_link/os/liteos/arch/arm/common/cmsis\cmsis_gcc.h ****   uint32_t result;
 108:g:/iot/IoT_Device_Demo/iot_link/os/liteos/arch/arm/common/cmsis\cmsis_gcc.h **** 
 109:g:/iot/IoT_Device_Demo/iot_link/os/liteos/arch/arm/common/cmsis\cmsis_gcc.h ****   __ASM volatile ("MRS %0, control" : "=r" (result) );
 110:g:/iot/IoT_Device_Demo/iot_link/os/liteos/arch/arm/common/cmsis\cmsis_gcc.h ****   return(result);
 111:g:/iot/IoT_Device_Demo/iot_link/os/liteos/arch/arm/common/cmsis\cmsis_gcc.h **** }
 112:g:/iot/IoT_Device_Demo/iot_link/os/liteos/arch/arm/common/cmsis\cmsis_gcc.h **** 
 113:g:/iot/IoT_Device_Demo/iot_link/os/liteos/arch/arm/common/cmsis\cmsis_gcc.h **** 
 114:g:/iot/IoT_Device_Demo/iot_link/os/liteos/arch/arm/common/cmsis\cmsis_gcc.h **** #if (defined (__ARM_FEATURE_CMSE ) && (__ARM_FEATURE_CMSE == 3))
 115:g:/iot/IoT_Device_Demo/iot_link/os/liteos/arch/arm/common/cmsis\cmsis_gcc.h **** /**
 116:g:/iot/IoT_Device_Demo/iot_link/os/liteos/arch/arm/common/cmsis\cmsis_gcc.h ****   \brief   Get Control Register (non-secure)
 117:g:/iot/IoT_Device_Demo/iot_link/os/liteos/arch/arm/common/cmsis\cmsis_gcc.h ****   \details Returns the content of the non-secure Control Register when in secure mode.
 118:g:/iot/IoT_Device_Demo/iot_link/os/liteos/arch/arm/common/cmsis\cmsis_gcc.h ****   \return               non-secure Control Register value
 119:g:/iot/IoT_Device_Demo/iot_link/os/liteos/arch/arm/common/cmsis\cmsis_gcc.h ****  */
 120:g:/iot/IoT_Device_Demo/iot_link/os/liteos/arch/arm/common/cmsis\cmsis_gcc.h **** __attribute__((always_inline)) __STATIC_INLINE uint32_t __TZ_get_CONTROL_NS(void)
 121:g:/iot/IoT_Device_Demo/iot_link/os/liteos/arch/arm/common/cmsis\cmsis_gcc.h **** {
 122:g:/iot/IoT_Device_Demo/iot_link/os/liteos/arch/arm/common/cmsis\cmsis_gcc.h ****   uint32_t result;
 123:g:/iot/IoT_Device_Demo/iot_link/os/liteos/arch/arm/common/cmsis\cmsis_gcc.h **** 
 124:g:/iot/IoT_Device_Demo/iot_link/os/liteos/arch/arm/common/cmsis\cmsis_gcc.h ****   __ASM volatile ("MRS %0, control_ns" : "=r" (result) );
 125:g:/iot/IoT_Device_Demo/iot_link/os/liteos/arch/arm/common/cmsis\cmsis_gcc.h ****   return(result);
 126:g:/iot/IoT_Device_Demo/iot_link/os/liteos/arch/arm/common/cmsis\cmsis_gcc.h **** }
 127:g:/iot/IoT_Device_Demo/iot_link/os/liteos/arch/arm/common/cmsis\cmsis_gcc.h **** #endif
 128:g:/iot/IoT_Device_Demo/iot_link/os/liteos/arch/arm/common/cmsis\cmsis_gcc.h **** 
 129:g:/iot/IoT_Device_Demo/iot_link/os/liteos/arch/arm/common/cmsis\cmsis_gcc.h **** 
 130:g:/iot/IoT_Device_Demo/iot_link/os/liteos/arch/arm/common/cmsis\cmsis_gcc.h **** /**
 131:g:/iot/IoT_Device_Demo/iot_link/os/liteos/arch/arm/common/cmsis\cmsis_gcc.h ****   \brief   Set Control Register
 132:g:/iot/IoT_Device_Demo/iot_link/os/liteos/arch/arm/common/cmsis\cmsis_gcc.h ****   \details Writes the given value to the Control Register.
 133:g:/iot/IoT_Device_Demo/iot_link/os/liteos/arch/arm/common/cmsis\cmsis_gcc.h ****   \param [in]    control  Control Register value to set
 134:g:/iot/IoT_Device_Demo/iot_link/os/liteos/arch/arm/common/cmsis\cmsis_gcc.h ****  */
 135:g:/iot/IoT_Device_Demo/iot_link/os/liteos/arch/arm/common/cmsis\cmsis_gcc.h **** __attribute__((always_inline)) __STATIC_INLINE void __set_CONTROL(uint32_t control)
 136:g:/iot/IoT_Device_Demo/iot_link/os/liteos/arch/arm/common/cmsis\cmsis_gcc.h **** {
 137:g:/iot/IoT_Device_Demo/iot_link/os/liteos/arch/arm/common/cmsis\cmsis_gcc.h ****   __ASM volatile ("MSR control, %0" : : "r" (control) : "memory");
 138:g:/iot/IoT_Device_Demo/iot_link/os/liteos/arch/arm/common/cmsis\cmsis_gcc.h **** }
 139:g:/iot/IoT_Device_Demo/iot_link/os/liteos/arch/arm/common/cmsis\cmsis_gcc.h **** 
 140:g:/iot/IoT_Device_Demo/iot_link/os/liteos/arch/arm/common/cmsis\cmsis_gcc.h **** 
 141:g:/iot/IoT_Device_Demo/iot_link/os/liteos/arch/arm/common/cmsis\cmsis_gcc.h **** #if (defined (__ARM_FEATURE_CMSE ) && (__ARM_FEATURE_CMSE == 3))
 142:g:/iot/IoT_Device_Demo/iot_link/os/liteos/arch/arm/common/cmsis\cmsis_gcc.h **** /**
 143:g:/iot/IoT_Device_Demo/iot_link/os/liteos/arch/arm/common/cmsis\cmsis_gcc.h ****   \brief   Set Control Register (non-secure)
 144:g:/iot/IoT_Device_Demo/iot_link/os/liteos/arch/arm/common/cmsis\cmsis_gcc.h ****   \details Writes the given value to the non-secure Control Register when in secure state.
 145:g:/iot/IoT_Device_Demo/iot_link/os/liteos/arch/arm/common/cmsis\cmsis_gcc.h ****   \param [in]    control  Control Register value to set
 146:g:/iot/IoT_Device_Demo/iot_link/os/liteos/arch/arm/common/cmsis\cmsis_gcc.h ****  */
 147:g:/iot/IoT_Device_Demo/iot_link/os/liteos/arch/arm/common/cmsis\cmsis_gcc.h **** __attribute__((always_inline)) __STATIC_INLINE void __TZ_set_CONTROL_NS(uint32_t control)
 148:g:/iot/IoT_Device_Demo/iot_link/os/liteos/arch/arm/common/cmsis\cmsis_gcc.h **** {
 149:g:/iot/IoT_Device_Demo/iot_link/os/liteos/arch/arm/common/cmsis\cmsis_gcc.h ****   __ASM volatile ("MSR control_ns, %0" : : "r" (control) : "memory");
 150:g:/iot/IoT_Device_Demo/iot_link/os/liteos/arch/arm/common/cmsis\cmsis_gcc.h **** }
 151:g:/iot/IoT_Device_Demo/iot_link/os/liteos/arch/arm/common/cmsis\cmsis_gcc.h **** #endif
 152:g:/iot/IoT_Device_Demo/iot_link/os/liteos/arch/arm/common/cmsis\cmsis_gcc.h **** 
 153:g:/iot/IoT_Device_Demo/iot_link/os/liteos/arch/arm/common/cmsis\cmsis_gcc.h **** 
 154:g:/iot/IoT_Device_Demo/iot_link/os/liteos/arch/arm/common/cmsis\cmsis_gcc.h **** /**
 155:g:/iot/IoT_Device_Demo/iot_link/os/liteos/arch/arm/common/cmsis\cmsis_gcc.h ****   \brief   Get IPSR Register
 156:g:/iot/IoT_Device_Demo/iot_link/os/liteos/arch/arm/common/cmsis\cmsis_gcc.h ****   \details Returns the content of the IPSR Register.
ARM GAS  C:\Users\ADMINI~1\AppData\Local\Temp\ccULSjfE.s 			page 20


 157:g:/iot/IoT_Device_Demo/iot_link/os/liteos/arch/arm/common/cmsis\cmsis_gcc.h ****   \return               IPSR Register value
 158:g:/iot/IoT_Device_Demo/iot_link/os/liteos/arch/arm/common/cmsis\cmsis_gcc.h ****  */
 159:g:/iot/IoT_Device_Demo/iot_link/os/liteos/arch/arm/common/cmsis\cmsis_gcc.h **** __attribute__((always_inline)) __STATIC_INLINE uint32_t __get_IPSR(void)
 160:g:/iot/IoT_Device_Demo/iot_link/os/liteos/arch/arm/common/cmsis\cmsis_gcc.h **** {
 161:g:/iot/IoT_Device_Demo/iot_link/os/liteos/arch/arm/common/cmsis\cmsis_gcc.h ****   uint32_t result;
 162:g:/iot/IoT_Device_Demo/iot_link/os/liteos/arch/arm/common/cmsis\cmsis_gcc.h **** 
 163:g:/iot/IoT_Device_Demo/iot_link/os/liteos/arch/arm/common/cmsis\cmsis_gcc.h ****   __ASM volatile ("MRS %0, ipsr" : "=r" (result) );
 164:g:/iot/IoT_Device_Demo/iot_link/os/liteos/arch/arm/common/cmsis\cmsis_gcc.h ****   return(result);
 165:g:/iot/IoT_Device_Demo/iot_link/os/liteos/arch/arm/common/cmsis\cmsis_gcc.h **** }
 166:g:/iot/IoT_Device_Demo/iot_link/os/liteos/arch/arm/common/cmsis\cmsis_gcc.h **** 
 167:g:/iot/IoT_Device_Demo/iot_link/os/liteos/arch/arm/common/cmsis\cmsis_gcc.h **** 
 168:g:/iot/IoT_Device_Demo/iot_link/os/liteos/arch/arm/common/cmsis\cmsis_gcc.h **** /**
 169:g:/iot/IoT_Device_Demo/iot_link/os/liteos/arch/arm/common/cmsis\cmsis_gcc.h ****   \brief   Get APSR Register
 170:g:/iot/IoT_Device_Demo/iot_link/os/liteos/arch/arm/common/cmsis\cmsis_gcc.h ****   \details Returns the content of the APSR Register.
 171:g:/iot/IoT_Device_Demo/iot_link/os/liteos/arch/arm/common/cmsis\cmsis_gcc.h ****   \return               APSR Register value
 172:g:/iot/IoT_Device_Demo/iot_link/os/liteos/arch/arm/common/cmsis\cmsis_gcc.h ****  */
 173:g:/iot/IoT_Device_Demo/iot_link/os/liteos/arch/arm/common/cmsis\cmsis_gcc.h **** __attribute__((always_inline)) __STATIC_INLINE uint32_t __get_APSR(void)
 174:g:/iot/IoT_Device_Demo/iot_link/os/liteos/arch/arm/common/cmsis\cmsis_gcc.h **** {
 175:g:/iot/IoT_Device_Demo/iot_link/os/liteos/arch/arm/common/cmsis\cmsis_gcc.h ****   uint32_t result;
 176:g:/iot/IoT_Device_Demo/iot_link/os/liteos/arch/arm/common/cmsis\cmsis_gcc.h **** 
 177:g:/iot/IoT_Device_Demo/iot_link/os/liteos/arch/arm/common/cmsis\cmsis_gcc.h ****   __ASM volatile ("MRS %0, apsr" : "=r" (result) );
 178:g:/iot/IoT_Device_Demo/iot_link/os/liteos/arch/arm/common/cmsis\cmsis_gcc.h ****   return(result);
 179:g:/iot/IoT_Device_Demo/iot_link/os/liteos/arch/arm/common/cmsis\cmsis_gcc.h **** }
 180:g:/iot/IoT_Device_Demo/iot_link/os/liteos/arch/arm/common/cmsis\cmsis_gcc.h **** 
 181:g:/iot/IoT_Device_Demo/iot_link/os/liteos/arch/arm/common/cmsis\cmsis_gcc.h **** 
 182:g:/iot/IoT_Device_Demo/iot_link/os/liteos/arch/arm/common/cmsis\cmsis_gcc.h **** /**
 183:g:/iot/IoT_Device_Demo/iot_link/os/liteos/arch/arm/common/cmsis\cmsis_gcc.h ****   \brief   Get xPSR Register
 184:g:/iot/IoT_Device_Demo/iot_link/os/liteos/arch/arm/common/cmsis\cmsis_gcc.h ****   \details Returns the content of the xPSR Register.
 185:g:/iot/IoT_Device_Demo/iot_link/os/liteos/arch/arm/common/cmsis\cmsis_gcc.h ****   \return               xPSR Register value
 186:g:/iot/IoT_Device_Demo/iot_link/os/liteos/arch/arm/common/cmsis\cmsis_gcc.h ****  */
 187:g:/iot/IoT_Device_Demo/iot_link/os/liteos/arch/arm/common/cmsis\cmsis_gcc.h **** __attribute__((always_inline)) __STATIC_INLINE uint32_t __get_xPSR(void)
 188:g:/iot/IoT_Device_Demo/iot_link/os/liteos/arch/arm/common/cmsis\cmsis_gcc.h **** {
 189:g:/iot/IoT_Device_Demo/iot_link/os/liteos/arch/arm/common/cmsis\cmsis_gcc.h ****   uint32_t result;
 190:g:/iot/IoT_Device_Demo/iot_link/os/liteos/arch/arm/common/cmsis\cmsis_gcc.h **** 
 191:g:/iot/IoT_Device_Demo/iot_link/os/liteos/arch/arm/common/cmsis\cmsis_gcc.h ****   __ASM volatile ("MRS %0, xpsr" : "=r" (result) );
 192:g:/iot/IoT_Device_Demo/iot_link/os/liteos/arch/arm/common/cmsis\cmsis_gcc.h ****   return(result);
 193:g:/iot/IoT_Device_Demo/iot_link/os/liteos/arch/arm/common/cmsis\cmsis_gcc.h **** }
 194:g:/iot/IoT_Device_Demo/iot_link/os/liteos/arch/arm/common/cmsis\cmsis_gcc.h **** 
 195:g:/iot/IoT_Device_Demo/iot_link/os/liteos/arch/arm/common/cmsis\cmsis_gcc.h **** 
 196:g:/iot/IoT_Device_Demo/iot_link/os/liteos/arch/arm/common/cmsis\cmsis_gcc.h **** /**
 197:g:/iot/IoT_Device_Demo/iot_link/os/liteos/arch/arm/common/cmsis\cmsis_gcc.h ****   \brief   Get Process Stack Pointer
 198:g:/iot/IoT_Device_Demo/iot_link/os/liteos/arch/arm/common/cmsis\cmsis_gcc.h ****   \details Returns the current value of the Process Stack Pointer (PSP).
 199:g:/iot/IoT_Device_Demo/iot_link/os/liteos/arch/arm/common/cmsis\cmsis_gcc.h ****   \return               PSP Register value
 200:g:/iot/IoT_Device_Demo/iot_link/os/liteos/arch/arm/common/cmsis\cmsis_gcc.h ****  */
 201:g:/iot/IoT_Device_Demo/iot_link/os/liteos/arch/arm/common/cmsis\cmsis_gcc.h **** __attribute__((always_inline)) __STATIC_INLINE uint32_t __get_PSP(void)
 202:g:/iot/IoT_Device_Demo/iot_link/os/liteos/arch/arm/common/cmsis\cmsis_gcc.h **** {
 203:g:/iot/IoT_Device_Demo/iot_link/os/liteos/arch/arm/common/cmsis\cmsis_gcc.h ****   register uint32_t result;
 204:g:/iot/IoT_Device_Demo/iot_link/os/liteos/arch/arm/common/cmsis\cmsis_gcc.h **** 
 205:g:/iot/IoT_Device_Demo/iot_link/os/liteos/arch/arm/common/cmsis\cmsis_gcc.h ****   __ASM volatile ("MRS %0, psp"  : "=r" (result) );
 206:g:/iot/IoT_Device_Demo/iot_link/os/liteos/arch/arm/common/cmsis\cmsis_gcc.h ****   return(result);
 207:g:/iot/IoT_Device_Demo/iot_link/os/liteos/arch/arm/common/cmsis\cmsis_gcc.h **** }
 208:g:/iot/IoT_Device_Demo/iot_link/os/liteos/arch/arm/common/cmsis\cmsis_gcc.h **** 
 209:g:/iot/IoT_Device_Demo/iot_link/os/liteos/arch/arm/common/cmsis\cmsis_gcc.h **** 
 210:g:/iot/IoT_Device_Demo/iot_link/os/liteos/arch/arm/common/cmsis\cmsis_gcc.h **** #if (defined (__ARM_FEATURE_CMSE ) && (__ARM_FEATURE_CMSE == 3))
 211:g:/iot/IoT_Device_Demo/iot_link/os/liteos/arch/arm/common/cmsis\cmsis_gcc.h **** /**
 212:g:/iot/IoT_Device_Demo/iot_link/os/liteos/arch/arm/common/cmsis\cmsis_gcc.h ****   \brief   Get Process Stack Pointer (non-secure)
 213:g:/iot/IoT_Device_Demo/iot_link/os/liteos/arch/arm/common/cmsis\cmsis_gcc.h ****   \details Returns the current value of the non-secure Process Stack Pointer (PSP) when in secure s
ARM GAS  C:\Users\ADMINI~1\AppData\Local\Temp\ccULSjfE.s 			page 21


 214:g:/iot/IoT_Device_Demo/iot_link/os/liteos/arch/arm/common/cmsis\cmsis_gcc.h ****   \return               PSP Register value
 215:g:/iot/IoT_Device_Demo/iot_link/os/liteos/arch/arm/common/cmsis\cmsis_gcc.h ****  */
 216:g:/iot/IoT_Device_Demo/iot_link/os/liteos/arch/arm/common/cmsis\cmsis_gcc.h **** __attribute__((always_inline)) __STATIC_INLINE uint32_t __TZ_get_PSP_NS(void)
 217:g:/iot/IoT_Device_Demo/iot_link/os/liteos/arch/arm/common/cmsis\cmsis_gcc.h **** {
 218:g:/iot/IoT_Device_Demo/iot_link/os/liteos/arch/arm/common/cmsis\cmsis_gcc.h ****   register uint32_t result;
 219:g:/iot/IoT_Device_Demo/iot_link/os/liteos/arch/arm/common/cmsis\cmsis_gcc.h **** 
 220:g:/iot/IoT_Device_Demo/iot_link/os/liteos/arch/arm/common/cmsis\cmsis_gcc.h ****   __ASM volatile ("MRS %0, psp_ns"  : "=r" (result) );
 221:g:/iot/IoT_Device_Demo/iot_link/os/liteos/arch/arm/common/cmsis\cmsis_gcc.h ****   return(result);
 222:g:/iot/IoT_Device_Demo/iot_link/os/liteos/arch/arm/common/cmsis\cmsis_gcc.h **** }
 223:g:/iot/IoT_Device_Demo/iot_link/os/liteos/arch/arm/common/cmsis\cmsis_gcc.h **** #endif
 224:g:/iot/IoT_Device_Demo/iot_link/os/liteos/arch/arm/common/cmsis\cmsis_gcc.h **** 
 225:g:/iot/IoT_Device_Demo/iot_link/os/liteos/arch/arm/common/cmsis\cmsis_gcc.h **** 
 226:g:/iot/IoT_Device_Demo/iot_link/os/liteos/arch/arm/common/cmsis\cmsis_gcc.h **** /**
 227:g:/iot/IoT_Device_Demo/iot_link/os/liteos/arch/arm/common/cmsis\cmsis_gcc.h ****   \brief   Set Process Stack Pointer
 228:g:/iot/IoT_Device_Demo/iot_link/os/liteos/arch/arm/common/cmsis\cmsis_gcc.h ****   \details Assigns the given value to the Process Stack Pointer (PSP).
 229:g:/iot/IoT_Device_Demo/iot_link/os/liteos/arch/arm/common/cmsis\cmsis_gcc.h ****   \param [in]    topOfProcStack  Process Stack Pointer value to set
 230:g:/iot/IoT_Device_Demo/iot_link/os/liteos/arch/arm/common/cmsis\cmsis_gcc.h ****  */
 231:g:/iot/IoT_Device_Demo/iot_link/os/liteos/arch/arm/common/cmsis\cmsis_gcc.h **** __attribute__((always_inline)) __STATIC_INLINE void __set_PSP(uint32_t topOfProcStack)
 232:g:/iot/IoT_Device_Demo/iot_link/os/liteos/arch/arm/common/cmsis\cmsis_gcc.h **** {
 233:g:/iot/IoT_Device_Demo/iot_link/os/liteos/arch/arm/common/cmsis\cmsis_gcc.h ****   __ASM volatile ("MSR psp, %0" : : "r" (topOfProcStack) : );
 234:g:/iot/IoT_Device_Demo/iot_link/os/liteos/arch/arm/common/cmsis\cmsis_gcc.h **** }
 235:g:/iot/IoT_Device_Demo/iot_link/os/liteos/arch/arm/common/cmsis\cmsis_gcc.h **** 
 236:g:/iot/IoT_Device_Demo/iot_link/os/liteos/arch/arm/common/cmsis\cmsis_gcc.h **** 
 237:g:/iot/IoT_Device_Demo/iot_link/os/liteos/arch/arm/common/cmsis\cmsis_gcc.h **** #if (defined (__ARM_FEATURE_CMSE ) && (__ARM_FEATURE_CMSE == 3))
 238:g:/iot/IoT_Device_Demo/iot_link/os/liteos/arch/arm/common/cmsis\cmsis_gcc.h **** /**
 239:g:/iot/IoT_Device_Demo/iot_link/os/liteos/arch/arm/common/cmsis\cmsis_gcc.h ****   \brief   Set Process Stack Pointer (non-secure)
 240:g:/iot/IoT_Device_Demo/iot_link/os/liteos/arch/arm/common/cmsis\cmsis_gcc.h ****   \details Assigns the given value to the non-secure Process Stack Pointer (PSP) when in secure sta
 241:g:/iot/IoT_Device_Demo/iot_link/os/liteos/arch/arm/common/cmsis\cmsis_gcc.h ****   \param [in]    topOfProcStack  Process Stack Pointer value to set
 242:g:/iot/IoT_Device_Demo/iot_link/os/liteos/arch/arm/common/cmsis\cmsis_gcc.h ****  */
 243:g:/iot/IoT_Device_Demo/iot_link/os/liteos/arch/arm/common/cmsis\cmsis_gcc.h **** __attribute__((always_inline)) __STATIC_INLINE void __TZ_set_PSP_NS(uint32_t topOfProcStack)
 244:g:/iot/IoT_Device_Demo/iot_link/os/liteos/arch/arm/common/cmsis\cmsis_gcc.h **** {
 245:g:/iot/IoT_Device_Demo/iot_link/os/liteos/arch/arm/common/cmsis\cmsis_gcc.h ****   __ASM volatile ("MSR psp_ns, %0" : : "r" (topOfProcStack) : );
 246:g:/iot/IoT_Device_Demo/iot_link/os/liteos/arch/arm/common/cmsis\cmsis_gcc.h **** }
 247:g:/iot/IoT_Device_Demo/iot_link/os/liteos/arch/arm/common/cmsis\cmsis_gcc.h **** #endif
 248:g:/iot/IoT_Device_Demo/iot_link/os/liteos/arch/arm/common/cmsis\cmsis_gcc.h **** 
 249:g:/iot/IoT_Device_Demo/iot_link/os/liteos/arch/arm/common/cmsis\cmsis_gcc.h **** 
 250:g:/iot/IoT_Device_Demo/iot_link/os/liteos/arch/arm/common/cmsis\cmsis_gcc.h **** /**
 251:g:/iot/IoT_Device_Demo/iot_link/os/liteos/arch/arm/common/cmsis\cmsis_gcc.h ****   \brief   Get Main Stack Pointer
 252:g:/iot/IoT_Device_Demo/iot_link/os/liteos/arch/arm/common/cmsis\cmsis_gcc.h ****   \details Returns the current value of the Main Stack Pointer (MSP).
 253:g:/iot/IoT_Device_Demo/iot_link/os/liteos/arch/arm/common/cmsis\cmsis_gcc.h ****   \return               MSP Register value
 254:g:/iot/IoT_Device_Demo/iot_link/os/liteos/arch/arm/common/cmsis\cmsis_gcc.h ****  */
 255:g:/iot/IoT_Device_Demo/iot_link/os/liteos/arch/arm/common/cmsis\cmsis_gcc.h **** __attribute__((always_inline)) __STATIC_INLINE uint32_t __get_MSP(void)
 256:g:/iot/IoT_Device_Demo/iot_link/os/liteos/arch/arm/common/cmsis\cmsis_gcc.h **** {
 257:g:/iot/IoT_Device_Demo/iot_link/os/liteos/arch/arm/common/cmsis\cmsis_gcc.h ****   register uint32_t result;
 258:g:/iot/IoT_Device_Demo/iot_link/os/liteos/arch/arm/common/cmsis\cmsis_gcc.h **** 
 259:g:/iot/IoT_Device_Demo/iot_link/os/liteos/arch/arm/common/cmsis\cmsis_gcc.h ****   __ASM volatile ("MRS %0, msp" : "=r" (result) );
 260:g:/iot/IoT_Device_Demo/iot_link/os/liteos/arch/arm/common/cmsis\cmsis_gcc.h ****   return(result);
 261:g:/iot/IoT_Device_Demo/iot_link/os/liteos/arch/arm/common/cmsis\cmsis_gcc.h **** }
 262:g:/iot/IoT_Device_Demo/iot_link/os/liteos/arch/arm/common/cmsis\cmsis_gcc.h **** 
 263:g:/iot/IoT_Device_Demo/iot_link/os/liteos/arch/arm/common/cmsis\cmsis_gcc.h **** 
 264:g:/iot/IoT_Device_Demo/iot_link/os/liteos/arch/arm/common/cmsis\cmsis_gcc.h **** #if (defined (__ARM_FEATURE_CMSE ) && (__ARM_FEATURE_CMSE == 3))
 265:g:/iot/IoT_Device_Demo/iot_link/os/liteos/arch/arm/common/cmsis\cmsis_gcc.h **** /**
 266:g:/iot/IoT_Device_Demo/iot_link/os/liteos/arch/arm/common/cmsis\cmsis_gcc.h ****   \brief   Get Main Stack Pointer (non-secure)
 267:g:/iot/IoT_Device_Demo/iot_link/os/liteos/arch/arm/common/cmsis\cmsis_gcc.h ****   \details Returns the current value of the non-secure Main Stack Pointer (MSP) when in secure stat
 268:g:/iot/IoT_Device_Demo/iot_link/os/liteos/arch/arm/common/cmsis\cmsis_gcc.h ****   \return               MSP Register value
 269:g:/iot/IoT_Device_Demo/iot_link/os/liteos/arch/arm/common/cmsis\cmsis_gcc.h ****  */
 270:g:/iot/IoT_Device_Demo/iot_link/os/liteos/arch/arm/common/cmsis\cmsis_gcc.h **** __attribute__((always_inline)) __STATIC_INLINE uint32_t __TZ_get_MSP_NS(void)
ARM GAS  C:\Users\ADMINI~1\AppData\Local\Temp\ccULSjfE.s 			page 22


 271:g:/iot/IoT_Device_Demo/iot_link/os/liteos/arch/arm/common/cmsis\cmsis_gcc.h **** {
 272:g:/iot/IoT_Device_Demo/iot_link/os/liteos/arch/arm/common/cmsis\cmsis_gcc.h ****   register uint32_t result;
 273:g:/iot/IoT_Device_Demo/iot_link/os/liteos/arch/arm/common/cmsis\cmsis_gcc.h **** 
 274:g:/iot/IoT_Device_Demo/iot_link/os/liteos/arch/arm/common/cmsis\cmsis_gcc.h ****   __ASM volatile ("MRS %0, msp_ns" : "=r" (result) );
 275:g:/iot/IoT_Device_Demo/iot_link/os/liteos/arch/arm/common/cmsis\cmsis_gcc.h ****   return(result);
 276:g:/iot/IoT_Device_Demo/iot_link/os/liteos/arch/arm/common/cmsis\cmsis_gcc.h **** }
 277:g:/iot/IoT_Device_Demo/iot_link/os/liteos/arch/arm/common/cmsis\cmsis_gcc.h **** #endif
 278:g:/iot/IoT_Device_Demo/iot_link/os/liteos/arch/arm/common/cmsis\cmsis_gcc.h **** 
 279:g:/iot/IoT_Device_Demo/iot_link/os/liteos/arch/arm/common/cmsis\cmsis_gcc.h **** 
 280:g:/iot/IoT_Device_Demo/iot_link/os/liteos/arch/arm/common/cmsis\cmsis_gcc.h **** /**
 281:g:/iot/IoT_Device_Demo/iot_link/os/liteos/arch/arm/common/cmsis\cmsis_gcc.h ****   \brief   Set Main Stack Pointer
 282:g:/iot/IoT_Device_Demo/iot_link/os/liteos/arch/arm/common/cmsis\cmsis_gcc.h ****   \details Assigns the given value to the Main Stack Pointer (MSP).
 283:g:/iot/IoT_Device_Demo/iot_link/os/liteos/arch/arm/common/cmsis\cmsis_gcc.h ****   \param [in]    topOfMainStack  Main Stack Pointer value to set
 284:g:/iot/IoT_Device_Demo/iot_link/os/liteos/arch/arm/common/cmsis\cmsis_gcc.h ****  */
 285:g:/iot/IoT_Device_Demo/iot_link/os/liteos/arch/arm/common/cmsis\cmsis_gcc.h **** __attribute__((always_inline)) __STATIC_INLINE void __set_MSP(uint32_t topOfMainStack)
 286:g:/iot/IoT_Device_Demo/iot_link/os/liteos/arch/arm/common/cmsis\cmsis_gcc.h **** {
 287:g:/iot/IoT_Device_Demo/iot_link/os/liteos/arch/arm/common/cmsis\cmsis_gcc.h ****   __ASM volatile ("MSR msp, %0" : : "r" (topOfMainStack) : );
 288:g:/iot/IoT_Device_Demo/iot_link/os/liteos/arch/arm/common/cmsis\cmsis_gcc.h **** }
 289:g:/iot/IoT_Device_Demo/iot_link/os/liteos/arch/arm/common/cmsis\cmsis_gcc.h **** 
 290:g:/iot/IoT_Device_Demo/iot_link/os/liteos/arch/arm/common/cmsis\cmsis_gcc.h **** 
 291:g:/iot/IoT_Device_Demo/iot_link/os/liteos/arch/arm/common/cmsis\cmsis_gcc.h **** #if (defined (__ARM_FEATURE_CMSE ) && (__ARM_FEATURE_CMSE == 3))
 292:g:/iot/IoT_Device_Demo/iot_link/os/liteos/arch/arm/common/cmsis\cmsis_gcc.h **** /**
 293:g:/iot/IoT_Device_Demo/iot_link/os/liteos/arch/arm/common/cmsis\cmsis_gcc.h ****   \brief   Set Main Stack Pointer (non-secure)
 294:g:/iot/IoT_Device_Demo/iot_link/os/liteos/arch/arm/common/cmsis\cmsis_gcc.h ****   \details Assigns the given value to the non-secure Main Stack Pointer (MSP) when in secure state.
 295:g:/iot/IoT_Device_Demo/iot_link/os/liteos/arch/arm/common/cmsis\cmsis_gcc.h ****   \param [in]    topOfMainStack  Main Stack Pointer value to set
 296:g:/iot/IoT_Device_Demo/iot_link/os/liteos/arch/arm/common/cmsis\cmsis_gcc.h ****  */
 297:g:/iot/IoT_Device_Demo/iot_link/os/liteos/arch/arm/common/cmsis\cmsis_gcc.h **** __attribute__((always_inline)) __STATIC_INLINE void __TZ_set_MSP_NS(uint32_t topOfMainStack)
 298:g:/iot/IoT_Device_Demo/iot_link/os/liteos/arch/arm/common/cmsis\cmsis_gcc.h **** {
 299:g:/iot/IoT_Device_Demo/iot_link/os/liteos/arch/arm/common/cmsis\cmsis_gcc.h ****   __ASM volatile ("MSR msp_ns, %0" : : "r" (topOfMainStack) : );
 300:g:/iot/IoT_Device_Demo/iot_link/os/liteos/arch/arm/common/cmsis\cmsis_gcc.h **** }
 301:g:/iot/IoT_Device_Demo/iot_link/os/liteos/arch/arm/common/cmsis\cmsis_gcc.h **** #endif
 302:g:/iot/IoT_Device_Demo/iot_link/os/liteos/arch/arm/common/cmsis\cmsis_gcc.h **** 
 303:g:/iot/IoT_Device_Demo/iot_link/os/liteos/arch/arm/common/cmsis\cmsis_gcc.h **** 
 304:g:/iot/IoT_Device_Demo/iot_link/os/liteos/arch/arm/common/cmsis\cmsis_gcc.h **** /**
 305:g:/iot/IoT_Device_Demo/iot_link/os/liteos/arch/arm/common/cmsis\cmsis_gcc.h ****   \brief   Get Priority Mask
 306:g:/iot/IoT_Device_Demo/iot_link/os/liteos/arch/arm/common/cmsis\cmsis_gcc.h ****   \details Returns the current state of the priority mask bit from the Priority Mask Register.
 307:g:/iot/IoT_Device_Demo/iot_link/os/liteos/arch/arm/common/cmsis\cmsis_gcc.h ****   \return               Priority Mask value
 308:g:/iot/IoT_Device_Demo/iot_link/os/liteos/arch/arm/common/cmsis\cmsis_gcc.h ****  */
 309:g:/iot/IoT_Device_Demo/iot_link/os/liteos/arch/arm/common/cmsis\cmsis_gcc.h **** __attribute__((always_inline)) __STATIC_INLINE uint32_t __get_PRIMASK(void)
 310:g:/iot/IoT_Device_Demo/iot_link/os/liteos/arch/arm/common/cmsis\cmsis_gcc.h **** {
 311:g:/iot/IoT_Device_Demo/iot_link/os/liteos/arch/arm/common/cmsis\cmsis_gcc.h ****   uint32_t result;
 312:g:/iot/IoT_Device_Demo/iot_link/os/liteos/arch/arm/common/cmsis\cmsis_gcc.h **** 
 313:g:/iot/IoT_Device_Demo/iot_link/os/liteos/arch/arm/common/cmsis\cmsis_gcc.h ****   __ASM volatile ("MRS %0, primask" : "=r" (result) );
 314:g:/iot/IoT_Device_Demo/iot_link/os/liteos/arch/arm/common/cmsis\cmsis_gcc.h ****   return(result);
 315:g:/iot/IoT_Device_Demo/iot_link/os/liteos/arch/arm/common/cmsis\cmsis_gcc.h **** }
 316:g:/iot/IoT_Device_Demo/iot_link/os/liteos/arch/arm/common/cmsis\cmsis_gcc.h **** 
 317:g:/iot/IoT_Device_Demo/iot_link/os/liteos/arch/arm/common/cmsis\cmsis_gcc.h **** 
 318:g:/iot/IoT_Device_Demo/iot_link/os/liteos/arch/arm/common/cmsis\cmsis_gcc.h **** #if (defined (__ARM_FEATURE_CMSE ) && (__ARM_FEATURE_CMSE == 3))
 319:g:/iot/IoT_Device_Demo/iot_link/os/liteos/arch/arm/common/cmsis\cmsis_gcc.h **** /**
 320:g:/iot/IoT_Device_Demo/iot_link/os/liteos/arch/arm/common/cmsis\cmsis_gcc.h ****   \brief   Get Priority Mask (non-secure)
 321:g:/iot/IoT_Device_Demo/iot_link/os/liteos/arch/arm/common/cmsis\cmsis_gcc.h ****   \details Returns the current state of the non-secure priority mask bit from the Priority Mask Reg
 322:g:/iot/IoT_Device_Demo/iot_link/os/liteos/arch/arm/common/cmsis\cmsis_gcc.h ****   \return               Priority Mask value
 323:g:/iot/IoT_Device_Demo/iot_link/os/liteos/arch/arm/common/cmsis\cmsis_gcc.h ****  */
 324:g:/iot/IoT_Device_Demo/iot_link/os/liteos/arch/arm/common/cmsis\cmsis_gcc.h **** __attribute__((always_inline)) __STATIC_INLINE uint32_t __TZ_get_PRIMASK_NS(void)
 325:g:/iot/IoT_Device_Demo/iot_link/os/liteos/arch/arm/common/cmsis\cmsis_gcc.h **** {
 326:g:/iot/IoT_Device_Demo/iot_link/os/liteos/arch/arm/common/cmsis\cmsis_gcc.h ****   uint32_t result;
 327:g:/iot/IoT_Device_Demo/iot_link/os/liteos/arch/arm/common/cmsis\cmsis_gcc.h **** 
ARM GAS  C:\Users\ADMINI~1\AppData\Local\Temp\ccULSjfE.s 			page 23


 328:g:/iot/IoT_Device_Demo/iot_link/os/liteos/arch/arm/common/cmsis\cmsis_gcc.h ****   __ASM volatile ("MRS %0, primask_ns" : "=r" (result) );
 329:g:/iot/IoT_Device_Demo/iot_link/os/liteos/arch/arm/common/cmsis\cmsis_gcc.h ****   return(result);
 330:g:/iot/IoT_Device_Demo/iot_link/os/liteos/arch/arm/common/cmsis\cmsis_gcc.h **** }
 331:g:/iot/IoT_Device_Demo/iot_link/os/liteos/arch/arm/common/cmsis\cmsis_gcc.h **** #endif
 332:g:/iot/IoT_Device_Demo/iot_link/os/liteos/arch/arm/common/cmsis\cmsis_gcc.h **** 
 333:g:/iot/IoT_Device_Demo/iot_link/os/liteos/arch/arm/common/cmsis\cmsis_gcc.h **** 
 334:g:/iot/IoT_Device_Demo/iot_link/os/liteos/arch/arm/common/cmsis\cmsis_gcc.h **** /**
 335:g:/iot/IoT_Device_Demo/iot_link/os/liteos/arch/arm/common/cmsis\cmsis_gcc.h ****   \brief   Set Priority Mask
 336:g:/iot/IoT_Device_Demo/iot_link/os/liteos/arch/arm/common/cmsis\cmsis_gcc.h ****   \details Assigns the given value to the Priority Mask Register.
 337:g:/iot/IoT_Device_Demo/iot_link/os/liteos/arch/arm/common/cmsis\cmsis_gcc.h ****   \param [in]    priMask  Priority Mask
 338:g:/iot/IoT_Device_Demo/iot_link/os/liteos/arch/arm/common/cmsis\cmsis_gcc.h ****  */
 339:g:/iot/IoT_Device_Demo/iot_link/os/liteos/arch/arm/common/cmsis\cmsis_gcc.h **** __attribute__((always_inline)) __STATIC_INLINE void __set_PRIMASK(uint32_t priMask)
 340:g:/iot/IoT_Device_Demo/iot_link/os/liteos/arch/arm/common/cmsis\cmsis_gcc.h **** {
 341:g:/iot/IoT_Device_Demo/iot_link/os/liteos/arch/arm/common/cmsis\cmsis_gcc.h ****   __ASM volatile ("MSR primask, %0" : : "r" (priMask) : "memory");
 342:g:/iot/IoT_Device_Demo/iot_link/os/liteos/arch/arm/common/cmsis\cmsis_gcc.h **** }
 343:g:/iot/IoT_Device_Demo/iot_link/os/liteos/arch/arm/common/cmsis\cmsis_gcc.h **** 
 344:g:/iot/IoT_Device_Demo/iot_link/os/liteos/arch/arm/common/cmsis\cmsis_gcc.h **** 
 345:g:/iot/IoT_Device_Demo/iot_link/os/liteos/arch/arm/common/cmsis\cmsis_gcc.h **** #if (defined (__ARM_FEATURE_CMSE ) && (__ARM_FEATURE_CMSE == 3))
 346:g:/iot/IoT_Device_Demo/iot_link/os/liteos/arch/arm/common/cmsis\cmsis_gcc.h **** /**
 347:g:/iot/IoT_Device_Demo/iot_link/os/liteos/arch/arm/common/cmsis\cmsis_gcc.h ****   \brief   Set Priority Mask (non-secure)
 348:g:/iot/IoT_Device_Demo/iot_link/os/liteos/arch/arm/common/cmsis\cmsis_gcc.h ****   \details Assigns the given value to the non-secure Priority Mask Register when in secure state.
 349:g:/iot/IoT_Device_Demo/iot_link/os/liteos/arch/arm/common/cmsis\cmsis_gcc.h ****   \param [in]    priMask  Priority Mask
 350:g:/iot/IoT_Device_Demo/iot_link/os/liteos/arch/arm/common/cmsis\cmsis_gcc.h ****  */
 351:g:/iot/IoT_Device_Demo/iot_link/os/liteos/arch/arm/common/cmsis\cmsis_gcc.h **** __attribute__((always_inline)) __STATIC_INLINE void __TZ_set_PRIMASK_NS(uint32_t priMask)
 352:g:/iot/IoT_Device_Demo/iot_link/os/liteos/arch/arm/common/cmsis\cmsis_gcc.h **** {
 353:g:/iot/IoT_Device_Demo/iot_link/os/liteos/arch/arm/common/cmsis\cmsis_gcc.h ****   __ASM volatile ("MSR primask_ns, %0" : : "r" (priMask) : "memory");
 354:g:/iot/IoT_Device_Demo/iot_link/os/liteos/arch/arm/common/cmsis\cmsis_gcc.h **** }
 355:g:/iot/IoT_Device_Demo/iot_link/os/liteos/arch/arm/common/cmsis\cmsis_gcc.h **** #endif
 356:g:/iot/IoT_Device_Demo/iot_link/os/liteos/arch/arm/common/cmsis\cmsis_gcc.h **** 
 357:g:/iot/IoT_Device_Demo/iot_link/os/liteos/arch/arm/common/cmsis\cmsis_gcc.h **** 
 358:g:/iot/IoT_Device_Demo/iot_link/os/liteos/arch/arm/common/cmsis\cmsis_gcc.h **** #if ((defined (__ARM_ARCH_7M__      ) && (__ARM_ARCH_7M__      == 1)) || \
 359:g:/iot/IoT_Device_Demo/iot_link/os/liteos/arch/arm/common/cmsis\cmsis_gcc.h ****      (defined (__ARM_ARCH_7EM__     ) && (__ARM_ARCH_7EM__     == 1)) || \
 360:g:/iot/IoT_Device_Demo/iot_link/os/liteos/arch/arm/common/cmsis\cmsis_gcc.h ****      (defined (__ARM_ARCH_8M_MAIN__ ) && (__ARM_ARCH_8M_MAIN__ == 1))    )
 361:g:/iot/IoT_Device_Demo/iot_link/os/liteos/arch/arm/common/cmsis\cmsis_gcc.h **** /**
 362:g:/iot/IoT_Device_Demo/iot_link/os/liteos/arch/arm/common/cmsis\cmsis_gcc.h ****   \brief   Enable FIQ
 363:g:/iot/IoT_Device_Demo/iot_link/os/liteos/arch/arm/common/cmsis\cmsis_gcc.h ****   \details Enables FIQ interrupts by clearing the F-bit in the CPSR.
 364:g:/iot/IoT_Device_Demo/iot_link/os/liteos/arch/arm/common/cmsis\cmsis_gcc.h ****            Can only be executed in Privileged modes.
 365:g:/iot/IoT_Device_Demo/iot_link/os/liteos/arch/arm/common/cmsis\cmsis_gcc.h ****  */
 366:g:/iot/IoT_Device_Demo/iot_link/os/liteos/arch/arm/common/cmsis\cmsis_gcc.h **** __attribute__((always_inline)) __STATIC_INLINE void __enable_fault_irq(void)
 367:g:/iot/IoT_Device_Demo/iot_link/os/liteos/arch/arm/common/cmsis\cmsis_gcc.h **** {
 368:g:/iot/IoT_Device_Demo/iot_link/os/liteos/arch/arm/common/cmsis\cmsis_gcc.h ****   __ASM volatile ("cpsie f" : : : "memory");
 369:g:/iot/IoT_Device_Demo/iot_link/os/liteos/arch/arm/common/cmsis\cmsis_gcc.h **** }
 370:g:/iot/IoT_Device_Demo/iot_link/os/liteos/arch/arm/common/cmsis\cmsis_gcc.h **** 
 371:g:/iot/IoT_Device_Demo/iot_link/os/liteos/arch/arm/common/cmsis\cmsis_gcc.h **** 
 372:g:/iot/IoT_Device_Demo/iot_link/os/liteos/arch/arm/common/cmsis\cmsis_gcc.h **** /**
 373:g:/iot/IoT_Device_Demo/iot_link/os/liteos/arch/arm/common/cmsis\cmsis_gcc.h ****   \brief   Disable FIQ
 374:g:/iot/IoT_Device_Demo/iot_link/os/liteos/arch/arm/common/cmsis\cmsis_gcc.h ****   \details Disables FIQ interrupts by setting the F-bit in the CPSR.
 375:g:/iot/IoT_Device_Demo/iot_link/os/liteos/arch/arm/common/cmsis\cmsis_gcc.h ****            Can only be executed in Privileged modes.
 376:g:/iot/IoT_Device_Demo/iot_link/os/liteos/arch/arm/common/cmsis\cmsis_gcc.h ****  */
 377:g:/iot/IoT_Device_Demo/iot_link/os/liteos/arch/arm/common/cmsis\cmsis_gcc.h **** __attribute__((always_inline)) __STATIC_INLINE void __disable_fault_irq(void)
 378:g:/iot/IoT_Device_Demo/iot_link/os/liteos/arch/arm/common/cmsis\cmsis_gcc.h **** {
 379:g:/iot/IoT_Device_Demo/iot_link/os/liteos/arch/arm/common/cmsis\cmsis_gcc.h ****   __ASM volatile ("cpsid f" : : : "memory");
 380:g:/iot/IoT_Device_Demo/iot_link/os/liteos/arch/arm/common/cmsis\cmsis_gcc.h **** }
 381:g:/iot/IoT_Device_Demo/iot_link/os/liteos/arch/arm/common/cmsis\cmsis_gcc.h **** 
 382:g:/iot/IoT_Device_Demo/iot_link/os/liteos/arch/arm/common/cmsis\cmsis_gcc.h **** 
 383:g:/iot/IoT_Device_Demo/iot_link/os/liteos/arch/arm/common/cmsis\cmsis_gcc.h **** /**
 384:g:/iot/IoT_Device_Demo/iot_link/os/liteos/arch/arm/common/cmsis\cmsis_gcc.h ****   \brief   Get Base Priority
ARM GAS  C:\Users\ADMINI~1\AppData\Local\Temp\ccULSjfE.s 			page 24


 385:g:/iot/IoT_Device_Demo/iot_link/os/liteos/arch/arm/common/cmsis\cmsis_gcc.h ****   \details Returns the current value of the Base Priority register.
 386:g:/iot/IoT_Device_Demo/iot_link/os/liteos/arch/arm/common/cmsis\cmsis_gcc.h ****   \return               Base Priority register value
 387:g:/iot/IoT_Device_Demo/iot_link/os/liteos/arch/arm/common/cmsis\cmsis_gcc.h ****  */
 388:g:/iot/IoT_Device_Demo/iot_link/os/liteos/arch/arm/common/cmsis\cmsis_gcc.h **** __attribute__((always_inline)) __STATIC_INLINE uint32_t __get_BASEPRI(void)
 389:g:/iot/IoT_Device_Demo/iot_link/os/liteos/arch/arm/common/cmsis\cmsis_gcc.h **** {
 390:g:/iot/IoT_Device_Demo/iot_link/os/liteos/arch/arm/common/cmsis\cmsis_gcc.h ****   uint32_t result;
 391:g:/iot/IoT_Device_Demo/iot_link/os/liteos/arch/arm/common/cmsis\cmsis_gcc.h **** 
 392:g:/iot/IoT_Device_Demo/iot_link/os/liteos/arch/arm/common/cmsis\cmsis_gcc.h ****   __ASM volatile ("MRS %0, basepri" : "=r" (result) );
 393:g:/iot/IoT_Device_Demo/iot_link/os/liteos/arch/arm/common/cmsis\cmsis_gcc.h ****   return(result);
 394:g:/iot/IoT_Device_Demo/iot_link/os/liteos/arch/arm/common/cmsis\cmsis_gcc.h **** }
 395:g:/iot/IoT_Device_Demo/iot_link/os/liteos/arch/arm/common/cmsis\cmsis_gcc.h **** 
 396:g:/iot/IoT_Device_Demo/iot_link/os/liteos/arch/arm/common/cmsis\cmsis_gcc.h **** 
 397:g:/iot/IoT_Device_Demo/iot_link/os/liteos/arch/arm/common/cmsis\cmsis_gcc.h **** #if (defined (__ARM_FEATURE_CMSE ) && (__ARM_FEATURE_CMSE == 3))
 398:g:/iot/IoT_Device_Demo/iot_link/os/liteos/arch/arm/common/cmsis\cmsis_gcc.h **** /**
 399:g:/iot/IoT_Device_Demo/iot_link/os/liteos/arch/arm/common/cmsis\cmsis_gcc.h ****   \brief   Get Base Priority (non-secure)
 400:g:/iot/IoT_Device_Demo/iot_link/os/liteos/arch/arm/common/cmsis\cmsis_gcc.h ****   \details Returns the current value of the non-secure Base Priority register when in secure state.
 401:g:/iot/IoT_Device_Demo/iot_link/os/liteos/arch/arm/common/cmsis\cmsis_gcc.h ****   \return               Base Priority register value
 402:g:/iot/IoT_Device_Demo/iot_link/os/liteos/arch/arm/common/cmsis\cmsis_gcc.h ****  */
 403:g:/iot/IoT_Device_Demo/iot_link/os/liteos/arch/arm/common/cmsis\cmsis_gcc.h **** __attribute__((always_inline)) __STATIC_INLINE uint32_t __TZ_get_BASEPRI_NS(void)
 404:g:/iot/IoT_Device_Demo/iot_link/os/liteos/arch/arm/common/cmsis\cmsis_gcc.h **** {
 405:g:/iot/IoT_Device_Demo/iot_link/os/liteos/arch/arm/common/cmsis\cmsis_gcc.h ****   uint32_t result;
 406:g:/iot/IoT_Device_Demo/iot_link/os/liteos/arch/arm/common/cmsis\cmsis_gcc.h **** 
 407:g:/iot/IoT_Device_Demo/iot_link/os/liteos/arch/arm/common/cmsis\cmsis_gcc.h ****   __ASM volatile ("MRS %0, basepri_ns" : "=r" (result) );
 408:g:/iot/IoT_Device_Demo/iot_link/os/liteos/arch/arm/common/cmsis\cmsis_gcc.h ****   return(result);
 409:g:/iot/IoT_Device_Demo/iot_link/os/liteos/arch/arm/common/cmsis\cmsis_gcc.h **** }
 410:g:/iot/IoT_Device_Demo/iot_link/os/liteos/arch/arm/common/cmsis\cmsis_gcc.h **** #endif
 411:g:/iot/IoT_Device_Demo/iot_link/os/liteos/arch/arm/common/cmsis\cmsis_gcc.h **** 
 412:g:/iot/IoT_Device_Demo/iot_link/os/liteos/arch/arm/common/cmsis\cmsis_gcc.h **** 
 413:g:/iot/IoT_Device_Demo/iot_link/os/liteos/arch/arm/common/cmsis\cmsis_gcc.h **** /**
 414:g:/iot/IoT_Device_Demo/iot_link/os/liteos/arch/arm/common/cmsis\cmsis_gcc.h ****   \brief   Set Base Priority
 415:g:/iot/IoT_Device_Demo/iot_link/os/liteos/arch/arm/common/cmsis\cmsis_gcc.h ****   \details Assigns the given value to the Base Priority register.
 416:g:/iot/IoT_Device_Demo/iot_link/os/liteos/arch/arm/common/cmsis\cmsis_gcc.h ****   \param [in]    basePri  Base Priority value to set
 417:g:/iot/IoT_Device_Demo/iot_link/os/liteos/arch/arm/common/cmsis\cmsis_gcc.h ****  */
 418:g:/iot/IoT_Device_Demo/iot_link/os/liteos/arch/arm/common/cmsis\cmsis_gcc.h **** __attribute__((always_inline)) __STATIC_INLINE void __set_BASEPRI(uint32_t basePri)
 419:g:/iot/IoT_Device_Demo/iot_link/os/liteos/arch/arm/common/cmsis\cmsis_gcc.h **** {
 420:g:/iot/IoT_Device_Demo/iot_link/os/liteos/arch/arm/common/cmsis\cmsis_gcc.h ****   __ASM volatile ("MSR basepri, %0" : : "r" (basePri) : "memory");
 421:g:/iot/IoT_Device_Demo/iot_link/os/liteos/arch/arm/common/cmsis\cmsis_gcc.h **** }
 422:g:/iot/IoT_Device_Demo/iot_link/os/liteos/arch/arm/common/cmsis\cmsis_gcc.h **** 
 423:g:/iot/IoT_Device_Demo/iot_link/os/liteos/arch/arm/common/cmsis\cmsis_gcc.h **** 
 424:g:/iot/IoT_Device_Demo/iot_link/os/liteos/arch/arm/common/cmsis\cmsis_gcc.h **** #if (defined (__ARM_FEATURE_CMSE ) && (__ARM_FEATURE_CMSE == 3))
 425:g:/iot/IoT_Device_Demo/iot_link/os/liteos/arch/arm/common/cmsis\cmsis_gcc.h **** /**
 426:g:/iot/IoT_Device_Demo/iot_link/os/liteos/arch/arm/common/cmsis\cmsis_gcc.h ****   \brief   Set Base Priority (non-secure)
 427:g:/iot/IoT_Device_Demo/iot_link/os/liteos/arch/arm/common/cmsis\cmsis_gcc.h ****   \details Assigns the given value to the non-secure Base Priority register when in secure state.
 428:g:/iot/IoT_Device_Demo/iot_link/os/liteos/arch/arm/common/cmsis\cmsis_gcc.h ****   \param [in]    basePri  Base Priority value to set
 429:g:/iot/IoT_Device_Demo/iot_link/os/liteos/arch/arm/common/cmsis\cmsis_gcc.h ****  */
 430:g:/iot/IoT_Device_Demo/iot_link/os/liteos/arch/arm/common/cmsis\cmsis_gcc.h **** __attribute__((always_inline)) __STATIC_INLINE void __TZ_set_BASEPRI_NS(uint32_t basePri)
 431:g:/iot/IoT_Device_Demo/iot_link/os/liteos/arch/arm/common/cmsis\cmsis_gcc.h **** {
 432:g:/iot/IoT_Device_Demo/iot_link/os/liteos/arch/arm/common/cmsis\cmsis_gcc.h ****   __ASM volatile ("MSR basepri_ns, %0" : : "r" (basePri) : "memory");
 433:g:/iot/IoT_Device_Demo/iot_link/os/liteos/arch/arm/common/cmsis\cmsis_gcc.h **** }
 434:g:/iot/IoT_Device_Demo/iot_link/os/liteos/arch/arm/common/cmsis\cmsis_gcc.h **** #endif
 435:g:/iot/IoT_Device_Demo/iot_link/os/liteos/arch/arm/common/cmsis\cmsis_gcc.h **** 
 436:g:/iot/IoT_Device_Demo/iot_link/os/liteos/arch/arm/common/cmsis\cmsis_gcc.h **** 
 437:g:/iot/IoT_Device_Demo/iot_link/os/liteos/arch/arm/common/cmsis\cmsis_gcc.h **** /**
 438:g:/iot/IoT_Device_Demo/iot_link/os/liteos/arch/arm/common/cmsis\cmsis_gcc.h ****   \brief   Set Base Priority with condition
 439:g:/iot/IoT_Device_Demo/iot_link/os/liteos/arch/arm/common/cmsis\cmsis_gcc.h ****   \details Assigns the given value to the Base Priority register only if BASEPRI masking is disable
 440:g:/iot/IoT_Device_Demo/iot_link/os/liteos/arch/arm/common/cmsis\cmsis_gcc.h ****            or the new value increases the BASEPRI priority level.
 441:g:/iot/IoT_Device_Demo/iot_link/os/liteos/arch/arm/common/cmsis\cmsis_gcc.h ****   \param [in]    basePri  Base Priority value to set
ARM GAS  C:\Users\ADMINI~1\AppData\Local\Temp\ccULSjfE.s 			page 25


 442:g:/iot/IoT_Device_Demo/iot_link/os/liteos/arch/arm/common/cmsis\cmsis_gcc.h ****  */
 443:g:/iot/IoT_Device_Demo/iot_link/os/liteos/arch/arm/common/cmsis\cmsis_gcc.h **** __attribute__((always_inline)) __STATIC_INLINE void __set_BASEPRI_MAX(uint32_t basePri)
 444:g:/iot/IoT_Device_Demo/iot_link/os/liteos/arch/arm/common/cmsis\cmsis_gcc.h **** {
 445:g:/iot/IoT_Device_Demo/iot_link/os/liteos/arch/arm/common/cmsis\cmsis_gcc.h ****   __ASM volatile ("MSR basepri_max, %0" : : "r" (basePri) : "memory");
 446:g:/iot/IoT_Device_Demo/iot_link/os/liteos/arch/arm/common/cmsis\cmsis_gcc.h **** }
 447:g:/iot/IoT_Device_Demo/iot_link/os/liteos/arch/arm/common/cmsis\cmsis_gcc.h **** 
 448:g:/iot/IoT_Device_Demo/iot_link/os/liteos/arch/arm/common/cmsis\cmsis_gcc.h **** 
 449:g:/iot/IoT_Device_Demo/iot_link/os/liteos/arch/arm/common/cmsis\cmsis_gcc.h **** /**
 450:g:/iot/IoT_Device_Demo/iot_link/os/liteos/arch/arm/common/cmsis\cmsis_gcc.h ****   \brief   Get Fault Mask
 451:g:/iot/IoT_Device_Demo/iot_link/os/liteos/arch/arm/common/cmsis\cmsis_gcc.h ****   \details Returns the current value of the Fault Mask register.
 452:g:/iot/IoT_Device_Demo/iot_link/os/liteos/arch/arm/common/cmsis\cmsis_gcc.h ****   \return               Fault Mask register value
 453:g:/iot/IoT_Device_Demo/iot_link/os/liteos/arch/arm/common/cmsis\cmsis_gcc.h ****  */
 454:g:/iot/IoT_Device_Demo/iot_link/os/liteos/arch/arm/common/cmsis\cmsis_gcc.h **** __attribute__((always_inline)) __STATIC_INLINE uint32_t __get_FAULTMASK(void)
 455:g:/iot/IoT_Device_Demo/iot_link/os/liteos/arch/arm/common/cmsis\cmsis_gcc.h **** {
 456:g:/iot/IoT_Device_Demo/iot_link/os/liteos/arch/arm/common/cmsis\cmsis_gcc.h ****   uint32_t result;
 457:g:/iot/IoT_Device_Demo/iot_link/os/liteos/arch/arm/common/cmsis\cmsis_gcc.h **** 
 458:g:/iot/IoT_Device_Demo/iot_link/os/liteos/arch/arm/common/cmsis\cmsis_gcc.h ****   __ASM volatile ("MRS %0, faultmask" : "=r" (result) );
 459:g:/iot/IoT_Device_Demo/iot_link/os/liteos/arch/arm/common/cmsis\cmsis_gcc.h ****   return(result);
 460:g:/iot/IoT_Device_Demo/iot_link/os/liteos/arch/arm/common/cmsis\cmsis_gcc.h **** }
 461:g:/iot/IoT_Device_Demo/iot_link/os/liteos/arch/arm/common/cmsis\cmsis_gcc.h **** 
 462:g:/iot/IoT_Device_Demo/iot_link/os/liteos/arch/arm/common/cmsis\cmsis_gcc.h **** 
 463:g:/iot/IoT_Device_Demo/iot_link/os/liteos/arch/arm/common/cmsis\cmsis_gcc.h **** #if (defined (__ARM_FEATURE_CMSE ) && (__ARM_FEATURE_CMSE == 3))
 464:g:/iot/IoT_Device_Demo/iot_link/os/liteos/arch/arm/common/cmsis\cmsis_gcc.h **** /**
 465:g:/iot/IoT_Device_Demo/iot_link/os/liteos/arch/arm/common/cmsis\cmsis_gcc.h ****   \brief   Get Fault Mask (non-secure)
 466:g:/iot/IoT_Device_Demo/iot_link/os/liteos/arch/arm/common/cmsis\cmsis_gcc.h ****   \details Returns the current value of the non-secure Fault Mask register when in secure state.
 467:g:/iot/IoT_Device_Demo/iot_link/os/liteos/arch/arm/common/cmsis\cmsis_gcc.h ****   \return               Fault Mask register value
 468:g:/iot/IoT_Device_Demo/iot_link/os/liteos/arch/arm/common/cmsis\cmsis_gcc.h ****  */
 469:g:/iot/IoT_Device_Demo/iot_link/os/liteos/arch/arm/common/cmsis\cmsis_gcc.h **** __attribute__((always_inline)) __STATIC_INLINE uint32_t __TZ_get_FAULTMASK_NS(void)
 470:g:/iot/IoT_Device_Demo/iot_link/os/liteos/arch/arm/common/cmsis\cmsis_gcc.h **** {
 471:g:/iot/IoT_Device_Demo/iot_link/os/liteos/arch/arm/common/cmsis\cmsis_gcc.h ****   uint32_t result;
 472:g:/iot/IoT_Device_Demo/iot_link/os/liteos/arch/arm/common/cmsis\cmsis_gcc.h **** 
 473:g:/iot/IoT_Device_Demo/iot_link/os/liteos/arch/arm/common/cmsis\cmsis_gcc.h ****   __ASM volatile ("MRS %0, faultmask_ns" : "=r" (result) );
 474:g:/iot/IoT_Device_Demo/iot_link/os/liteos/arch/arm/common/cmsis\cmsis_gcc.h ****   return(result);
 475:g:/iot/IoT_Device_Demo/iot_link/os/liteos/arch/arm/common/cmsis\cmsis_gcc.h **** }
 476:g:/iot/IoT_Device_Demo/iot_link/os/liteos/arch/arm/common/cmsis\cmsis_gcc.h **** #endif
 477:g:/iot/IoT_Device_Demo/iot_link/os/liteos/arch/arm/common/cmsis\cmsis_gcc.h **** 
 478:g:/iot/IoT_Device_Demo/iot_link/os/liteos/arch/arm/common/cmsis\cmsis_gcc.h **** 
 479:g:/iot/IoT_Device_Demo/iot_link/os/liteos/arch/arm/common/cmsis\cmsis_gcc.h **** /**
 480:g:/iot/IoT_Device_Demo/iot_link/os/liteos/arch/arm/common/cmsis\cmsis_gcc.h ****   \brief   Set Fault Mask
 481:g:/iot/IoT_Device_Demo/iot_link/os/liteos/arch/arm/common/cmsis\cmsis_gcc.h ****   \details Assigns the given value to the Fault Mask register.
 482:g:/iot/IoT_Device_Demo/iot_link/os/liteos/arch/arm/common/cmsis\cmsis_gcc.h ****   \param [in]    faultMask  Fault Mask value to set
 483:g:/iot/IoT_Device_Demo/iot_link/os/liteos/arch/arm/common/cmsis\cmsis_gcc.h ****  */
 484:g:/iot/IoT_Device_Demo/iot_link/os/liteos/arch/arm/common/cmsis\cmsis_gcc.h **** __attribute__((always_inline)) __STATIC_INLINE void __set_FAULTMASK(uint32_t faultMask)
 485:g:/iot/IoT_Device_Demo/iot_link/os/liteos/arch/arm/common/cmsis\cmsis_gcc.h **** {
 486:g:/iot/IoT_Device_Demo/iot_link/os/liteos/arch/arm/common/cmsis\cmsis_gcc.h ****   __ASM volatile ("MSR faultmask, %0" : : "r" (faultMask) : "memory");
 487:g:/iot/IoT_Device_Demo/iot_link/os/liteos/arch/arm/common/cmsis\cmsis_gcc.h **** }
 488:g:/iot/IoT_Device_Demo/iot_link/os/liteos/arch/arm/common/cmsis\cmsis_gcc.h **** 
 489:g:/iot/IoT_Device_Demo/iot_link/os/liteos/arch/arm/common/cmsis\cmsis_gcc.h **** 
 490:g:/iot/IoT_Device_Demo/iot_link/os/liteos/arch/arm/common/cmsis\cmsis_gcc.h **** #if (defined (__ARM_FEATURE_CMSE ) && (__ARM_FEATURE_CMSE == 3))
 491:g:/iot/IoT_Device_Demo/iot_link/os/liteos/arch/arm/common/cmsis\cmsis_gcc.h **** /**
 492:g:/iot/IoT_Device_Demo/iot_link/os/liteos/arch/arm/common/cmsis\cmsis_gcc.h ****   \brief   Set Fault Mask (non-secure)
 493:g:/iot/IoT_Device_Demo/iot_link/os/liteos/arch/arm/common/cmsis\cmsis_gcc.h ****   \details Assigns the given value to the non-secure Fault Mask register when in secure state.
 494:g:/iot/IoT_Device_Demo/iot_link/os/liteos/arch/arm/common/cmsis\cmsis_gcc.h ****   \param [in]    faultMask  Fault Mask value to set
 495:g:/iot/IoT_Device_Demo/iot_link/os/liteos/arch/arm/common/cmsis\cmsis_gcc.h ****  */
 496:g:/iot/IoT_Device_Demo/iot_link/os/liteos/arch/arm/common/cmsis\cmsis_gcc.h **** __attribute__((always_inline)) __STATIC_INLINE void __TZ_set_FAULTMASK_NS(uint32_t faultMask)
 497:g:/iot/IoT_Device_Demo/iot_link/os/liteos/arch/arm/common/cmsis\cmsis_gcc.h **** {
 498:g:/iot/IoT_Device_Demo/iot_link/os/liteos/arch/arm/common/cmsis\cmsis_gcc.h ****   __ASM volatile ("MSR faultmask_ns, %0" : : "r" (faultMask) : "memory");
ARM GAS  C:\Users\ADMINI~1\AppData\Local\Temp\ccULSjfE.s 			page 26


 499:g:/iot/IoT_Device_Demo/iot_link/os/liteos/arch/arm/common/cmsis\cmsis_gcc.h **** }
 500:g:/iot/IoT_Device_Demo/iot_link/os/liteos/arch/arm/common/cmsis\cmsis_gcc.h **** #endif
 501:g:/iot/IoT_Device_Demo/iot_link/os/liteos/arch/arm/common/cmsis\cmsis_gcc.h **** 
 502:g:/iot/IoT_Device_Demo/iot_link/os/liteos/arch/arm/common/cmsis\cmsis_gcc.h **** #endif /* ((defined (__ARM_ARCH_7M__      ) && (__ARM_ARCH_7M__      == 1)) || \
 503:g:/iot/IoT_Device_Demo/iot_link/os/liteos/arch/arm/common/cmsis\cmsis_gcc.h ****            (defined (__ARM_ARCH_7EM__     ) && (__ARM_ARCH_7EM__     == 1)) || \
 504:g:/iot/IoT_Device_Demo/iot_link/os/liteos/arch/arm/common/cmsis\cmsis_gcc.h ****            (defined (__ARM_ARCH_8M_MAIN__ ) && (__ARM_ARCH_8M_MAIN__ == 1))    ) */
 505:g:/iot/IoT_Device_Demo/iot_link/os/liteos/arch/arm/common/cmsis\cmsis_gcc.h **** 
 506:g:/iot/IoT_Device_Demo/iot_link/os/liteos/arch/arm/common/cmsis\cmsis_gcc.h **** 
 507:g:/iot/IoT_Device_Demo/iot_link/os/liteos/arch/arm/common/cmsis\cmsis_gcc.h **** #if ((defined (__ARM_ARCH_8M_MAIN__ ) && (__ARM_ARCH_8M_MAIN__ == 1)) || \
 508:g:/iot/IoT_Device_Demo/iot_link/os/liteos/arch/arm/common/cmsis\cmsis_gcc.h ****      (defined (__ARM_ARCH_8M_BASE__ ) && (__ARM_ARCH_8M_BASE__ == 1))    )
 509:g:/iot/IoT_Device_Demo/iot_link/os/liteos/arch/arm/common/cmsis\cmsis_gcc.h **** 
 510:g:/iot/IoT_Device_Demo/iot_link/os/liteos/arch/arm/common/cmsis\cmsis_gcc.h **** /**
 511:g:/iot/IoT_Device_Demo/iot_link/os/liteos/arch/arm/common/cmsis\cmsis_gcc.h ****   \brief   Get Process Stack Pointer Limit
 512:g:/iot/IoT_Device_Demo/iot_link/os/liteos/arch/arm/common/cmsis\cmsis_gcc.h ****   \details Returns the current value of the Process Stack Pointer Limit (PSPLIM).
 513:g:/iot/IoT_Device_Demo/iot_link/os/liteos/arch/arm/common/cmsis\cmsis_gcc.h ****   \return               PSPLIM Register value
 514:g:/iot/IoT_Device_Demo/iot_link/os/liteos/arch/arm/common/cmsis\cmsis_gcc.h ****  */
 515:g:/iot/IoT_Device_Demo/iot_link/os/liteos/arch/arm/common/cmsis\cmsis_gcc.h **** __attribute__((always_inline)) __STATIC_INLINE uint32_t __get_PSPLIM(void)
 516:g:/iot/IoT_Device_Demo/iot_link/os/liteos/arch/arm/common/cmsis\cmsis_gcc.h **** {
 517:g:/iot/IoT_Device_Demo/iot_link/os/liteos/arch/arm/common/cmsis\cmsis_gcc.h ****   register uint32_t result;
 518:g:/iot/IoT_Device_Demo/iot_link/os/liteos/arch/arm/common/cmsis\cmsis_gcc.h **** 
 519:g:/iot/IoT_Device_Demo/iot_link/os/liteos/arch/arm/common/cmsis\cmsis_gcc.h ****   __ASM volatile ("MRS %0, psplim"  : "=r" (result) );
 520:g:/iot/IoT_Device_Demo/iot_link/os/liteos/arch/arm/common/cmsis\cmsis_gcc.h ****   return(result);
 521:g:/iot/IoT_Device_Demo/iot_link/os/liteos/arch/arm/common/cmsis\cmsis_gcc.h **** }
 522:g:/iot/IoT_Device_Demo/iot_link/os/liteos/arch/arm/common/cmsis\cmsis_gcc.h **** 
 523:g:/iot/IoT_Device_Demo/iot_link/os/liteos/arch/arm/common/cmsis\cmsis_gcc.h **** 
 524:g:/iot/IoT_Device_Demo/iot_link/os/liteos/arch/arm/common/cmsis\cmsis_gcc.h **** #if ((defined (__ARM_FEATURE_CMSE  ) && (__ARM_FEATURE_CMSE   == 3)) && \
 525:g:/iot/IoT_Device_Demo/iot_link/os/liteos/arch/arm/common/cmsis\cmsis_gcc.h ****      (defined (__ARM_ARCH_8M_MAIN__) && (__ARM_ARCH_8M_MAIN__ == 1))    )
 526:g:/iot/IoT_Device_Demo/iot_link/os/liteos/arch/arm/common/cmsis\cmsis_gcc.h **** /**
 527:g:/iot/IoT_Device_Demo/iot_link/os/liteos/arch/arm/common/cmsis\cmsis_gcc.h ****   \brief   Get Process Stack Pointer Limit (non-secure)
 528:g:/iot/IoT_Device_Demo/iot_link/os/liteos/arch/arm/common/cmsis\cmsis_gcc.h ****   \details Returns the current value of the non-secure Process Stack Pointer Limit (PSPLIM) when in
 529:g:/iot/IoT_Device_Demo/iot_link/os/liteos/arch/arm/common/cmsis\cmsis_gcc.h ****   \return               PSPLIM Register value
 530:g:/iot/IoT_Device_Demo/iot_link/os/liteos/arch/arm/common/cmsis\cmsis_gcc.h ****  */
 531:g:/iot/IoT_Device_Demo/iot_link/os/liteos/arch/arm/common/cmsis\cmsis_gcc.h **** __attribute__((always_inline)) __STATIC_INLINE uint32_t __TZ_get_PSPLIM_NS(void)
 532:g:/iot/IoT_Device_Demo/iot_link/os/liteos/arch/arm/common/cmsis\cmsis_gcc.h **** {
 533:g:/iot/IoT_Device_Demo/iot_link/os/liteos/arch/arm/common/cmsis\cmsis_gcc.h ****   register uint32_t result;
 534:g:/iot/IoT_Device_Demo/iot_link/os/liteos/arch/arm/common/cmsis\cmsis_gcc.h **** 
 535:g:/iot/IoT_Device_Demo/iot_link/os/liteos/arch/arm/common/cmsis\cmsis_gcc.h ****   __ASM volatile ("MRS %0, psplim_ns"  : "=r" (result) );
 536:g:/iot/IoT_Device_Demo/iot_link/os/liteos/arch/arm/common/cmsis\cmsis_gcc.h ****   return(result);
 537:g:/iot/IoT_Device_Demo/iot_link/os/liteos/arch/arm/common/cmsis\cmsis_gcc.h **** }
 538:g:/iot/IoT_Device_Demo/iot_link/os/liteos/arch/arm/common/cmsis\cmsis_gcc.h **** #endif
 539:g:/iot/IoT_Device_Demo/iot_link/os/liteos/arch/arm/common/cmsis\cmsis_gcc.h **** 
 540:g:/iot/IoT_Device_Demo/iot_link/os/liteos/arch/arm/common/cmsis\cmsis_gcc.h **** 
 541:g:/iot/IoT_Device_Demo/iot_link/os/liteos/arch/arm/common/cmsis\cmsis_gcc.h **** /**
 542:g:/iot/IoT_Device_Demo/iot_link/os/liteos/arch/arm/common/cmsis\cmsis_gcc.h ****   \brief   Set Process Stack Pointer Limit
 543:g:/iot/IoT_Device_Demo/iot_link/os/liteos/arch/arm/common/cmsis\cmsis_gcc.h ****   \details Assigns the given value to the Process Stack Pointer Limit (PSPLIM).
 544:g:/iot/IoT_Device_Demo/iot_link/os/liteos/arch/arm/common/cmsis\cmsis_gcc.h ****   \param [in]    ProcStackPtrLimit  Process Stack Pointer Limit value to set
 545:g:/iot/IoT_Device_Demo/iot_link/os/liteos/arch/arm/common/cmsis\cmsis_gcc.h ****  */
 546:g:/iot/IoT_Device_Demo/iot_link/os/liteos/arch/arm/common/cmsis\cmsis_gcc.h **** __attribute__((always_inline)) __STATIC_INLINE void __set_PSPLIM(uint32_t ProcStackPtrLimit)
 547:g:/iot/IoT_Device_Demo/iot_link/os/liteos/arch/arm/common/cmsis\cmsis_gcc.h **** {
 548:g:/iot/IoT_Device_Demo/iot_link/os/liteos/arch/arm/common/cmsis\cmsis_gcc.h ****   __ASM volatile ("MSR psplim, %0" : : "r" (ProcStackPtrLimit));
 549:g:/iot/IoT_Device_Demo/iot_link/os/liteos/arch/arm/common/cmsis\cmsis_gcc.h **** }
 550:g:/iot/IoT_Device_Demo/iot_link/os/liteos/arch/arm/common/cmsis\cmsis_gcc.h **** 
 551:g:/iot/IoT_Device_Demo/iot_link/os/liteos/arch/arm/common/cmsis\cmsis_gcc.h **** 
 552:g:/iot/IoT_Device_Demo/iot_link/os/liteos/arch/arm/common/cmsis\cmsis_gcc.h **** #if ((defined (__ARM_FEATURE_CMSE  ) && (__ARM_FEATURE_CMSE   == 3)) && \
 553:g:/iot/IoT_Device_Demo/iot_link/os/liteos/arch/arm/common/cmsis\cmsis_gcc.h ****      (defined (__ARM_ARCH_8M_MAIN__) && (__ARM_ARCH_8M_MAIN__ == 1))    )
 554:g:/iot/IoT_Device_Demo/iot_link/os/liteos/arch/arm/common/cmsis\cmsis_gcc.h **** /**
 555:g:/iot/IoT_Device_Demo/iot_link/os/liteos/arch/arm/common/cmsis\cmsis_gcc.h ****   \brief   Set Process Stack Pointer (non-secure)
ARM GAS  C:\Users\ADMINI~1\AppData\Local\Temp\ccULSjfE.s 			page 27


 556:g:/iot/IoT_Device_Demo/iot_link/os/liteos/arch/arm/common/cmsis\cmsis_gcc.h ****   \details Assigns the given value to the non-secure Process Stack Pointer Limit (PSPLIM) when in s
 557:g:/iot/IoT_Device_Demo/iot_link/os/liteos/arch/arm/common/cmsis\cmsis_gcc.h ****   \param [in]    ProcStackPtrLimit  Process Stack Pointer Limit value to set
 558:g:/iot/IoT_Device_Demo/iot_link/os/liteos/arch/arm/common/cmsis\cmsis_gcc.h ****  */
 559:g:/iot/IoT_Device_Demo/iot_link/os/liteos/arch/arm/common/cmsis\cmsis_gcc.h **** __attribute__((always_inline)) __STATIC_INLINE void __TZ_set_PSPLIM_NS(uint32_t ProcStackPtrLimit)
 560:g:/iot/IoT_Device_Demo/iot_link/os/liteos/arch/arm/common/cmsis\cmsis_gcc.h **** {
 561:g:/iot/IoT_Device_Demo/iot_link/os/liteos/arch/arm/common/cmsis\cmsis_gcc.h ****   __ASM volatile ("MSR psplim_ns, %0\n" : : "r" (ProcStackPtrLimit));
 562:g:/iot/IoT_Device_Demo/iot_link/os/liteos/arch/arm/common/cmsis\cmsis_gcc.h **** }
 563:g:/iot/IoT_Device_Demo/iot_link/os/liteos/arch/arm/common/cmsis\cmsis_gcc.h **** #endif
 564:g:/iot/IoT_Device_Demo/iot_link/os/liteos/arch/arm/common/cmsis\cmsis_gcc.h **** 
 565:g:/iot/IoT_Device_Demo/iot_link/os/liteos/arch/arm/common/cmsis\cmsis_gcc.h **** 
 566:g:/iot/IoT_Device_Demo/iot_link/os/liteos/arch/arm/common/cmsis\cmsis_gcc.h **** /**
 567:g:/iot/IoT_Device_Demo/iot_link/os/liteos/arch/arm/common/cmsis\cmsis_gcc.h ****   \brief   Get Main Stack Pointer Limit
 568:g:/iot/IoT_Device_Demo/iot_link/os/liteos/arch/arm/common/cmsis\cmsis_gcc.h ****   \details Returns the current value of the Main Stack Pointer Limit (MSPLIM).
 569:g:/iot/IoT_Device_Demo/iot_link/os/liteos/arch/arm/common/cmsis\cmsis_gcc.h ****   \return               MSPLIM Register value
 570:g:/iot/IoT_Device_Demo/iot_link/os/liteos/arch/arm/common/cmsis\cmsis_gcc.h ****  */
 571:g:/iot/IoT_Device_Demo/iot_link/os/liteos/arch/arm/common/cmsis\cmsis_gcc.h **** __attribute__((always_inline)) __STATIC_INLINE uint32_t __get_MSPLIM(void)
 572:g:/iot/IoT_Device_Demo/iot_link/os/liteos/arch/arm/common/cmsis\cmsis_gcc.h **** {
 573:g:/iot/IoT_Device_Demo/iot_link/os/liteos/arch/arm/common/cmsis\cmsis_gcc.h ****   register uint32_t result;
 574:g:/iot/IoT_Device_Demo/iot_link/os/liteos/arch/arm/common/cmsis\cmsis_gcc.h **** 
 575:g:/iot/IoT_Device_Demo/iot_link/os/liteos/arch/arm/common/cmsis\cmsis_gcc.h ****   __ASM volatile ("MRS %0, msplim" : "=r" (result) );
 576:g:/iot/IoT_Device_Demo/iot_link/os/liteos/arch/arm/common/cmsis\cmsis_gcc.h **** 
 577:g:/iot/IoT_Device_Demo/iot_link/os/liteos/arch/arm/common/cmsis\cmsis_gcc.h ****   return(result);
 578:g:/iot/IoT_Device_Demo/iot_link/os/liteos/arch/arm/common/cmsis\cmsis_gcc.h **** }
 579:g:/iot/IoT_Device_Demo/iot_link/os/liteos/arch/arm/common/cmsis\cmsis_gcc.h **** 
 580:g:/iot/IoT_Device_Demo/iot_link/os/liteos/arch/arm/common/cmsis\cmsis_gcc.h **** 
 581:g:/iot/IoT_Device_Demo/iot_link/os/liteos/arch/arm/common/cmsis\cmsis_gcc.h **** #if ((defined (__ARM_FEATURE_CMSE  ) && (__ARM_FEATURE_CMSE   == 3)) && \
 582:g:/iot/IoT_Device_Demo/iot_link/os/liteos/arch/arm/common/cmsis\cmsis_gcc.h ****      (defined (__ARM_ARCH_8M_MAIN__) && (__ARM_ARCH_8M_MAIN__ == 1))    )
 583:g:/iot/IoT_Device_Demo/iot_link/os/liteos/arch/arm/common/cmsis\cmsis_gcc.h **** /**
 584:g:/iot/IoT_Device_Demo/iot_link/os/liteos/arch/arm/common/cmsis\cmsis_gcc.h ****   \brief   Get Main Stack Pointer Limit (non-secure)
 585:g:/iot/IoT_Device_Demo/iot_link/os/liteos/arch/arm/common/cmsis\cmsis_gcc.h ****   \details Returns the current value of the non-secure Main Stack Pointer Limit(MSPLIM) when in sec
 586:g:/iot/IoT_Device_Demo/iot_link/os/liteos/arch/arm/common/cmsis\cmsis_gcc.h ****   \return               MSPLIM Register value
 587:g:/iot/IoT_Device_Demo/iot_link/os/liteos/arch/arm/common/cmsis\cmsis_gcc.h ****  */
 588:g:/iot/IoT_Device_Demo/iot_link/os/liteos/arch/arm/common/cmsis\cmsis_gcc.h **** __attribute__((always_inline)) __STATIC_INLINE uint32_t __TZ_get_MSPLIM_NS(void)
 589:g:/iot/IoT_Device_Demo/iot_link/os/liteos/arch/arm/common/cmsis\cmsis_gcc.h **** {
 590:g:/iot/IoT_Device_Demo/iot_link/os/liteos/arch/arm/common/cmsis\cmsis_gcc.h ****   register uint32_t result;
 591:g:/iot/IoT_Device_Demo/iot_link/os/liteos/arch/arm/common/cmsis\cmsis_gcc.h **** 
 592:g:/iot/IoT_Device_Demo/iot_link/os/liteos/arch/arm/common/cmsis\cmsis_gcc.h ****   __ASM volatile ("MRS %0, msplim_ns" : "=r" (result) );
 593:g:/iot/IoT_Device_Demo/iot_link/os/liteos/arch/arm/common/cmsis\cmsis_gcc.h ****   return(result);
 594:g:/iot/IoT_Device_Demo/iot_link/os/liteos/arch/arm/common/cmsis\cmsis_gcc.h **** }
 595:g:/iot/IoT_Device_Demo/iot_link/os/liteos/arch/arm/common/cmsis\cmsis_gcc.h **** #endif
 596:g:/iot/IoT_Device_Demo/iot_link/os/liteos/arch/arm/common/cmsis\cmsis_gcc.h **** 
 597:g:/iot/IoT_Device_Demo/iot_link/os/liteos/arch/arm/common/cmsis\cmsis_gcc.h **** 
 598:g:/iot/IoT_Device_Demo/iot_link/os/liteos/arch/arm/common/cmsis\cmsis_gcc.h **** /**
 599:g:/iot/IoT_Device_Demo/iot_link/os/liteos/arch/arm/common/cmsis\cmsis_gcc.h ****   \brief   Set Main Stack Pointer Limit
 600:g:/iot/IoT_Device_Demo/iot_link/os/liteos/arch/arm/common/cmsis\cmsis_gcc.h ****   \details Assigns the given value to the Main Stack Pointer Limit (MSPLIM).
 601:g:/iot/IoT_Device_Demo/iot_link/os/liteos/arch/arm/common/cmsis\cmsis_gcc.h ****   \param [in]    MainStackPtrLimit  Main Stack Pointer Limit value to set
 602:g:/iot/IoT_Device_Demo/iot_link/os/liteos/arch/arm/common/cmsis\cmsis_gcc.h ****  */
 603:g:/iot/IoT_Device_Demo/iot_link/os/liteos/arch/arm/common/cmsis\cmsis_gcc.h **** __attribute__((always_inline)) __STATIC_INLINE void __set_MSPLIM(uint32_t MainStackPtrLimit)
 604:g:/iot/IoT_Device_Demo/iot_link/os/liteos/arch/arm/common/cmsis\cmsis_gcc.h **** {
 605:g:/iot/IoT_Device_Demo/iot_link/os/liteos/arch/arm/common/cmsis\cmsis_gcc.h ****   __ASM volatile ("MSR msplim, %0" : : "r" (MainStackPtrLimit));
 606:g:/iot/IoT_Device_Demo/iot_link/os/liteos/arch/arm/common/cmsis\cmsis_gcc.h **** }
 607:g:/iot/IoT_Device_Demo/iot_link/os/liteos/arch/arm/common/cmsis\cmsis_gcc.h **** 
 608:g:/iot/IoT_Device_Demo/iot_link/os/liteos/arch/arm/common/cmsis\cmsis_gcc.h **** 
 609:g:/iot/IoT_Device_Demo/iot_link/os/liteos/arch/arm/common/cmsis\cmsis_gcc.h **** #if ((defined (__ARM_FEATURE_CMSE  ) && (__ARM_FEATURE_CMSE   == 3)) && \
 610:g:/iot/IoT_Device_Demo/iot_link/os/liteos/arch/arm/common/cmsis\cmsis_gcc.h ****      (defined (__ARM_ARCH_8M_MAIN__) && (__ARM_ARCH_8M_MAIN__ == 1))    )
 611:g:/iot/IoT_Device_Demo/iot_link/os/liteos/arch/arm/common/cmsis\cmsis_gcc.h **** /**
 612:g:/iot/IoT_Device_Demo/iot_link/os/liteos/arch/arm/common/cmsis\cmsis_gcc.h ****   \brief   Set Main Stack Pointer Limit (non-secure)
ARM GAS  C:\Users\ADMINI~1\AppData\Local\Temp\ccULSjfE.s 			page 28


 613:g:/iot/IoT_Device_Demo/iot_link/os/liteos/arch/arm/common/cmsis\cmsis_gcc.h ****   \details Assigns the given value to the non-secure Main Stack Pointer Limit (MSPLIM) when in secu
 614:g:/iot/IoT_Device_Demo/iot_link/os/liteos/arch/arm/common/cmsis\cmsis_gcc.h ****   \param [in]    MainStackPtrLimit  Main Stack Pointer value to set
 615:g:/iot/IoT_Device_Demo/iot_link/os/liteos/arch/arm/common/cmsis\cmsis_gcc.h ****  */
 616:g:/iot/IoT_Device_Demo/iot_link/os/liteos/arch/arm/common/cmsis\cmsis_gcc.h **** __attribute__((always_inline)) __STATIC_INLINE void __TZ_set_MSPLIM_NS(uint32_t MainStackPtrLimit)
 617:g:/iot/IoT_Device_Demo/iot_link/os/liteos/arch/arm/common/cmsis\cmsis_gcc.h **** {
 618:g:/iot/IoT_Device_Demo/iot_link/os/liteos/arch/arm/common/cmsis\cmsis_gcc.h ****   __ASM volatile ("MSR msplim_ns, %0" : : "r" (MainStackPtrLimit));
 619:g:/iot/IoT_Device_Demo/iot_link/os/liteos/arch/arm/common/cmsis\cmsis_gcc.h **** }
 620:g:/iot/IoT_Device_Demo/iot_link/os/liteos/arch/arm/common/cmsis\cmsis_gcc.h **** #endif
 621:g:/iot/IoT_Device_Demo/iot_link/os/liteos/arch/arm/common/cmsis\cmsis_gcc.h **** 
 622:g:/iot/IoT_Device_Demo/iot_link/os/liteos/arch/arm/common/cmsis\cmsis_gcc.h **** #endif /* ((defined (__ARM_ARCH_8M_MAIN__ ) && (__ARM_ARCH_8M_MAIN__ == 1)) || \
 623:g:/iot/IoT_Device_Demo/iot_link/os/liteos/arch/arm/common/cmsis\cmsis_gcc.h ****            (defined (__ARM_ARCH_8M_BASE__ ) && (__ARM_ARCH_8M_BASE__ == 1))    ) */
 624:g:/iot/IoT_Device_Demo/iot_link/os/liteos/arch/arm/common/cmsis\cmsis_gcc.h **** 
 625:g:/iot/IoT_Device_Demo/iot_link/os/liteos/arch/arm/common/cmsis\cmsis_gcc.h **** 
 626:g:/iot/IoT_Device_Demo/iot_link/os/liteos/arch/arm/common/cmsis\cmsis_gcc.h **** #if ((defined (__ARM_ARCH_7EM__     ) && (__ARM_ARCH_7EM__     == 1)) || \
 627:g:/iot/IoT_Device_Demo/iot_link/os/liteos/arch/arm/common/cmsis\cmsis_gcc.h ****      (defined (__ARM_ARCH_8M_MAIN__ ) && (__ARM_ARCH_8M_MAIN__ == 1))    )
 628:g:/iot/IoT_Device_Demo/iot_link/os/liteos/arch/arm/common/cmsis\cmsis_gcc.h **** 
 629:g:/iot/IoT_Device_Demo/iot_link/os/liteos/arch/arm/common/cmsis\cmsis_gcc.h **** /**
 630:g:/iot/IoT_Device_Demo/iot_link/os/liteos/arch/arm/common/cmsis\cmsis_gcc.h ****   \brief   Get FPSCR
 631:g:/iot/IoT_Device_Demo/iot_link/os/liteos/arch/arm/common/cmsis\cmsis_gcc.h ****   \details Returns the current value of the Floating Point Status/Control register.
 632:g:/iot/IoT_Device_Demo/iot_link/os/liteos/arch/arm/common/cmsis\cmsis_gcc.h ****   \return               Floating Point Status/Control register value
 633:g:/iot/IoT_Device_Demo/iot_link/os/liteos/arch/arm/common/cmsis\cmsis_gcc.h ****  */
 634:g:/iot/IoT_Device_Demo/iot_link/os/liteos/arch/arm/common/cmsis\cmsis_gcc.h **** __attribute__((always_inline)) __STATIC_INLINE uint32_t __get_FPSCR(void)
 635:g:/iot/IoT_Device_Demo/iot_link/os/liteos/arch/arm/common/cmsis\cmsis_gcc.h **** {
 636:g:/iot/IoT_Device_Demo/iot_link/os/liteos/arch/arm/common/cmsis\cmsis_gcc.h **** #if ((defined (__FPU_PRESENT) && (__FPU_PRESENT == 1U)) && \
 637:g:/iot/IoT_Device_Demo/iot_link/os/liteos/arch/arm/common/cmsis\cmsis_gcc.h ****      (defined (__FPU_USED   ) && (__FPU_USED    == 1U))     )
 638:g:/iot/IoT_Device_Demo/iot_link/os/liteos/arch/arm/common/cmsis\cmsis_gcc.h ****   uint32_t result;
 639:g:/iot/IoT_Device_Demo/iot_link/os/liteos/arch/arm/common/cmsis\cmsis_gcc.h **** 
 640:g:/iot/IoT_Device_Demo/iot_link/os/liteos/arch/arm/common/cmsis\cmsis_gcc.h ****   __ASM volatile ("VMRS %0, fpscr" : "=r" (result) );
 641:g:/iot/IoT_Device_Demo/iot_link/os/liteos/arch/arm/common/cmsis\cmsis_gcc.h ****   return(result);
 642:g:/iot/IoT_Device_Demo/iot_link/os/liteos/arch/arm/common/cmsis\cmsis_gcc.h **** #else
 643:g:/iot/IoT_Device_Demo/iot_link/os/liteos/arch/arm/common/cmsis\cmsis_gcc.h ****    return(0U);
 644:g:/iot/IoT_Device_Demo/iot_link/os/liteos/arch/arm/common/cmsis\cmsis_gcc.h **** #endif
 645:g:/iot/IoT_Device_Demo/iot_link/os/liteos/arch/arm/common/cmsis\cmsis_gcc.h **** }
 646:g:/iot/IoT_Device_Demo/iot_link/os/liteos/arch/arm/common/cmsis\cmsis_gcc.h **** 
 647:g:/iot/IoT_Device_Demo/iot_link/os/liteos/arch/arm/common/cmsis\cmsis_gcc.h **** 
 648:g:/iot/IoT_Device_Demo/iot_link/os/liteos/arch/arm/common/cmsis\cmsis_gcc.h **** /**
 649:g:/iot/IoT_Device_Demo/iot_link/os/liteos/arch/arm/common/cmsis\cmsis_gcc.h ****   \brief   Set FPSCR
 650:g:/iot/IoT_Device_Demo/iot_link/os/liteos/arch/arm/common/cmsis\cmsis_gcc.h ****   \details Assigns the given value to the Floating Point Status/Control register.
 651:g:/iot/IoT_Device_Demo/iot_link/os/liteos/arch/arm/common/cmsis\cmsis_gcc.h ****   \param [in]    fpscr  Floating Point Status/Control value to set
 652:g:/iot/IoT_Device_Demo/iot_link/os/liteos/arch/arm/common/cmsis\cmsis_gcc.h ****  */
 653:g:/iot/IoT_Device_Demo/iot_link/os/liteos/arch/arm/common/cmsis\cmsis_gcc.h **** __attribute__((always_inline)) __STATIC_INLINE void __set_FPSCR(uint32_t fpscr)
 654:g:/iot/IoT_Device_Demo/iot_link/os/liteos/arch/arm/common/cmsis\cmsis_gcc.h **** {
 655:g:/iot/IoT_Device_Demo/iot_link/os/liteos/arch/arm/common/cmsis\cmsis_gcc.h **** #if ((defined (__FPU_PRESENT) && (__FPU_PRESENT == 1U)) && \
 656:g:/iot/IoT_Device_Demo/iot_link/os/liteos/arch/arm/common/cmsis\cmsis_gcc.h ****      (defined (__FPU_USED   ) && (__FPU_USED    == 1U))     )
 657:g:/iot/IoT_Device_Demo/iot_link/os/liteos/arch/arm/common/cmsis\cmsis_gcc.h ****   __ASM volatile ("VMSR fpscr, %0" : : "r" (fpscr) : "vfpcc", "memory");
 658:g:/iot/IoT_Device_Demo/iot_link/os/liteos/arch/arm/common/cmsis\cmsis_gcc.h **** #else
 659:g:/iot/IoT_Device_Demo/iot_link/os/liteos/arch/arm/common/cmsis\cmsis_gcc.h ****   (void)fpscr;
 660:g:/iot/IoT_Device_Demo/iot_link/os/liteos/arch/arm/common/cmsis\cmsis_gcc.h **** #endif
 661:g:/iot/IoT_Device_Demo/iot_link/os/liteos/arch/arm/common/cmsis\cmsis_gcc.h **** }
 662:g:/iot/IoT_Device_Demo/iot_link/os/liteos/arch/arm/common/cmsis\cmsis_gcc.h **** 
 663:g:/iot/IoT_Device_Demo/iot_link/os/liteos/arch/arm/common/cmsis\cmsis_gcc.h **** #endif /* ((defined (__ARM_ARCH_7EM__     ) && (__ARM_ARCH_7EM__     == 1)) || \
 664:g:/iot/IoT_Device_Demo/iot_link/os/liteos/arch/arm/common/cmsis\cmsis_gcc.h ****            (defined (__ARM_ARCH_8M_MAIN__ ) && (__ARM_ARCH_8M_MAIN__ == 1))    ) */
 665:g:/iot/IoT_Device_Demo/iot_link/os/liteos/arch/arm/common/cmsis\cmsis_gcc.h **** 
 666:g:/iot/IoT_Device_Demo/iot_link/os/liteos/arch/arm/common/cmsis\cmsis_gcc.h **** 
 667:g:/iot/IoT_Device_Demo/iot_link/os/liteos/arch/arm/common/cmsis\cmsis_gcc.h **** 
 668:g:/iot/IoT_Device_Demo/iot_link/os/liteos/arch/arm/common/cmsis\cmsis_gcc.h **** /*@} end of CMSIS_Core_RegAccFunctions */
 669:g:/iot/IoT_Device_Demo/iot_link/os/liteos/arch/arm/common/cmsis\cmsis_gcc.h **** 
ARM GAS  C:\Users\ADMINI~1\AppData\Local\Temp\ccULSjfE.s 			page 29


 670:g:/iot/IoT_Device_Demo/iot_link/os/liteos/arch/arm/common/cmsis\cmsis_gcc.h **** 
 671:g:/iot/IoT_Device_Demo/iot_link/os/liteos/arch/arm/common/cmsis\cmsis_gcc.h **** /* ##########################  Core Instruction Access  ######################### */
 672:g:/iot/IoT_Device_Demo/iot_link/os/liteos/arch/arm/common/cmsis\cmsis_gcc.h **** /** \defgroup CMSIS_Core_InstructionInterface CMSIS Core Instruction Interface
 673:g:/iot/IoT_Device_Demo/iot_link/os/liteos/arch/arm/common/cmsis\cmsis_gcc.h ****   Access to dedicated instructions
 674:g:/iot/IoT_Device_Demo/iot_link/os/liteos/arch/arm/common/cmsis\cmsis_gcc.h ****   @{
 675:g:/iot/IoT_Device_Demo/iot_link/os/liteos/arch/arm/common/cmsis\cmsis_gcc.h **** */
 676:g:/iot/IoT_Device_Demo/iot_link/os/liteos/arch/arm/common/cmsis\cmsis_gcc.h **** 
 677:g:/iot/IoT_Device_Demo/iot_link/os/liteos/arch/arm/common/cmsis\cmsis_gcc.h **** /* Define macros for porting to both thumb1 and thumb2.
 678:g:/iot/IoT_Device_Demo/iot_link/os/liteos/arch/arm/common/cmsis\cmsis_gcc.h ****  * For thumb1, use low register (r0-r7), specified by constraint "l"
 679:g:/iot/IoT_Device_Demo/iot_link/os/liteos/arch/arm/common/cmsis\cmsis_gcc.h ****  * Otherwise, use general registers, specified by constraint "r" */
 680:g:/iot/IoT_Device_Demo/iot_link/os/liteos/arch/arm/common/cmsis\cmsis_gcc.h **** #if defined (__thumb__) && !defined (__thumb2__)
 681:g:/iot/IoT_Device_Demo/iot_link/os/liteos/arch/arm/common/cmsis\cmsis_gcc.h **** #define __CMSIS_GCC_OUT_REG(r) "=l" (r)
 682:g:/iot/IoT_Device_Demo/iot_link/os/liteos/arch/arm/common/cmsis\cmsis_gcc.h **** #define __CMSIS_GCC_RW_REG(r) "+l" (r)
 683:g:/iot/IoT_Device_Demo/iot_link/os/liteos/arch/arm/common/cmsis\cmsis_gcc.h **** #define __CMSIS_GCC_USE_REG(r) "l" (r)
 684:g:/iot/IoT_Device_Demo/iot_link/os/liteos/arch/arm/common/cmsis\cmsis_gcc.h **** #else
 685:g:/iot/IoT_Device_Demo/iot_link/os/liteos/arch/arm/common/cmsis\cmsis_gcc.h **** #define __CMSIS_GCC_OUT_REG(r) "=r" (r)
 686:g:/iot/IoT_Device_Demo/iot_link/os/liteos/arch/arm/common/cmsis\cmsis_gcc.h **** #define __CMSIS_GCC_RW_REG(r) "+r" (r)
 687:g:/iot/IoT_Device_Demo/iot_link/os/liteos/arch/arm/common/cmsis\cmsis_gcc.h **** #define __CMSIS_GCC_USE_REG(r) "r" (r)
 688:g:/iot/IoT_Device_Demo/iot_link/os/liteos/arch/arm/common/cmsis\cmsis_gcc.h **** #endif
 689:g:/iot/IoT_Device_Demo/iot_link/os/liteos/arch/arm/common/cmsis\cmsis_gcc.h **** 
 690:g:/iot/IoT_Device_Demo/iot_link/os/liteos/arch/arm/common/cmsis\cmsis_gcc.h **** /**
 691:g:/iot/IoT_Device_Demo/iot_link/os/liteos/arch/arm/common/cmsis\cmsis_gcc.h ****   \brief   No Operation
 692:g:/iot/IoT_Device_Demo/iot_link/os/liteos/arch/arm/common/cmsis\cmsis_gcc.h ****   \details No Operation does nothing. This instruction can be used for code alignment purposes.
 693:g:/iot/IoT_Device_Demo/iot_link/os/liteos/arch/arm/common/cmsis\cmsis_gcc.h ****  */
 694:g:/iot/IoT_Device_Demo/iot_link/os/liteos/arch/arm/common/cmsis\cmsis_gcc.h **** //__attribute__((always_inline)) __STATIC_INLINE void __NOP(void)
 695:g:/iot/IoT_Device_Demo/iot_link/os/liteos/arch/arm/common/cmsis\cmsis_gcc.h **** //{
 696:g:/iot/IoT_Device_Demo/iot_link/os/liteos/arch/arm/common/cmsis\cmsis_gcc.h **** //  __ASM volatile ("nop");
 697:g:/iot/IoT_Device_Demo/iot_link/os/liteos/arch/arm/common/cmsis\cmsis_gcc.h **** //}
 698:g:/iot/IoT_Device_Demo/iot_link/os/liteos/arch/arm/common/cmsis\cmsis_gcc.h **** #define __NOP()                             __ASM volatile ("nop")       /* This implementation gen
 699:g:/iot/IoT_Device_Demo/iot_link/os/liteos/arch/arm/common/cmsis\cmsis_gcc.h **** 
 700:g:/iot/IoT_Device_Demo/iot_link/os/liteos/arch/arm/common/cmsis\cmsis_gcc.h **** /**
 701:g:/iot/IoT_Device_Demo/iot_link/os/liteos/arch/arm/common/cmsis\cmsis_gcc.h ****   \brief   Wait For Interrupt
 702:g:/iot/IoT_Device_Demo/iot_link/os/liteos/arch/arm/common/cmsis\cmsis_gcc.h ****   \details Wait For Interrupt is a hint instruction that suspends execution until one of a number o
 703:g:/iot/IoT_Device_Demo/iot_link/os/liteos/arch/arm/common/cmsis\cmsis_gcc.h ****  */
 704:g:/iot/IoT_Device_Demo/iot_link/os/liteos/arch/arm/common/cmsis\cmsis_gcc.h **** //__attribute__((always_inline)) __STATIC_INLINE void __WFI(void)
 705:g:/iot/IoT_Device_Demo/iot_link/os/liteos/arch/arm/common/cmsis\cmsis_gcc.h **** //{
 706:g:/iot/IoT_Device_Demo/iot_link/os/liteos/arch/arm/common/cmsis\cmsis_gcc.h **** //  __ASM volatile ("wfi");
 707:g:/iot/IoT_Device_Demo/iot_link/os/liteos/arch/arm/common/cmsis\cmsis_gcc.h **** //}
 708:g:/iot/IoT_Device_Demo/iot_link/os/liteos/arch/arm/common/cmsis\cmsis_gcc.h **** #define __WFI()                             __ASM volatile ("wfi")       /* This implementation gen
 709:g:/iot/IoT_Device_Demo/iot_link/os/liteos/arch/arm/common/cmsis\cmsis_gcc.h **** 
 710:g:/iot/IoT_Device_Demo/iot_link/os/liteos/arch/arm/common/cmsis\cmsis_gcc.h **** 
 711:g:/iot/IoT_Device_Demo/iot_link/os/liteos/arch/arm/common/cmsis\cmsis_gcc.h **** /**
 712:g:/iot/IoT_Device_Demo/iot_link/os/liteos/arch/arm/common/cmsis\cmsis_gcc.h ****   \brief   Wait For Event
 713:g:/iot/IoT_Device_Demo/iot_link/os/liteos/arch/arm/common/cmsis\cmsis_gcc.h ****   \details Wait For Event is a hint instruction that permits the processor to enter
 714:g:/iot/IoT_Device_Demo/iot_link/os/liteos/arch/arm/common/cmsis\cmsis_gcc.h ****            a low-power state until one of a number of events occurs.
 715:g:/iot/IoT_Device_Demo/iot_link/os/liteos/arch/arm/common/cmsis\cmsis_gcc.h ****  */
 716:g:/iot/IoT_Device_Demo/iot_link/os/liteos/arch/arm/common/cmsis\cmsis_gcc.h **** //__attribute__((always_inline)) __STATIC_INLINE void __WFE(void)
 717:g:/iot/IoT_Device_Demo/iot_link/os/liteos/arch/arm/common/cmsis\cmsis_gcc.h **** //{
 718:g:/iot/IoT_Device_Demo/iot_link/os/liteos/arch/arm/common/cmsis\cmsis_gcc.h **** //  __ASM volatile ("wfe");
 719:g:/iot/IoT_Device_Demo/iot_link/os/liteos/arch/arm/common/cmsis\cmsis_gcc.h **** //}
 720:g:/iot/IoT_Device_Demo/iot_link/os/liteos/arch/arm/common/cmsis\cmsis_gcc.h **** #define __WFE()                             __ASM volatile ("wfe")       /* This implementation gen
 721:g:/iot/IoT_Device_Demo/iot_link/os/liteos/arch/arm/common/cmsis\cmsis_gcc.h **** 
 722:g:/iot/IoT_Device_Demo/iot_link/os/liteos/arch/arm/common/cmsis\cmsis_gcc.h **** 
 723:g:/iot/IoT_Device_Demo/iot_link/os/liteos/arch/arm/common/cmsis\cmsis_gcc.h **** /**
 724:g:/iot/IoT_Device_Demo/iot_link/os/liteos/arch/arm/common/cmsis\cmsis_gcc.h ****   \brief   Send Event
 725:g:/iot/IoT_Device_Demo/iot_link/os/liteos/arch/arm/common/cmsis\cmsis_gcc.h ****   \details Send Event is a hint instruction. It causes an event to be signaled to the CPU.
 726:g:/iot/IoT_Device_Demo/iot_link/os/liteos/arch/arm/common/cmsis\cmsis_gcc.h ****  */
ARM GAS  C:\Users\ADMINI~1\AppData\Local\Temp\ccULSjfE.s 			page 30


 727:g:/iot/IoT_Device_Demo/iot_link/os/liteos/arch/arm/common/cmsis\cmsis_gcc.h **** //__attribute__((always_inline)) __STATIC_INLINE void __SEV(void)
 728:g:/iot/IoT_Device_Demo/iot_link/os/liteos/arch/arm/common/cmsis\cmsis_gcc.h **** //{
 729:g:/iot/IoT_Device_Demo/iot_link/os/liteos/arch/arm/common/cmsis\cmsis_gcc.h **** //  __ASM volatile ("sev");
 730:g:/iot/IoT_Device_Demo/iot_link/os/liteos/arch/arm/common/cmsis\cmsis_gcc.h **** //}
 731:g:/iot/IoT_Device_Demo/iot_link/os/liteos/arch/arm/common/cmsis\cmsis_gcc.h **** #define __SEV()                             __ASM volatile ("sev")       /* This implementation gen
 732:g:/iot/IoT_Device_Demo/iot_link/os/liteos/arch/arm/common/cmsis\cmsis_gcc.h **** 
 733:g:/iot/IoT_Device_Demo/iot_link/os/liteos/arch/arm/common/cmsis\cmsis_gcc.h **** 
 734:g:/iot/IoT_Device_Demo/iot_link/os/liteos/arch/arm/common/cmsis\cmsis_gcc.h **** /**
 735:g:/iot/IoT_Device_Demo/iot_link/os/liteos/arch/arm/common/cmsis\cmsis_gcc.h ****   \brief   Instruction Synchronization Barrier
 736:g:/iot/IoT_Device_Demo/iot_link/os/liteos/arch/arm/common/cmsis\cmsis_gcc.h ****   \details Instruction Synchronization Barrier flushes the pipeline in the processor,
 737:g:/iot/IoT_Device_Demo/iot_link/os/liteos/arch/arm/common/cmsis\cmsis_gcc.h ****            so that all instructions following the ISB are fetched from cache or memory,
 738:g:/iot/IoT_Device_Demo/iot_link/os/liteos/arch/arm/common/cmsis\cmsis_gcc.h ****            after the instruction has been completed.
 739:g:/iot/IoT_Device_Demo/iot_link/os/liteos/arch/arm/common/cmsis\cmsis_gcc.h ****  */
 740:g:/iot/IoT_Device_Demo/iot_link/os/liteos/arch/arm/common/cmsis\cmsis_gcc.h **** __attribute__((always_inline)) __STATIC_INLINE void __ISB(void)
 741:g:/iot/IoT_Device_Demo/iot_link/os/liteos/arch/arm/common/cmsis\cmsis_gcc.h **** {
 742:g:/iot/IoT_Device_Demo/iot_link/os/liteos/arch/arm/common/cmsis\cmsis_gcc.h ****   __ASM volatile ("isb 0xF":::"memory");
 743:g:/iot/IoT_Device_Demo/iot_link/os/liteos/arch/arm/common/cmsis\cmsis_gcc.h **** }
 744:g:/iot/IoT_Device_Demo/iot_link/os/liteos/arch/arm/common/cmsis\cmsis_gcc.h **** 
 745:g:/iot/IoT_Device_Demo/iot_link/os/liteos/arch/arm/common/cmsis\cmsis_gcc.h **** 
 746:g:/iot/IoT_Device_Demo/iot_link/os/liteos/arch/arm/common/cmsis\cmsis_gcc.h **** /**
 747:g:/iot/IoT_Device_Demo/iot_link/os/liteos/arch/arm/common/cmsis\cmsis_gcc.h ****   \brief   Data Synchronization Barrier
 748:g:/iot/IoT_Device_Demo/iot_link/os/liteos/arch/arm/common/cmsis\cmsis_gcc.h ****   \details Acts as a special kind of Data Memory Barrier.
 749:g:/iot/IoT_Device_Demo/iot_link/os/liteos/arch/arm/common/cmsis\cmsis_gcc.h ****            It completes when all explicit memory accesses before this instruction complete.
 750:g:/iot/IoT_Device_Demo/iot_link/os/liteos/arch/arm/common/cmsis\cmsis_gcc.h ****  */
 751:g:/iot/IoT_Device_Demo/iot_link/os/liteos/arch/arm/common/cmsis\cmsis_gcc.h **** __attribute__((always_inline)) __STATIC_INLINE void __DSB(void)
 752:g:/iot/IoT_Device_Demo/iot_link/os/liteos/arch/arm/common/cmsis\cmsis_gcc.h **** {
 753:g:/iot/IoT_Device_Demo/iot_link/os/liteos/arch/arm/common/cmsis\cmsis_gcc.h ****   __ASM volatile ("dsb 0xF":::"memory");
 754:g:/iot/IoT_Device_Demo/iot_link/os/liteos/arch/arm/common/cmsis\cmsis_gcc.h **** }
 755:g:/iot/IoT_Device_Demo/iot_link/os/liteos/arch/arm/common/cmsis\cmsis_gcc.h **** 
 756:g:/iot/IoT_Device_Demo/iot_link/os/liteos/arch/arm/common/cmsis\cmsis_gcc.h **** 
 757:g:/iot/IoT_Device_Demo/iot_link/os/liteos/arch/arm/common/cmsis\cmsis_gcc.h **** /**
 758:g:/iot/IoT_Device_Demo/iot_link/os/liteos/arch/arm/common/cmsis\cmsis_gcc.h ****   \brief   Data Memory Barrier
 759:g:/iot/IoT_Device_Demo/iot_link/os/liteos/arch/arm/common/cmsis\cmsis_gcc.h ****   \details Ensures the apparent order of the explicit memory operations before
 760:g:/iot/IoT_Device_Demo/iot_link/os/liteos/arch/arm/common/cmsis\cmsis_gcc.h ****            and after the instruction, without ensuring their completion.
 761:g:/iot/IoT_Device_Demo/iot_link/os/liteos/arch/arm/common/cmsis\cmsis_gcc.h ****  */
 762:g:/iot/IoT_Device_Demo/iot_link/os/liteos/arch/arm/common/cmsis\cmsis_gcc.h **** __attribute__((always_inline)) __STATIC_INLINE void __DMB(void)
 763:g:/iot/IoT_Device_Demo/iot_link/os/liteos/arch/arm/common/cmsis\cmsis_gcc.h **** {
 764:g:/iot/IoT_Device_Demo/iot_link/os/liteos/arch/arm/common/cmsis\cmsis_gcc.h ****   __ASM volatile ("dmb 0xF":::"memory");
 765:g:/iot/IoT_Device_Demo/iot_link/os/liteos/arch/arm/common/cmsis\cmsis_gcc.h **** }
 766:g:/iot/IoT_Device_Demo/iot_link/os/liteos/arch/arm/common/cmsis\cmsis_gcc.h **** 
 767:g:/iot/IoT_Device_Demo/iot_link/os/liteos/arch/arm/common/cmsis\cmsis_gcc.h **** 
 768:g:/iot/IoT_Device_Demo/iot_link/os/liteos/arch/arm/common/cmsis\cmsis_gcc.h **** /**
 769:g:/iot/IoT_Device_Demo/iot_link/os/liteos/arch/arm/common/cmsis\cmsis_gcc.h ****   \brief   Reverse byte order (32 bit)
 770:g:/iot/IoT_Device_Demo/iot_link/os/liteos/arch/arm/common/cmsis\cmsis_gcc.h ****   \details Reverses the byte order in integer value.
 771:g:/iot/IoT_Device_Demo/iot_link/os/liteos/arch/arm/common/cmsis\cmsis_gcc.h ****   \param [in]    value  Value to reverse
 772:g:/iot/IoT_Device_Demo/iot_link/os/liteos/arch/arm/common/cmsis\cmsis_gcc.h ****   \return               Reversed value
 773:g:/iot/IoT_Device_Demo/iot_link/os/liteos/arch/arm/common/cmsis\cmsis_gcc.h ****  */
 774:g:/iot/IoT_Device_Demo/iot_link/os/liteos/arch/arm/common/cmsis\cmsis_gcc.h **** __attribute__((always_inline)) __STATIC_INLINE uint32_t __REV(uint32_t value)
 775:g:/iot/IoT_Device_Demo/iot_link/os/liteos/arch/arm/common/cmsis\cmsis_gcc.h **** {
 776:g:/iot/IoT_Device_Demo/iot_link/os/liteos/arch/arm/common/cmsis\cmsis_gcc.h **** #if (__GNUC__ > 4) || (__GNUC__ == 4 && __GNUC_MINOR__ >= 5)
 777:g:/iot/IoT_Device_Demo/iot_link/os/liteos/arch/arm/common/cmsis\cmsis_gcc.h ****   return __builtin_bswap32(value);
 778:g:/iot/IoT_Device_Demo/iot_link/os/liteos/arch/arm/common/cmsis\cmsis_gcc.h **** #else
 779:g:/iot/IoT_Device_Demo/iot_link/os/liteos/arch/arm/common/cmsis\cmsis_gcc.h ****   uint32_t result;
 780:g:/iot/IoT_Device_Demo/iot_link/os/liteos/arch/arm/common/cmsis\cmsis_gcc.h **** 
 781:g:/iot/IoT_Device_Demo/iot_link/os/liteos/arch/arm/common/cmsis\cmsis_gcc.h ****   __ASM volatile ("rev %0, %1" : __CMSIS_GCC_OUT_REG (result) : __CMSIS_GCC_USE_REG (value) );
 782:g:/iot/IoT_Device_Demo/iot_link/os/liteos/arch/arm/common/cmsis\cmsis_gcc.h ****   return(result);
 783:g:/iot/IoT_Device_Demo/iot_link/os/liteos/arch/arm/common/cmsis\cmsis_gcc.h **** #endif
ARM GAS  C:\Users\ADMINI~1\AppData\Local\Temp\ccULSjfE.s 			page 31


 784:g:/iot/IoT_Device_Demo/iot_link/os/liteos/arch/arm/common/cmsis\cmsis_gcc.h **** }
 785:g:/iot/IoT_Device_Demo/iot_link/os/liteos/arch/arm/common/cmsis\cmsis_gcc.h **** 
 786:g:/iot/IoT_Device_Demo/iot_link/os/liteos/arch/arm/common/cmsis\cmsis_gcc.h **** 
 787:g:/iot/IoT_Device_Demo/iot_link/os/liteos/arch/arm/common/cmsis\cmsis_gcc.h **** /**
 788:g:/iot/IoT_Device_Demo/iot_link/os/liteos/arch/arm/common/cmsis\cmsis_gcc.h ****   \brief   Reverse byte order (16 bit)
 789:g:/iot/IoT_Device_Demo/iot_link/os/liteos/arch/arm/common/cmsis\cmsis_gcc.h ****   \details Reverses the byte order in two unsigned short values.
 790:g:/iot/IoT_Device_Demo/iot_link/os/liteos/arch/arm/common/cmsis\cmsis_gcc.h ****   \param [in]    value  Value to reverse
 791:g:/iot/IoT_Device_Demo/iot_link/os/liteos/arch/arm/common/cmsis\cmsis_gcc.h ****   \return               Reversed value
 792:g:/iot/IoT_Device_Demo/iot_link/os/liteos/arch/arm/common/cmsis\cmsis_gcc.h ****  */
 793:g:/iot/IoT_Device_Demo/iot_link/os/liteos/arch/arm/common/cmsis\cmsis_gcc.h **** __attribute__((always_inline)) __STATIC_INLINE uint32_t __REV16(uint32_t value)
 794:g:/iot/IoT_Device_Demo/iot_link/os/liteos/arch/arm/common/cmsis\cmsis_gcc.h **** {
 795:g:/iot/IoT_Device_Demo/iot_link/os/liteos/arch/arm/common/cmsis\cmsis_gcc.h ****   uint32_t result;
 796:g:/iot/IoT_Device_Demo/iot_link/os/liteos/arch/arm/common/cmsis\cmsis_gcc.h **** 
 797:g:/iot/IoT_Device_Demo/iot_link/os/liteos/arch/arm/common/cmsis\cmsis_gcc.h ****   __ASM volatile ("rev16 %0, %1" : __CMSIS_GCC_OUT_REG (result) : __CMSIS_GCC_USE_REG (value) );
 798:g:/iot/IoT_Device_Demo/iot_link/os/liteos/arch/arm/common/cmsis\cmsis_gcc.h ****   return(result);
 799:g:/iot/IoT_Device_Demo/iot_link/os/liteos/arch/arm/common/cmsis\cmsis_gcc.h **** }
 800:g:/iot/IoT_Device_Demo/iot_link/os/liteos/arch/arm/common/cmsis\cmsis_gcc.h **** 
 801:g:/iot/IoT_Device_Demo/iot_link/os/liteos/arch/arm/common/cmsis\cmsis_gcc.h **** 
 802:g:/iot/IoT_Device_Demo/iot_link/os/liteos/arch/arm/common/cmsis\cmsis_gcc.h **** /**
 803:g:/iot/IoT_Device_Demo/iot_link/os/liteos/arch/arm/common/cmsis\cmsis_gcc.h ****   \brief   Reverse byte order in signed short value
 804:g:/iot/IoT_Device_Demo/iot_link/os/liteos/arch/arm/common/cmsis\cmsis_gcc.h ****   \details Reverses the byte order in a signed short value with sign extension to integer.
 805:g:/iot/IoT_Device_Demo/iot_link/os/liteos/arch/arm/common/cmsis\cmsis_gcc.h ****   \param [in]    value  Value to reverse
 806:g:/iot/IoT_Device_Demo/iot_link/os/liteos/arch/arm/common/cmsis\cmsis_gcc.h ****   \return               Reversed value
 807:g:/iot/IoT_Device_Demo/iot_link/os/liteos/arch/arm/common/cmsis\cmsis_gcc.h ****  */
 808:g:/iot/IoT_Device_Demo/iot_link/os/liteos/arch/arm/common/cmsis\cmsis_gcc.h **** __attribute__((always_inline)) __STATIC_INLINE int32_t __REVSH(int32_t value)
 809:g:/iot/IoT_Device_Demo/iot_link/os/liteos/arch/arm/common/cmsis\cmsis_gcc.h **** {
 810:g:/iot/IoT_Device_Demo/iot_link/os/liteos/arch/arm/common/cmsis\cmsis_gcc.h **** #if (__GNUC__ > 4) || (__GNUC__ == 4 && __GNUC_MINOR__ >= 8)
 811:g:/iot/IoT_Device_Demo/iot_link/os/liteos/arch/arm/common/cmsis\cmsis_gcc.h ****   return (short)__builtin_bswap16(value);
 812:g:/iot/IoT_Device_Demo/iot_link/os/liteos/arch/arm/common/cmsis\cmsis_gcc.h **** #else
 813:g:/iot/IoT_Device_Demo/iot_link/os/liteos/arch/arm/common/cmsis\cmsis_gcc.h ****   int32_t result;
 814:g:/iot/IoT_Device_Demo/iot_link/os/liteos/arch/arm/common/cmsis\cmsis_gcc.h **** 
 815:g:/iot/IoT_Device_Demo/iot_link/os/liteos/arch/arm/common/cmsis\cmsis_gcc.h ****   __ASM volatile ("revsh %0, %1" : __CMSIS_GCC_OUT_REG (result) : __CMSIS_GCC_USE_REG (value) );
 816:g:/iot/IoT_Device_Demo/iot_link/os/liteos/arch/arm/common/cmsis\cmsis_gcc.h ****   return(result);
 817:g:/iot/IoT_Device_Demo/iot_link/os/liteos/arch/arm/common/cmsis\cmsis_gcc.h **** #endif
 818:g:/iot/IoT_Device_Demo/iot_link/os/liteos/arch/arm/common/cmsis\cmsis_gcc.h **** }
 819:g:/iot/IoT_Device_Demo/iot_link/os/liteos/arch/arm/common/cmsis\cmsis_gcc.h **** 
 820:g:/iot/IoT_Device_Demo/iot_link/os/liteos/arch/arm/common/cmsis\cmsis_gcc.h **** 
 821:g:/iot/IoT_Device_Demo/iot_link/os/liteos/arch/arm/common/cmsis\cmsis_gcc.h **** /**
 822:g:/iot/IoT_Device_Demo/iot_link/os/liteos/arch/arm/common/cmsis\cmsis_gcc.h ****   \brief   Rotate Right in unsigned value (32 bit)
 823:g:/iot/IoT_Device_Demo/iot_link/os/liteos/arch/arm/common/cmsis\cmsis_gcc.h ****   \details Rotate Right (immediate) provides the value of the contents of a register rotated by a v
 824:g:/iot/IoT_Device_Demo/iot_link/os/liteos/arch/arm/common/cmsis\cmsis_gcc.h ****   \param [in]    op1  Value to rotate
 825:g:/iot/IoT_Device_Demo/iot_link/os/liteos/arch/arm/common/cmsis\cmsis_gcc.h ****   \param [in]    op2  Number of Bits to rotate
 826:g:/iot/IoT_Device_Demo/iot_link/os/liteos/arch/arm/common/cmsis\cmsis_gcc.h ****   \return               Rotated value
 827:g:/iot/IoT_Device_Demo/iot_link/os/liteos/arch/arm/common/cmsis\cmsis_gcc.h ****  */
 828:g:/iot/IoT_Device_Demo/iot_link/os/liteos/arch/arm/common/cmsis\cmsis_gcc.h **** __attribute__((always_inline)) __STATIC_INLINE uint32_t __ROR(uint32_t op1, uint32_t op2)
 829:g:/iot/IoT_Device_Demo/iot_link/os/liteos/arch/arm/common/cmsis\cmsis_gcc.h **** {
 830:g:/iot/IoT_Device_Demo/iot_link/os/liteos/arch/arm/common/cmsis\cmsis_gcc.h ****   return (op1 >> op2) | (op1 << (32U - op2));
 831:g:/iot/IoT_Device_Demo/iot_link/os/liteos/arch/arm/common/cmsis\cmsis_gcc.h **** }
 832:g:/iot/IoT_Device_Demo/iot_link/os/liteos/arch/arm/common/cmsis\cmsis_gcc.h **** 
 833:g:/iot/IoT_Device_Demo/iot_link/os/liteos/arch/arm/common/cmsis\cmsis_gcc.h **** 
 834:g:/iot/IoT_Device_Demo/iot_link/os/liteos/arch/arm/common/cmsis\cmsis_gcc.h **** /**
 835:g:/iot/IoT_Device_Demo/iot_link/os/liteos/arch/arm/common/cmsis\cmsis_gcc.h ****   \brief   Breakpoint
 836:g:/iot/IoT_Device_Demo/iot_link/os/liteos/arch/arm/common/cmsis\cmsis_gcc.h ****   \details Causes the processor to enter Debug state.
 837:g:/iot/IoT_Device_Demo/iot_link/os/liteos/arch/arm/common/cmsis\cmsis_gcc.h ****            Debug tools can use this to investigate system state when the instruction at a particula
 838:g:/iot/IoT_Device_Demo/iot_link/os/liteos/arch/arm/common/cmsis\cmsis_gcc.h ****   \param [in]    value  is ignored by the processor.
 839:g:/iot/IoT_Device_Demo/iot_link/os/liteos/arch/arm/common/cmsis\cmsis_gcc.h ****                  If required, a debugger can use it to store additional information about the break
 840:g:/iot/IoT_Device_Demo/iot_link/os/liteos/arch/arm/common/cmsis\cmsis_gcc.h ****  */
ARM GAS  C:\Users\ADMINI~1\AppData\Local\Temp\ccULSjfE.s 			page 32


 841:g:/iot/IoT_Device_Demo/iot_link/os/liteos/arch/arm/common/cmsis\cmsis_gcc.h **** #define __BKPT(value)                       __ASM volatile ("bkpt "#value)
 842:g:/iot/IoT_Device_Demo/iot_link/os/liteos/arch/arm/common/cmsis\cmsis_gcc.h **** 
 843:g:/iot/IoT_Device_Demo/iot_link/os/liteos/arch/arm/common/cmsis\cmsis_gcc.h **** 
 844:g:/iot/IoT_Device_Demo/iot_link/os/liteos/arch/arm/common/cmsis\cmsis_gcc.h **** /**
 845:g:/iot/IoT_Device_Demo/iot_link/os/liteos/arch/arm/common/cmsis\cmsis_gcc.h ****   \brief   Reverse bit order of value
 846:g:/iot/IoT_Device_Demo/iot_link/os/liteos/arch/arm/common/cmsis\cmsis_gcc.h ****   \details Reverses the bit order of the given value.
 847:g:/iot/IoT_Device_Demo/iot_link/os/liteos/arch/arm/common/cmsis\cmsis_gcc.h ****   \param [in]    value  Value to reverse
 848:g:/iot/IoT_Device_Demo/iot_link/os/liteos/arch/arm/common/cmsis\cmsis_gcc.h ****   \return               Reversed value
 849:g:/iot/IoT_Device_Demo/iot_link/os/liteos/arch/arm/common/cmsis\cmsis_gcc.h ****  */
 850:g:/iot/IoT_Device_Demo/iot_link/os/liteos/arch/arm/common/cmsis\cmsis_gcc.h **** __attribute__((always_inline)) __STATIC_INLINE uint32_t __RBIT(uint32_t value)
 851:g:/iot/IoT_Device_Demo/iot_link/os/liteos/arch/arm/common/cmsis\cmsis_gcc.h **** {
 852:g:/iot/IoT_Device_Demo/iot_link/os/liteos/arch/arm/common/cmsis\cmsis_gcc.h ****   uint32_t result;
 853:g:/iot/IoT_Device_Demo/iot_link/os/liteos/arch/arm/common/cmsis\cmsis_gcc.h **** 
 854:g:/iot/IoT_Device_Demo/iot_link/os/liteos/arch/arm/common/cmsis\cmsis_gcc.h **** #if ((defined (__ARM_ARCH_7M__      ) && (__ARM_ARCH_7M__      == 1)) || \
 855:g:/iot/IoT_Device_Demo/iot_link/os/liteos/arch/arm/common/cmsis\cmsis_gcc.h ****      (defined (__ARM_ARCH_7EM__     ) && (__ARM_ARCH_7EM__     == 1)) || \
 856:g:/iot/IoT_Device_Demo/iot_link/os/liteos/arch/arm/common/cmsis\cmsis_gcc.h ****      (defined (__ARM_ARCH_8M_MAIN__ ) && (__ARM_ARCH_8M_MAIN__ == 1))    )
 857:g:/iot/IoT_Device_Demo/iot_link/os/liteos/arch/arm/common/cmsis\cmsis_gcc.h ****    __ASM volatile ("rbit %0, %1" : "=r" (result) : "r" (value) );
 693              		.loc 2 857 4
 694 0024 7B68     		ldr	r3, [r7, #4]
 695              		.syntax unified
 696              	@ 857 "g:/iot/IoT_Device_Demo/iot_link/os/liteos/arch/arm/common/cmsis/cmsis_gcc.h" 1
 697 0026 93FAA3F3 		rbit r3, r3
 698              	@ 0 "" 2
 699              		.thumb
 700              		.syntax unified
 701 002a 3B60     		str	r3, [r7]
 858:g:/iot/IoT_Device_Demo/iot_link/os/liteos/arch/arm/common/cmsis\cmsis_gcc.h **** #else
 859:g:/iot/IoT_Device_Demo/iot_link/os/liteos/arch/arm/common/cmsis\cmsis_gcc.h ****   int32_t s = (4 /*sizeof(v)*/ * 8) - 1; /* extra shift needed at end */
 860:g:/iot/IoT_Device_Demo/iot_link/os/liteos/arch/arm/common/cmsis\cmsis_gcc.h **** 
 861:g:/iot/IoT_Device_Demo/iot_link/os/liteos/arch/arm/common/cmsis\cmsis_gcc.h ****   result = value;                      /* r will be reversed bits of v; first get LSB of v */
 862:g:/iot/IoT_Device_Demo/iot_link/os/liteos/arch/arm/common/cmsis\cmsis_gcc.h ****   for (value >>= 1U; value; value >>= 1U)
 863:g:/iot/IoT_Device_Demo/iot_link/os/liteos/arch/arm/common/cmsis\cmsis_gcc.h ****   {
 864:g:/iot/IoT_Device_Demo/iot_link/os/liteos/arch/arm/common/cmsis\cmsis_gcc.h ****     result <<= 1U;
 865:g:/iot/IoT_Device_Demo/iot_link/os/liteos/arch/arm/common/cmsis\cmsis_gcc.h ****     result |= value & 1U;
 866:g:/iot/IoT_Device_Demo/iot_link/os/liteos/arch/arm/common/cmsis\cmsis_gcc.h ****     s--;
 867:g:/iot/IoT_Device_Demo/iot_link/os/liteos/arch/arm/common/cmsis\cmsis_gcc.h ****   }
 868:g:/iot/IoT_Device_Demo/iot_link/os/liteos/arch/arm/common/cmsis\cmsis_gcc.h ****   result <<= s;                        /* shift when v's highest bits are zero */
 869:g:/iot/IoT_Device_Demo/iot_link/os/liteos/arch/arm/common/cmsis\cmsis_gcc.h **** #endif
 870:g:/iot/IoT_Device_Demo/iot_link/os/liteos/arch/arm/common/cmsis\cmsis_gcc.h ****   return(result);
 702              		.loc 2 870 9
 703 002c 3B68     		ldr	r3, [r7]
 704              	.LBE6:
 705              	.LBE5:
 247:g:/iot/IoT_Device_Demo/targets/STM32L431_BearPi/Hardware/Src\hal_qspi_flash.c ****   hqspi.Init.FlashSize = POSITION_VAL(0x1000000) - 1;
 706              		.loc 1 247 26
 707 002e B3FA83F3 		clz	r3, r3
 708              		.loc 1 247 50
 709 0032 013B     		subs	r3, r3, #1
 710 0034 1A46     		mov	r2, r3
 711              		.loc 1 247 24
 712 0036 0E4B     		ldr	r3, .L37
 713 0038 1A61     		str	r2, [r3, #16]
 248:g:/iot/IoT_Device_Demo/targets/STM32L431_BearPi/Hardware/Src\hal_qspi_flash.c ****   hqspi.Init.ChipSelectHighTime = QSPI_CS_HIGH_TIME_4_CYCLE;
 714              		.loc 1 248 33
 715 003a 0D4B     		ldr	r3, .L37
 716 003c 4FF44072 		mov	r2, #768
 717 0040 5A61     		str	r2, [r3, #20]
ARM GAS  C:\Users\ADMINI~1\AppData\Local\Temp\ccULSjfE.s 			page 33


 249:g:/iot/IoT_Device_Demo/targets/STM32L431_BearPi/Hardware/Src\hal_qspi_flash.c ****   hqspi.Init.ClockMode = QSPI_CLOCK_MODE_0;
 718              		.loc 1 249 24
 719 0042 0B4B     		ldr	r3, .L37
 720 0044 0022     		movs	r2, #0
 721 0046 9A61     		str	r2, [r3, #24]
 250:g:/iot/IoT_Device_Demo/targets/STM32L431_BearPi/Hardware/Src\hal_qspi_flash.c ****   hqspi.Init.FlashID = QSPI_FLASH_ID_1;
 722              		.loc 1 250 22
 723 0048 094B     		ldr	r3, .L37
 724 004a 0022     		movs	r2, #0
 725 004c DA61     		str	r2, [r3, #28]
 251:g:/iot/IoT_Device_Demo/targets/STM32L431_BearPi/Hardware/Src\hal_qspi_flash.c ****   hqspi.Init.DualFlash = QSPI_DUALFLASH_DISABLE;
 726              		.loc 1 251 24
 727 004e 084B     		ldr	r3, .L37
 728 0050 0022     		movs	r2, #0
 729 0052 1A62     		str	r2, [r3, #32]
 252:g:/iot/IoT_Device_Demo/targets/STM32L431_BearPi/Hardware/Src\hal_qspi_flash.c ****   if (HAL_QSPI_Init(&hqspi) != HAL_OK)
 730              		.loc 1 252 7
 731 0054 0648     		ldr	r0, .L37
 732 0056 FFF7FEFF 		bl	HAL_QSPI_Init
 733 005a 0346     		mov	r3, r0
 734              		.loc 1 252 6
 735 005c 002B     		cmp	r3, #0
 736 005e 03D0     		beq	.L36
 253:g:/iot/IoT_Device_Demo/targets/STM32L431_BearPi/Hardware/Src\hal_qspi_flash.c ****   {
 254:g:/iot/IoT_Device_Demo/targets/STM32L431_BearPi/Hardware/Src\hal_qspi_flash.c ****     Error_Handler();
 737              		.loc 1 254 5
 738 0060 FE21     		movs	r1, #254
 739 0062 0548     		ldr	r0, .L37+8
 740 0064 FFF7FEFF 		bl	_Error_Handler
 741              	.L36:
 255:g:/iot/IoT_Device_Demo/targets/STM32L431_BearPi/Hardware/Src\hal_qspi_flash.c ****   }
 256:g:/iot/IoT_Device_Demo/targets/STM32L431_BearPi/Hardware/Src\hal_qspi_flash.c ****    
 257:g:/iot/IoT_Device_Demo/targets/STM32L431_BearPi/Hardware/Src\hal_qspi_flash.c **** }
 742              		.loc 1 257 1
 743 0068 00BF     		nop
 744 006a 0837     		adds	r7, r7, #8
 745              	.LCFI47:
 746              		.cfi_def_cfa_offset 8
 747 006c BD46     		mov	sp, r7
 748              	.LCFI48:
 749              		.cfi_def_cfa_register 13
 750              		@ sp needed
 751 006e 80BD     		pop	{r7, pc}
 752              	.L38:
 753              		.align	2
 754              	.L37:
 755 0070 00000000 		.word	hqspi
 756 0074 001000A0 		.word	-1610608640
 757 0078 00000000 		.word	.LC0
 758              		.cfi_endproc
 759              	.LFE296:
 761              		.section	.text.hal_spi_flash_erase,"ax",%progbits
 762              		.align	1
 763              		.global	hal_spi_flash_erase
 764              		.syntax unified
 765              		.thumb
 766              		.thumb_func
ARM GAS  C:\Users\ADMINI~1\AppData\Local\Temp\ccULSjfE.s 			page 34


 767              		.fpu fpv4-sp-d16
 769              	hal_spi_flash_erase:
 770              	.LFB297:
 258:g:/iot/IoT_Device_Demo/targets/STM32L431_BearPi/Hardware/Src\hal_qspi_flash.c **** 
 259:g:/iot/IoT_Device_Demo/targets/STM32L431_BearPi/Hardware/Src\hal_qspi_flash.c **** int hal_spi_flash_erase(uint32_t addr, int32_t len)
 260:g:/iot/IoT_Device_Demo/targets/STM32L431_BearPi/Hardware/Src\hal_qspi_flash.c **** {
 771              		.loc 1 260 1
 772              		.cfi_startproc
 773              		@ args = 0, pretend = 0, frame = 24
 774              		@ frame_needed = 1, uses_anonymous_args = 0
 775 0000 80B5     		push	{r7, lr}
 776              	.LCFI49:
 777              		.cfi_def_cfa_offset 8
 778              		.cfi_offset 7, -8
 779              		.cfi_offset 14, -4
 780 0002 86B0     		sub	sp, sp, #24
 781              	.LCFI50:
 782              		.cfi_def_cfa_offset 32
 783 0004 00AF     		add	r7, sp, #0
 784              	.LCFI51:
 785              		.cfi_def_cfa_register 7
 786 0006 7860     		str	r0, [r7, #4]
 787 0008 3960     		str	r1, [r7]
 261:g:/iot/IoT_Device_Demo/targets/STM32L431_BearPi/Hardware/Src\hal_qspi_flash.c ****     uint32_t begin;
 262:g:/iot/IoT_Device_Demo/targets/STM32L431_BearPi/Hardware/Src\hal_qspi_flash.c ****     uint32_t end;
 263:g:/iot/IoT_Device_Demo/targets/STM32L431_BearPi/Hardware/Src\hal_qspi_flash.c ****     int i;
 264:g:/iot/IoT_Device_Demo/targets/STM32L431_BearPi/Hardware/Src\hal_qspi_flash.c **** 
 265:g:/iot/IoT_Device_Demo/targets/STM32L431_BearPi/Hardware/Src\hal_qspi_flash.c ****     if (len < 0
 788              		.loc 1 265 8
 789 000a 3B68     		ldr	r3, [r7]
 790 000c 002B     		cmp	r3, #0
 791 000e 09DB     		blt	.L40
 266:g:/iot/IoT_Device_Demo/targets/STM32L431_BearPi/Hardware/Src\hal_qspi_flash.c ****         || addr > QSPI_FLASH_TOTAL_SIZE
 792              		.loc 1 266 9
 793 0010 7B68     		ldr	r3, [r7, #4]
 794 0012 B3F5000F 		cmp	r3, #8388608
 795 0016 05D2     		bcs	.L40
 267:g:/iot/IoT_Device_Demo/targets/STM32L431_BearPi/Hardware/Src\hal_qspi_flash.c ****         || addr + len > QSPI_FLASH_TOTAL_SIZE)
 796              		.loc 1 267 17
 797 0018 3A68     		ldr	r2, [r7]
 798 001a 7B68     		ldr	r3, [r7, #4]
 799 001c 1344     		add	r3, r3, r2
 800              		.loc 1 267 9
 801 001e B3F5000F 		cmp	r3, #8388608
 802 0022 02D3     		bcc	.L41
 803              	.L40:
 268:g:/iot/IoT_Device_Demo/targets/STM32L431_BearPi/Hardware/Src\hal_qspi_flash.c ****     {
 269:g:/iot/IoT_Device_Demo/targets/STM32L431_BearPi/Hardware/Src\hal_qspi_flash.c ****         return -1;
 804              		.loc 1 269 16
 805 0024 4FF0FF33 		mov	r3, #-1
 806 0028 25E0     		b	.L42
 807              	.L41:
 270:g:/iot/IoT_Device_Demo/targets/STM32L431_BearPi/Hardware/Src\hal_qspi_flash.c ****     }
 271:g:/iot/IoT_Device_Demo/targets/STM32L431_BearPi/Hardware/Src\hal_qspi_flash.c **** 
 272:g:/iot/IoT_Device_Demo/targets/STM32L431_BearPi/Hardware/Src\hal_qspi_flash.c ****     begin = addr / QSPI_FLASH_SECTOR * QSPI_FLASH_SECTOR;
 808              		.loc 1 272 11
 809 002a 7B68     		ldr	r3, [r7, #4]
ARM GAS  C:\Users\ADMINI~1\AppData\Local\Temp\ccULSjfE.s 			page 35


 810 002c 23F47F63 		bic	r3, r3, #4080
 811 0030 23F00F03 		bic	r3, r3, #15
 812 0034 3B61     		str	r3, [r7, #16]
 273:g:/iot/IoT_Device_Demo/targets/STM32L431_BearPi/Hardware/Src\hal_qspi_flash.c ****     end = (addr + len - 1) / QSPI_FLASH_SECTOR * QSPI_FLASH_SECTOR;
 813              		.loc 1 273 17
 814 0036 3A68     		ldr	r2, [r7]
 815 0038 7B68     		ldr	r3, [r7, #4]
 816 003a 1344     		add	r3, r3, r2
 817              		.loc 1 273 23
 818 003c 013B     		subs	r3, r3, #1
 819              		.loc 1 273 9
 820 003e 23F47F63 		bic	r3, r3, #4080
 821 0042 23F00F03 		bic	r3, r3, #15
 822 0046 FB60     		str	r3, [r7, #12]
 274:g:/iot/IoT_Device_Demo/targets/STM32L431_BearPi/Hardware/Src\hal_qspi_flash.c **** 
 275:g:/iot/IoT_Device_Demo/targets/STM32L431_BearPi/Hardware/Src\hal_qspi_flash.c ****     for (i = begin; i <= end; i += QSPI_FLASH_SECTOR)
 823              		.loc 1 275 12
 824 0048 3B69     		ldr	r3, [r7, #16]
 825 004a 7B61     		str	r3, [r7, #20]
 826              		.loc 1 275 5
 827 004c 0EE0     		b	.L43
 828              	.L45:
 276:g:/iot/IoT_Device_Demo/targets/STM32L431_BearPi/Hardware/Src\hal_qspi_flash.c ****     {
 277:g:/iot/IoT_Device_Demo/targets/STM32L431_BearPi/Hardware/Src\hal_qspi_flash.c ****         if (prv_spi_flash_erase_sector(i) == -1)
 829              		.loc 1 277 13
 830 004e 7B69     		ldr	r3, [r7, #20]
 831 0050 1846     		mov	r0, r3
 832 0052 FFF7FEFF 		bl	prv_spi_flash_erase_sector
 833 0056 0346     		mov	r3, r0
 834              		.loc 1 277 12
 835 0058 B3F1FF3F 		cmp	r3, #-1
 836 005c 02D1     		bne	.L44
 278:g:/iot/IoT_Device_Demo/targets/STM32L431_BearPi/Hardware/Src\hal_qspi_flash.c ****         {
 279:g:/iot/IoT_Device_Demo/targets/STM32L431_BearPi/Hardware/Src\hal_qspi_flash.c ****             return -1;
 837              		.loc 1 279 20
 838 005e 4FF0FF33 		mov	r3, #-1
 839 0062 08E0     		b	.L42
 840              	.L44:
 275:g:/iot/IoT_Device_Demo/targets/STM32L431_BearPi/Hardware/Src\hal_qspi_flash.c ****     {
 841              		.loc 1 275 33 discriminator 2
 842 0064 7B69     		ldr	r3, [r7, #20]
 843 0066 03F58053 		add	r3, r3, #4096
 844 006a 7B61     		str	r3, [r7, #20]
 845              	.L43:
 275:g:/iot/IoT_Device_Demo/targets/STM32L431_BearPi/Hardware/Src\hal_qspi_flash.c ****     {
 846              		.loc 1 275 23 discriminator 1
 847 006c 7B69     		ldr	r3, [r7, #20]
 275:g:/iot/IoT_Device_Demo/targets/STM32L431_BearPi/Hardware/Src\hal_qspi_flash.c ****     {
 848              		.loc 1 275 5 discriminator 1
 849 006e FA68     		ldr	r2, [r7, #12]
 850 0070 9A42     		cmp	r2, r3
 851 0072 ECD2     		bcs	.L45
 280:g:/iot/IoT_Device_Demo/targets/STM32L431_BearPi/Hardware/Src\hal_qspi_flash.c ****         }
 281:g:/iot/IoT_Device_Demo/targets/STM32L431_BearPi/Hardware/Src\hal_qspi_flash.c ****     }
 282:g:/iot/IoT_Device_Demo/targets/STM32L431_BearPi/Hardware/Src\hal_qspi_flash.c **** 
 283:g:/iot/IoT_Device_Demo/targets/STM32L431_BearPi/Hardware/Src\hal_qspi_flash.c ****     return 0;
 852              		.loc 1 283 12
ARM GAS  C:\Users\ADMINI~1\AppData\Local\Temp\ccULSjfE.s 			page 36


 853 0074 0023     		movs	r3, #0
 854              	.L42:
 284:g:/iot/IoT_Device_Demo/targets/STM32L431_BearPi/Hardware/Src\hal_qspi_flash.c **** }
 855              		.loc 1 284 1
 856 0076 1846     		mov	r0, r3
 857 0078 1837     		adds	r7, r7, #24
 858              	.LCFI52:
 859              		.cfi_def_cfa_offset 8
 860 007a BD46     		mov	sp, r7
 861              	.LCFI53:
 862              		.cfi_def_cfa_register 13
 863              		@ sp needed
 864 007c 80BD     		pop	{r7, pc}
 865              		.cfi_endproc
 866              	.LFE297:
 868              		.section	.text.hal_spi_flash_write,"ax",%progbits
 869              		.align	1
 870              		.global	hal_spi_flash_write
 871              		.syntax unified
 872              		.thumb
 873              		.thumb_func
 874              		.fpu fpv4-sp-d16
 876              	hal_spi_flash_write:
 877              	.LFB298:
 285:g:/iot/IoT_Device_Demo/targets/STM32L431_BearPi/Hardware/Src\hal_qspi_flash.c **** 
 286:g:/iot/IoT_Device_Demo/targets/STM32L431_BearPi/Hardware/Src\hal_qspi_flash.c **** int hal_spi_flash_write(const void* buf, int32_t len, uint32_t* location)
 287:g:/iot/IoT_Device_Demo/targets/STM32L431_BearPi/Hardware/Src\hal_qspi_flash.c **** {
 878              		.loc 1 287 1
 879              		.cfi_startproc
 880              		@ args = 0, pretend = 0, frame = 48
 881              		@ frame_needed = 1, uses_anonymous_args = 0
 882 0000 80B5     		push	{r7, lr}
 883              	.LCFI54:
 884              		.cfi_def_cfa_offset 8
 885              		.cfi_offset 7, -8
 886              		.cfi_offset 14, -4
 887 0002 8CB0     		sub	sp, sp, #48
 888              	.LCFI55:
 889              		.cfi_def_cfa_offset 56
 890 0004 00AF     		add	r7, sp, #0
 891              	.LCFI56:
 892              		.cfi_def_cfa_register 7
 893 0006 F860     		str	r0, [r7, #12]
 894 0008 B960     		str	r1, [r7, #8]
 895 000a 7A60     		str	r2, [r7, #4]
 288:g:/iot/IoT_Device_Demo/targets/STM32L431_BearPi/Hardware/Src\hal_qspi_flash.c ****     const uint8_t* pbuf = (const uint8_t*)buf;
 896              		.loc 1 288 20
 897 000c FB68     		ldr	r3, [r7, #12]
 898 000e 3B62     		str	r3, [r7, #32]
 289:g:/iot/IoT_Device_Demo/targets/STM32L431_BearPi/Hardware/Src\hal_qspi_flash.c ****     int page_cnt = 0;
 899              		.loc 1 289 9
 900 0010 0023     		movs	r3, #0
 901 0012 FB61     		str	r3, [r7, #28]
 290:g:/iot/IoT_Device_Demo/targets/STM32L431_BearPi/Hardware/Src\hal_qspi_flash.c ****     int remain_cnt = 0;
 902              		.loc 1 290 9
 903 0014 0023     		movs	r3, #0
 904 0016 BB61     		str	r3, [r7, #24]
ARM GAS  C:\Users\ADMINI~1\AppData\Local\Temp\ccULSjfE.s 			page 37


 291:g:/iot/IoT_Device_Demo/targets/STM32L431_BearPi/Hardware/Src\hal_qspi_flash.c ****     int temp = 0;
 905              		.loc 1 291 9
 906 0018 0023     		movs	r3, #0
 907 001a 7B61     		str	r3, [r7, #20]
 292:g:/iot/IoT_Device_Demo/targets/STM32L431_BearPi/Hardware/Src\hal_qspi_flash.c ****     uint32_t loc_addr;
 293:g:/iot/IoT_Device_Demo/targets/STM32L431_BearPi/Hardware/Src\hal_qspi_flash.c ****     uint8_t addr = 0;
 908              		.loc 1 293 13
 909 001c 0023     		movs	r3, #0
 910 001e FB74     		strb	r3, [r7, #19]
 294:g:/iot/IoT_Device_Demo/targets/STM32L431_BearPi/Hardware/Src\hal_qspi_flash.c ****     uint8_t count = 0;
 911              		.loc 1 294 13
 912 0020 0023     		movs	r3, #0
 913 0022 BB74     		strb	r3, [r7, #18]
 295:g:/iot/IoT_Device_Demo/targets/STM32L431_BearPi/Hardware/Src\hal_qspi_flash.c ****     int i;
 296:g:/iot/IoT_Device_Demo/targets/STM32L431_BearPi/Hardware/Src\hal_qspi_flash.c ****     int ret = 0;
 914              		.loc 1 296 9
 915 0024 0023     		movs	r3, #0
 916 0026 7B62     		str	r3, [r7, #36]
 297:g:/iot/IoT_Device_Demo/targets/STM32L431_BearPi/Hardware/Src\hal_qspi_flash.c **** 
 298:g:/iot/IoT_Device_Demo/targets/STM32L431_BearPi/Hardware/Src\hal_qspi_flash.c ****     if (NULL == pbuf
 917              		.loc 1 298 8
 918 0028 3B6A     		ldr	r3, [r7, #32]
 919 002a 002B     		cmp	r3, #0
 920 002c 11D0     		beq	.L47
 299:g:/iot/IoT_Device_Demo/targets/STM32L431_BearPi/Hardware/Src\hal_qspi_flash.c ****         || NULL == location
 921              		.loc 1 299 9
 922 002e 7B68     		ldr	r3, [r7, #4]
 923 0030 002B     		cmp	r3, #0
 924 0032 0ED0     		beq	.L47
 300:g:/iot/IoT_Device_Demo/targets/STM32L431_BearPi/Hardware/Src\hal_qspi_flash.c ****         || len < 0
 925              		.loc 1 300 9
 926 0034 BB68     		ldr	r3, [r7, #8]
 927 0036 002B     		cmp	r3, #0
 928 0038 0BDB     		blt	.L47
 301:g:/iot/IoT_Device_Demo/targets/STM32L431_BearPi/Hardware/Src\hal_qspi_flash.c ****         || *location > QSPI_FLASH_TOTAL_SIZE
 929              		.loc 1 301 12
 930 003a 7B68     		ldr	r3, [r7, #4]
 931 003c 1B68     		ldr	r3, [r3]
 932              		.loc 1 301 9
 933 003e B3F5000F 		cmp	r3, #8388608
 934 0042 06D2     		bcs	.L47
 302:g:/iot/IoT_Device_Demo/targets/STM32L431_BearPi/Hardware/Src\hal_qspi_flash.c ****         || len + *location > QSPI_FLASH_TOTAL_SIZE)
 935              		.loc 1 302 18
 936 0044 7B68     		ldr	r3, [r7, #4]
 937 0046 1A68     		ldr	r2, [r3]
 938              		.loc 1 302 16
 939 0048 BB68     		ldr	r3, [r7, #8]
 940 004a 1344     		add	r3, r3, r2
 941              		.loc 1 302 9
 942 004c B3F5000F 		cmp	r3, #8388608
 943 0050 02D3     		bcc	.L48
 944              	.L47:
 303:g:/iot/IoT_Device_Demo/targets/STM32L431_BearPi/Hardware/Src\hal_qspi_flash.c ****     {
 304:g:/iot/IoT_Device_Demo/targets/STM32L431_BearPi/Hardware/Src\hal_qspi_flash.c ****         return -1;
 945              		.loc 1 304 16
 946 0052 4FF0FF33 		mov	r3, #-1
 947 0056 E4E0     		b	.L49
ARM GAS  C:\Users\ADMINI~1\AppData\Local\Temp\ccULSjfE.s 			page 38


 948              	.L48:
 305:g:/iot/IoT_Device_Demo/targets/STM32L431_BearPi/Hardware/Src\hal_qspi_flash.c ****     }
 306:g:/iot/IoT_Device_Demo/targets/STM32L431_BearPi/Hardware/Src\hal_qspi_flash.c **** 
 307:g:/iot/IoT_Device_Demo/targets/STM32L431_BearPi/Hardware/Src\hal_qspi_flash.c ****     loc_addr = *location;
 949              		.loc 1 307 14
 950 0058 7B68     		ldr	r3, [r7, #4]
 951 005a 1B68     		ldr	r3, [r3]
 952 005c FB62     		str	r3, [r7, #44]
 308:g:/iot/IoT_Device_Demo/targets/STM32L431_BearPi/Hardware/Src\hal_qspi_flash.c ****     addr = loc_addr % QSPI_FLASH_PAGESIZE;
 953              		.loc 1 308 10
 954 005e FB6A     		ldr	r3, [r7, #44]
 955 0060 FB74     		strb	r3, [r7, #19]
 309:g:/iot/IoT_Device_Demo/targets/STM32L431_BearPi/Hardware/Src\hal_qspi_flash.c ****     count = QSPI_FLASH_PAGESIZE - addr;
 956              		.loc 1 309 11
 957 0062 FB7C     		ldrb	r3, [r7, #19]
 958 0064 5B42     		rsbs	r3, r3, #0
 959 0066 BB74     		strb	r3, [r7, #18]
 310:g:/iot/IoT_Device_Demo/targets/STM32L431_BearPi/Hardware/Src\hal_qspi_flash.c ****     page_cnt = len / QSPI_FLASH_PAGESIZE;
 960              		.loc 1 310 14
 961 0068 BB68     		ldr	r3, [r7, #8]
 962 006a 002B     		cmp	r3, #0
 963 006c 00DA     		bge	.L50
 964 006e FF33     		adds	r3, r3, #255
 965              	.L50:
 966 0070 1B12     		asrs	r3, r3, #8
 967 0072 FB61     		str	r3, [r7, #28]
 311:g:/iot/IoT_Device_Demo/targets/STM32L431_BearPi/Hardware/Src\hal_qspi_flash.c ****     remain_cnt = len % QSPI_FLASH_PAGESIZE;
 968              		.loc 1 311 16
 969 0074 BB68     		ldr	r3, [r7, #8]
 970 0076 5A42     		rsbs	r2, r3, #0
 971 0078 DBB2     		uxtb	r3, r3
 972 007a D2B2     		uxtb	r2, r2
 973 007c 58BF     		it	pl
 974 007e 5342     		rsbpl	r3, r2, #0
 975 0080 BB61     		str	r3, [r7, #24]
 312:g:/iot/IoT_Device_Demo/targets/STM32L431_BearPi/Hardware/Src\hal_qspi_flash.c **** 
 313:g:/iot/IoT_Device_Demo/targets/STM32L431_BearPi/Hardware/Src\hal_qspi_flash.c ****     if (addr == 0) /* addr is aligned to SPI_FLASH_PAGESIZE */
 976              		.loc 1 313 8
 977 0082 FB7C     		ldrb	r3, [r7, #19]	@ zero_extendqisi2
 978 0084 002B     		cmp	r3, #0
 979 0086 3ED1     		bne	.L51
 314:g:/iot/IoT_Device_Demo/targets/STM32L431_BearPi/Hardware/Src\hal_qspi_flash.c ****     {
 315:g:/iot/IoT_Device_Demo/targets/STM32L431_BearPi/Hardware/Src\hal_qspi_flash.c ****         if (page_cnt == 0) /* len < SPI_FLASH_PAGESIZE */
 980              		.loc 1 315 12
 981 0088 FB69     		ldr	r3, [r7, #28]
 982 008a 002B     		cmp	r3, #0
 983 008c 0BD1     		bne	.L52
 316:g:/iot/IoT_Device_Demo/targets/STM32L431_BearPi/Hardware/Src\hal_qspi_flash.c ****         {
 317:g:/iot/IoT_Device_Demo/targets/STM32L431_BearPi/Hardware/Src\hal_qspi_flash.c ****             ret = prv_spi_flash_write_page(pbuf, loc_addr, len);
 984              		.loc 1 317 19
 985 008e BA68     		ldr	r2, [r7, #8]
 986 0090 F96A     		ldr	r1, [r7, #44]
 987 0092 386A     		ldr	r0, [r7, #32]
 988 0094 FFF7FEFF 		bl	prv_spi_flash_write_page
 989 0098 7862     		str	r0, [r7, #36]
 318:g:/iot/IoT_Device_Demo/targets/STM32L431_BearPi/Hardware/Src\hal_qspi_flash.c ****             CHECK_RET_RETURN(ret);
 990              		.loc 1 318 13
ARM GAS  C:\Users\ADMINI~1\AppData\Local\Temp\ccULSjfE.s 			page 39


 991 009a 7B6A     		ldr	r3, [r7, #36]
 992 009c 002B     		cmp	r3, #0
 993 009e 80F2B980 		bge	.L53
 994              		.loc 1 318 13 is_stmt 0 discriminator 1
 995 00a2 7B6A     		ldr	r3, [r7, #36]
 996 00a4 BDE0     		b	.L49
 997              	.L52:
 319:g:/iot/IoT_Device_Demo/targets/STM32L431_BearPi/Hardware/Src\hal_qspi_flash.c ****         }
 320:g:/iot/IoT_Device_Demo/targets/STM32L431_BearPi/Hardware/Src\hal_qspi_flash.c ****         else /* len > SPI_FLASH_PAGESIZE */
 321:g:/iot/IoT_Device_Demo/targets/STM32L431_BearPi/Hardware/Src\hal_qspi_flash.c ****         {
 322:g:/iot/IoT_Device_Demo/targets/STM32L431_BearPi/Hardware/Src\hal_qspi_flash.c ****             for (i = 0; i < page_cnt; ++i)
 998              		.loc 1 322 20 is_stmt 1
 999 00a6 0023     		movs	r3, #0
 1000 00a8 BB62     		str	r3, [r7, #40]
 1001              		.loc 1 322 13
 1002 00aa 17E0     		b	.L54
 1003              	.L56:
 323:g:/iot/IoT_Device_Demo/targets/STM32L431_BearPi/Hardware/Src\hal_qspi_flash.c ****             {
 324:g:/iot/IoT_Device_Demo/targets/STM32L431_BearPi/Hardware/Src\hal_qspi_flash.c ****                 ret = prv_spi_flash_write_page(pbuf + i * QSPI_FLASH_PAGESIZE, loc_addr, QSPI_FLASH
 1004              		.loc 1 324 57
 1005 00ac BB6A     		ldr	r3, [r7, #40]
 1006 00ae 1B02     		lsls	r3, r3, #8
 1007 00b0 1A46     		mov	r2, r3
 1008              		.loc 1 324 23
 1009 00b2 3B6A     		ldr	r3, [r7, #32]
 1010 00b4 1344     		add	r3, r3, r2
 1011 00b6 4FF48072 		mov	r2, #256
 1012 00ba F96A     		ldr	r1, [r7, #44]
 1013 00bc 1846     		mov	r0, r3
 1014 00be FFF7FEFF 		bl	prv_spi_flash_write_page
 1015 00c2 7862     		str	r0, [r7, #36]
 325:g:/iot/IoT_Device_Demo/targets/STM32L431_BearPi/Hardware/Src\hal_qspi_flash.c ****                 CHECK_RET_RETURN(ret);
 1016              		.loc 1 325 17
 1017 00c4 7B6A     		ldr	r3, [r7, #36]
 1018 00c6 002B     		cmp	r3, #0
 1019 00c8 01DA     		bge	.L55
 1020              		.loc 1 325 17 is_stmt 0 discriminator 1
 1021 00ca 7B6A     		ldr	r3, [r7, #36]
 1022 00cc A9E0     		b	.L49
 1023              	.L55:
 326:g:/iot/IoT_Device_Demo/targets/STM32L431_BearPi/Hardware/Src\hal_qspi_flash.c ****                 loc_addr += QSPI_FLASH_PAGESIZE;
 1024              		.loc 1 326 26 is_stmt 1 discriminator 2
 1025 00ce FB6A     		ldr	r3, [r7, #44]
 1026 00d0 03F58073 		add	r3, r3, #256
 1027 00d4 FB62     		str	r3, [r7, #44]
 322:g:/iot/IoT_Device_Demo/targets/STM32L431_BearPi/Hardware/Src\hal_qspi_flash.c ****             {
 1028              		.loc 1 322 39 discriminator 2
 1029 00d6 BB6A     		ldr	r3, [r7, #40]
 1030 00d8 0133     		adds	r3, r3, #1
 1031 00da BB62     		str	r3, [r7, #40]
 1032              	.L54:
 322:g:/iot/IoT_Device_Demo/targets/STM32L431_BearPi/Hardware/Src\hal_qspi_flash.c ****             {
 1033              		.loc 1 322 13 discriminator 1
 1034 00dc BA6A     		ldr	r2, [r7, #40]
 1035 00de FB69     		ldr	r3, [r7, #28]
 1036 00e0 9A42     		cmp	r2, r3
 1037 00e2 E3DB     		blt	.L56
ARM GAS  C:\Users\ADMINI~1\AppData\Local\Temp\ccULSjfE.s 			page 40


 327:g:/iot/IoT_Device_Demo/targets/STM32L431_BearPi/Hardware/Src\hal_qspi_flash.c ****             }
 328:g:/iot/IoT_Device_Demo/targets/STM32L431_BearPi/Hardware/Src\hal_qspi_flash.c **** 
 329:g:/iot/IoT_Device_Demo/targets/STM32L431_BearPi/Hardware/Src\hal_qspi_flash.c ****             ret = prv_spi_flash_write_page(pbuf + page_cnt * QSPI_FLASH_PAGESIZE, loc_addr, remain_
 1038              		.loc 1 329 60
 1039 00e4 FB69     		ldr	r3, [r7, #28]
 1040 00e6 1B02     		lsls	r3, r3, #8
 1041 00e8 1A46     		mov	r2, r3
 1042              		.loc 1 329 19
 1043 00ea 3B6A     		ldr	r3, [r7, #32]
 1044 00ec 1344     		add	r3, r3, r2
 1045 00ee BA69     		ldr	r2, [r7, #24]
 1046 00f0 F96A     		ldr	r1, [r7, #44]
 1047 00f2 1846     		mov	r0, r3
 1048 00f4 FFF7FEFF 		bl	prv_spi_flash_write_page
 1049 00f8 7862     		str	r0, [r7, #36]
 330:g:/iot/IoT_Device_Demo/targets/STM32L431_BearPi/Hardware/Src\hal_qspi_flash.c ****             CHECK_RET_RETURN(ret);
 1050              		.loc 1 330 13
 1051 00fa 7B6A     		ldr	r3, [r7, #36]
 1052 00fc 002B     		cmp	r3, #0
 1053 00fe 80F28980 		bge	.L53
 1054              		.loc 1 330 13 is_stmt 0 discriminator 1
 1055 0102 7B6A     		ldr	r3, [r7, #36]
 1056 0104 8DE0     		b	.L49
 1057              	.L51:
 331:g:/iot/IoT_Device_Demo/targets/STM32L431_BearPi/Hardware/Src\hal_qspi_flash.c ****         }
 332:g:/iot/IoT_Device_Demo/targets/STM32L431_BearPi/Hardware/Src\hal_qspi_flash.c ****     }
 333:g:/iot/IoT_Device_Demo/targets/STM32L431_BearPi/Hardware/Src\hal_qspi_flash.c ****     else /* addr is not aligned to SPI_FLASH_PAGESIZE */
 334:g:/iot/IoT_Device_Demo/targets/STM32L431_BearPi/Hardware/Src\hal_qspi_flash.c ****     {
 335:g:/iot/IoT_Device_Demo/targets/STM32L431_BearPi/Hardware/Src\hal_qspi_flash.c ****         if (page_cnt == 0) /* len < SPI_FLASH_PAGESIZE */
 1058              		.loc 1 335 12 is_stmt 1
 1059 0106 FB69     		ldr	r3, [r7, #28]
 1060 0108 002B     		cmp	r3, #0
 1061 010a 2ED1     		bne	.L57
 336:g:/iot/IoT_Device_Demo/targets/STM32L431_BearPi/Hardware/Src\hal_qspi_flash.c ****         {
 337:g:/iot/IoT_Device_Demo/targets/STM32L431_BearPi/Hardware/Src\hal_qspi_flash.c ****             if (remain_cnt > count) /* (len + loc_addr) > SPI_FLASH_PAGESIZE */
 1062              		.loc 1 337 28
 1063 010c BB7C     		ldrb	r3, [r7, #18]	@ zero_extendqisi2
 1064              		.loc 1 337 16
 1065 010e BA69     		ldr	r2, [r7, #24]
 1066 0110 9A42     		cmp	r2, r3
 1067 0112 1FDD     		ble	.L58
 338:g:/iot/IoT_Device_Demo/targets/STM32L431_BearPi/Hardware/Src\hal_qspi_flash.c ****             {
 339:g:/iot/IoT_Device_Demo/targets/STM32L431_BearPi/Hardware/Src\hal_qspi_flash.c ****                 temp = remain_cnt - count;
 1068              		.loc 1 339 35
 1069 0114 BB7C     		ldrb	r3, [r7, #18]	@ zero_extendqisi2
 1070              		.loc 1 339 22
 1071 0116 BA69     		ldr	r2, [r7, #24]
 1072 0118 D31A     		subs	r3, r2, r3
 1073 011a 7B61     		str	r3, [r7, #20]
 340:g:/iot/IoT_Device_Demo/targets/STM32L431_BearPi/Hardware/Src\hal_qspi_flash.c **** 
 341:g:/iot/IoT_Device_Demo/targets/STM32L431_BearPi/Hardware/Src\hal_qspi_flash.c ****                 ret = prv_spi_flash_write_page(pbuf, loc_addr, count);
 1074              		.loc 1 341 23
 1075 011c BB7C     		ldrb	r3, [r7, #18]	@ zero_extendqisi2
 1076 011e 1A46     		mov	r2, r3
 1077 0120 F96A     		ldr	r1, [r7, #44]
 1078 0122 386A     		ldr	r0, [r7, #32]
 1079 0124 FFF7FEFF 		bl	prv_spi_flash_write_page
ARM GAS  C:\Users\ADMINI~1\AppData\Local\Temp\ccULSjfE.s 			page 41


 1080 0128 7862     		str	r0, [r7, #36]
 342:g:/iot/IoT_Device_Demo/targets/STM32L431_BearPi/Hardware/Src\hal_qspi_flash.c ****                 CHECK_RET_RETURN(ret);
 1081              		.loc 1 342 17
 1082 012a 7B6A     		ldr	r3, [r7, #36]
 1083 012c 002B     		cmp	r3, #0
 1084 012e 01DA     		bge	.L59
 1085              		.loc 1 342 17 is_stmt 0 discriminator 1
 1086 0130 7B6A     		ldr	r3, [r7, #36]
 1087 0132 76E0     		b	.L49
 1088              	.L59:
 343:g:/iot/IoT_Device_Demo/targets/STM32L431_BearPi/Hardware/Src\hal_qspi_flash.c **** 
 344:g:/iot/IoT_Device_Demo/targets/STM32L431_BearPi/Hardware/Src\hal_qspi_flash.c ****                 ret = prv_spi_flash_write_page(pbuf + count, loc_addr + count, temp);
 1089              		.loc 1 344 23 is_stmt 1
 1090 0134 BB7C     		ldrb	r3, [r7, #18]	@ zero_extendqisi2
 1091 0136 3A6A     		ldr	r2, [r7, #32]
 1092 0138 D018     		adds	r0, r2, r3
 1093 013a BA7C     		ldrb	r2, [r7, #18]	@ zero_extendqisi2
 1094 013c FB6A     		ldr	r3, [r7, #44]
 1095 013e 1344     		add	r3, r3, r2
 1096 0140 7A69     		ldr	r2, [r7, #20]
 1097 0142 1946     		mov	r1, r3
 1098 0144 FFF7FEFF 		bl	prv_spi_flash_write_page
 1099 0148 7862     		str	r0, [r7, #36]
 345:g:/iot/IoT_Device_Demo/targets/STM32L431_BearPi/Hardware/Src\hal_qspi_flash.c ****                 CHECK_RET_RETURN(ret);
 1100              		.loc 1 345 17
 1101 014a 7B6A     		ldr	r3, [r7, #36]
 1102 014c 002B     		cmp	r3, #0
 1103 014e 61DA     		bge	.L53
 1104              		.loc 1 345 17 is_stmt 0 discriminator 1
 1105 0150 7B6A     		ldr	r3, [r7, #36]
 1106 0152 66E0     		b	.L49
 1107              	.L58:
 346:g:/iot/IoT_Device_Demo/targets/STM32L431_BearPi/Hardware/Src\hal_qspi_flash.c ****             }
 347:g:/iot/IoT_Device_Demo/targets/STM32L431_BearPi/Hardware/Src\hal_qspi_flash.c ****             else
 348:g:/iot/IoT_Device_Demo/targets/STM32L431_BearPi/Hardware/Src\hal_qspi_flash.c ****             {
 349:g:/iot/IoT_Device_Demo/targets/STM32L431_BearPi/Hardware/Src\hal_qspi_flash.c ****                 ret = prv_spi_flash_write_page(pbuf, loc_addr, len);
 1108              		.loc 1 349 23 is_stmt 1
 1109 0154 BA68     		ldr	r2, [r7, #8]
 1110 0156 F96A     		ldr	r1, [r7, #44]
 1111 0158 386A     		ldr	r0, [r7, #32]
 1112 015a FFF7FEFF 		bl	prv_spi_flash_write_page
 1113 015e 7862     		str	r0, [r7, #36]
 350:g:/iot/IoT_Device_Demo/targets/STM32L431_BearPi/Hardware/Src\hal_qspi_flash.c ****                 CHECK_RET_RETURN(ret);
 1114              		.loc 1 350 17
 1115 0160 7B6A     		ldr	r3, [r7, #36]
 1116 0162 002B     		cmp	r3, #0
 1117 0164 56DA     		bge	.L53
 1118              		.loc 1 350 17 is_stmt 0 discriminator 1
 1119 0166 7B6A     		ldr	r3, [r7, #36]
 1120 0168 5BE0     		b	.L49
 1121              	.L57:
 351:g:/iot/IoT_Device_Demo/targets/STM32L431_BearPi/Hardware/Src\hal_qspi_flash.c ****             }
 352:g:/iot/IoT_Device_Demo/targets/STM32L431_BearPi/Hardware/Src\hal_qspi_flash.c ****         }
 353:g:/iot/IoT_Device_Demo/targets/STM32L431_BearPi/Hardware/Src\hal_qspi_flash.c ****         else /* len > SPI_FLASH_PAGESIZE */
 354:g:/iot/IoT_Device_Demo/targets/STM32L431_BearPi/Hardware/Src\hal_qspi_flash.c ****         {
 355:g:/iot/IoT_Device_Demo/targets/STM32L431_BearPi/Hardware/Src\hal_qspi_flash.c ****             len -= count;
 1122              		.loc 1 355 17 is_stmt 1
ARM GAS  C:\Users\ADMINI~1\AppData\Local\Temp\ccULSjfE.s 			page 42


 1123 016a BB7C     		ldrb	r3, [r7, #18]	@ zero_extendqisi2
 1124 016c BA68     		ldr	r2, [r7, #8]
 1125 016e D31A     		subs	r3, r2, r3
 1126 0170 BB60     		str	r3, [r7, #8]
 356:g:/iot/IoT_Device_Demo/targets/STM32L431_BearPi/Hardware/Src\hal_qspi_flash.c ****             page_cnt = len / QSPI_FLASH_PAGESIZE;
 1127              		.loc 1 356 22
 1128 0172 BB68     		ldr	r3, [r7, #8]
 1129 0174 002B     		cmp	r3, #0
 1130 0176 00DA     		bge	.L60
 1131 0178 FF33     		adds	r3, r3, #255
 1132              	.L60:
 1133 017a 1B12     		asrs	r3, r3, #8
 1134 017c FB61     		str	r3, [r7, #28]
 357:g:/iot/IoT_Device_Demo/targets/STM32L431_BearPi/Hardware/Src\hal_qspi_flash.c ****             remain_cnt = len % QSPI_FLASH_PAGESIZE;
 1135              		.loc 1 357 24
 1136 017e BB68     		ldr	r3, [r7, #8]
 1137 0180 5A42     		rsbs	r2, r3, #0
 1138 0182 DBB2     		uxtb	r3, r3
 1139 0184 D2B2     		uxtb	r2, r2
 1140 0186 58BF     		it	pl
 1141 0188 5342     		rsbpl	r3, r2, #0
 1142 018a BB61     		str	r3, [r7, #24]
 358:g:/iot/IoT_Device_Demo/targets/STM32L431_BearPi/Hardware/Src\hal_qspi_flash.c **** 
 359:g:/iot/IoT_Device_Demo/targets/STM32L431_BearPi/Hardware/Src\hal_qspi_flash.c ****             ret = prv_spi_flash_write_page(pbuf, loc_addr, count);
 1143              		.loc 1 359 19
 1144 018c BB7C     		ldrb	r3, [r7, #18]	@ zero_extendqisi2
 1145 018e 1A46     		mov	r2, r3
 1146 0190 F96A     		ldr	r1, [r7, #44]
 1147 0192 386A     		ldr	r0, [r7, #32]
 1148 0194 FFF7FEFF 		bl	prv_spi_flash_write_page
 1149 0198 7862     		str	r0, [r7, #36]
 360:g:/iot/IoT_Device_Demo/targets/STM32L431_BearPi/Hardware/Src\hal_qspi_flash.c ****             CHECK_RET_RETURN(ret);
 1150              		.loc 1 360 13
 1151 019a 7B6A     		ldr	r3, [r7, #36]
 1152 019c 002B     		cmp	r3, #0
 1153 019e 01DA     		bge	.L61
 1154              		.loc 1 360 13 is_stmt 0 discriminator 1
 1155 01a0 7B6A     		ldr	r3, [r7, #36]
 1156 01a2 3EE0     		b	.L49
 1157              	.L61:
 361:g:/iot/IoT_Device_Demo/targets/STM32L431_BearPi/Hardware/Src\hal_qspi_flash.c ****             loc_addr += count;
 1158              		.loc 1 361 22 is_stmt 1
 1159 01a4 BB7C     		ldrb	r3, [r7, #18]	@ zero_extendqisi2
 1160 01a6 FA6A     		ldr	r2, [r7, #44]
 1161 01a8 1344     		add	r3, r3, r2
 1162 01aa FB62     		str	r3, [r7, #44]
 362:g:/iot/IoT_Device_Demo/targets/STM32L431_BearPi/Hardware/Src\hal_qspi_flash.c **** 
 363:g:/iot/IoT_Device_Demo/targets/STM32L431_BearPi/Hardware/Src\hal_qspi_flash.c ****             for (i = 0; i < page_cnt; ++i)
 1163              		.loc 1 363 20
 1164 01ac 0023     		movs	r3, #0
 1165 01ae BB62     		str	r3, [r7, #40]
 1166              		.loc 1 363 13
 1167 01b0 18E0     		b	.L62
 1168              	.L64:
 364:g:/iot/IoT_Device_Demo/targets/STM32L431_BearPi/Hardware/Src\hal_qspi_flash.c ****             {
 365:g:/iot/IoT_Device_Demo/targets/STM32L431_BearPi/Hardware/Src\hal_qspi_flash.c ****                 ret = prv_spi_flash_write_page(pbuf + count + i * QSPI_FLASH_PAGESIZE, loc_addr, QS
 1169              		.loc 1 365 61
ARM GAS  C:\Users\ADMINI~1\AppData\Local\Temp\ccULSjfE.s 			page 43


 1170 01b2 BB7C     		ldrb	r3, [r7, #18]	@ zero_extendqisi2
 1171              		.loc 1 365 65
 1172 01b4 BA6A     		ldr	r2, [r7, #40]
 1173 01b6 1202     		lsls	r2, r2, #8
 1174              		.loc 1 365 61
 1175 01b8 1344     		add	r3, r3, r2
 1176              		.loc 1 365 23
 1177 01ba 3A6A     		ldr	r2, [r7, #32]
 1178 01bc 1344     		add	r3, r3, r2
 1179 01be 4FF48072 		mov	r2, #256
 1180 01c2 F96A     		ldr	r1, [r7, #44]
 1181 01c4 1846     		mov	r0, r3
 1182 01c6 FFF7FEFF 		bl	prv_spi_flash_write_page
 1183 01ca 7862     		str	r0, [r7, #36]
 366:g:/iot/IoT_Device_Demo/targets/STM32L431_BearPi/Hardware/Src\hal_qspi_flash.c ****                 CHECK_RET_RETURN(ret);
 1184              		.loc 1 366 17
 1185 01cc 7B6A     		ldr	r3, [r7, #36]
 1186 01ce 002B     		cmp	r3, #0
 1187 01d0 01DA     		bge	.L63
 1188              		.loc 1 366 17 is_stmt 0 discriminator 1
 1189 01d2 7B6A     		ldr	r3, [r7, #36]
 1190 01d4 25E0     		b	.L49
 1191              	.L63:
 367:g:/iot/IoT_Device_Demo/targets/STM32L431_BearPi/Hardware/Src\hal_qspi_flash.c ****                 loc_addr += QSPI_FLASH_PAGESIZE;
 1192              		.loc 1 367 26 is_stmt 1 discriminator 2
 1193 01d6 FB6A     		ldr	r3, [r7, #44]
 1194 01d8 03F58073 		add	r3, r3, #256
 1195 01dc FB62     		str	r3, [r7, #44]
 363:g:/iot/IoT_Device_Demo/targets/STM32L431_BearPi/Hardware/Src\hal_qspi_flash.c ****             {
 1196              		.loc 1 363 39 discriminator 2
 1197 01de BB6A     		ldr	r3, [r7, #40]
 1198 01e0 0133     		adds	r3, r3, #1
 1199 01e2 BB62     		str	r3, [r7, #40]
 1200              	.L62:
 363:g:/iot/IoT_Device_Demo/targets/STM32L431_BearPi/Hardware/Src\hal_qspi_flash.c ****             {
 1201              		.loc 1 363 13 discriminator 1
 1202 01e4 BA6A     		ldr	r2, [r7, #40]
 1203 01e6 FB69     		ldr	r3, [r7, #28]
 1204 01e8 9A42     		cmp	r2, r3
 1205 01ea E2DB     		blt	.L64
 368:g:/iot/IoT_Device_Demo/targets/STM32L431_BearPi/Hardware/Src\hal_qspi_flash.c ****             }
 369:g:/iot/IoT_Device_Demo/targets/STM32L431_BearPi/Hardware/Src\hal_qspi_flash.c **** 
 370:g:/iot/IoT_Device_Demo/targets/STM32L431_BearPi/Hardware/Src\hal_qspi_flash.c ****             if (remain_cnt != 0)
 1206              		.loc 1 370 16
 1207 01ec BB69     		ldr	r3, [r7, #24]
 1208 01ee 002B     		cmp	r3, #0
 1209 01f0 10D0     		beq	.L53
 371:g:/iot/IoT_Device_Demo/targets/STM32L431_BearPi/Hardware/Src\hal_qspi_flash.c ****             {
 372:g:/iot/IoT_Device_Demo/targets/STM32L431_BearPi/Hardware/Src\hal_qspi_flash.c ****                 ret = prv_spi_flash_write_page(pbuf + count + page_cnt * QSPI_FLASH_PAGESIZE, loc_a
 1210              		.loc 1 372 61
 1211 01f2 BB7C     		ldrb	r3, [r7, #18]	@ zero_extendqisi2
 1212              		.loc 1 372 72
 1213 01f4 FA69     		ldr	r2, [r7, #28]
 1214 01f6 1202     		lsls	r2, r2, #8
 1215              		.loc 1 372 61
 1216 01f8 1344     		add	r3, r3, r2
 1217              		.loc 1 372 23
ARM GAS  C:\Users\ADMINI~1\AppData\Local\Temp\ccULSjfE.s 			page 44


 1218 01fa 3A6A     		ldr	r2, [r7, #32]
 1219 01fc 1344     		add	r3, r3, r2
 1220 01fe BA69     		ldr	r2, [r7, #24]
 1221 0200 F96A     		ldr	r1, [r7, #44]
 1222 0202 1846     		mov	r0, r3
 1223 0204 FFF7FEFF 		bl	prv_spi_flash_write_page
 1224 0208 7862     		str	r0, [r7, #36]
 373:g:/iot/IoT_Device_Demo/targets/STM32L431_BearPi/Hardware/Src\hal_qspi_flash.c ****                 CHECK_RET_RETURN(ret);
 1225              		.loc 1 373 17
 1226 020a 7B6A     		ldr	r3, [r7, #36]
 1227 020c 002B     		cmp	r3, #0
 1228 020e 01DA     		bge	.L53
 1229              		.loc 1 373 17 is_stmt 0 discriminator 1
 1230 0210 7B6A     		ldr	r3, [r7, #36]
 1231 0212 06E0     		b	.L49
 1232              	.L53:
 374:g:/iot/IoT_Device_Demo/targets/STM32L431_BearPi/Hardware/Src\hal_qspi_flash.c ****             }
 375:g:/iot/IoT_Device_Demo/targets/STM32L431_BearPi/Hardware/Src\hal_qspi_flash.c ****         }
 376:g:/iot/IoT_Device_Demo/targets/STM32L431_BearPi/Hardware/Src\hal_qspi_flash.c ****     }
 377:g:/iot/IoT_Device_Demo/targets/STM32L431_BearPi/Hardware/Src\hal_qspi_flash.c **** 
 378:g:/iot/IoT_Device_Demo/targets/STM32L431_BearPi/Hardware/Src\hal_qspi_flash.c ****     *location += len;
 1233              		.loc 1 378 15 is_stmt 1
 1234 0214 7B68     		ldr	r3, [r7, #4]
 1235 0216 1A68     		ldr	r2, [r3]
 1236 0218 BB68     		ldr	r3, [r7, #8]
 1237 021a 1A44     		add	r2, r2, r3
 1238 021c 7B68     		ldr	r3, [r7, #4]
 1239 021e 1A60     		str	r2, [r3]
 379:g:/iot/IoT_Device_Demo/targets/STM32L431_BearPi/Hardware/Src\hal_qspi_flash.c ****     return ret;
 1240              		.loc 1 379 12
 1241 0220 7B6A     		ldr	r3, [r7, #36]
 1242              	.L49:
 380:g:/iot/IoT_Device_Demo/targets/STM32L431_BearPi/Hardware/Src\hal_qspi_flash.c **** 		
 381:g:/iot/IoT_Device_Demo/targets/STM32L431_BearPi/Hardware/Src\hal_qspi_flash.c **** }
 1243              		.loc 1 381 1
 1244 0222 1846     		mov	r0, r3
 1245 0224 3037     		adds	r7, r7, #48
 1246              	.LCFI57:
 1247              		.cfi_def_cfa_offset 8
 1248 0226 BD46     		mov	sp, r7
 1249              	.LCFI58:
 1250              		.cfi_def_cfa_register 13
 1251              		@ sp needed
 1252 0228 80BD     		pop	{r7, pc}
 1253              		.cfi_endproc
 1254              	.LFE298:
 1256              		.section	.text.hal_spi_flash_erase_write,"ax",%progbits
 1257              		.align	1
 1258              		.global	hal_spi_flash_erase_write
 1259              		.syntax unified
 1260              		.thumb
 1261              		.thumb_func
 1262              		.fpu fpv4-sp-d16
 1264              	hal_spi_flash_erase_write:
 1265              	.LFB299:
 382:g:/iot/IoT_Device_Demo/targets/STM32L431_BearPi/Hardware/Src\hal_qspi_flash.c **** 
 383:g:/iot/IoT_Device_Demo/targets/STM32L431_BearPi/Hardware/Src\hal_qspi_flash.c **** int hal_spi_flash_erase_write(const void* buf, int32_t len, uint32_t location)
ARM GAS  C:\Users\ADMINI~1\AppData\Local\Temp\ccULSjfE.s 			page 45


 384:g:/iot/IoT_Device_Demo/targets/STM32L431_BearPi/Hardware/Src\hal_qspi_flash.c **** {
 1266              		.loc 1 384 1
 1267              		.cfi_startproc
 1268              		@ args = 0, pretend = 0, frame = 24
 1269              		@ frame_needed = 1, uses_anonymous_args = 0
 1270 0000 80B5     		push	{r7, lr}
 1271              	.LCFI59:
 1272              		.cfi_def_cfa_offset 8
 1273              		.cfi_offset 7, -8
 1274              		.cfi_offset 14, -4
 1275 0002 86B0     		sub	sp, sp, #24
 1276              	.LCFI60:
 1277              		.cfi_def_cfa_offset 32
 1278 0004 00AF     		add	r7, sp, #0
 1279              	.LCFI61:
 1280              		.cfi_def_cfa_register 7
 1281 0006 F860     		str	r0, [r7, #12]
 1282 0008 B960     		str	r1, [r7, #8]
 1283 000a 7A60     		str	r2, [r7, #4]
 385:g:/iot/IoT_Device_Demo/targets/STM32L431_BearPi/Hardware/Src\hal_qspi_flash.c ****     int ret = 0;
 1284              		.loc 1 385 9
 1285 000c 0023     		movs	r3, #0
 1286 000e 7B61     		str	r3, [r7, #20]
 386:g:/iot/IoT_Device_Demo/targets/STM32L431_BearPi/Hardware/Src\hal_qspi_flash.c **** 
 387:g:/iot/IoT_Device_Demo/targets/STM32L431_BearPi/Hardware/Src\hal_qspi_flash.c ****     ret = hal_spi_flash_erase(location, len);
 1287              		.loc 1 387 11
 1288 0010 7B68     		ldr	r3, [r7, #4]
 1289 0012 B968     		ldr	r1, [r7, #8]
 1290 0014 1846     		mov	r0, r3
 1291 0016 FFF7FEFF 		bl	hal_spi_flash_erase
 1292 001a 7861     		str	r0, [r7, #20]
 388:g:/iot/IoT_Device_Demo/targets/STM32L431_BearPi/Hardware/Src\hal_qspi_flash.c ****     CHECK_RET_RETURN(ret);
 1293              		.loc 1 388 5
 1294 001c 7B69     		ldr	r3, [r7, #20]
 1295 001e 002B     		cmp	r3, #0
 1296 0020 01DA     		bge	.L66
 1297              		.loc 1 388 5 is_stmt 0 discriminator 1
 1298 0022 7B69     		ldr	r3, [r7, #20]
 1299 0024 07E0     		b	.L67
 1300              	.L66:
 389:g:/iot/IoT_Device_Demo/targets/STM32L431_BearPi/Hardware/Src\hal_qspi_flash.c ****     ret = hal_spi_flash_write(buf, len, &location);
 1301              		.loc 1 389 11 is_stmt 1
 1302 0026 3B1D     		adds	r3, r7, #4
 1303 0028 1A46     		mov	r2, r3
 1304 002a B968     		ldr	r1, [r7, #8]
 1305 002c F868     		ldr	r0, [r7, #12]
 1306 002e FFF7FEFF 		bl	hal_spi_flash_write
 1307 0032 7861     		str	r0, [r7, #20]
 390:g:/iot/IoT_Device_Demo/targets/STM32L431_BearPi/Hardware/Src\hal_qspi_flash.c **** 
 391:g:/iot/IoT_Device_Demo/targets/STM32L431_BearPi/Hardware/Src\hal_qspi_flash.c ****     return ret;
 1308              		.loc 1 391 12
 1309 0034 7B69     		ldr	r3, [r7, #20]
 1310              	.L67:
 392:g:/iot/IoT_Device_Demo/targets/STM32L431_BearPi/Hardware/Src\hal_qspi_flash.c **** }
 1311              		.loc 1 392 1
 1312 0036 1846     		mov	r0, r3
 1313 0038 1837     		adds	r7, r7, #24
ARM GAS  C:\Users\ADMINI~1\AppData\Local\Temp\ccULSjfE.s 			page 46


 1314              	.LCFI62:
 1315              		.cfi_def_cfa_offset 8
 1316 003a BD46     		mov	sp, r7
 1317              	.LCFI63:
 1318              		.cfi_def_cfa_register 13
 1319              		@ sp needed
 1320 003c 80BD     		pop	{r7, pc}
 1321              		.cfi_endproc
 1322              	.LFE299:
 1324              		.section	.text.hal_spi_flash_read,"ax",%progbits
 1325              		.align	1
 1326              		.global	hal_spi_flash_read
 1327              		.syntax unified
 1328              		.thumb
 1329              		.thumb_func
 1330              		.fpu fpv4-sp-d16
 1332              	hal_spi_flash_read:
 1333              	.LFB300:
 393:g:/iot/IoT_Device_Demo/targets/STM32L431_BearPi/Hardware/Src\hal_qspi_flash.c **** 
 394:g:/iot/IoT_Device_Demo/targets/STM32L431_BearPi/Hardware/Src\hal_qspi_flash.c **** int hal_spi_flash_read(void* buf, int32_t len, uint32_t location)
 395:g:/iot/IoT_Device_Demo/targets/STM32L431_BearPi/Hardware/Src\hal_qspi_flash.c **** {
 1334              		.loc 1 395 1
 1335              		.cfi_startproc
 1336              		@ args = 0, pretend = 0, frame = 24
 1337              		@ frame_needed = 1, uses_anonymous_args = 0
 1338 0000 80B5     		push	{r7, lr}
 1339              	.LCFI64:
 1340              		.cfi_def_cfa_offset 8
 1341              		.cfi_offset 7, -8
 1342              		.cfi_offset 14, -4
 1343 0002 8AB0     		sub	sp, sp, #40
 1344              	.LCFI65:
 1345              		.cfi_def_cfa_offset 48
 1346 0004 04AF     		add	r7, sp, #16
 1347              	.LCFI66:
 1348              		.cfi_def_cfa 7, 32
 1349 0006 F860     		str	r0, [r7, #12]
 1350 0008 B960     		str	r1, [r7, #8]
 1351 000a 7A60     		str	r2, [r7, #4]
 396:g:/iot/IoT_Device_Demo/targets/STM32L431_BearPi/Hardware/Src\hal_qspi_flash.c ****     int ret = 0;
 1352              		.loc 1 396 9
 1353 000c 0023     		movs	r3, #0
 1354 000e 7B61     		str	r3, [r7, #20]
 397:g:/iot/IoT_Device_Demo/targets/STM32L431_BearPi/Hardware/Src\hal_qspi_flash.c ****     uint8_t* pbuf = (uint8_t*)buf;
 1355              		.loc 1 397 14
 1356 0010 FB68     		ldr	r3, [r7, #12]
 1357 0012 3B61     		str	r3, [r7, #16]
 398:g:/iot/IoT_Device_Demo/targets/STM32L431_BearPi/Hardware/Src\hal_qspi_flash.c **** 
 399:g:/iot/IoT_Device_Demo/targets/STM32L431_BearPi/Hardware/Src\hal_qspi_flash.c ****     if (NULL == pbuf
 1358              		.loc 1 399 8
 1359 0014 3B69     		ldr	r3, [r7, #16]
 1360 0016 002B     		cmp	r3, #0
 1361 0018 0CD0     		beq	.L69
 400:g:/iot/IoT_Device_Demo/targets/STM32L431_BearPi/Hardware/Src\hal_qspi_flash.c ****         || len < 0
 1362              		.loc 1 400 9
 1363 001a BB68     		ldr	r3, [r7, #8]
 1364 001c 002B     		cmp	r3, #0
ARM GAS  C:\Users\ADMINI~1\AppData\Local\Temp\ccULSjfE.s 			page 47


 1365 001e 09DB     		blt	.L69
 401:g:/iot/IoT_Device_Demo/targets/STM32L431_BearPi/Hardware/Src\hal_qspi_flash.c ****         || location > QSPI_FLASH_TOTAL_SIZE
 1366              		.loc 1 401 9
 1367 0020 7B68     		ldr	r3, [r7, #4]
 1368 0022 B3F5000F 		cmp	r3, #8388608
 1369 0026 05D2     		bcs	.L69
 402:g:/iot/IoT_Device_Demo/targets/STM32L431_BearPi/Hardware/Src\hal_qspi_flash.c ****         || len + location > QSPI_FLASH_TOTAL_SIZE)
 1370              		.loc 1 402 16
 1371 0028 BA68     		ldr	r2, [r7, #8]
 1372 002a 7B68     		ldr	r3, [r7, #4]
 1373 002c 1344     		add	r3, r3, r2
 1374              		.loc 1 402 9
 1375 002e B3F5000F 		cmp	r3, #8388608
 1376 0032 02D3     		bcc	.L70
 1377              	.L69:
 403:g:/iot/IoT_Device_Demo/targets/STM32L431_BearPi/Hardware/Src\hal_qspi_flash.c ****     {
 404:g:/iot/IoT_Device_Demo/targets/STM32L431_BearPi/Hardware/Src\hal_qspi_flash.c ****         return -1;
 1378              		.loc 1 404 16
 1379 0034 4FF0FF33 		mov	r3, #-1
 1380 0038 15E0     		b	.L71
 1381              	.L70:
 405:g:/iot/IoT_Device_Demo/targets/STM32L431_BearPi/Hardware/Src\hal_qspi_flash.c ****     }
 406:g:/iot/IoT_Device_Demo/targets/STM32L431_BearPi/Hardware/Src\hal_qspi_flash.c **** 
 407:g:/iot/IoT_Device_Demo/targets/STM32L431_BearPi/Hardware/Src\hal_qspi_flash.c **** 		QSPI_Send_CMD(QSPI_FLASH_FastReadData, location, 8, QSPI_INSTRUCTION_1_LINE, QSPI_ADDRESS_1_LINE,
 1382              		.loc 1 407 3
 1383 003a 4FF08073 		mov	r3, #16777216
 1384 003e 0293     		str	r3, [sp, #8]
 1385 0040 4FF40053 		mov	r3, #8192
 1386 0044 0193     		str	r3, [sp, #4]
 1387 0046 4FF48063 		mov	r3, #1024
 1388 004a 0093     		str	r3, [sp]
 1389 004c 4FF48073 		mov	r3, #256
 1390 0050 0822     		movs	r2, #8
 1391 0052 7968     		ldr	r1, [r7, #4]
 1392 0054 0B20     		movs	r0, #11
 1393 0056 FFF7FEFF 		bl	QSPI_Send_CMD
 408:g:/iot/IoT_Device_Demo/targets/STM32L431_BearPi/Hardware/Src\hal_qspi_flash.c ****     QSPI_Receive(buf, len);
 1394              		.loc 1 408 5
 1395 005a BB68     		ldr	r3, [r7, #8]
 1396 005c 1946     		mov	r1, r3
 1397 005e F868     		ldr	r0, [r7, #12]
 1398 0060 FFF7FEFF 		bl	QSPI_Receive
 409:g:/iot/IoT_Device_Demo/targets/STM32L431_BearPi/Hardware/Src\hal_qspi_flash.c **** 		
 410:g:/iot/IoT_Device_Demo/targets/STM32L431_BearPi/Hardware/Src\hal_qspi_flash.c ****     return ret;
 1399              		.loc 1 410 12
 1400 0064 7B69     		ldr	r3, [r7, #20]
 1401              	.L71:
 411:g:/iot/IoT_Device_Demo/targets/STM32L431_BearPi/Hardware/Src\hal_qspi_flash.c **** 		
 412:g:/iot/IoT_Device_Demo/targets/STM32L431_BearPi/Hardware/Src\hal_qspi_flash.c **** }
 1402              		.loc 1 412 1
 1403 0066 1846     		mov	r0, r3
 1404 0068 1837     		adds	r7, r7, #24
 1405              	.LCFI67:
 1406              		.cfi_def_cfa_offset 8
 1407 006a BD46     		mov	sp, r7
 1408              	.LCFI68:
 1409              		.cfi_def_cfa_register 13
ARM GAS  C:\Users\ADMINI~1\AppData\Local\Temp\ccULSjfE.s 			page 48


 1410              		@ sp needed
 1411 006c 80BD     		pop	{r7, pc}
 1412              		.cfi_endproc
 1413              	.LFE300:
 1415              		.section	.text.hal_spi_flash_get_id,"ax",%progbits
 1416              		.align	1
 1417              		.global	hal_spi_flash_get_id
 1418              		.syntax unified
 1419              		.thumb
 1420              		.thumb_func
 1421              		.fpu fpv4-sp-d16
 1423              	hal_spi_flash_get_id:
 1424              	.LFB301:
 413:g:/iot/IoT_Device_Demo/targets/STM32L431_BearPi/Hardware/Src\hal_qspi_flash.c **** 
 414:g:/iot/IoT_Device_Demo/targets/STM32L431_BearPi/Hardware/Src\hal_qspi_flash.c **** int hal_spi_flash_get_id(void)
 415:g:/iot/IoT_Device_Demo/targets/STM32L431_BearPi/Hardware/Src\hal_qspi_flash.c **** {
 1425              		.loc 1 415 1
 1426              		.cfi_startproc
 1427              		@ args = 0, pretend = 0, frame = 8
 1428              		@ frame_needed = 1, uses_anonymous_args = 0
 1429 0000 80B5     		push	{r7, lr}
 1430              	.LCFI69:
 1431              		.cfi_def_cfa_offset 8
 1432              		.cfi_offset 7, -8
 1433              		.cfi_offset 14, -4
 1434 0002 86B0     		sub	sp, sp, #24
 1435              	.LCFI70:
 1436              		.cfi_def_cfa_offset 32
 1437 0004 04AF     		add	r7, sp, #16
 1438              	.LCFI71:
 1439              		.cfi_def_cfa 7, 16
 416:g:/iot/IoT_Device_Demo/targets/STM32L431_BearPi/Hardware/Src\hal_qspi_flash.c **** 		
 417:g:/iot/IoT_Device_Demo/targets/STM32L431_BearPi/Hardware/Src\hal_qspi_flash.c **** 		uint8_t temp[2];
 418:g:/iot/IoT_Device_Demo/targets/STM32L431_BearPi/Hardware/Src\hal_qspi_flash.c ****     uint16_t deviceid;
 419:g:/iot/IoT_Device_Demo/targets/STM32L431_BearPi/Hardware/Src\hal_qspi_flash.c ****     QSPI_Send_CMD(QSPI_FLASH_JedecDeviceID, 0, 0, QSPI_INSTRUCTION_1_LINE, QSPI_ADDRESS_1_LINE, QSP
 1440              		.loc 1 419 5
 1441 0006 4FF08073 		mov	r3, #16777216
 1442 000a 0293     		str	r3, [sp, #8]
 1443 000c 4FF40053 		mov	r3, #8192
 1444 0010 0193     		str	r3, [sp, #4]
 1445 0012 4FF48063 		mov	r3, #1024
 1446 0016 0093     		str	r3, [sp]
 1447 0018 4FF48073 		mov	r3, #256
 1448 001c 0022     		movs	r2, #0
 1449 001e 0021     		movs	r1, #0
 1450 0020 9F20     		movs	r0, #159
 1451 0022 FFF7FEFF 		bl	QSPI_Send_CMD
 420:g:/iot/IoT_Device_Demo/targets/STM32L431_BearPi/Hardware/Src\hal_qspi_flash.c ****     QSPI_Receive(temp, 2);
 1452              		.loc 1 420 5
 1453 0026 3B1D     		adds	r3, r7, #4
 1454 0028 0221     		movs	r1, #2
 1455 002a 1846     		mov	r0, r3
 1456 002c FFF7FEFF 		bl	QSPI_Receive
 421:g:/iot/IoT_Device_Demo/targets/STM32L431_BearPi/Hardware/Src\hal_qspi_flash.c ****     deviceid = (temp[0] << 8) | temp[1];
 1457              		.loc 1 421 21
 1458 0030 3B79     		ldrb	r3, [r7, #4]	@ zero_extendqisi2
 1459              		.loc 1 421 25
ARM GAS  C:\Users\ADMINI~1\AppData\Local\Temp\ccULSjfE.s 			page 49


 1460 0032 1B02     		lsls	r3, r3, #8
 1461              		.loc 1 421 31
 1462 0034 1AB2     		sxth	r2, r3
 1463              		.loc 1 421 37
 1464 0036 7B79     		ldrb	r3, [r7, #5]	@ zero_extendqisi2
 1465 0038 1BB2     		sxth	r3, r3
 1466              		.loc 1 421 31
 1467 003a 1343     		orrs	r3, r3, r2
 1468 003c 1BB2     		sxth	r3, r3
 1469              		.loc 1 421 14
 1470 003e FB80     		strh	r3, [r7, #6]	@ movhi
 422:g:/iot/IoT_Device_Demo/targets/STM32L431_BearPi/Hardware/Src\hal_qspi_flash.c ****     return deviceid;
 1471              		.loc 1 422 12
 1472 0040 FB88     		ldrh	r3, [r7, #6]
 423:g:/iot/IoT_Device_Demo/targets/STM32L431_BearPi/Hardware/Src\hal_qspi_flash.c **** }
 1473              		.loc 1 423 1
 1474 0042 1846     		mov	r0, r3
 1475 0044 0837     		adds	r7, r7, #8
 1476              	.LCFI72:
 1477              		.cfi_def_cfa_offset 8
 1478 0046 BD46     		mov	sp, r7
 1479              	.LCFI73:
 1480              		.cfi_def_cfa_register 13
 1481              		@ sp needed
 1482 0048 80BD     		pop	{r7, pc}
 1483              		.cfi_endproc
 1484              	.LFE301:
 1486              		.text
 1487              	.Letext0:
 1488              		.file 3 "g:\\iot\\.huawei-liteos-studio\\tools\\arm-none-eabi\\arm-none-eabi\\include\\machine\\_d
 1489              		.file 4 "g:\\iot\\.huawei-liteos-studio\\tools\\arm-none-eabi\\arm-none-eabi\\include\\sys\\_stdin
 1490              		.file 5 "g:/iot/IoT_Device_Demo/iot_link/os/liteos/arch/arm/common/cmsis/core_cm4.h"
 1491              		.file 6 "g:/iot/IoT_Device_Demo/targets/STM32L431_BearPi/Inc/system_stm32l4xx.h"
 1492              		.file 7 "g:/iot/IoT_Device_Demo/targets/STM32L431_BearPi/Inc/stm32l431xx.h"
 1493              		.file 8 "g:\\iot\\.huawei-liteos-studio\\tools\\arm-none-eabi\\arm-none-eabi\\include\\sys\\lock.h
 1494              		.file 9 "g:\\iot\\.huawei-liteos-studio\\tools\\arm-none-eabi\\arm-none-eabi\\include\\sys\\_types
 1495              		.file 10 "g:\\iot\\.huawei-liteos-studio\\tools\\arm-none-eabi\\lib\\gcc\\arm-none-eabi\\9.2.1\\in
 1496              		.file 11 "g:\\iot\\.huawei-liteos-studio\\tools\\arm-none-eabi\\arm-none-eabi\\include\\sys\\reent
 1497              		.file 12 "g:/iot/IoT_Device_Demo/iot_link/os/liteos/include/los_typedef.h"
 1498              		.file 13 "g:/iot/IoT_Device_Demo/iot_link/os/liteos/include/los_config.h"
 1499              		.file 14 "g:/iot/IoT_Device_Demo/iot_link/os/liteos/include/los_err.h"
 1500              		.file 15 "g:/iot/IoT_Device_Demo/iot_link/os/liteos/arch/arm/arm-m/include/los_hwi.h"
 1501              		.file 16 "g:/iot/IoT_Device_Demo/targets/STM32L431_BearPi/Inc/stm32l4xx.h"
 1502              		.file 17 "g:/iot/IoT_Device_Demo/drivers/third_party/ST/STM32L4xx_HAL_Driver/Inc/stm32l4xx_hal_def
 1503              		.file 18 "g:/iot/IoT_Device_Demo/drivers/third_party/ST/STM32L4xx_HAL_Driver/Inc/stm32l4xx_hal_gpi
 1504              		.file 19 "g:/iot/IoT_Device_Demo/drivers/third_party/ST/STM32L4xx_HAL_Driver/Inc/stm32l4xx_hal_dma
 1505              		.file 20 "g:/iot/IoT_Device_Demo/drivers/third_party/ST/STM32L4xx_HAL_Driver/Inc/stm32l4xx_hal_qsp
ARM GAS  C:\Users\ADMINI~1\AppData\Local\Temp\ccULSjfE.s 			page 50

