ARM GAS  C:\Users\ADMINI~1\AppData\Local\Temp\ccT1G34X.s 			page 1


   1              		.cpu cortex-m4
   2              		.eabi_attribute 27, 1
   3              		.eabi_attribute 28, 1
   4              		.eabi_attribute 20, 1
   5              		.eabi_attribute 21, 1
   6              		.eabi_attribute 23, 3
   7              		.eabi_attribute 24, 1
   8              		.eabi_attribute 25, 1
   9              		.eabi_attribute 26, 1
  10              		.eabi_attribute 30, 6
  11              		.eabi_attribute 34, 1
  12              		.eabi_attribute 18, 4
  13              		.file	"commandline.c"
  14              		.text
  15              	.Ltext0:
  16              		.cfi_sections	.debug_frame
  17              		.section	.text.prv_find_command,"ax",%progbits
  18              		.align	1
  19              		.arch armv7e-m
  20              		.syntax unified
  21              		.thumb
  22              		.thumb_func
  23              		.fpu fpv4-sp-d16
  25              	prv_find_command:
  26              	.LFB4:
  27              		.file 1 "g:/iot/IoT_Device_Demo/iot_link/network/lwm2m/wakaama_lwm2m/wakaama-master/examples/share
   1:g:/iot/IoT_Device_Demo/iot_link/network/lwm2m/wakaama_lwm2m/wakaama-master/examples/shared\commandline.c **** /*----------------------------------------------------------------------------
   2:g:/iot/IoT_Device_Demo/iot_link/network/lwm2m/wakaama_lwm2m/wakaama-master/examples/shared\commandline.c ****  * Copyright (c) <2016-2018>, <Huawei Technologies Co., Ltd>
   3:g:/iot/IoT_Device_Demo/iot_link/network/lwm2m/wakaama_lwm2m/wakaama-master/examples/shared\commandline.c ****  * All rights reserved.
   4:g:/iot/IoT_Device_Demo/iot_link/network/lwm2m/wakaama_lwm2m/wakaama-master/examples/shared\commandline.c ****  * Redistribution and use in source and binary forms, with or without modification,
   5:g:/iot/IoT_Device_Demo/iot_link/network/lwm2m/wakaama_lwm2m/wakaama-master/examples/shared\commandline.c ****  * are permitted provided that the following conditions are met:
   6:g:/iot/IoT_Device_Demo/iot_link/network/lwm2m/wakaama_lwm2m/wakaama-master/examples/shared\commandline.c ****  * 1. Redistributions of source code must retain the above copyright notice, this list of
   7:g:/iot/IoT_Device_Demo/iot_link/network/lwm2m/wakaama_lwm2m/wakaama-master/examples/shared\commandline.c ****  * conditions and the following disclaimer.
   8:g:/iot/IoT_Device_Demo/iot_link/network/lwm2m/wakaama_lwm2m/wakaama-master/examples/shared\commandline.c ****  * 2. Redistributions in binary form must reproduce the above copyright notice, this list
   9:g:/iot/IoT_Device_Demo/iot_link/network/lwm2m/wakaama_lwm2m/wakaama-master/examples/shared\commandline.c ****  * of conditions and the following disclaimer in the documentation and/or other materials
  10:g:/iot/IoT_Device_Demo/iot_link/network/lwm2m/wakaama_lwm2m/wakaama-master/examples/shared\commandline.c ****  * provided with the distribution.
  11:g:/iot/IoT_Device_Demo/iot_link/network/lwm2m/wakaama_lwm2m/wakaama-master/examples/shared\commandline.c ****  * 3. Neither the name of the copyright holder nor the names of its contributors may be used
  12:g:/iot/IoT_Device_Demo/iot_link/network/lwm2m/wakaama_lwm2m/wakaama-master/examples/shared\commandline.c ****  * to endorse or promote products derived from this software without specific prior written
  13:g:/iot/IoT_Device_Demo/iot_link/network/lwm2m/wakaama_lwm2m/wakaama-master/examples/shared\commandline.c ****  * permission.
  14:g:/iot/IoT_Device_Demo/iot_link/network/lwm2m/wakaama_lwm2m/wakaama-master/examples/shared\commandline.c ****  * THIS SOFTWARE IS PROVIDED BY THE COPYRIGHT HOLDERS AND CONTRIBUTORS
  15:g:/iot/IoT_Device_Demo/iot_link/network/lwm2m/wakaama_lwm2m/wakaama-master/examples/shared\commandline.c ****  * "AS IS" AND ANY EXPRESS OR IMPLIED WARRANTIES, INCLUDING, BUT NOT LIMITED TO,
  16:g:/iot/IoT_Device_Demo/iot_link/network/lwm2m/wakaama_lwm2m/wakaama-master/examples/shared\commandline.c ****  * THE IMPLIED WARRANTIES OF MERCHANTABILITY AND FITNESS FOR A PARTICULAR
  17:g:/iot/IoT_Device_Demo/iot_link/network/lwm2m/wakaama_lwm2m/wakaama-master/examples/shared\commandline.c ****  * PURPOSE ARE DISCLAIMED. IN NO EVENT SHALL THE COPYRIGHT HOLDER OR
  18:g:/iot/IoT_Device_Demo/iot_link/network/lwm2m/wakaama_lwm2m/wakaama-master/examples/shared\commandline.c ****  * CONTRIBUTORS BE LIABLE FOR ANY DIRECT, INDIRECT, INCIDENTAL, SPECIAL,
  19:g:/iot/IoT_Device_Demo/iot_link/network/lwm2m/wakaama_lwm2m/wakaama-master/examples/shared\commandline.c ****  * EXEMPLARY, OR CONSEQUENTIAL DAMAGES (INCLUDING, BUT NOT LIMITED TO,
  20:g:/iot/IoT_Device_Demo/iot_link/network/lwm2m/wakaama_lwm2m/wakaama-master/examples/shared\commandline.c ****  * PROCUREMENT OF SUBSTITUTE GOODS OR SERVICES; LOSS OF USE, DATA, OR PROFITS;
  21:g:/iot/IoT_Device_Demo/iot_link/network/lwm2m/wakaama_lwm2m/wakaama-master/examples/shared\commandline.c ****  * OR BUSINESS INTERRUPTION) HOWEVER CAUSED AND ON ANY THEORY OF LIABILITY,
  22:g:/iot/IoT_Device_Demo/iot_link/network/lwm2m/wakaama_lwm2m/wakaama-master/examples/shared\commandline.c ****  * WHETHER IN CONTRACT, STRICT LIABILITY, OR TORT (INCLUDING NEGLIGENCE OR
  23:g:/iot/IoT_Device_Demo/iot_link/network/lwm2m/wakaama_lwm2m/wakaama-master/examples/shared\commandline.c ****  * OTHERWISE) ARISING IN ANY WAY OUT OF THE USE OF THIS SOFTWARE, EVEN IF
  24:g:/iot/IoT_Device_Demo/iot_link/network/lwm2m/wakaama_lwm2m/wakaama-master/examples/shared\commandline.c ****  * ADVISED OF THE POSSIBILITY OF SUCH DAMAGE.
  25:g:/iot/IoT_Device_Demo/iot_link/network/lwm2m/wakaama_lwm2m/wakaama-master/examples/shared\commandline.c ****  *---------------------------------------------------------------------------*/
  26:g:/iot/IoT_Device_Demo/iot_link/network/lwm2m/wakaama_lwm2m/wakaama-master/examples/shared\commandline.c **** /*----------------------------------------------------------------------------
  27:g:/iot/IoT_Device_Demo/iot_link/network/lwm2m/wakaama_lwm2m/wakaama-master/examples/shared\commandline.c ****  * Notice of Export Control Law
  28:g:/iot/IoT_Device_Demo/iot_link/network/lwm2m/wakaama_lwm2m/wakaama-master/examples/shared\commandline.c ****  * ===============================================
  29:g:/iot/IoT_Device_Demo/iot_link/network/lwm2m/wakaama_lwm2m/wakaama-master/examples/shared\commandline.c ****  * Huawei LiteOS may be subject to applicable export control laws and regulations, which might
  30:g:/iot/IoT_Device_Demo/iot_link/network/lwm2m/wakaama_lwm2m/wakaama-master/examples/shared\commandline.c ****  * include those applicable to Huawei LiteOS of U.S. and the country in which you are located.
  31:g:/iot/IoT_Device_Demo/iot_link/network/lwm2m/wakaama_lwm2m/wakaama-master/examples/shared\commandline.c ****  * Import, export and usage of Huawei LiteOS in any manner by you shall be in compliance with such
ARM GAS  C:\Users\ADMINI~1\AppData\Local\Temp\ccT1G34X.s 			page 2


  32:g:/iot/IoT_Device_Demo/iot_link/network/lwm2m/wakaama_lwm2m/wakaama-master/examples/shared\commandline.c ****  * applicable export control laws and regulations.
  33:g:/iot/IoT_Device_Demo/iot_link/network/lwm2m/wakaama_lwm2m/wakaama-master/examples/shared\commandline.c ****  *---------------------------------------------------------------------------*/
  34:g:/iot/IoT_Device_Demo/iot_link/network/lwm2m/wakaama_lwm2m/wakaama-master/examples/shared\commandline.c **** 
  35:g:/iot/IoT_Device_Demo/iot_link/network/lwm2m/wakaama_lwm2m/wakaama-master/examples/shared\commandline.c **** /*******************************************************************************
  36:g:/iot/IoT_Device_Demo/iot_link/network/lwm2m/wakaama_lwm2m/wakaama-master/examples/shared\commandline.c ****  *
  37:g:/iot/IoT_Device_Demo/iot_link/network/lwm2m/wakaama_lwm2m/wakaama-master/examples/shared\commandline.c ****  * Copyright (c) 2013, 2014, 2015 Intel Corporation and others.
  38:g:/iot/IoT_Device_Demo/iot_link/network/lwm2m/wakaama_lwm2m/wakaama-master/examples/shared\commandline.c ****  * All rights reserved. This program and the accompanying materials
  39:g:/iot/IoT_Device_Demo/iot_link/network/lwm2m/wakaama_lwm2m/wakaama-master/examples/shared\commandline.c ****  * are made available under the terms of the Eclipse Public License v1.0
  40:g:/iot/IoT_Device_Demo/iot_link/network/lwm2m/wakaama_lwm2m/wakaama-master/examples/shared\commandline.c ****  * and Eclipse Distribution License v1.0 which accompany this distribution.
  41:g:/iot/IoT_Device_Demo/iot_link/network/lwm2m/wakaama_lwm2m/wakaama-master/examples/shared\commandline.c ****  *
  42:g:/iot/IoT_Device_Demo/iot_link/network/lwm2m/wakaama_lwm2m/wakaama-master/examples/shared\commandline.c ****  * The Eclipse Public License is available at
  43:g:/iot/IoT_Device_Demo/iot_link/network/lwm2m/wakaama_lwm2m/wakaama-master/examples/shared\commandline.c ****  *    http://www.eclipse.org/legal/epl-v10.html
  44:g:/iot/IoT_Device_Demo/iot_link/network/lwm2m/wakaama_lwm2m/wakaama-master/examples/shared\commandline.c ****  * The Eclipse Distribution License is available at
  45:g:/iot/IoT_Device_Demo/iot_link/network/lwm2m/wakaama_lwm2m/wakaama-master/examples/shared\commandline.c ****  *    http://www.eclipse.org/org/documents/edl-v10.php.
  46:g:/iot/IoT_Device_Demo/iot_link/network/lwm2m/wakaama_lwm2m/wakaama-master/examples/shared\commandline.c ****  *
  47:g:/iot/IoT_Device_Demo/iot_link/network/lwm2m/wakaama_lwm2m/wakaama-master/examples/shared\commandline.c ****  * Contributors:
  48:g:/iot/IoT_Device_Demo/iot_link/network/lwm2m/wakaama_lwm2m/wakaama-master/examples/shared\commandline.c ****  *    David Navarro, Intel Corporation - initial API and implementation
  49:g:/iot/IoT_Device_Demo/iot_link/network/lwm2m/wakaama_lwm2m/wakaama-master/examples/shared\commandline.c ****  *    Fabien Fleutot - Please refer to git log
  50:g:/iot/IoT_Device_Demo/iot_link/network/lwm2m/wakaama_lwm2m/wakaama-master/examples/shared\commandline.c ****  *
  51:g:/iot/IoT_Device_Demo/iot_link/network/lwm2m/wakaama_lwm2m/wakaama-master/examples/shared\commandline.c ****  *******************************************************************************/
  52:g:/iot/IoT_Device_Demo/iot_link/network/lwm2m/wakaama_lwm2m/wakaama-master/examples/shared\commandline.c **** 
  53:g:/iot/IoT_Device_Demo/iot_link/network/lwm2m/wakaama_lwm2m/wakaama-master/examples/shared\commandline.c **** #include <string.h>
  54:g:/iot/IoT_Device_Demo/iot_link/network/lwm2m/wakaama_lwm2m/wakaama-master/examples/shared\commandline.c **** #include <stdlib.h>
  55:g:/iot/IoT_Device_Demo/iot_link/network/lwm2m/wakaama_lwm2m/wakaama-master/examples/shared\commandline.c **** #include <stdio.h>
  56:g:/iot/IoT_Device_Demo/iot_link/network/lwm2m/wakaama_lwm2m/wakaama-master/examples/shared\commandline.c **** #include <ctype.h>
  57:g:/iot/IoT_Device_Demo/iot_link/network/lwm2m/wakaama_lwm2m/wakaama-master/examples/shared\commandline.c **** #include <inttypes.h>
  58:g:/iot/IoT_Device_Demo/iot_link/network/lwm2m/wakaama_lwm2m/wakaama-master/examples/shared\commandline.c **** #include "liblwm2m.h"
  59:g:/iot/IoT_Device_Demo/iot_link/network/lwm2m/wakaama_lwm2m/wakaama-master/examples/shared\commandline.c **** #include "internals.h"
  60:g:/iot/IoT_Device_Demo/iot_link/network/lwm2m/wakaama_lwm2m/wakaama-master/examples/shared\commandline.c **** #include "commandline.h"
  61:g:/iot/IoT_Device_Demo/iot_link/network/lwm2m/wakaama_lwm2m/wakaama-master/examples/shared\commandline.c **** 
  62:g:/iot/IoT_Device_Demo/iot_link/network/lwm2m/wakaama_lwm2m/wakaama-master/examples/shared\commandline.c **** #define HELP_COMMAND "help"
  63:g:/iot/IoT_Device_Demo/iot_link/network/lwm2m/wakaama_lwm2m/wakaama-master/examples/shared\commandline.c **** #define HELP_DESC    "Type '"HELP_COMMAND" [COMMAND]' for more details on a command."
  64:g:/iot/IoT_Device_Demo/iot_link/network/lwm2m/wakaama_lwm2m/wakaama-master/examples/shared\commandline.c **** #define UNKNOWN_CMD_MSG "Unknown command. Type '"HELP_COMMAND"' for help."
  65:g:/iot/IoT_Device_Demo/iot_link/network/lwm2m/wakaama_lwm2m/wakaama-master/examples/shared\commandline.c **** 
  66:g:/iot/IoT_Device_Demo/iot_link/network/lwm2m/wakaama_lwm2m/wakaama-master/examples/shared\commandline.c **** static command_desc_t *prv_find_command(command_desc_t *commandArray,
  67:g:/iot/IoT_Device_Demo/iot_link/network/lwm2m/wakaama_lwm2m/wakaama-master/examples/shared\commandline.c ****                                         char *buffer,
  68:g:/iot/IoT_Device_Demo/iot_link/network/lwm2m/wakaama_lwm2m/wakaama-master/examples/shared\commandline.c ****                                         size_t length)
  69:g:/iot/IoT_Device_Demo/iot_link/network/lwm2m/wakaama_lwm2m/wakaama-master/examples/shared\commandline.c **** {
  28              		.loc 1 69 1
  29              		.cfi_startproc
  30              		@ args = 0, pretend = 0, frame = 24
  31              		@ frame_needed = 1, uses_anonymous_args = 0
  32 0000 80B5     		push	{r7, lr}
  33              	.LCFI0:
  34              		.cfi_def_cfa_offset 8
  35              		.cfi_offset 7, -8
  36              		.cfi_offset 14, -4
  37 0002 86B0     		sub	sp, sp, #24
  38              	.LCFI1:
  39              		.cfi_def_cfa_offset 32
  40 0004 00AF     		add	r7, sp, #0
  41              	.LCFI2:
  42              		.cfi_def_cfa_register 7
  43 0006 F860     		str	r0, [r7, #12]
  44 0008 B960     		str	r1, [r7, #8]
  45 000a 7A60     		str	r2, [r7, #4]
  70:g:/iot/IoT_Device_Demo/iot_link/network/lwm2m/wakaama_lwm2m/wakaama-master/examples/shared\commandline.c ****     int i;
ARM GAS  C:\Users\ADMINI~1\AppData\Local\Temp\ccT1G34X.s 			page 3


  71:g:/iot/IoT_Device_Demo/iot_link/network/lwm2m/wakaama_lwm2m/wakaama-master/examples/shared\commandline.c **** 
  72:g:/iot/IoT_Device_Demo/iot_link/network/lwm2m/wakaama_lwm2m/wakaama-master/examples/shared\commandline.c ****     if (length == 0) return NULL;
  46              		.loc 1 72 8
  47 000c 7B68     		ldr	r3, [r7, #4]
  48 000e 002B     		cmp	r3, #0
  49 0010 01D1     		bne	.L2
  50              		.loc 1 72 29 discriminator 1
  51 0012 0023     		movs	r3, #0
  52 0014 46E0     		b	.L3
  53              	.L2:
  73:g:/iot/IoT_Device_Demo/iot_link/network/lwm2m/wakaama_lwm2m/wakaama-master/examples/shared\commandline.c **** 
  74:g:/iot/IoT_Device_Demo/iot_link/network/lwm2m/wakaama_lwm2m/wakaama-master/examples/shared\commandline.c ****     i = 0;
  54              		.loc 1 74 7
  55 0016 0023     		movs	r3, #0
  56 0018 7B61     		str	r3, [r7, #20]
  75:g:/iot/IoT_Device_Demo/iot_link/network/lwm2m/wakaama_lwm2m/wakaama-master/examples/shared\commandline.c ****     while (commandArray[i].name != NULL
  57              		.loc 1 75 11
  58 001a 02E0     		b	.L4
  59              	.L6:
  76:g:/iot/IoT_Device_Demo/iot_link/network/lwm2m/wakaama_lwm2m/wakaama-master/examples/shared\commandline.c ****             && (strlen(commandArray[i].name) != length || strncmp(buffer, commandArray[i].name, len
  77:g:/iot/IoT_Device_Demo/iot_link/network/lwm2m/wakaama_lwm2m/wakaama-master/examples/shared\commandline.c ****     {
  78:g:/iot/IoT_Device_Demo/iot_link/network/lwm2m/wakaama_lwm2m/wakaama-master/examples/shared\commandline.c ****         i++;
  60              		.loc 1 78 10
  61 001c 7B69     		ldr	r3, [r7, #20]
  62 001e 0133     		adds	r3, r3, #1
  63 0020 7B61     		str	r3, [r7, #20]
  64              	.L4:
  75:g:/iot/IoT_Device_Demo/iot_link/network/lwm2m/wakaama_lwm2m/wakaama-master/examples/shared\commandline.c ****     while (commandArray[i].name != NULL
  65              		.loc 1 75 24
  66 0022 7A69     		ldr	r2, [r7, #20]
  67 0024 1346     		mov	r3, r2
  68 0026 9B00     		lsls	r3, r3, #2
  69 0028 1344     		add	r3, r3, r2
  70 002a 9B00     		lsls	r3, r3, #2
  71 002c 1A46     		mov	r2, r3
  72 002e FB68     		ldr	r3, [r7, #12]
  73 0030 1344     		add	r3, r3, r2
  75:g:/iot/IoT_Device_Demo/iot_link/network/lwm2m/wakaama_lwm2m/wakaama-master/examples/shared\commandline.c ****     while (commandArray[i].name != NULL
  74              		.loc 1 75 27
  75 0032 1B68     		ldr	r3, [r3]
  75:g:/iot/IoT_Device_Demo/iot_link/network/lwm2m/wakaama_lwm2m/wakaama-master/examples/shared\commandline.c ****     while (commandArray[i].name != NULL
  76              		.loc 1 75 11
  77 0034 002B     		cmp	r3, #0
  78 0036 20D0     		beq	.L5
  76:g:/iot/IoT_Device_Demo/iot_link/network/lwm2m/wakaama_lwm2m/wakaama-master/examples/shared\commandline.c ****             && (strlen(commandArray[i].name) != length || strncmp(buffer, commandArray[i].name, len
  79              		.loc 1 76 36
  80 0038 7A69     		ldr	r2, [r7, #20]
  81 003a 1346     		mov	r3, r2
  82 003c 9B00     		lsls	r3, r3, #2
  83 003e 1344     		add	r3, r3, r2
  84 0040 9B00     		lsls	r3, r3, #2
  85 0042 1A46     		mov	r2, r3
  86 0044 FB68     		ldr	r3, [r7, #12]
  87 0046 1344     		add	r3, r3, r2
  76:g:/iot/IoT_Device_Demo/iot_link/network/lwm2m/wakaama_lwm2m/wakaama-master/examples/shared\commandline.c ****             && (strlen(commandArray[i].name) != length || strncmp(buffer, commandArray[i].name, len
  88              		.loc 1 76 39
  89 0048 1B68     		ldr	r3, [r3]
ARM GAS  C:\Users\ADMINI~1\AppData\Local\Temp\ccT1G34X.s 			page 4


  76:g:/iot/IoT_Device_Demo/iot_link/network/lwm2m/wakaama_lwm2m/wakaama-master/examples/shared\commandline.c ****             && (strlen(commandArray[i].name) != length || strncmp(buffer, commandArray[i].name, len
  90              		.loc 1 76 17
  91 004a 1846     		mov	r0, r3
  92 004c FFF7FEFF 		bl	strlen
  93 0050 0246     		mov	r2, r0
  76:g:/iot/IoT_Device_Demo/iot_link/network/lwm2m/wakaama_lwm2m/wakaama-master/examples/shared\commandline.c ****             && (strlen(commandArray[i].name) != length || strncmp(buffer, commandArray[i].name, len
  94              		.loc 1 76 13
  95 0052 7B68     		ldr	r3, [r7, #4]
  96 0054 9342     		cmp	r3, r2
  97 0056 E1D1     		bne	.L6
  76:g:/iot/IoT_Device_Demo/iot_link/network/lwm2m/wakaama_lwm2m/wakaama-master/examples/shared\commandline.c ****             && (strlen(commandArray[i].name) != length || strncmp(buffer, commandArray[i].name, len
  98              		.loc 1 76 87 discriminator 1
  99 0058 7A69     		ldr	r2, [r7, #20]
 100 005a 1346     		mov	r3, r2
 101 005c 9B00     		lsls	r3, r3, #2
 102 005e 1344     		add	r3, r3, r2
 103 0060 9B00     		lsls	r3, r3, #2
 104 0062 1A46     		mov	r2, r3
 105 0064 FB68     		ldr	r3, [r7, #12]
 106 0066 1344     		add	r3, r3, r2
  76:g:/iot/IoT_Device_Demo/iot_link/network/lwm2m/wakaama_lwm2m/wakaama-master/examples/shared\commandline.c ****             && (strlen(commandArray[i].name) != length || strncmp(buffer, commandArray[i].name, len
 107              		.loc 1 76 90 discriminator 1
 108 0068 1B68     		ldr	r3, [r3]
  76:g:/iot/IoT_Device_Demo/iot_link/network/lwm2m/wakaama_lwm2m/wakaama-master/examples/shared\commandline.c ****             && (strlen(commandArray[i].name) != length || strncmp(buffer, commandArray[i].name, len
 109              		.loc 1 76 59 discriminator 1
 110 006a 7A68     		ldr	r2, [r7, #4]
 111 006c 1946     		mov	r1, r3
 112 006e B868     		ldr	r0, [r7, #8]
 113 0070 FFF7FEFF 		bl	strncmp
 114 0074 0346     		mov	r3, r0
  76:g:/iot/IoT_Device_Demo/iot_link/network/lwm2m/wakaama_lwm2m/wakaama-master/examples/shared\commandline.c ****             && (strlen(commandArray[i].name) != length || strncmp(buffer, commandArray[i].name, len
 115              		.loc 1 76 56 discriminator 1
 116 0076 002B     		cmp	r3, #0
 117 0078 D0D1     		bne	.L6
 118              	.L5:
  79:g:/iot/IoT_Device_Demo/iot_link/network/lwm2m/wakaama_lwm2m/wakaama-master/examples/shared\commandline.c ****     }
  80:g:/iot/IoT_Device_Demo/iot_link/network/lwm2m/wakaama_lwm2m/wakaama-master/examples/shared\commandline.c **** 
  81:g:/iot/IoT_Device_Demo/iot_link/network/lwm2m/wakaama_lwm2m/wakaama-master/examples/shared\commandline.c ****     if (commandArray[i].name == NULL)
 119              		.loc 1 81 21
 120 007a 7A69     		ldr	r2, [r7, #20]
 121 007c 1346     		mov	r3, r2
 122 007e 9B00     		lsls	r3, r3, #2
 123 0080 1344     		add	r3, r3, r2
 124 0082 9B00     		lsls	r3, r3, #2
 125 0084 1A46     		mov	r2, r3
 126 0086 FB68     		ldr	r3, [r7, #12]
 127 0088 1344     		add	r3, r3, r2
 128              		.loc 1 81 24
 129 008a 1B68     		ldr	r3, [r3]
 130              		.loc 1 81 8
 131 008c 002B     		cmp	r3, #0
 132 008e 01D1     		bne	.L7
  82:g:/iot/IoT_Device_Demo/iot_link/network/lwm2m/wakaama_lwm2m/wakaama-master/examples/shared\commandline.c ****     {
  83:g:/iot/IoT_Device_Demo/iot_link/network/lwm2m/wakaama_lwm2m/wakaama-master/examples/shared\commandline.c ****         return NULL;
 133              		.loc 1 83 16
 134 0090 0023     		movs	r3, #0
 135 0092 07E0     		b	.L3
ARM GAS  C:\Users\ADMINI~1\AppData\Local\Temp\ccT1G34X.s 			page 5


 136              	.L7:
  84:g:/iot/IoT_Device_Demo/iot_link/network/lwm2m/wakaama_lwm2m/wakaama-master/examples/shared\commandline.c ****     }
  85:g:/iot/IoT_Device_Demo/iot_link/network/lwm2m/wakaama_lwm2m/wakaama-master/examples/shared\commandline.c ****     else
  86:g:/iot/IoT_Device_Demo/iot_link/network/lwm2m/wakaama_lwm2m/wakaama-master/examples/shared\commandline.c ****     {
  87:g:/iot/IoT_Device_Demo/iot_link/network/lwm2m/wakaama_lwm2m/wakaama-master/examples/shared\commandline.c ****         return &commandArray[i];
 137              		.loc 1 87 29
 138 0094 7A69     		ldr	r2, [r7, #20]
 139 0096 1346     		mov	r3, r2
 140 0098 9B00     		lsls	r3, r3, #2
 141 009a 1344     		add	r3, r3, r2
 142 009c 9B00     		lsls	r3, r3, #2
 143 009e 1A46     		mov	r2, r3
 144              		.loc 1 87 16
 145 00a0 FB68     		ldr	r3, [r7, #12]
 146 00a2 1344     		add	r3, r3, r2
 147              	.L3:
  88:g:/iot/IoT_Device_Demo/iot_link/network/lwm2m/wakaama_lwm2m/wakaama-master/examples/shared\commandline.c ****     }
  89:g:/iot/IoT_Device_Demo/iot_link/network/lwm2m/wakaama_lwm2m/wakaama-master/examples/shared\commandline.c **** }
 148              		.loc 1 89 1
 149 00a4 1846     		mov	r0, r3
 150 00a6 1837     		adds	r7, r7, #24
 151              	.LCFI3:
 152              		.cfi_def_cfa_offset 8
 153 00a8 BD46     		mov	sp, r7
 154              	.LCFI4:
 155              		.cfi_def_cfa_register 13
 156              		@ sp needed
 157 00aa 80BD     		pop	{r7, pc}
 158              		.cfi_endproc
 159              	.LFE4:
 161              		.section	.rodata
 162              		.align	2
 163              	.LC0:
 164 0000 68656C70 		.ascii	"help\011Type 'help [COMMAND]' for more details on a"
 164      09547970 
 164      65202768 
 164      656C7020 
 164      5B434F4D 
 165 0030 20636F6D 		.ascii	" command.\015\012\000"
 165      6D616E64 
 165      2E0D0A00 
 166              		.align	2
 167              	.LC1:
 168 003c 25730925 		.ascii	"%s\011%s\015\012\000"
 168      730D0A00 
 169              		.align	2
 170              	.LC2:
 171 0044 25730D0A 		.ascii	"%s\015\012\000"
 171      00
 172              		.section	.text.prv_displayHelp,"ax",%progbits
 173              		.align	1
 174              		.syntax unified
 175              		.thumb
 176              		.thumb_func
 177              		.fpu fpv4-sp-d16
 179              	prv_displayHelp:
 180              	.LFB5:
ARM GAS  C:\Users\ADMINI~1\AppData\Local\Temp\ccT1G34X.s 			page 6


  90:g:/iot/IoT_Device_Demo/iot_link/network/lwm2m/wakaama_lwm2m/wakaama-master/examples/shared\commandline.c **** 
  91:g:/iot/IoT_Device_Demo/iot_link/network/lwm2m/wakaama_lwm2m/wakaama-master/examples/shared\commandline.c **** static void prv_displayHelp(command_desc_t *commandArray,
  92:g:/iot/IoT_Device_Demo/iot_link/network/lwm2m/wakaama_lwm2m/wakaama-master/examples/shared\commandline.c ****                             char *buffer)
  93:g:/iot/IoT_Device_Demo/iot_link/network/lwm2m/wakaama_lwm2m/wakaama-master/examples/shared\commandline.c **** {
 181              		.loc 1 93 1
 182              		.cfi_startproc
 183              		@ args = 0, pretend = 0, frame = 24
 184              		@ frame_needed = 1, uses_anonymous_args = 0
 185 0000 80B5     		push	{r7, lr}
 186              	.LCFI5:
 187              		.cfi_def_cfa_offset 8
 188              		.cfi_offset 7, -8
 189              		.cfi_offset 14, -4
 190 0002 86B0     		sub	sp, sp, #24
 191              	.LCFI6:
 192              		.cfi_def_cfa_offset 32
 193 0004 00AF     		add	r7, sp, #0
 194              	.LCFI7:
 195              		.cfi_def_cfa_register 7
 196 0006 7860     		str	r0, [r7, #4]
 197 0008 3960     		str	r1, [r7]
  94:g:/iot/IoT_Device_Demo/iot_link/network/lwm2m/wakaama_lwm2m/wakaama-master/examples/shared\commandline.c ****     command_desc_t *cmdP;
  95:g:/iot/IoT_Device_Demo/iot_link/network/lwm2m/wakaama_lwm2m/wakaama-master/examples/shared\commandline.c ****     int length;
  96:g:/iot/IoT_Device_Demo/iot_link/network/lwm2m/wakaama_lwm2m/wakaama-master/examples/shared\commandline.c **** 
  97:g:/iot/IoT_Device_Demo/iot_link/network/lwm2m/wakaama_lwm2m/wakaama-master/examples/shared\commandline.c ****     // find end of first argument
  98:g:/iot/IoT_Device_Demo/iot_link/network/lwm2m/wakaama_lwm2m/wakaama-master/examples/shared\commandline.c ****     length = 0;
 198              		.loc 1 98 12
 199 000a 0023     		movs	r3, #0
 200 000c 7B61     		str	r3, [r7, #20]
  99:g:/iot/IoT_Device_Demo/iot_link/network/lwm2m/wakaama_lwm2m/wakaama-master/examples/shared\commandline.c ****     while (buffer[length] != 0 && !isspace(buffer[length] & 0xff))
 201              		.loc 1 99 11
 202 000e 02E0     		b	.L9
 203              	.L11:
 100:g:/iot/IoT_Device_Demo/iot_link/network/lwm2m/wakaama_lwm2m/wakaama-master/examples/shared\commandline.c ****         length++;
 204              		.loc 1 100 15
 205 0010 7B69     		ldr	r3, [r7, #20]
 206 0012 0133     		adds	r3, r3, #1
 207 0014 7B61     		str	r3, [r7, #20]
 208              	.L9:
  99:g:/iot/IoT_Device_Demo/iot_link/network/lwm2m/wakaama_lwm2m/wakaama-master/examples/shared\commandline.c ****     while (buffer[length] != 0 && !isspace(buffer[length] & 0xff))
 209              		.loc 1 99 18
 210 0016 7B69     		ldr	r3, [r7, #20]
 211 0018 3A68     		ldr	r2, [r7]
 212 001a 1344     		add	r3, r3, r2
 213 001c 1B78     		ldrb	r3, [r3]	@ zero_extendqisi2
  99:g:/iot/IoT_Device_Demo/iot_link/network/lwm2m/wakaama_lwm2m/wakaama-master/examples/shared\commandline.c ****     while (buffer[length] != 0 && !isspace(buffer[length] & 0xff))
 214              		.loc 1 99 11
 215 001e 002B     		cmp	r3, #0
 216 0020 0BD0     		beq	.L10
  99:g:/iot/IoT_Device_Demo/iot_link/network/lwm2m/wakaama_lwm2m/wakaama-master/examples/shared\commandline.c ****     while (buffer[length] != 0 && !isspace(buffer[length] & 0xff))
 217              		.loc 1 99 36 discriminator 1
 218 0022 7B69     		ldr	r3, [r7, #20]
 219 0024 3A68     		ldr	r2, [r7]
 220 0026 1344     		add	r3, r3, r2
 221 0028 1B78     		ldrb	r3, [r3]	@ zero_extendqisi2
 222 002a 0133     		adds	r3, r3, #1
 223 002c 2B4A     		ldr	r2, .L19
ARM GAS  C:\Users\ADMINI~1\AppData\Local\Temp\ccT1G34X.s 			page 7


 224 002e 1344     		add	r3, r3, r2
 225 0030 1B78     		ldrb	r3, [r3]	@ zero_extendqisi2
 226 0032 03F00803 		and	r3, r3, #8
  99:g:/iot/IoT_Device_Demo/iot_link/network/lwm2m/wakaama_lwm2m/wakaama-master/examples/shared\commandline.c ****     while (buffer[length] != 0 && !isspace(buffer[length] & 0xff))
 227              		.loc 1 99 32 discriminator 1
 228 0036 002B     		cmp	r3, #0
 229 0038 EAD0     		beq	.L11
 230              	.L10:
 101:g:/iot/IoT_Device_Demo/iot_link/network/lwm2m/wakaama_lwm2m/wakaama-master/examples/shared\commandline.c **** 
 102:g:/iot/IoT_Device_Demo/iot_link/network/lwm2m/wakaama_lwm2m/wakaama-master/examples/shared\commandline.c ****     cmdP = prv_find_command(commandArray, buffer, length);
 231              		.loc 1 102 12
 232 003a 7B69     		ldr	r3, [r7, #20]
 233 003c 1A46     		mov	r2, r3
 234 003e 3968     		ldr	r1, [r7]
 235 0040 7868     		ldr	r0, [r7, #4]
 236 0042 FFF7FEFF 		bl	prv_find_command
 237 0046 F860     		str	r0, [r7, #12]
 103:g:/iot/IoT_Device_Demo/iot_link/network/lwm2m/wakaama_lwm2m/wakaama-master/examples/shared\commandline.c **** 
 104:g:/iot/IoT_Device_Demo/iot_link/network/lwm2m/wakaama_lwm2m/wakaama-master/examples/shared\commandline.c ****     if (cmdP == NULL)
 238              		.loc 1 104 8
 239 0048 FB68     		ldr	r3, [r7, #12]
 240 004a 002B     		cmp	r3, #0
 241 004c 32D1     		bne	.L12
 242              	.LBB2:
 105:g:/iot/IoT_Device_Demo/iot_link/network/lwm2m/wakaama_lwm2m/wakaama-master/examples/shared\commandline.c ****     {
 106:g:/iot/IoT_Device_Demo/iot_link/network/lwm2m/wakaama_lwm2m/wakaama-master/examples/shared\commandline.c ****         int i;
 107:g:/iot/IoT_Device_Demo/iot_link/network/lwm2m/wakaama_lwm2m/wakaama-master/examples/shared\commandline.c **** 
 108:g:/iot/IoT_Device_Demo/iot_link/network/lwm2m/wakaama_lwm2m/wakaama-master/examples/shared\commandline.c ****         fprintf(stdout, HELP_COMMAND"\t"HELP_DESC"\r\n");
 243              		.loc 1 108 17
 244 004e 244B     		ldr	r3, .L19+4
 245 0050 1B68     		ldr	r3, [r3]
 246 0052 9B68     		ldr	r3, [r3, #8]
 247              		.loc 1 108 9
 248 0054 3B22     		movs	r2, #59
 249 0056 0121     		movs	r1, #1
 250 0058 2248     		ldr	r0, .L19+8
 251 005a FFF7FEFF 		bl	fwrite
 109:g:/iot/IoT_Device_Demo/iot_link/network/lwm2m/wakaama_lwm2m/wakaama-master/examples/shared\commandline.c **** 
 110:g:/iot/IoT_Device_Demo/iot_link/network/lwm2m/wakaama_lwm2m/wakaama-master/examples/shared\commandline.c ****         for (i = 0 ; commandArray[i].name != NULL ; i++)
 252              		.loc 1 110 16
 253 005e 0023     		movs	r3, #0
 254 0060 3B61     		str	r3, [r7, #16]
 255              		.loc 1 110 9
 256 0062 1BE0     		b	.L13
 257              	.L14:
 111:g:/iot/IoT_Device_Demo/iot_link/network/lwm2m/wakaama_lwm2m/wakaama-master/examples/shared\commandline.c ****         {
 112:g:/iot/IoT_Device_Demo/iot_link/network/lwm2m/wakaama_lwm2m/wakaama-master/examples/shared\commandline.c ****             fprintf(stdout, "%s\t%s\r\n", commandArray[i].name, commandArray[i].shortDesc);
 258              		.loc 1 112 21 discriminator 3
 259 0064 1E4B     		ldr	r3, .L19+4
 260 0066 1B68     		ldr	r3, [r3]
 261 0068 9868     		ldr	r0, [r3, #8]
 262              		.loc 1 112 55 discriminator 3
 263 006a 3A69     		ldr	r2, [r7, #16]
 264 006c 1346     		mov	r3, r2
 265 006e 9B00     		lsls	r3, r3, #2
 266 0070 1344     		add	r3, r3, r2
 267 0072 9B00     		lsls	r3, r3, #2
ARM GAS  C:\Users\ADMINI~1\AppData\Local\Temp\ccT1G34X.s 			page 8


 268 0074 1A46     		mov	r2, r3
 269 0076 7B68     		ldr	r3, [r7, #4]
 270 0078 1344     		add	r3, r3, r2
 271              		.loc 1 112 13 discriminator 3
 272 007a 1968     		ldr	r1, [r3]
 273              		.loc 1 112 77 discriminator 3
 274 007c 3A69     		ldr	r2, [r7, #16]
 275 007e 1346     		mov	r3, r2
 276 0080 9B00     		lsls	r3, r3, #2
 277 0082 1344     		add	r3, r3, r2
 278 0084 9B00     		lsls	r3, r3, #2
 279 0086 1A46     		mov	r2, r3
 280 0088 7B68     		ldr	r3, [r7, #4]
 281 008a 1344     		add	r3, r3, r2
 282              		.loc 1 112 13 discriminator 3
 283 008c 5B68     		ldr	r3, [r3, #4]
 284 008e 0A46     		mov	r2, r1
 285 0090 1549     		ldr	r1, .L19+12
 286 0092 FFF7FEFF 		bl	fprintf
 110:g:/iot/IoT_Device_Demo/iot_link/network/lwm2m/wakaama_lwm2m/wakaama-master/examples/shared\commandline.c ****         {
 287              		.loc 1 110 54 discriminator 3
 288 0096 3B69     		ldr	r3, [r7, #16]
 289 0098 0133     		adds	r3, r3, #1
 290 009a 3B61     		str	r3, [r7, #16]
 291              	.L13:
 110:g:/iot/IoT_Device_Demo/iot_link/network/lwm2m/wakaama_lwm2m/wakaama-master/examples/shared\commandline.c ****         {
 292              		.loc 1 110 34 discriminator 1
 293 009c 3A69     		ldr	r2, [r7, #16]
 294 009e 1346     		mov	r3, r2
 295 00a0 9B00     		lsls	r3, r3, #2
 296 00a2 1344     		add	r3, r3, r2
 297 00a4 9B00     		lsls	r3, r3, #2
 298 00a6 1A46     		mov	r2, r3
 299 00a8 7B68     		ldr	r3, [r7, #4]
 300 00aa 1344     		add	r3, r3, r2
 110:g:/iot/IoT_Device_Demo/iot_link/network/lwm2m/wakaama_lwm2m/wakaama-master/examples/shared\commandline.c ****         {
 301              		.loc 1 110 37 discriminator 1
 302 00ac 1B68     		ldr	r3, [r3]
 110:g:/iot/IoT_Device_Demo/iot_link/network/lwm2m/wakaama_lwm2m/wakaama-master/examples/shared\commandline.c ****         {
 303              		.loc 1 110 9 discriminator 1
 304 00ae 002B     		cmp	r3, #0
 305 00b0 D8D1     		bne	.L14
 306              	.LBE2:
 113:g:/iot/IoT_Device_Demo/iot_link/network/lwm2m/wakaama_lwm2m/wakaama-master/examples/shared\commandline.c ****         }
 114:g:/iot/IoT_Device_Demo/iot_link/network/lwm2m/wakaama_lwm2m/wakaama-master/examples/shared\commandline.c ****     }
 115:g:/iot/IoT_Device_Demo/iot_link/network/lwm2m/wakaama_lwm2m/wakaama-master/examples/shared\commandline.c ****     else
 116:g:/iot/IoT_Device_Demo/iot_link/network/lwm2m/wakaama_lwm2m/wakaama-master/examples/shared\commandline.c ****     {
 117:g:/iot/IoT_Device_Demo/iot_link/network/lwm2m/wakaama_lwm2m/wakaama-master/examples/shared\commandline.c ****         fprintf(stdout, "%s\r\n", cmdP->longDesc ? cmdP->longDesc : cmdP->shortDesc);
 118:g:/iot/IoT_Device_Demo/iot_link/network/lwm2m/wakaama_lwm2m/wakaama-master/examples/shared\commandline.c ****     }
 119:g:/iot/IoT_Device_Demo/iot_link/network/lwm2m/wakaama_lwm2m/wakaama-master/examples/shared\commandline.c **** }
 307              		.loc 1 119 1
 308 00b2 0FE0     		b	.L18
 309              	.L12:
 117:g:/iot/IoT_Device_Demo/iot_link/network/lwm2m/wakaama_lwm2m/wakaama-master/examples/shared\commandline.c ****     }
 310              		.loc 1 117 17
 311 00b4 0A4B     		ldr	r3, .L19+4
 312 00b6 1B68     		ldr	r3, [r3]
ARM GAS  C:\Users\ADMINI~1\AppData\Local\Temp\ccT1G34X.s 			page 9


 313 00b8 9868     		ldr	r0, [r3, #8]
 117:g:/iot/IoT_Device_Demo/iot_link/network/lwm2m/wakaama_lwm2m/wakaama-master/examples/shared\commandline.c ****     }
 314              		.loc 1 117 39
 315 00ba FB68     		ldr	r3, [r7, #12]
 316 00bc 9B68     		ldr	r3, [r3, #8]
 117:g:/iot/IoT_Device_Demo/iot_link/network/lwm2m/wakaama_lwm2m/wakaama-master/examples/shared\commandline.c ****     }
 317              		.loc 1 117 9
 318 00be 002B     		cmp	r3, #0
 319 00c0 02D0     		beq	.L16
 117:g:/iot/IoT_Device_Demo/iot_link/network/lwm2m/wakaama_lwm2m/wakaama-master/examples/shared\commandline.c ****     }
 320              		.loc 1 117 9 is_stmt 0 discriminator 1
 321 00c2 FB68     		ldr	r3, [r7, #12]
 322 00c4 9B68     		ldr	r3, [r3, #8]
 323 00c6 01E0     		b	.L17
 324              	.L16:
 117:g:/iot/IoT_Device_Demo/iot_link/network/lwm2m/wakaama_lwm2m/wakaama-master/examples/shared\commandline.c ****     }
 325              		.loc 1 117 9 discriminator 2
 326 00c8 FB68     		ldr	r3, [r7, #12]
 327 00ca 5B68     		ldr	r3, [r3, #4]
 328              	.L17:
 117:g:/iot/IoT_Device_Demo/iot_link/network/lwm2m/wakaama_lwm2m/wakaama-master/examples/shared\commandline.c ****     }
 329              		.loc 1 117 9 discriminator 4
 330 00cc 1A46     		mov	r2, r3
 331 00ce 0749     		ldr	r1, .L19+16
 332 00d0 FFF7FEFF 		bl	fprintf
 333              	.L18:
 334              		.loc 1 119 1 is_stmt 1
 335 00d4 00BF     		nop
 336 00d6 1837     		adds	r7, r7, #24
 337              	.LCFI8:
 338              		.cfi_def_cfa_offset 8
 339 00d8 BD46     		mov	sp, r7
 340              	.LCFI9:
 341              		.cfi_def_cfa_register 13
 342              		@ sp needed
 343 00da 80BD     		pop	{r7, pc}
 344              	.L20:
 345              		.align	2
 346              	.L19:
 347 00dc 00000000 		.word	_ctype_
 348 00e0 00000000 		.word	_impure_ptr
 349 00e4 00000000 		.word	.LC0
 350 00e8 3C000000 		.word	.LC1
 351 00ec 44000000 		.word	.LC2
 352              		.cfi_endproc
 353              	.LFE5:
 355              		.section	.rodata
 356 0049 000000   		.align	2
 357              	.LC3:
 358 004c 68656C70 		.ascii	"help\000"
 358      00
 359 0051 000000   		.align	2
 360              	.LC4:
 361 0054 556E6B6E 		.ascii	"Unknown command. Type 'help' for help.\015\012\000"
 361      6F776E20 
 361      636F6D6D 
 361      616E642E 
ARM GAS  C:\Users\ADMINI~1\AppData\Local\Temp\ccT1G34X.s 			page 10


 361      20547970 
 362              		.section	.text.handle_command,"ax",%progbits
 363              		.align	1
 364              		.global	handle_command
 365              		.syntax unified
 366              		.thumb
 367              		.thumb_func
 368              		.fpu fpv4-sp-d16
 370              	handle_command:
 371              	.LFB6:
 120:g:/iot/IoT_Device_Demo/iot_link/network/lwm2m/wakaama_lwm2m/wakaama-master/examples/shared\commandline.c **** 
 121:g:/iot/IoT_Device_Demo/iot_link/network/lwm2m/wakaama_lwm2m/wakaama-master/examples/shared\commandline.c **** 
 122:g:/iot/IoT_Device_Demo/iot_link/network/lwm2m/wakaama_lwm2m/wakaama-master/examples/shared\commandline.c **** void handle_command(command_desc_t *commandArray,
 123:g:/iot/IoT_Device_Demo/iot_link/network/lwm2m/wakaama_lwm2m/wakaama-master/examples/shared\commandline.c ****                     char *buffer)
 124:g:/iot/IoT_Device_Demo/iot_link/network/lwm2m/wakaama_lwm2m/wakaama-master/examples/shared\commandline.c **** {
 372              		.loc 1 124 1
 373              		.cfi_startproc
 374              		@ args = 0, pretend = 0, frame = 16
 375              		@ frame_needed = 1, uses_anonymous_args = 0
 376 0000 80B5     		push	{r7, lr}
 377              	.LCFI10:
 378              		.cfi_def_cfa_offset 8
 379              		.cfi_offset 7, -8
 380              		.cfi_offset 14, -4
 381 0002 84B0     		sub	sp, sp, #16
 382              	.LCFI11:
 383              		.cfi_def_cfa_offset 24
 384 0004 00AF     		add	r7, sp, #0
 385              	.LCFI12:
 386              		.cfi_def_cfa_register 7
 387 0006 7860     		str	r0, [r7, #4]
 388 0008 3960     		str	r1, [r7]
 125:g:/iot/IoT_Device_Demo/iot_link/network/lwm2m/wakaama_lwm2m/wakaama-master/examples/shared\commandline.c ****     command_desc_t *cmdP;
 126:g:/iot/IoT_Device_Demo/iot_link/network/lwm2m/wakaama_lwm2m/wakaama-master/examples/shared\commandline.c ****     int length;
 127:g:/iot/IoT_Device_Demo/iot_link/network/lwm2m/wakaama_lwm2m/wakaama-master/examples/shared\commandline.c **** 
 128:g:/iot/IoT_Device_Demo/iot_link/network/lwm2m/wakaama_lwm2m/wakaama-master/examples/shared\commandline.c ****     // find end of command name
 129:g:/iot/IoT_Device_Demo/iot_link/network/lwm2m/wakaama_lwm2m/wakaama-master/examples/shared\commandline.c ****     length = 0;
 389              		.loc 1 129 12
 390 000a 0023     		movs	r3, #0
 391 000c FB60     		str	r3, [r7, #12]
 130:g:/iot/IoT_Device_Demo/iot_link/network/lwm2m/wakaama_lwm2m/wakaama-master/examples/shared\commandline.c ****     while (buffer[length] != 0 && !isspace(buffer[length] & 0xFF))
 392              		.loc 1 130 11
 393 000e 02E0     		b	.L22
 394              	.L24:
 131:g:/iot/IoT_Device_Demo/iot_link/network/lwm2m/wakaama_lwm2m/wakaama-master/examples/shared\commandline.c ****         length++;
 395              		.loc 1 131 15
 396 0010 FB68     		ldr	r3, [r7, #12]
 397 0012 0133     		adds	r3, r3, #1
 398 0014 FB60     		str	r3, [r7, #12]
 399              	.L22:
 130:g:/iot/IoT_Device_Demo/iot_link/network/lwm2m/wakaama_lwm2m/wakaama-master/examples/shared\commandline.c ****     while (buffer[length] != 0 && !isspace(buffer[length] & 0xFF))
 400              		.loc 1 130 18
 401 0016 FB68     		ldr	r3, [r7, #12]
 402 0018 3A68     		ldr	r2, [r7]
 403 001a 1344     		add	r3, r3, r2
 404 001c 1B78     		ldrb	r3, [r3]	@ zero_extendqisi2
 130:g:/iot/IoT_Device_Demo/iot_link/network/lwm2m/wakaama_lwm2m/wakaama-master/examples/shared\commandline.c ****     while (buffer[length] != 0 && !isspace(buffer[length] & 0xFF))
ARM GAS  C:\Users\ADMINI~1\AppData\Local\Temp\ccT1G34X.s 			page 11


 405              		.loc 1 130 11
 406 001e 002B     		cmp	r3, #0
 407 0020 0BD0     		beq	.L23
 130:g:/iot/IoT_Device_Demo/iot_link/network/lwm2m/wakaama_lwm2m/wakaama-master/examples/shared\commandline.c ****     while (buffer[length] != 0 && !isspace(buffer[length] & 0xFF))
 408              		.loc 1 130 36 discriminator 1
 409 0022 FB68     		ldr	r3, [r7, #12]
 410 0024 3A68     		ldr	r2, [r7]
 411 0026 1344     		add	r3, r3, r2
 412 0028 1B78     		ldrb	r3, [r3]	@ zero_extendqisi2
 413 002a 0133     		adds	r3, r3, #1
 414 002c 314A     		ldr	r2, .L35
 415 002e 1344     		add	r3, r3, r2
 416 0030 1B78     		ldrb	r3, [r3]	@ zero_extendqisi2
 417 0032 03F00803 		and	r3, r3, #8
 130:g:/iot/IoT_Device_Demo/iot_link/network/lwm2m/wakaama_lwm2m/wakaama-master/examples/shared\commandline.c ****     while (buffer[length] != 0 && !isspace(buffer[length] & 0xFF))
 418              		.loc 1 130 32 discriminator 1
 419 0036 002B     		cmp	r3, #0
 420 0038 EAD0     		beq	.L24
 421              	.L23:
 132:g:/iot/IoT_Device_Demo/iot_link/network/lwm2m/wakaama_lwm2m/wakaama-master/examples/shared\commandline.c **** 
 133:g:/iot/IoT_Device_Demo/iot_link/network/lwm2m/wakaama_lwm2m/wakaama-master/examples/shared\commandline.c ****     cmdP = prv_find_command(commandArray, buffer, length);
 422              		.loc 1 133 12
 423 003a FB68     		ldr	r3, [r7, #12]
 424 003c 1A46     		mov	r2, r3
 425 003e 3968     		ldr	r1, [r7]
 426 0040 7868     		ldr	r0, [r7, #4]
 427 0042 FFF7FEFF 		bl	prv_find_command
 428 0046 B860     		str	r0, [r7, #8]
 134:g:/iot/IoT_Device_Demo/iot_link/network/lwm2m/wakaama_lwm2m/wakaama-master/examples/shared\commandline.c ****     if (cmdP != NULL)
 429              		.loc 1 134 8
 430 0048 BB68     		ldr	r3, [r7, #8]
 431 004a 002B     		cmp	r3, #0
 432 004c 1FD0     		beq	.L25
 135:g:/iot/IoT_Device_Demo/iot_link/network/lwm2m/wakaama_lwm2m/wakaama-master/examples/shared\commandline.c ****     {
 136:g:/iot/IoT_Device_Demo/iot_link/network/lwm2m/wakaama_lwm2m/wakaama-master/examples/shared\commandline.c ****         while (buffer[length] != 0 && isspace(buffer[length] & 0xFF))
 433              		.loc 1 136 15
 434 004e 02E0     		b	.L26
 435              	.L28:
 137:g:/iot/IoT_Device_Demo/iot_link/network/lwm2m/wakaama_lwm2m/wakaama-master/examples/shared\commandline.c ****             length++;
 436              		.loc 1 137 19
 437 0050 FB68     		ldr	r3, [r7, #12]
 438 0052 0133     		adds	r3, r3, #1
 439 0054 FB60     		str	r3, [r7, #12]
 440              	.L26:
 136:g:/iot/IoT_Device_Demo/iot_link/network/lwm2m/wakaama_lwm2m/wakaama-master/examples/shared\commandline.c ****             length++;
 441              		.loc 1 136 22
 442 0056 FB68     		ldr	r3, [r7, #12]
 443 0058 3A68     		ldr	r2, [r7]
 444 005a 1344     		add	r3, r3, r2
 445 005c 1B78     		ldrb	r3, [r3]	@ zero_extendqisi2
 136:g:/iot/IoT_Device_Demo/iot_link/network/lwm2m/wakaama_lwm2m/wakaama-master/examples/shared\commandline.c ****             length++;
 446              		.loc 1 136 15
 447 005e 002B     		cmp	r3, #0
 448 0060 0BD0     		beq	.L27
 136:g:/iot/IoT_Device_Demo/iot_link/network/lwm2m/wakaama_lwm2m/wakaama-master/examples/shared\commandline.c ****             length++;
 449              		.loc 1 136 39 discriminator 1
 450 0062 FB68     		ldr	r3, [r7, #12]
ARM GAS  C:\Users\ADMINI~1\AppData\Local\Temp\ccT1G34X.s 			page 12


 451 0064 3A68     		ldr	r2, [r7]
 452 0066 1344     		add	r3, r3, r2
 453 0068 1B78     		ldrb	r3, [r3]	@ zero_extendqisi2
 454 006a 0133     		adds	r3, r3, #1
 455 006c 214A     		ldr	r2, .L35
 456 006e 1344     		add	r3, r3, r2
 457 0070 1B78     		ldrb	r3, [r3]	@ zero_extendqisi2
 458 0072 03F00803 		and	r3, r3, #8
 136:g:/iot/IoT_Device_Demo/iot_link/network/lwm2m/wakaama_lwm2m/wakaama-master/examples/shared\commandline.c ****             length++;
 459              		.loc 1 136 36 discriminator 1
 460 0076 002B     		cmp	r3, #0
 461 0078 EAD1     		bne	.L28
 462              	.L27:
 138:g:/iot/IoT_Device_Demo/iot_link/network/lwm2m/wakaama_lwm2m/wakaama-master/examples/shared\commandline.c ****         cmdP->callback(buffer + length, cmdP->userData);
 463              		.loc 1 138 13
 464 007a BB68     		ldr	r3, [r7, #8]
 465 007c DB68     		ldr	r3, [r3, #12]
 466              		.loc 1 138 9
 467 007e FA68     		ldr	r2, [r7, #12]
 468 0080 3968     		ldr	r1, [r7]
 469 0082 8818     		adds	r0, r1, r2
 470 0084 BA68     		ldr	r2, [r7, #8]
 471 0086 1269     		ldr	r2, [r2, #16]
 472 0088 1146     		mov	r1, r2
 473 008a 9847     		blx	r3
 474              	.LVL0:
 139:g:/iot/IoT_Device_Demo/iot_link/network/lwm2m/wakaama_lwm2m/wakaama-master/examples/shared\commandline.c ****     }
 140:g:/iot/IoT_Device_Demo/iot_link/network/lwm2m/wakaama_lwm2m/wakaama-master/examples/shared\commandline.c ****     else
 141:g:/iot/IoT_Device_Demo/iot_link/network/lwm2m/wakaama_lwm2m/wakaama-master/examples/shared\commandline.c ****     {
 142:g:/iot/IoT_Device_Demo/iot_link/network/lwm2m/wakaama_lwm2m/wakaama-master/examples/shared\commandline.c ****         if (!strncmp(buffer, HELP_COMMAND, length))
 143:g:/iot/IoT_Device_Demo/iot_link/network/lwm2m/wakaama_lwm2m/wakaama-master/examples/shared\commandline.c ****         {
 144:g:/iot/IoT_Device_Demo/iot_link/network/lwm2m/wakaama_lwm2m/wakaama-master/examples/shared\commandline.c ****             while (buffer[length] != 0 && isspace(buffer[length] & 0xFF))
 145:g:/iot/IoT_Device_Demo/iot_link/network/lwm2m/wakaama_lwm2m/wakaama-master/examples/shared\commandline.c ****                 length++;
 146:g:/iot/IoT_Device_Demo/iot_link/network/lwm2m/wakaama_lwm2m/wakaama-master/examples/shared\commandline.c ****             prv_displayHelp(commandArray, buffer + length);
 147:g:/iot/IoT_Device_Demo/iot_link/network/lwm2m/wakaama_lwm2m/wakaama-master/examples/shared\commandline.c ****         }
 148:g:/iot/IoT_Device_Demo/iot_link/network/lwm2m/wakaama_lwm2m/wakaama-master/examples/shared\commandline.c ****         else
 149:g:/iot/IoT_Device_Demo/iot_link/network/lwm2m/wakaama_lwm2m/wakaama-master/examples/shared\commandline.c ****         {
 150:g:/iot/IoT_Device_Demo/iot_link/network/lwm2m/wakaama_lwm2m/wakaama-master/examples/shared\commandline.c ****             fprintf(stdout, UNKNOWN_CMD_MSG"\r\n");
 151:g:/iot/IoT_Device_Demo/iot_link/network/lwm2m/wakaama_lwm2m/wakaama-master/examples/shared\commandline.c ****         }
 152:g:/iot/IoT_Device_Demo/iot_link/network/lwm2m/wakaama_lwm2m/wakaama-master/examples/shared\commandline.c ****     }
 153:g:/iot/IoT_Device_Demo/iot_link/network/lwm2m/wakaama_lwm2m/wakaama-master/examples/shared\commandline.c **** }
 475              		.loc 1 153 1
 476 008c 2EE0     		b	.L34
 477              	.L25:
 142:g:/iot/IoT_Device_Demo/iot_link/network/lwm2m/wakaama_lwm2m/wakaama-master/examples/shared\commandline.c ****         {
 478              		.loc 1 142 14
 479 008e FB68     		ldr	r3, [r7, #12]
 480 0090 1A46     		mov	r2, r3
 481 0092 1949     		ldr	r1, .L35+4
 482 0094 3868     		ldr	r0, [r7]
 483 0096 FFF7FEFF 		bl	strncmp
 484 009a 0346     		mov	r3, r0
 142:g:/iot/IoT_Device_Demo/iot_link/network/lwm2m/wakaama_lwm2m/wakaama-master/examples/shared\commandline.c ****         {
 485              		.loc 1 142 12
 486 009c 002B     		cmp	r3, #0
 487 009e 1DD1     		bne	.L30
 144:g:/iot/IoT_Device_Demo/iot_link/network/lwm2m/wakaama_lwm2m/wakaama-master/examples/shared\commandline.c ****                 length++;
ARM GAS  C:\Users\ADMINI~1\AppData\Local\Temp\ccT1G34X.s 			page 13


 488              		.loc 1 144 19
 489 00a0 02E0     		b	.L31
 490              	.L33:
 145:g:/iot/IoT_Device_Demo/iot_link/network/lwm2m/wakaama_lwm2m/wakaama-master/examples/shared\commandline.c ****             prv_displayHelp(commandArray, buffer + length);
 491              		.loc 1 145 23
 492 00a2 FB68     		ldr	r3, [r7, #12]
 493 00a4 0133     		adds	r3, r3, #1
 494 00a6 FB60     		str	r3, [r7, #12]
 495              	.L31:
 144:g:/iot/IoT_Device_Demo/iot_link/network/lwm2m/wakaama_lwm2m/wakaama-master/examples/shared\commandline.c ****                 length++;
 496              		.loc 1 144 26
 497 00a8 FB68     		ldr	r3, [r7, #12]
 498 00aa 3A68     		ldr	r2, [r7]
 499 00ac 1344     		add	r3, r3, r2
 500 00ae 1B78     		ldrb	r3, [r3]	@ zero_extendqisi2
 144:g:/iot/IoT_Device_Demo/iot_link/network/lwm2m/wakaama_lwm2m/wakaama-master/examples/shared\commandline.c ****                 length++;
 501              		.loc 1 144 19
 502 00b0 002B     		cmp	r3, #0
 503 00b2 0BD0     		beq	.L32
 144:g:/iot/IoT_Device_Demo/iot_link/network/lwm2m/wakaama_lwm2m/wakaama-master/examples/shared\commandline.c ****                 length++;
 504              		.loc 1 144 43 discriminator 1
 505 00b4 FB68     		ldr	r3, [r7, #12]
 506 00b6 3A68     		ldr	r2, [r7]
 507 00b8 1344     		add	r3, r3, r2
 508 00ba 1B78     		ldrb	r3, [r3]	@ zero_extendqisi2
 509 00bc 0133     		adds	r3, r3, #1
 510 00be 0D4A     		ldr	r2, .L35
 511 00c0 1344     		add	r3, r3, r2
 512 00c2 1B78     		ldrb	r3, [r3]	@ zero_extendqisi2
 513 00c4 03F00803 		and	r3, r3, #8
 144:g:/iot/IoT_Device_Demo/iot_link/network/lwm2m/wakaama_lwm2m/wakaama-master/examples/shared\commandline.c ****                 length++;
 514              		.loc 1 144 40 discriminator 1
 515 00c8 002B     		cmp	r3, #0
 516 00ca EAD1     		bne	.L33
 517              	.L32:
 146:g:/iot/IoT_Device_Demo/iot_link/network/lwm2m/wakaama_lwm2m/wakaama-master/examples/shared\commandline.c ****         }
 518              		.loc 1 146 13
 519 00cc FB68     		ldr	r3, [r7, #12]
 520 00ce 3A68     		ldr	r2, [r7]
 521 00d0 1344     		add	r3, r3, r2
 522 00d2 1946     		mov	r1, r3
 523 00d4 7868     		ldr	r0, [r7, #4]
 524 00d6 FFF7FEFF 		bl	prv_displayHelp
 525              		.loc 1 153 1
 526 00da 07E0     		b	.L34
 527              	.L30:
 150:g:/iot/IoT_Device_Demo/iot_link/network/lwm2m/wakaama_lwm2m/wakaama-master/examples/shared\commandline.c ****         }
 528              		.loc 1 150 21
 529 00dc 074B     		ldr	r3, .L35+8
 530 00de 1B68     		ldr	r3, [r3]
 531 00e0 9B68     		ldr	r3, [r3, #8]
 150:g:/iot/IoT_Device_Demo/iot_link/network/lwm2m/wakaama_lwm2m/wakaama-master/examples/shared\commandline.c ****         }
 532              		.loc 1 150 13
 533 00e2 2822     		movs	r2, #40
 534 00e4 0121     		movs	r1, #1
 535 00e6 0648     		ldr	r0, .L35+12
 536 00e8 FFF7FEFF 		bl	fwrite
ARM GAS  C:\Users\ADMINI~1\AppData\Local\Temp\ccT1G34X.s 			page 14


 537              	.L34:
 538              		.loc 1 153 1
 539 00ec 00BF     		nop
 540 00ee 1037     		adds	r7, r7, #16
 541              	.LCFI13:
 542              		.cfi_def_cfa_offset 8
 543 00f0 BD46     		mov	sp, r7
 544              	.LCFI14:
 545              		.cfi_def_cfa_register 13
 546              		@ sp needed
 547 00f2 80BD     		pop	{r7, pc}
 548              	.L36:
 549              		.align	2
 550              	.L35:
 551 00f4 00000000 		.word	_ctype_
 552 00f8 4C000000 		.word	.LC3
 553 00fc 00000000 		.word	_impure_ptr
 554 0100 54000000 		.word	.LC4
 555              		.cfi_endproc
 556              	.LFE6:
 558              		.section	.text.prv_end_of_space,"ax",%progbits
 559              		.align	1
 560              		.syntax unified
 561              		.thumb
 562              		.thumb_func
 563              		.fpu fpv4-sp-d16
 565              	prv_end_of_space:
 566              	.LFB7:
 154:g:/iot/IoT_Device_Demo/iot_link/network/lwm2m/wakaama_lwm2m/wakaama-master/examples/shared\commandline.c **** 
 155:g:/iot/IoT_Device_Demo/iot_link/network/lwm2m/wakaama_lwm2m/wakaama-master/examples/shared\commandline.c **** static char *prv_end_of_space(char *buffer)
 156:g:/iot/IoT_Device_Demo/iot_link/network/lwm2m/wakaama_lwm2m/wakaama-master/examples/shared\commandline.c **** {
 567              		.loc 1 156 1
 568              		.cfi_startproc
 569              		@ args = 0, pretend = 0, frame = 8
 570              		@ frame_needed = 1, uses_anonymous_args = 0
 571              		@ link register save eliminated.
 572 0000 80B4     		push	{r7}
 573              	.LCFI15:
 574              		.cfi_def_cfa_offset 4
 575              		.cfi_offset 7, -4
 576 0002 83B0     		sub	sp, sp, #12
 577              	.LCFI16:
 578              		.cfi_def_cfa_offset 16
 579 0004 00AF     		add	r7, sp, #0
 580              	.LCFI17:
 581              		.cfi_def_cfa_register 7
 582 0006 7860     		str	r0, [r7, #4]
 157:g:/iot/IoT_Device_Demo/iot_link/network/lwm2m/wakaama_lwm2m/wakaama-master/examples/shared\commandline.c ****     while (isspace(buffer[0] & 0xff))
 583              		.loc 1 157 11
 584 0008 02E0     		b	.L38
 585              	.L39:
 158:g:/iot/IoT_Device_Demo/iot_link/network/lwm2m/wakaama_lwm2m/wakaama-master/examples/shared\commandline.c ****     {
 159:g:/iot/IoT_Device_Demo/iot_link/network/lwm2m/wakaama_lwm2m/wakaama-master/examples/shared\commandline.c ****         buffer++;
 586              		.loc 1 159 15
 587 000a 7B68     		ldr	r3, [r7, #4]
 588 000c 0133     		adds	r3, r3, #1
 589 000e 7B60     		str	r3, [r7, #4]
ARM GAS  C:\Users\ADMINI~1\AppData\Local\Temp\ccT1G34X.s 			page 15


 590              	.L38:
 157:g:/iot/IoT_Device_Demo/iot_link/network/lwm2m/wakaama_lwm2m/wakaama-master/examples/shared\commandline.c ****     while (isspace(buffer[0] & 0xff))
 591              		.loc 1 157 12
 592 0010 7B68     		ldr	r3, [r7, #4]
 593 0012 1B78     		ldrb	r3, [r3]	@ zero_extendqisi2
 594 0014 0133     		adds	r3, r3, #1
 595 0016 074A     		ldr	r2, .L41
 596 0018 1344     		add	r3, r3, r2
 597 001a 1B78     		ldrb	r3, [r3]	@ zero_extendqisi2
 598 001c 03F00803 		and	r3, r3, #8
 157:g:/iot/IoT_Device_Demo/iot_link/network/lwm2m/wakaama_lwm2m/wakaama-master/examples/shared\commandline.c ****     while (isspace(buffer[0] & 0xff))
 599              		.loc 1 157 11
 600 0020 002B     		cmp	r3, #0
 601 0022 F2D1     		bne	.L39
 160:g:/iot/IoT_Device_Demo/iot_link/network/lwm2m/wakaama_lwm2m/wakaama-master/examples/shared\commandline.c ****     }
 161:g:/iot/IoT_Device_Demo/iot_link/network/lwm2m/wakaama_lwm2m/wakaama-master/examples/shared\commandline.c ****     return buffer;
 602              		.loc 1 161 12
 603 0024 7B68     		ldr	r3, [r7, #4]
 162:g:/iot/IoT_Device_Demo/iot_link/network/lwm2m/wakaama_lwm2m/wakaama-master/examples/shared\commandline.c **** }
 604              		.loc 1 162 1
 605 0026 1846     		mov	r0, r3
 606 0028 0C37     		adds	r7, r7, #12
 607              	.LCFI18:
 608              		.cfi_def_cfa_offset 4
 609 002a BD46     		mov	sp, r7
 610              	.LCFI19:
 611              		.cfi_def_cfa_register 13
 612              		@ sp needed
 613 002c 5DF8047B 		ldr	r7, [sp], #4
 614              	.LCFI20:
 615              		.cfi_restore 7
 616              		.cfi_def_cfa_offset 0
 617 0030 7047     		bx	lr
 618              	.L42:
 619 0032 00BF     		.align	2
 620              	.L41:
 621 0034 00000000 		.word	_ctype_
 622              		.cfi_endproc
 623              	.LFE7:
 625              		.section	.text.get_end_of_arg,"ax",%progbits
 626              		.align	1
 627              		.global	get_end_of_arg
 628              		.syntax unified
 629              		.thumb
 630              		.thumb_func
 631              		.fpu fpv4-sp-d16
 633              	get_end_of_arg:
 634              	.LFB8:
 163:g:/iot/IoT_Device_Demo/iot_link/network/lwm2m/wakaama_lwm2m/wakaama-master/examples/shared\commandline.c **** 
 164:g:/iot/IoT_Device_Demo/iot_link/network/lwm2m/wakaama_lwm2m/wakaama-master/examples/shared\commandline.c **** char *get_end_of_arg(char *buffer)
 165:g:/iot/IoT_Device_Demo/iot_link/network/lwm2m/wakaama_lwm2m/wakaama-master/examples/shared\commandline.c **** {
 635              		.loc 1 165 1
 636              		.cfi_startproc
 637              		@ args = 0, pretend = 0, frame = 8
 638              		@ frame_needed = 1, uses_anonymous_args = 0
 639              		@ link register save eliminated.
 640 0000 80B4     		push	{r7}
ARM GAS  C:\Users\ADMINI~1\AppData\Local\Temp\ccT1G34X.s 			page 16


 641              	.LCFI21:
 642              		.cfi_def_cfa_offset 4
 643              		.cfi_offset 7, -4
 644 0002 83B0     		sub	sp, sp, #12
 645              	.LCFI22:
 646              		.cfi_def_cfa_offset 16
 647 0004 00AF     		add	r7, sp, #0
 648              	.LCFI23:
 649              		.cfi_def_cfa_register 7
 650 0006 7860     		str	r0, [r7, #4]
 166:g:/iot/IoT_Device_Demo/iot_link/network/lwm2m/wakaama_lwm2m/wakaama-master/examples/shared\commandline.c ****     while (buffer[0] != 0 && !isspace(buffer[0] & 0xFF))
 651              		.loc 1 166 11
 652 0008 02E0     		b	.L44
 653              	.L46:
 167:g:/iot/IoT_Device_Demo/iot_link/network/lwm2m/wakaama_lwm2m/wakaama-master/examples/shared\commandline.c ****     {
 168:g:/iot/IoT_Device_Demo/iot_link/network/lwm2m/wakaama_lwm2m/wakaama-master/examples/shared\commandline.c ****         buffer++;
 654              		.loc 1 168 15
 655 000a 7B68     		ldr	r3, [r7, #4]
 656 000c 0133     		adds	r3, r3, #1
 657 000e 7B60     		str	r3, [r7, #4]
 658              	.L44:
 166:g:/iot/IoT_Device_Demo/iot_link/network/lwm2m/wakaama_lwm2m/wakaama-master/examples/shared\commandline.c ****     while (buffer[0] != 0 && !isspace(buffer[0] & 0xFF))
 659              		.loc 1 166 18
 660 0010 7B68     		ldr	r3, [r7, #4]
 661 0012 1B78     		ldrb	r3, [r3]	@ zero_extendqisi2
 166:g:/iot/IoT_Device_Demo/iot_link/network/lwm2m/wakaama_lwm2m/wakaama-master/examples/shared\commandline.c ****     while (buffer[0] != 0 && !isspace(buffer[0] & 0xFF))
 662              		.loc 1 166 11
 663 0014 002B     		cmp	r3, #0
 664 0016 09D0     		beq	.L45
 166:g:/iot/IoT_Device_Demo/iot_link/network/lwm2m/wakaama_lwm2m/wakaama-master/examples/shared\commandline.c ****     while (buffer[0] != 0 && !isspace(buffer[0] & 0xFF))
 665              		.loc 1 166 31 discriminator 1
 666 0018 7B68     		ldr	r3, [r7, #4]
 667 001a 1B78     		ldrb	r3, [r3]	@ zero_extendqisi2
 668 001c 0133     		adds	r3, r3, #1
 669 001e 074A     		ldr	r2, .L48
 670 0020 1344     		add	r3, r3, r2
 671 0022 1B78     		ldrb	r3, [r3]	@ zero_extendqisi2
 672 0024 03F00803 		and	r3, r3, #8
 166:g:/iot/IoT_Device_Demo/iot_link/network/lwm2m/wakaama_lwm2m/wakaama-master/examples/shared\commandline.c ****     while (buffer[0] != 0 && !isspace(buffer[0] & 0xFF))
 673              		.loc 1 166 27 discriminator 1
 674 0028 002B     		cmp	r3, #0
 675 002a EED0     		beq	.L46
 676              	.L45:
 169:g:/iot/IoT_Device_Demo/iot_link/network/lwm2m/wakaama_lwm2m/wakaama-master/examples/shared\commandline.c ****     }
 170:g:/iot/IoT_Device_Demo/iot_link/network/lwm2m/wakaama_lwm2m/wakaama-master/examples/shared\commandline.c ****     return buffer;
 677              		.loc 1 170 12
 678 002c 7B68     		ldr	r3, [r7, #4]
 171:g:/iot/IoT_Device_Demo/iot_link/network/lwm2m/wakaama_lwm2m/wakaama-master/examples/shared\commandline.c **** }
 679              		.loc 1 171 1
 680 002e 1846     		mov	r0, r3
 681 0030 0C37     		adds	r7, r7, #12
 682              	.LCFI24:
 683              		.cfi_def_cfa_offset 4
 684 0032 BD46     		mov	sp, r7
 685              	.LCFI25:
 686              		.cfi_def_cfa_register 13
 687              		@ sp needed
ARM GAS  C:\Users\ADMINI~1\AppData\Local\Temp\ccT1G34X.s 			page 17


 688 0034 5DF8047B 		ldr	r7, [sp], #4
 689              	.LCFI26:
 690              		.cfi_restore 7
 691              		.cfi_def_cfa_offset 0
 692 0038 7047     		bx	lr
 693              	.L49:
 694 003a 00BF     		.align	2
 695              	.L48:
 696 003c 00000000 		.word	_ctype_
 697              		.cfi_endproc
 698              	.LFE8:
 700              		.section	.text.get_next_arg,"ax",%progbits
 701              		.align	1
 702              		.global	get_next_arg
 703              		.syntax unified
 704              		.thumb
 705              		.thumb_func
 706              		.fpu fpv4-sp-d16
 708              	get_next_arg:
 709              	.LFB9:
 172:g:/iot/IoT_Device_Demo/iot_link/network/lwm2m/wakaama_lwm2m/wakaama-master/examples/shared\commandline.c **** 
 173:g:/iot/IoT_Device_Demo/iot_link/network/lwm2m/wakaama_lwm2m/wakaama-master/examples/shared\commandline.c **** char *get_next_arg(char *buffer, char **end)
 174:g:/iot/IoT_Device_Demo/iot_link/network/lwm2m/wakaama_lwm2m/wakaama-master/examples/shared\commandline.c **** {
 710              		.loc 1 174 1
 711              		.cfi_startproc
 712              		@ args = 0, pretend = 0, frame = 8
 713              		@ frame_needed = 1, uses_anonymous_args = 0
 714 0000 80B5     		push	{r7, lr}
 715              	.LCFI27:
 716              		.cfi_def_cfa_offset 8
 717              		.cfi_offset 7, -8
 718              		.cfi_offset 14, -4
 719 0002 82B0     		sub	sp, sp, #8
 720              	.LCFI28:
 721              		.cfi_def_cfa_offset 16
 722 0004 00AF     		add	r7, sp, #0
 723              	.LCFI29:
 724              		.cfi_def_cfa_register 7
 725 0006 7860     		str	r0, [r7, #4]
 726 0008 3960     		str	r1, [r7]
 175:g:/iot/IoT_Device_Demo/iot_link/network/lwm2m/wakaama_lwm2m/wakaama-master/examples/shared\commandline.c ****     // skip arg
 176:g:/iot/IoT_Device_Demo/iot_link/network/lwm2m/wakaama_lwm2m/wakaama-master/examples/shared\commandline.c ****     buffer = get_end_of_arg(buffer);
 727              		.loc 1 176 14
 728 000a 7868     		ldr	r0, [r7, #4]
 729 000c FFF7FEFF 		bl	get_end_of_arg
 730 0010 7860     		str	r0, [r7, #4]
 177:g:/iot/IoT_Device_Demo/iot_link/network/lwm2m/wakaama_lwm2m/wakaama-master/examples/shared\commandline.c ****     // skip space
 178:g:/iot/IoT_Device_Demo/iot_link/network/lwm2m/wakaama_lwm2m/wakaama-master/examples/shared\commandline.c ****     buffer = prv_end_of_space(buffer);
 731              		.loc 1 178 14
 732 0012 7868     		ldr	r0, [r7, #4]
 733 0014 FFF7FEFF 		bl	prv_end_of_space
 734 0018 7860     		str	r0, [r7, #4]
 179:g:/iot/IoT_Device_Demo/iot_link/network/lwm2m/wakaama_lwm2m/wakaama-master/examples/shared\commandline.c ****     if (NULL != end)
 735              		.loc 1 179 8
 736 001a 3B68     		ldr	r3, [r7]
 737 001c 002B     		cmp	r3, #0
 738 001e 05D0     		beq	.L51
ARM GAS  C:\Users\ADMINI~1\AppData\Local\Temp\ccT1G34X.s 			page 18


 180:g:/iot/IoT_Device_Demo/iot_link/network/lwm2m/wakaama_lwm2m/wakaama-master/examples/shared\commandline.c ****     {
 181:g:/iot/IoT_Device_Demo/iot_link/network/lwm2m/wakaama_lwm2m/wakaama-master/examples/shared\commandline.c ****         *end = get_end_of_arg(buffer);
 739              		.loc 1 181 16
 740 0020 7868     		ldr	r0, [r7, #4]
 741 0022 FFF7FEFF 		bl	get_end_of_arg
 742 0026 0246     		mov	r2, r0
 743              		.loc 1 181 14
 744 0028 3B68     		ldr	r3, [r7]
 745 002a 1A60     		str	r2, [r3]
 746              	.L51:
 182:g:/iot/IoT_Device_Demo/iot_link/network/lwm2m/wakaama_lwm2m/wakaama-master/examples/shared\commandline.c ****     }
 183:g:/iot/IoT_Device_Demo/iot_link/network/lwm2m/wakaama_lwm2m/wakaama-master/examples/shared\commandline.c **** 
 184:g:/iot/IoT_Device_Demo/iot_link/network/lwm2m/wakaama_lwm2m/wakaama-master/examples/shared\commandline.c ****     return buffer;
 747              		.loc 1 184 12
 748 002c 7B68     		ldr	r3, [r7, #4]
 185:g:/iot/IoT_Device_Demo/iot_link/network/lwm2m/wakaama_lwm2m/wakaama-master/examples/shared\commandline.c **** }
 749              		.loc 1 185 1
 750 002e 1846     		mov	r0, r3
 751 0030 0837     		adds	r7, r7, #8
 752              	.LCFI30:
 753              		.cfi_def_cfa_offset 8
 754 0032 BD46     		mov	sp, r7
 755              	.LCFI31:
 756              		.cfi_def_cfa_register 13
 757              		@ sp needed
 758 0034 80BD     		pop	{r7, pc}
 759              		.cfi_endproc
 760              	.LFE9:
 762              		.section	.text.check_end_of_args,"ax",%progbits
 763              		.align	1
 764              		.global	check_end_of_args
 765              		.syntax unified
 766              		.thumb
 767              		.thumb_func
 768              		.fpu fpv4-sp-d16
 770              	check_end_of_args:
 771              	.LFB10:
 186:g:/iot/IoT_Device_Demo/iot_link/network/lwm2m/wakaama_lwm2m/wakaama-master/examples/shared\commandline.c **** 
 187:g:/iot/IoT_Device_Demo/iot_link/network/lwm2m/wakaama_lwm2m/wakaama-master/examples/shared\commandline.c **** int check_end_of_args(char *buffer)
 188:g:/iot/IoT_Device_Demo/iot_link/network/lwm2m/wakaama_lwm2m/wakaama-master/examples/shared\commandline.c **** {
 772              		.loc 1 188 1
 773              		.cfi_startproc
 774              		@ args = 0, pretend = 0, frame = 8
 775              		@ frame_needed = 1, uses_anonymous_args = 0
 776 0000 80B5     		push	{r7, lr}
 777              	.LCFI32:
 778              		.cfi_def_cfa_offset 8
 779              		.cfi_offset 7, -8
 780              		.cfi_offset 14, -4
 781 0002 82B0     		sub	sp, sp, #8
 782              	.LCFI33:
 783              		.cfi_def_cfa_offset 16
 784 0004 00AF     		add	r7, sp, #0
 785              	.LCFI34:
 786              		.cfi_def_cfa_register 7
 787 0006 7860     		str	r0, [r7, #4]
 189:g:/iot/IoT_Device_Demo/iot_link/network/lwm2m/wakaama_lwm2m/wakaama-master/examples/shared\commandline.c ****     buffer = prv_end_of_space(buffer);
ARM GAS  C:\Users\ADMINI~1\AppData\Local\Temp\ccT1G34X.s 			page 19


 788              		.loc 1 189 14
 789 0008 7868     		ldr	r0, [r7, #4]
 790 000a FFF7FEFF 		bl	prv_end_of_space
 791 000e 7860     		str	r0, [r7, #4]
 190:g:/iot/IoT_Device_Demo/iot_link/network/lwm2m/wakaama_lwm2m/wakaama-master/examples/shared\commandline.c **** 
 191:g:/iot/IoT_Device_Demo/iot_link/network/lwm2m/wakaama_lwm2m/wakaama-master/examples/shared\commandline.c ****     return (0 == buffer[0]);
 792              		.loc 1 191 24
 793 0010 7B68     		ldr	r3, [r7, #4]
 794 0012 1B78     		ldrb	r3, [r3]	@ zero_extendqisi2
 795              		.loc 1 191 15
 796 0014 002B     		cmp	r3, #0
 797 0016 0CBF     		ite	eq
 798 0018 0123     		moveq	r3, #1
 799 001a 0023     		movne	r3, #0
 800 001c DBB2     		uxtb	r3, r3
 192:g:/iot/IoT_Device_Demo/iot_link/network/lwm2m/wakaama_lwm2m/wakaama-master/examples/shared\commandline.c **** }
 801              		.loc 1 192 1
 802 001e 1846     		mov	r0, r3
 803 0020 0837     		adds	r7, r7, #8
 804              	.LCFI35:
 805              		.cfi_def_cfa_offset 8
 806 0022 BD46     		mov	sp, r7
 807              	.LCFI36:
 808              		.cfi_def_cfa_register 13
 809              		@ sp needed
 810 0024 80BD     		pop	{r7, pc}
 811              		.cfi_endproc
 812              	.LFE10:
 814              		.section	.rodata
 815 007d 000000   		.align	2
 816              	.LC5:
 817 0080 20202020 		.ascii	"    \000"
 817      00
 818              		.section	.text.print_indent,"ax",%progbits
 819              		.align	1
 820              		.syntax unified
 821              		.thumb
 822              		.thumb_func
 823              		.fpu fpv4-sp-d16
 825              	print_indent:
 826              	.LFB11:
 193:g:/iot/IoT_Device_Demo/iot_link/network/lwm2m/wakaama_lwm2m/wakaama-master/examples/shared\commandline.c **** 
 194:g:/iot/IoT_Device_Demo/iot_link/network/lwm2m/wakaama_lwm2m/wakaama-master/examples/shared\commandline.c **** /**********************************************************
 195:g:/iot/IoT_Device_Demo/iot_link/network/lwm2m/wakaama_lwm2m/wakaama-master/examples/shared\commandline.c ****  * Display Functions
 196:g:/iot/IoT_Device_Demo/iot_link/network/lwm2m/wakaama_lwm2m/wakaama-master/examples/shared\commandline.c ****  */
 197:g:/iot/IoT_Device_Demo/iot_link/network/lwm2m/wakaama_lwm2m/wakaama-master/examples/shared\commandline.c **** 
 198:g:/iot/IoT_Device_Demo/iot_link/network/lwm2m/wakaama_lwm2m/wakaama-master/examples/shared\commandline.c **** static void print_indent(FILE *stream,
 199:g:/iot/IoT_Device_Demo/iot_link/network/lwm2m/wakaama_lwm2m/wakaama-master/examples/shared\commandline.c ****                          int num)
 200:g:/iot/IoT_Device_Demo/iot_link/network/lwm2m/wakaama_lwm2m/wakaama-master/examples/shared\commandline.c **** {
 827              		.loc 1 200 1
 828              		.cfi_startproc
 829              		@ args = 0, pretend = 0, frame = 16
 830              		@ frame_needed = 1, uses_anonymous_args = 0
 831 0000 80B5     		push	{r7, lr}
 832              	.LCFI37:
 833              		.cfi_def_cfa_offset 8
 834              		.cfi_offset 7, -8
ARM GAS  C:\Users\ADMINI~1\AppData\Local\Temp\ccT1G34X.s 			page 20


 835              		.cfi_offset 14, -4
 836 0002 84B0     		sub	sp, sp, #16
 837              	.LCFI38:
 838              		.cfi_def_cfa_offset 24
 839 0004 00AF     		add	r7, sp, #0
 840              	.LCFI39:
 841              		.cfi_def_cfa_register 7
 842 0006 7860     		str	r0, [r7, #4]
 843 0008 3960     		str	r1, [r7]
 201:g:/iot/IoT_Device_Demo/iot_link/network/lwm2m/wakaama_lwm2m/wakaama-master/examples/shared\commandline.c ****     int i;
 202:g:/iot/IoT_Device_Demo/iot_link/network/lwm2m/wakaama_lwm2m/wakaama-master/examples/shared\commandline.c **** 
 203:g:/iot/IoT_Device_Demo/iot_link/network/lwm2m/wakaama_lwm2m/wakaama-master/examples/shared\commandline.c ****     for ( i = 0 ; i < num ; i++)
 844              		.loc 1 203 13
 845 000a 0023     		movs	r3, #0
 846 000c FB60     		str	r3, [r7, #12]
 847              		.loc 1 203 5
 848 000e 08E0     		b	.L56
 849              	.L57:
 204:g:/iot/IoT_Device_Demo/iot_link/network/lwm2m/wakaama_lwm2m/wakaama-master/examples/shared\commandline.c ****         fprintf(stream, "    ");
 850              		.loc 1 204 9 discriminator 3
 851 0010 7B68     		ldr	r3, [r7, #4]
 852 0012 0422     		movs	r2, #4
 853 0014 0121     		movs	r1, #1
 854 0016 0748     		ldr	r0, .L58
 855 0018 FFF7FEFF 		bl	fwrite
 203:g:/iot/IoT_Device_Demo/iot_link/network/lwm2m/wakaama_lwm2m/wakaama-master/examples/shared\commandline.c ****         fprintf(stream, "    ");
 856              		.loc 1 203 30 discriminator 3
 857 001c FB68     		ldr	r3, [r7, #12]
 858 001e 0133     		adds	r3, r3, #1
 859 0020 FB60     		str	r3, [r7, #12]
 860              	.L56:
 203:g:/iot/IoT_Device_Demo/iot_link/network/lwm2m/wakaama_lwm2m/wakaama-master/examples/shared\commandline.c ****         fprintf(stream, "    ");
 861              		.loc 1 203 5 discriminator 1
 862 0022 FA68     		ldr	r2, [r7, #12]
 863 0024 3B68     		ldr	r3, [r7]
 864 0026 9A42     		cmp	r2, r3
 865 0028 F2DB     		blt	.L57
 205:g:/iot/IoT_Device_Demo/iot_link/network/lwm2m/wakaama_lwm2m/wakaama-master/examples/shared\commandline.c **** }
 866              		.loc 1 205 1
 867 002a 00BF     		nop
 868 002c 00BF     		nop
 869 002e 1037     		adds	r7, r7, #16
 870              	.LCFI40:
 871              		.cfi_def_cfa_offset 8
 872 0030 BD46     		mov	sp, r7
 873              	.LCFI41:
 874              		.cfi_def_cfa_register 13
 875              		@ sp needed
 876 0032 80BD     		pop	{r7, pc}
 877              	.L59:
 878              		.align	2
 879              	.L58:
 880 0034 80000000 		.word	.LC5
 881              		.cfi_endproc
 882              	.LFE11:
 884              		.section	.text.output_buffer,"ax",%progbits
 885              		.align	1
ARM GAS  C:\Users\ADMINI~1\AppData\Local\Temp\ccT1G34X.s 			page 21


 886              		.global	output_buffer
 887              		.syntax unified
 888              		.thumb
 889              		.thumb_func
 890              		.fpu fpv4-sp-d16
 892              	output_buffer:
 893              	.LFB12:
 206:g:/iot/IoT_Device_Demo/iot_link/network/lwm2m/wakaama_lwm2m/wakaama-master/examples/shared\commandline.c **** #ifdef ATING_DEBUG
 207:g:/iot/IoT_Device_Demo/iot_link/network/lwm2m/wakaama_lwm2m/wakaama-master/examples/shared\commandline.c **** void output_buffer(FILE *stream,
 208:g:/iot/IoT_Device_Demo/iot_link/network/lwm2m/wakaama_lwm2m/wakaama-master/examples/shared\commandline.c ****                    uint8_t *buffer,
 209:g:/iot/IoT_Device_Demo/iot_link/network/lwm2m/wakaama_lwm2m/wakaama-master/examples/shared\commandline.c ****                    int length,
 210:g:/iot/IoT_Device_Demo/iot_link/network/lwm2m/wakaama_lwm2m/wakaama-master/examples/shared\commandline.c ****                    int indent)
 211:g:/iot/IoT_Device_Demo/iot_link/network/lwm2m/wakaama_lwm2m/wakaama-master/examples/shared\commandline.c **** {
 212:g:/iot/IoT_Device_Demo/iot_link/network/lwm2m/wakaama_lwm2m/wakaama-master/examples/shared\commandline.c ****     int i;
 213:g:/iot/IoT_Device_Demo/iot_link/network/lwm2m/wakaama_lwm2m/wakaama-master/examples/shared\commandline.c **** 
 214:g:/iot/IoT_Device_Demo/iot_link/network/lwm2m/wakaama_lwm2m/wakaama-master/examples/shared\commandline.c ****     if (length == 0) fprintf(stream, "\n");
 215:g:/iot/IoT_Device_Demo/iot_link/network/lwm2m/wakaama_lwm2m/wakaama-master/examples/shared\commandline.c **** 
 216:g:/iot/IoT_Device_Demo/iot_link/network/lwm2m/wakaama_lwm2m/wakaama-master/examples/shared\commandline.c ****     if (buffer == NULL) return;
 217:g:/iot/IoT_Device_Demo/iot_link/network/lwm2m/wakaama_lwm2m/wakaama-master/examples/shared\commandline.c **** 
 218:g:/iot/IoT_Device_Demo/iot_link/network/lwm2m/wakaama_lwm2m/wakaama-master/examples/shared\commandline.c ****     i = 0;
 219:g:/iot/IoT_Device_Demo/iot_link/network/lwm2m/wakaama_lwm2m/wakaama-master/examples/shared\commandline.c ****     while (i < length)
 220:g:/iot/IoT_Device_Demo/iot_link/network/lwm2m/wakaama_lwm2m/wakaama-master/examples/shared\commandline.c ****     {
 221:g:/iot/IoT_Device_Demo/iot_link/network/lwm2m/wakaama_lwm2m/wakaama-master/examples/shared\commandline.c ****         uint8_t array[16];
 222:g:/iot/IoT_Device_Demo/iot_link/network/lwm2m/wakaama_lwm2m/wakaama-master/examples/shared\commandline.c ****         int j;
 223:g:/iot/IoT_Device_Demo/iot_link/network/lwm2m/wakaama_lwm2m/wakaama-master/examples/shared\commandline.c **** 
 224:g:/iot/IoT_Device_Demo/iot_link/network/lwm2m/wakaama_lwm2m/wakaama-master/examples/shared\commandline.c ****         print_indent(stream, indent);
 225:g:/iot/IoT_Device_Demo/iot_link/network/lwm2m/wakaama_lwm2m/wakaama-master/examples/shared\commandline.c ****         memcpy(array, buffer + i, 16);
 226:g:/iot/IoT_Device_Demo/iot_link/network/lwm2m/wakaama_lwm2m/wakaama-master/examples/shared\commandline.c ****         for (j = 0 ; j < 16 && i + j < length; j++)
 227:g:/iot/IoT_Device_Demo/iot_link/network/lwm2m/wakaama_lwm2m/wakaama-master/examples/shared\commandline.c ****         {
 228:g:/iot/IoT_Device_Demo/iot_link/network/lwm2m/wakaama_lwm2m/wakaama-master/examples/shared\commandline.c ****             fprintf(stream, "%02X ", array[j]);
 229:g:/iot/IoT_Device_Demo/iot_link/network/lwm2m/wakaama_lwm2m/wakaama-master/examples/shared\commandline.c ****             if (j % 4 == 3) fprintf(stream, " ");
 230:g:/iot/IoT_Device_Demo/iot_link/network/lwm2m/wakaama_lwm2m/wakaama-master/examples/shared\commandline.c ****         }
 231:g:/iot/IoT_Device_Demo/iot_link/network/lwm2m/wakaama_lwm2m/wakaama-master/examples/shared\commandline.c ****         if (length > 16)
 232:g:/iot/IoT_Device_Demo/iot_link/network/lwm2m/wakaama_lwm2m/wakaama-master/examples/shared\commandline.c ****         {
 233:g:/iot/IoT_Device_Demo/iot_link/network/lwm2m/wakaama_lwm2m/wakaama-master/examples/shared\commandline.c ****             while (j < 16)
 234:g:/iot/IoT_Device_Demo/iot_link/network/lwm2m/wakaama_lwm2m/wakaama-master/examples/shared\commandline.c ****             {
 235:g:/iot/IoT_Device_Demo/iot_link/network/lwm2m/wakaama_lwm2m/wakaama-master/examples/shared\commandline.c ****                 fprintf(stream, "   ");
 236:g:/iot/IoT_Device_Demo/iot_link/network/lwm2m/wakaama_lwm2m/wakaama-master/examples/shared\commandline.c ****                 if (j % 4 == 3) fprintf(stream, " ");
 237:g:/iot/IoT_Device_Demo/iot_link/network/lwm2m/wakaama_lwm2m/wakaama-master/examples/shared\commandline.c ****                 j++;
 238:g:/iot/IoT_Device_Demo/iot_link/network/lwm2m/wakaama_lwm2m/wakaama-master/examples/shared\commandline.c ****             }
 239:g:/iot/IoT_Device_Demo/iot_link/network/lwm2m/wakaama_lwm2m/wakaama-master/examples/shared\commandline.c ****         }
 240:g:/iot/IoT_Device_Demo/iot_link/network/lwm2m/wakaama_lwm2m/wakaama-master/examples/shared\commandline.c ****         fprintf(stream, " ");
 241:g:/iot/IoT_Device_Demo/iot_link/network/lwm2m/wakaama_lwm2m/wakaama-master/examples/shared\commandline.c ****         for (j = 0 ; j < 16 && i + j < length; j++)
 242:g:/iot/IoT_Device_Demo/iot_link/network/lwm2m/wakaama_lwm2m/wakaama-master/examples/shared\commandline.c ****         {
 243:g:/iot/IoT_Device_Demo/iot_link/network/lwm2m/wakaama_lwm2m/wakaama-master/examples/shared\commandline.c ****             if (isprint(array[j]))
 244:g:/iot/IoT_Device_Demo/iot_link/network/lwm2m/wakaama_lwm2m/wakaama-master/examples/shared\commandline.c ****                 fprintf(stream, "%c", array[j]);
 245:g:/iot/IoT_Device_Demo/iot_link/network/lwm2m/wakaama_lwm2m/wakaama-master/examples/shared\commandline.c ****             else
 246:g:/iot/IoT_Device_Demo/iot_link/network/lwm2m/wakaama_lwm2m/wakaama-master/examples/shared\commandline.c ****                 fprintf(stream, ".");
 247:g:/iot/IoT_Device_Demo/iot_link/network/lwm2m/wakaama_lwm2m/wakaama-master/examples/shared\commandline.c ****         }
 248:g:/iot/IoT_Device_Demo/iot_link/network/lwm2m/wakaama_lwm2m/wakaama-master/examples/shared\commandline.c ****         fprintf(stream, "\n");
 249:g:/iot/IoT_Device_Demo/iot_link/network/lwm2m/wakaama_lwm2m/wakaama-master/examples/shared\commandline.c ****         i += 16;
 250:g:/iot/IoT_Device_Demo/iot_link/network/lwm2m/wakaama_lwm2m/wakaama-master/examples/shared\commandline.c ****     }
 251:g:/iot/IoT_Device_Demo/iot_link/network/lwm2m/wakaama_lwm2m/wakaama-master/examples/shared\commandline.c **** }
 252:g:/iot/IoT_Device_Demo/iot_link/network/lwm2m/wakaama_lwm2m/wakaama-master/examples/shared\commandline.c **** #else
 253:g:/iot/IoT_Device_Demo/iot_link/network/lwm2m/wakaama_lwm2m/wakaama-master/examples/shared\commandline.c **** void output_buffer(FILE *stream,
 254:g:/iot/IoT_Device_Demo/iot_link/network/lwm2m/wakaama_lwm2m/wakaama-master/examples/shared\commandline.c ****                    uint8_t *buffer,
 255:g:/iot/IoT_Device_Demo/iot_link/network/lwm2m/wakaama_lwm2m/wakaama-master/examples/shared\commandline.c ****                    int length,
ARM GAS  C:\Users\ADMINI~1\AppData\Local\Temp\ccT1G34X.s 			page 22


 256:g:/iot/IoT_Device_Demo/iot_link/network/lwm2m/wakaama_lwm2m/wakaama-master/examples/shared\commandline.c ****                    int indent)
 257:g:/iot/IoT_Device_Demo/iot_link/network/lwm2m/wakaama_lwm2m/wakaama-master/examples/shared\commandline.c **** {
 894              		.loc 1 257 1
 895              		.cfi_startproc
 896              		@ args = 0, pretend = 0, frame = 16
 897              		@ frame_needed = 1, uses_anonymous_args = 0
 898              		@ link register save eliminated.
 899 0000 80B4     		push	{r7}
 900              	.LCFI42:
 901              		.cfi_def_cfa_offset 4
 902              		.cfi_offset 7, -4
 903 0002 85B0     		sub	sp, sp, #20
 904              	.LCFI43:
 905              		.cfi_def_cfa_offset 24
 906 0004 00AF     		add	r7, sp, #0
 907              	.LCFI44:
 908              		.cfi_def_cfa_register 7
 909 0006 F860     		str	r0, [r7, #12]
 910 0008 B960     		str	r1, [r7, #8]
 911 000a 7A60     		str	r2, [r7, #4]
 912 000c 3B60     		str	r3, [r7]
 258:g:/iot/IoT_Device_Demo/iot_link/network/lwm2m/wakaama_lwm2m/wakaama-master/examples/shared\commandline.c **** }
 913              		.loc 1 258 1
 914 000e 00BF     		nop
 915 0010 1437     		adds	r7, r7, #20
 916              	.LCFI45:
 917              		.cfi_def_cfa_offset 4
 918 0012 BD46     		mov	sp, r7
 919              	.LCFI46:
 920              		.cfi_def_cfa_register 13
 921              		@ sp needed
 922 0014 5DF8047B 		ldr	r7, [sp], #4
 923              	.LCFI47:
 924              		.cfi_restore 7
 925              		.cfi_def_cfa_offset 0
 926 0018 7047     		bx	lr
 927              		.cfi_endproc
 928              	.LFE12:
 930              		.section	.rodata
 931 0085 000000   		.align	2
 932              	.LC6:
 933 0088 7B0D0A00 		.ascii	"{\015\012\000"
 934              		.align	2
 935              	.LC7:
 936 008c 49443A20 		.ascii	"ID: %d\000"
 936      256400
 937 0093 00       		.align	2
 938              	.LC8:
 939 0094 20747970 		.ascii	" type: \000"
 939      653A2000 
 940              		.align	2
 941              	.LC9:
 942 009c 4F626A65 		.ascii	"Object Instance\000"
 942      63742049 
 942      6E737461 
 942      6E636500 
 943              		.align	2
ARM GAS  C:\Users\ADMINI~1\AppData\Local\Temp\ccT1G34X.s 			page 23


 944              	.LC10:
 945 00ac 4D756C74 		.ascii	"Multiple Instances\000"
 945      69706C65 
 945      20496E73 
 945      74616E63 
 945      657300
 946 00bf 00       		.align	2
 947              	.LC11:
 948 00c0 5265736F 		.ascii	"Resource Value\000"
 948      75726365 
 948      2056616C 
 948      756500
 949 00cf 00       		.align	2
 950              	.LC12:
 951 00d0 756E6B6E 		.ascii	"unknown (%d)\000"
 951      6F776E20 
 951      28256429 
 951      00
 952 00dd 000000   		.align	2
 953              	.LC13:
 954 00e0 7B0A00   		.ascii	"{\012\000"
 955 00e3 00       		.align	2
 956              	.LC14:
 957 00e4 64617461 		.ascii	"data (%d bytes):\015\012\000"
 957      20282564 
 957      20627974 
 957      6573293A 
 957      0D0A00
 958 00f7 00       		.align	2
 959              	.LC15:
 960 00f8 256C6C64 		.ascii	"%lld\000"
 960      00
 961 00fd 000000   		.align	2
 962              	.LC16:
 963 0100 64617461 		.ascii	"data as Integer: %lld\015\012\000"
 963      20617320 
 963      496E7465 
 963      6765723A 
 963      20256C6C 
 964              		.align	2
 965              	.LC17:
 966 0118 256C6700 		.ascii	"%lg\000"
 967              		.align	2
 968              	.LC18:
 969 011c 64617461 		.ascii	"data as Float: %.16g\015\012\000"
 969      20617320 
 969      466C6F61 
 969      743A2025 
 969      2E313667 
 970 0133 00       		.align	2
 971              	.LC19:
 972 0134 7D0D0A00 		.ascii	"}\015\012\000"
 973              		.section	.text.output_tlv,"ax",%progbits
 974              		.align	1
 975              		.global	output_tlv
 976              		.syntax unified
 977              		.thumb
ARM GAS  C:\Users\ADMINI~1\AppData\Local\Temp\ccT1G34X.s 			page 24


 978              		.thumb_func
 979              		.fpu fpv4-sp-d16
 981              	output_tlv:
 982              	.LFB13:
 259:g:/iot/IoT_Device_Demo/iot_link/network/lwm2m/wakaama_lwm2m/wakaama-master/examples/shared\commandline.c **** #endif
 260:g:/iot/IoT_Device_Demo/iot_link/network/lwm2m/wakaama_lwm2m/wakaama-master/examples/shared\commandline.c **** void output_tlv(FILE *stream,
 261:g:/iot/IoT_Device_Demo/iot_link/network/lwm2m/wakaama_lwm2m/wakaama-master/examples/shared\commandline.c ****                 uint8_t *buffer,
 262:g:/iot/IoT_Device_Demo/iot_link/network/lwm2m/wakaama_lwm2m/wakaama-master/examples/shared\commandline.c ****                 size_t buffer_len,
 263:g:/iot/IoT_Device_Demo/iot_link/network/lwm2m/wakaama_lwm2m/wakaama-master/examples/shared\commandline.c ****                 int indent)
 264:g:/iot/IoT_Device_Demo/iot_link/network/lwm2m/wakaama_lwm2m/wakaama-master/examples/shared\commandline.c **** {
 983              		.loc 1 264 1
 984              		.cfi_startproc
 985              		@ args = 0, pretend = 0, frame = 56
 986              		@ frame_needed = 1, uses_anonymous_args = 0
 987 0000 90B5     		push	{r4, r7, lr}
 988              	.LCFI48:
 989              		.cfi_def_cfa_offset 12
 990              		.cfi_offset 4, -12
 991              		.cfi_offset 7, -8
 992              		.cfi_offset 14, -4
 993 0002 91B0     		sub	sp, sp, #68
 994              	.LCFI49:
 995              		.cfi_def_cfa_offset 80
 996 0004 02AF     		add	r7, sp, #8
 997              	.LCFI50:
 998              		.cfi_def_cfa 7, 72
 999 0006 F860     		str	r0, [r7, #12]
 1000 0008 B960     		str	r1, [r7, #8]
 1001 000a 7A60     		str	r2, [r7, #4]
 1002 000c 3B60     		str	r3, [r7]
 265:g:/iot/IoT_Device_Demo/iot_link/network/lwm2m/wakaama_lwm2m/wakaama-master/examples/shared\commandline.c ****     lwm2m_data_type_t type;
 266:g:/iot/IoT_Device_Demo/iot_link/network/lwm2m/wakaama_lwm2m/wakaama-master/examples/shared\commandline.c ****     uint16_t id;
 267:g:/iot/IoT_Device_Demo/iot_link/network/lwm2m/wakaama_lwm2m/wakaama-master/examples/shared\commandline.c ****     size_t dataIndex;
 268:g:/iot/IoT_Device_Demo/iot_link/network/lwm2m/wakaama_lwm2m/wakaama-master/examples/shared\commandline.c ****     size_t dataLen;
 269:g:/iot/IoT_Device_Demo/iot_link/network/lwm2m/wakaama_lwm2m/wakaama-master/examples/shared\commandline.c ****     int length = 0;
 1003              		.loc 1 269 9
 1004 000e 0023     		movs	r3, #0
 1005 0010 7B63     		str	r3, [r7, #52]
 270:g:/iot/IoT_Device_Demo/iot_link/network/lwm2m/wakaama_lwm2m/wakaama-master/examples/shared\commandline.c ****     int result;
 271:g:/iot/IoT_Device_Demo/iot_link/network/lwm2m/wakaama_lwm2m/wakaama-master/examples/shared\commandline.c **** 
 272:g:/iot/IoT_Device_Demo/iot_link/network/lwm2m/wakaama_lwm2m/wakaama-master/examples/shared\commandline.c ****     while (0 != (result = lwm2m_decode_TLV((uint8_t *)buffer + length, buffer_len - length, &type, 
 1006              		.loc 1 272 11
 1007 0012 E9E0     		b	.L62
 1008              	.L73:
 273:g:/iot/IoT_Device_Demo/iot_link/network/lwm2m/wakaama_lwm2m/wakaama-master/examples/shared\commandline.c ****     {
 274:g:/iot/IoT_Device_Demo/iot_link/network/lwm2m/wakaama_lwm2m/wakaama-master/examples/shared\commandline.c ****         print_indent(stream, indent);
 1009              		.loc 1 274 9
 1010 0014 3968     		ldr	r1, [r7]
 1011 0016 F868     		ldr	r0, [r7, #12]
 1012 0018 FFF7FEFF 		bl	print_indent
 275:g:/iot/IoT_Device_Demo/iot_link/network/lwm2m/wakaama_lwm2m/wakaama-master/examples/shared\commandline.c ****         fprintf(stream, "{\r\n");
 1013              		.loc 1 275 9
 1014 001c FB68     		ldr	r3, [r7, #12]
 1015 001e 0322     		movs	r2, #3
 1016 0020 0121     		movs	r1, #1
 1017 0022 8048     		ldr	r0, .L74
 1018 0024 FFF7FEFF 		bl	fwrite
ARM GAS  C:\Users\ADMINI~1\AppData\Local\Temp\ccT1G34X.s 			page 25


 276:g:/iot/IoT_Device_Demo/iot_link/network/lwm2m/wakaama_lwm2m/wakaama-master/examples/shared\commandline.c ****         print_indent(stream, indent + 1);
 1019              		.loc 1 276 9
 1020 0028 3B68     		ldr	r3, [r7]
 1021 002a 0133     		adds	r3, r3, #1
 1022 002c 1946     		mov	r1, r3
 1023 002e F868     		ldr	r0, [r7, #12]
 1024 0030 FFF7FEFF 		bl	print_indent
 277:g:/iot/IoT_Device_Demo/iot_link/network/lwm2m/wakaama_lwm2m/wakaama-master/examples/shared\commandline.c ****         fprintf(stream, "ID: %d", id);
 1025              		.loc 1 277 9
 1026 0034 BB8D     		ldrh	r3, [r7, #44]
 1027 0036 1A46     		mov	r2, r3
 1028 0038 7B49     		ldr	r1, .L74+4
 1029 003a F868     		ldr	r0, [r7, #12]
 1030 003c FFF7FEFF 		bl	fprintf
 278:g:/iot/IoT_Device_Demo/iot_link/network/lwm2m/wakaama_lwm2m/wakaama-master/examples/shared\commandline.c **** 
 279:g:/iot/IoT_Device_Demo/iot_link/network/lwm2m/wakaama_lwm2m/wakaama-master/examples/shared\commandline.c ****         fprintf(stream, " type: ");
 1031              		.loc 1 279 9
 1032 0040 FB68     		ldr	r3, [r7, #12]
 1033 0042 0722     		movs	r2, #7
 1034 0044 0121     		movs	r1, #1
 1035 0046 7948     		ldr	r0, .L74+8
 1036 0048 FFF7FEFF 		bl	fwrite
 280:g:/iot/IoT_Device_Demo/iot_link/network/lwm2m/wakaama_lwm2m/wakaama-master/examples/shared\commandline.c ****         switch (type)
 1037              		.loc 1 280 9
 1038 004c 97F82E30 		ldrb	r3, [r7, #46]	@ zero_extendqisi2
 1039 0050 052B     		cmp	r3, #5
 1040 0052 14D0     		beq	.L63
 1041 0054 052B     		cmp	r3, #5
 1042 0056 19DC     		bgt	.L64
 1043 0058 022B     		cmp	r3, #2
 1044 005a 02D0     		beq	.L65
 1045 005c 032B     		cmp	r3, #3
 1046 005e 07D0     		beq	.L66
 1047 0060 14E0     		b	.L64
 1048              	.L65:
 281:g:/iot/IoT_Device_Demo/iot_link/network/lwm2m/wakaama_lwm2m/wakaama-master/examples/shared\commandline.c ****         {
 282:g:/iot/IoT_Device_Demo/iot_link/network/lwm2m/wakaama_lwm2m/wakaama-master/examples/shared\commandline.c ****         case LWM2M_TYPE_OBJECT_INSTANCE:
 283:g:/iot/IoT_Device_Demo/iot_link/network/lwm2m/wakaama_lwm2m/wakaama-master/examples/shared\commandline.c ****             fprintf(stream, "Object Instance");
 1049              		.loc 1 283 13
 1050 0062 FB68     		ldr	r3, [r7, #12]
 1051 0064 0F22     		movs	r2, #15
 1052 0066 0121     		movs	r1, #1
 1053 0068 7148     		ldr	r0, .L74+12
 1054 006a FFF7FEFF 		bl	fwrite
 284:g:/iot/IoT_Device_Demo/iot_link/network/lwm2m/wakaama_lwm2m/wakaama-master/examples/shared\commandline.c ****             break;
 1055              		.loc 1 284 13
 1056 006e 14E0     		b	.L67
 1057              	.L66:
 285:g:/iot/IoT_Device_Demo/iot_link/network/lwm2m/wakaama_lwm2m/wakaama-master/examples/shared\commandline.c ****         case LWM2M_TYPE_MULTIPLE_RESOURCE:
 286:g:/iot/IoT_Device_Demo/iot_link/network/lwm2m/wakaama_lwm2m/wakaama-master/examples/shared\commandline.c ****             fprintf(stream, "Multiple Instances");
 1058              		.loc 1 286 13
 1059 0070 FB68     		ldr	r3, [r7, #12]
 1060 0072 1222     		movs	r2, #18
 1061 0074 0121     		movs	r1, #1
 1062 0076 6F48     		ldr	r0, .L74+16
 1063 0078 FFF7FEFF 		bl	fwrite
 287:g:/iot/IoT_Device_Demo/iot_link/network/lwm2m/wakaama_lwm2m/wakaama-master/examples/shared\commandline.c ****             break;
ARM GAS  C:\Users\ADMINI~1\AppData\Local\Temp\ccT1G34X.s 			page 26


 1064              		.loc 1 287 13
 1065 007c 0DE0     		b	.L67
 1066              	.L63:
 288:g:/iot/IoT_Device_Demo/iot_link/network/lwm2m/wakaama_lwm2m/wakaama-master/examples/shared\commandline.c ****         case LWM2M_TYPE_OPAQUE:
 289:g:/iot/IoT_Device_Demo/iot_link/network/lwm2m/wakaama_lwm2m/wakaama-master/examples/shared\commandline.c ****             fprintf(stream, "Resource Value");
 1067              		.loc 1 289 13
 1068 007e FB68     		ldr	r3, [r7, #12]
 1069 0080 0E22     		movs	r2, #14
 1070 0082 0121     		movs	r1, #1
 1071 0084 6C48     		ldr	r0, .L74+20
 1072 0086 FFF7FEFF 		bl	fwrite
 290:g:/iot/IoT_Device_Demo/iot_link/network/lwm2m/wakaama_lwm2m/wakaama-master/examples/shared\commandline.c ****             break;
 1073              		.loc 1 290 13
 1074 008a 06E0     		b	.L67
 1075              	.L64:
 291:g:/iot/IoT_Device_Demo/iot_link/network/lwm2m/wakaama_lwm2m/wakaama-master/examples/shared\commandline.c ****         default:
 292:g:/iot/IoT_Device_Demo/iot_link/network/lwm2m/wakaama_lwm2m/wakaama-master/examples/shared\commandline.c ****             printf("unknown (%d)", (int)type);
 1076              		.loc 1 292 13
 1077 008c 97F82E30 		ldrb	r3, [r7, #46]	@ zero_extendqisi2
 1078 0090 1946     		mov	r1, r3
 1079 0092 6A48     		ldr	r0, .L74+24
 1080 0094 FFF7FEFF 		bl	printf
 293:g:/iot/IoT_Device_Demo/iot_link/network/lwm2m/wakaama_lwm2m/wakaama-master/examples/shared\commandline.c ****             break;
 1081              		.loc 1 293 13
 1082 0098 00BF     		nop
 1083              	.L67:
 294:g:/iot/IoT_Device_Demo/iot_link/network/lwm2m/wakaama_lwm2m/wakaama-master/examples/shared\commandline.c ****         }
 295:g:/iot/IoT_Device_Demo/iot_link/network/lwm2m/wakaama_lwm2m/wakaama-master/examples/shared\commandline.c ****         fprintf(stream, "\n");
 1084              		.loc 1 295 9
 1085 009a F968     		ldr	r1, [r7, #12]
 1086 009c 0A20     		movs	r0, #10
 1087 009e FFF7FEFF 		bl	fputc
 296:g:/iot/IoT_Device_Demo/iot_link/network/lwm2m/wakaama_lwm2m/wakaama-master/examples/shared\commandline.c **** 
 297:g:/iot/IoT_Device_Demo/iot_link/network/lwm2m/wakaama_lwm2m/wakaama-master/examples/shared\commandline.c ****         print_indent(stream, indent + 1);
 1088              		.loc 1 297 9
 1089 00a2 3B68     		ldr	r3, [r7]
 1090 00a4 0133     		adds	r3, r3, #1
 1091 00a6 1946     		mov	r1, r3
 1092 00a8 F868     		ldr	r0, [r7, #12]
 1093 00aa FFF7FEFF 		bl	print_indent
 298:g:/iot/IoT_Device_Demo/iot_link/network/lwm2m/wakaama_lwm2m/wakaama-master/examples/shared\commandline.c ****         fprintf(stream, "{\n");
 1094              		.loc 1 298 9
 1095 00ae FB68     		ldr	r3, [r7, #12]
 1096 00b0 0222     		movs	r2, #2
 1097 00b2 0121     		movs	r1, #1
 1098 00b4 6248     		ldr	r0, .L74+28
 1099 00b6 FFF7FEFF 		bl	fwrite
 299:g:/iot/IoT_Device_Demo/iot_link/network/lwm2m/wakaama_lwm2m/wakaama-master/examples/shared\commandline.c ****         if (type == LWM2M_TYPE_OBJECT_INSTANCE || type == LWM2M_TYPE_MULTIPLE_RESOURCE)
 1100              		.loc 1 299 18
 1101 00ba 97F82E30 		ldrb	r3, [r7, #46]	@ zero_extendqisi2
 1102              		.loc 1 299 12
 1103 00be 022B     		cmp	r3, #2
 1104 00c0 03D0     		beq	.L68
 1105              		.loc 1 299 56 discriminator 1
 1106 00c2 97F82E30 		ldrb	r3, [r7, #46]	@ zero_extendqisi2
 1107              		.loc 1 299 48 discriminator 1
 1108 00c6 032B     		cmp	r3, #3
ARM GAS  C:\Users\ADMINI~1\AppData\Local\Temp\ccT1G34X.s 			page 27


 1109 00c8 0BD1     		bne	.L69
 1110              	.L68:
 300:g:/iot/IoT_Device_Demo/iot_link/network/lwm2m/wakaama_lwm2m/wakaama-master/examples/shared\commandline.c ****         {
 301:g:/iot/IoT_Device_Demo/iot_link/network/lwm2m/wakaama_lwm2m/wakaama-master/examples/shared\commandline.c ****             output_tlv(stream, buffer + length + dataIndex, dataLen, indent + 1);
 1111              		.loc 1 301 48
 1112 00ca 7A6B     		ldr	r2, [r7, #52]
 1113 00cc BB6A     		ldr	r3, [r7, #40]
 1114 00ce 1344     		add	r3, r3, r2
 1115              		.loc 1 301 13
 1116 00d0 BA68     		ldr	r2, [r7, #8]
 1117 00d2 D118     		adds	r1, r2, r3
 1118 00d4 7A6A     		ldr	r2, [r7, #36]
 1119 00d6 3B68     		ldr	r3, [r7]
 1120 00d8 0133     		adds	r3, r3, #1
 1121 00da F868     		ldr	r0, [r7, #12]
 1122 00dc FFF7FEFF 		bl	output_tlv
 1123 00e0 68E0     		b	.L70
 1124              	.L69:
 1125              	.LBB3:
 302:g:/iot/IoT_Device_Demo/iot_link/network/lwm2m/wakaama_lwm2m/wakaama-master/examples/shared\commandline.c ****         }
 303:g:/iot/IoT_Device_Demo/iot_link/network/lwm2m/wakaama_lwm2m/wakaama-master/examples/shared\commandline.c ****         else
 304:g:/iot/IoT_Device_Demo/iot_link/network/lwm2m/wakaama_lwm2m/wakaama-master/examples/shared\commandline.c ****         {
 305:g:/iot/IoT_Device_Demo/iot_link/network/lwm2m/wakaama_lwm2m/wakaama-master/examples/shared\commandline.c ****             int64_t intValue;
 306:g:/iot/IoT_Device_Demo/iot_link/network/lwm2m/wakaama_lwm2m/wakaama-master/examples/shared\commandline.c ****             double floatValue;
 307:g:/iot/IoT_Device_Demo/iot_link/network/lwm2m/wakaama_lwm2m/wakaama-master/examples/shared\commandline.c ****             uint8_t tmp;
 308:g:/iot/IoT_Device_Demo/iot_link/network/lwm2m/wakaama_lwm2m/wakaama-master/examples/shared\commandline.c **** 
 309:g:/iot/IoT_Device_Demo/iot_link/network/lwm2m/wakaama_lwm2m/wakaama-master/examples/shared\commandline.c ****             print_indent(stream, indent + 2);
 1126              		.loc 1 309 13
 1127 00e2 3B68     		ldr	r3, [r7]
 1128 00e4 0233     		adds	r3, r3, #2
 1129 00e6 1946     		mov	r1, r3
 1130 00e8 F868     		ldr	r0, [r7, #12]
 1131 00ea FFF7FEFF 		bl	print_indent
 310:g:/iot/IoT_Device_Demo/iot_link/network/lwm2m/wakaama_lwm2m/wakaama-master/examples/shared\commandline.c ****             fprintf(stream, "data (%d bytes):\r\n", dataLen);
 1132              		.loc 1 310 13
 1133 00ee 7B6A     		ldr	r3, [r7, #36]
 1134 00f0 1A46     		mov	r2, r3
 1135 00f2 5449     		ldr	r1, .L74+32
 1136 00f4 F868     		ldr	r0, [r7, #12]
 1137 00f6 FFF7FEFF 		bl	fprintf
 311:g:/iot/IoT_Device_Demo/iot_link/network/lwm2m/wakaama_lwm2m/wakaama-master/examples/shared\commandline.c ****             output_buffer(stream, (uint8_t *)buffer + length + dataIndex, dataLen, indent + 2);
 1138              		.loc 1 311 62
 1139 00fa 7A6B     		ldr	r2, [r7, #52]
 1140 00fc BB6A     		ldr	r3, [r7, #40]
 1141 00fe 1344     		add	r3, r3, r2
 1142              		.loc 1 311 13
 1143 0100 BA68     		ldr	r2, [r7, #8]
 1144 0102 D118     		adds	r1, r2, r3
 1145 0104 7B6A     		ldr	r3, [r7, #36]
 1146 0106 1A46     		mov	r2, r3
 1147 0108 3B68     		ldr	r3, [r7]
 1148 010a 0233     		adds	r3, r3, #2
 1149 010c F868     		ldr	r0, [r7, #12]
 1150 010e FFF7FEFF 		bl	output_buffer
 312:g:/iot/IoT_Device_Demo/iot_link/network/lwm2m/wakaama_lwm2m/wakaama-master/examples/shared\commandline.c **** 
 313:g:/iot/IoT_Device_Demo/iot_link/network/lwm2m/wakaama_lwm2m/wakaama-master/examples/shared\commandline.c ****             tmp = buffer[length + dataIndex + dataLen];
 1151              		.loc 1 313 33
ARM GAS  C:\Users\ADMINI~1\AppData\Local\Temp\ccT1G34X.s 			page 28


 1152 0112 7A6B     		ldr	r2, [r7, #52]
 1153 0114 BB6A     		ldr	r3, [r7, #40]
 1154 0116 1A44     		add	r2, r2, r3
 1155              		.loc 1 313 45
 1156 0118 7B6A     		ldr	r3, [r7, #36]
 1157 011a 1344     		add	r3, r3, r2
 1158              		.loc 1 313 25
 1159 011c BA68     		ldr	r2, [r7, #8]
 1160 011e 1344     		add	r3, r3, r2
 1161              		.loc 1 313 17
 1162 0120 1B78     		ldrb	r3, [r3]
 1163 0122 87F82F30 		strb	r3, [r7, #47]
 314:g:/iot/IoT_Device_Demo/iot_link/network/lwm2m/wakaama_lwm2m/wakaama-master/examples/shared\commandline.c ****             buffer[length + dataIndex + dataLen] = 0;
 1164              		.loc 1 314 27
 1165 0126 7A6B     		ldr	r2, [r7, #52]
 1166 0128 BB6A     		ldr	r3, [r7, #40]
 1167 012a 1A44     		add	r2, r2, r3
 1168              		.loc 1 314 39
 1169 012c 7B6A     		ldr	r3, [r7, #36]
 1170 012e 1344     		add	r3, r3, r2
 1171              		.loc 1 314 19
 1172 0130 BA68     		ldr	r2, [r7, #8]
 1173 0132 1344     		add	r3, r3, r2
 1174              		.loc 1 314 50
 1175 0134 0022     		movs	r2, #0
 1176 0136 1A70     		strb	r2, [r3]
 315:g:/iot/IoT_Device_Demo/iot_link/network/lwm2m/wakaama_lwm2m/wakaama-master/examples/shared\commandline.c ****             if (0 < sscanf((const char *)buffer + length + dataIndex, "%"PRId64, &intValue))
 1177              		.loc 1 315 58
 1178 0138 7A6B     		ldr	r2, [r7, #52]
 1179 013a BB6A     		ldr	r3, [r7, #40]
 1180 013c 1344     		add	r3, r3, r2
 1181              		.loc 1 315 21
 1182 013e BA68     		ldr	r2, [r7, #8]
 1183 0140 1344     		add	r3, r3, r2
 1184 0142 07F11802 		add	r2, r7, #24
 1185 0146 4049     		ldr	r1, .L74+36
 1186 0148 1846     		mov	r0, r3
 1187 014a FFF7FEFF 		bl	sscanf
 1188 014e 0346     		mov	r3, r0
 1189              		.loc 1 315 16
 1190 0150 002B     		cmp	r3, #0
 1191 0152 0BDD     		ble	.L71
 316:g:/iot/IoT_Device_Demo/iot_link/network/lwm2m/wakaama_lwm2m/wakaama-master/examples/shared\commandline.c ****             {
 317:g:/iot/IoT_Device_Demo/iot_link/network/lwm2m/wakaama_lwm2m/wakaama-master/examples/shared\commandline.c ****                 print_indent(stream, indent + 2);
 1192              		.loc 1 317 17
 1193 0154 3B68     		ldr	r3, [r7]
 1194 0156 0233     		adds	r3, r3, #2
 1195 0158 1946     		mov	r1, r3
 1196 015a F868     		ldr	r0, [r7, #12]
 1197 015c FFF7FEFF 		bl	print_indent
 318:g:/iot/IoT_Device_Demo/iot_link/network/lwm2m/wakaama_lwm2m/wakaama-master/examples/shared\commandline.c ****                 fprintf(stream, "data as Integer: %" PRId64 "\r\n", intValue);
 1198              		.loc 1 318 17
 1199 0160 D7E90623 		ldrd	r2, [r7, #24]
 1200 0164 3949     		ldr	r1, .L74+40
 1201 0166 F868     		ldr	r0, [r7, #12]
 1202 0168 FFF7FEFF 		bl	fprintf
 1203              	.L71:
ARM GAS  C:\Users\ADMINI~1\AppData\Local\Temp\ccT1G34X.s 			page 29


 319:g:/iot/IoT_Device_Demo/iot_link/network/lwm2m/wakaama_lwm2m/wakaama-master/examples/shared\commandline.c ****             }
 320:g:/iot/IoT_Device_Demo/iot_link/network/lwm2m/wakaama_lwm2m/wakaama-master/examples/shared\commandline.c ****             if (0 < sscanf((const char *)buffer + length + dataIndex, "%lg", &floatValue))
 1204              		.loc 1 320 58
 1205 016c 7A6B     		ldr	r2, [r7, #52]
 1206 016e BB6A     		ldr	r3, [r7, #40]
 1207 0170 1344     		add	r3, r3, r2
 1208              		.loc 1 320 21
 1209 0172 BA68     		ldr	r2, [r7, #8]
 1210 0174 1344     		add	r3, r3, r2
 1211 0176 07F11002 		add	r2, r7, #16
 1212 017a 3549     		ldr	r1, .L74+44
 1213 017c 1846     		mov	r0, r3
 1214 017e FFF7FEFF 		bl	sscanf
 1215 0182 0346     		mov	r3, r0
 1216              		.loc 1 320 16
 1217 0184 002B     		cmp	r3, #0
 1218 0186 0BDD     		ble	.L72
 321:g:/iot/IoT_Device_Demo/iot_link/network/lwm2m/wakaama_lwm2m/wakaama-master/examples/shared\commandline.c ****             {
 322:g:/iot/IoT_Device_Demo/iot_link/network/lwm2m/wakaama_lwm2m/wakaama-master/examples/shared\commandline.c ****                 print_indent(stream, indent + 2);
 1219              		.loc 1 322 17
 1220 0188 3B68     		ldr	r3, [r7]
 1221 018a 0233     		adds	r3, r3, #2
 1222 018c 1946     		mov	r1, r3
 1223 018e F868     		ldr	r0, [r7, #12]
 1224 0190 FFF7FEFF 		bl	print_indent
 323:g:/iot/IoT_Device_Demo/iot_link/network/lwm2m/wakaama_lwm2m/wakaama-master/examples/shared\commandline.c ****                 fprintf(stream, "data as Float: %.16g\r\n", floatValue);
 1225              		.loc 1 323 17
 1226 0194 D7E90423 		ldrd	r2, [r7, #16]
 1227 0198 2E49     		ldr	r1, .L74+48
 1228 019a F868     		ldr	r0, [r7, #12]
 1229 019c FFF7FEFF 		bl	fprintf
 1230              	.L72:
 324:g:/iot/IoT_Device_Demo/iot_link/network/lwm2m/wakaama_lwm2m/wakaama-master/examples/shared\commandline.c ****             }
 325:g:/iot/IoT_Device_Demo/iot_link/network/lwm2m/wakaama_lwm2m/wakaama-master/examples/shared\commandline.c ****             buffer[length + dataIndex + dataLen] = tmp;
 1231              		.loc 1 325 27
 1232 01a0 7A6B     		ldr	r2, [r7, #52]
 1233 01a2 BB6A     		ldr	r3, [r7, #40]
 1234 01a4 1A44     		add	r2, r2, r3
 1235              		.loc 1 325 39
 1236 01a6 7B6A     		ldr	r3, [r7, #36]
 1237 01a8 1344     		add	r3, r3, r2
 1238              		.loc 1 325 19
 1239 01aa BA68     		ldr	r2, [r7, #8]
 1240 01ac 1344     		add	r3, r3, r2
 1241              		.loc 1 325 50
 1242 01ae 97F82F20 		ldrb	r2, [r7, #47]
 1243 01b2 1A70     		strb	r2, [r3]
 1244              	.L70:
 1245              	.LBE3:
 326:g:/iot/IoT_Device_Demo/iot_link/network/lwm2m/wakaama_lwm2m/wakaama-master/examples/shared\commandline.c ****         }
 327:g:/iot/IoT_Device_Demo/iot_link/network/lwm2m/wakaama_lwm2m/wakaama-master/examples/shared\commandline.c ****         print_indent(stream, indent + 1);
 1246              		.loc 1 327 9
 1247 01b4 3B68     		ldr	r3, [r7]
 1248 01b6 0133     		adds	r3, r3, #1
 1249 01b8 1946     		mov	r1, r3
 1250 01ba F868     		ldr	r0, [r7, #12]
 1251 01bc FFF7FEFF 		bl	print_indent
ARM GAS  C:\Users\ADMINI~1\AppData\Local\Temp\ccT1G34X.s 			page 30


 328:g:/iot/IoT_Device_Demo/iot_link/network/lwm2m/wakaama_lwm2m/wakaama-master/examples/shared\commandline.c ****         fprintf(stream, "}\r\n");
 1252              		.loc 1 328 9
 1253 01c0 FB68     		ldr	r3, [r7, #12]
 1254 01c2 0322     		movs	r2, #3
 1255 01c4 0121     		movs	r1, #1
 1256 01c6 2448     		ldr	r0, .L74+52
 1257 01c8 FFF7FEFF 		bl	fwrite
 329:g:/iot/IoT_Device_Demo/iot_link/network/lwm2m/wakaama_lwm2m/wakaama-master/examples/shared\commandline.c ****         length += result;
 1258              		.loc 1 329 16
 1259 01cc 7A6B     		ldr	r2, [r7, #52]
 1260 01ce 3B6B     		ldr	r3, [r7, #48]
 1261 01d0 1344     		add	r3, r3, r2
 1262 01d2 7B63     		str	r3, [r7, #52]
 330:g:/iot/IoT_Device_Demo/iot_link/network/lwm2m/wakaama_lwm2m/wakaama-master/examples/shared\commandline.c ****         print_indent(stream, indent);
 1263              		.loc 1 330 9
 1264 01d4 3968     		ldr	r1, [r7]
 1265 01d6 F868     		ldr	r0, [r7, #12]
 1266 01d8 FFF7FEFF 		bl	print_indent
 331:g:/iot/IoT_Device_Demo/iot_link/network/lwm2m/wakaama_lwm2m/wakaama-master/examples/shared\commandline.c ****         fprintf(stream, "}\r\n");
 1267              		.loc 1 331 9
 1268 01dc FB68     		ldr	r3, [r7, #12]
 1269 01de 0322     		movs	r2, #3
 1270 01e0 0121     		movs	r1, #1
 1271 01e2 1D48     		ldr	r0, .L74+52
 1272 01e4 FFF7FEFF 		bl	fwrite
 1273              	.L62:
 272:g:/iot/IoT_Device_Demo/iot_link/network/lwm2m/wakaama_lwm2m/wakaama-master/examples/shared\commandline.c ****     {
 1274              		.loc 1 272 27
 1275 01e8 7B6B     		ldr	r3, [r7, #52]
 272:g:/iot/IoT_Device_Demo/iot_link/network/lwm2m/wakaama_lwm2m/wakaama-master/examples/shared\commandline.c ****     {
 1276              		.loc 1 272 62
 1277 01ea BA68     		ldr	r2, [r7, #8]
 1278 01ec D018     		adds	r0, r2, r3
 272:g:/iot/IoT_Device_Demo/iot_link/network/lwm2m/wakaama_lwm2m/wakaama-master/examples/shared\commandline.c ****     {
 1279              		.loc 1 272 27
 1280 01ee 7B6B     		ldr	r3, [r7, #52]
 1281 01f0 7A68     		ldr	r2, [r7, #4]
 1282 01f2 D11A     		subs	r1, r2, r3
 1283 01f4 07F12C04 		add	r4, r7, #44
 1284 01f8 07F12E02 		add	r2, r7, #46
 1285 01fc 07F12403 		add	r3, r7, #36
 1286 0200 0193     		str	r3, [sp, #4]
 1287 0202 07F12803 		add	r3, r7, #40
 1288 0206 0093     		str	r3, [sp]
 1289 0208 2346     		mov	r3, r4
 1290 020a FFF7FEFF 		bl	lwm2m_decode_TLV
 1291 020e 3863     		str	r0, [r7, #48]
 272:g:/iot/IoT_Device_Demo/iot_link/network/lwm2m/wakaama_lwm2m/wakaama-master/examples/shared\commandline.c ****     {
 1292              		.loc 1 272 11
 1293 0210 3B6B     		ldr	r3, [r7, #48]
 1294 0212 002B     		cmp	r3, #0
 1295 0214 7FF4FEAE 		bne	.L73
 332:g:/iot/IoT_Device_Demo/iot_link/network/lwm2m/wakaama_lwm2m/wakaama-master/examples/shared\commandline.c ****     }
 333:g:/iot/IoT_Device_Demo/iot_link/network/lwm2m/wakaama_lwm2m/wakaama-master/examples/shared\commandline.c **** }
 1296              		.loc 1 333 1
 1297 0218 00BF     		nop
 1298 021a 00BF     		nop
ARM GAS  C:\Users\ADMINI~1\AppData\Local\Temp\ccT1G34X.s 			page 31


 1299 021c 3C37     		adds	r7, r7, #60
 1300              	.LCFI51:
 1301              		.cfi_def_cfa_offset 12
 1302 021e BD46     		mov	sp, r7
 1303              	.LCFI52:
 1304              		.cfi_def_cfa_register 13
 1305              		@ sp needed
 1306 0220 90BD     		pop	{r4, r7, pc}
 1307              	.L75:
 1308 0222 00BF     		.align	2
 1309              	.L74:
 1310 0224 88000000 		.word	.LC6
 1311 0228 8C000000 		.word	.LC7
 1312 022c 94000000 		.word	.LC8
 1313 0230 9C000000 		.word	.LC9
 1314 0234 AC000000 		.word	.LC10
 1315 0238 C0000000 		.word	.LC11
 1316 023c D0000000 		.word	.LC12
 1317 0240 E0000000 		.word	.LC13
 1318 0244 E4000000 		.word	.LC14
 1319 0248 F8000000 		.word	.LC15
 1320 024c 00010000 		.word	.LC16
 1321 0250 18010000 		.word	.LC17
 1322 0254 1C010000 		.word	.LC18
 1323 0258 34010000 		.word	.LC19
 1324              		.cfi_endproc
 1325              	.LFE13:
 1327              		.section	.rodata
 1328              		.align	2
 1329              	.LC20:
 1330 0138 25642062 		.ascii	"%d bytes received of type \000"
 1330      79746573 
 1330      20726563 
 1330      65697665 
 1330      64206F66 
 1331 0153 00       		.align	2
 1332              	.LC21:
 1333 0154 74657874 		.ascii	"text/plain:\015\012\000"
 1333      2F706C61 
 1333      696E3A0D 
 1333      0A00
 1334 0162 0000     		.align	2
 1335              	.LC22:
 1336 0164 6170706C 		.ascii	"application/octet-stream:\015\012\000"
 1336      69636174 
 1336      696F6E2F 
 1336      6F637465 
 1336      742D7374 
 1337              		.align	2
 1338              	.LC23:
 1339 0180 6170706C 		.ascii	"application/vnd.oma.lwm2m+tlv:\015\012\000"
 1339      69636174 
 1339      696F6E2F 
 1339      766E642E 
 1339      6F6D612E 
 1340 01a1 000000   		.align	2
 1341              	.LC24:
ARM GAS  C:\Users\ADMINI~1\AppData\Local\Temp\ccT1G34X.s 			page 32


 1342 01a4 6170706C 		.ascii	"application/vnd.oma.lwm2m+json:\015\012\000"
 1342      69636174 
 1342      696F6E2F 
 1342      766E642E 
 1342      6F6D612E 
 1343 01c6 0000     		.align	2
 1344              	.LC25:
 1345 01c8 6170706C 		.ascii	"application/link-format:\015\012\000"
 1345      69636174 
 1345      696F6E2F 
 1345      6C696E6B 
 1345      2D666F72 
 1346 01e3 00       		.align	2
 1347              	.LC26:
 1348 01e4 556E6B6E 		.ascii	"Unknown (%d):\015\012\000"
 1348      6F776E20 
 1348      28256429 
 1348      3A0D0A00 
 1349              		.section	.text.output_data,"ax",%progbits
 1350              		.align	1
 1351              		.global	output_data
 1352              		.syntax unified
 1353              		.thumb
 1354              		.thumb_func
 1355              		.fpu fpv4-sp-d16
 1357              	output_data:
 1358              	.LFB14:
 334:g:/iot/IoT_Device_Demo/iot_link/network/lwm2m/wakaama_lwm2m/wakaama-master/examples/shared\commandline.c **** 
 335:g:/iot/IoT_Device_Demo/iot_link/network/lwm2m/wakaama_lwm2m/wakaama-master/examples/shared\commandline.c **** void output_data(FILE *stream,
 336:g:/iot/IoT_Device_Demo/iot_link/network/lwm2m/wakaama_lwm2m/wakaama-master/examples/shared\commandline.c ****                  lwm2m_media_type_t format,
 337:g:/iot/IoT_Device_Demo/iot_link/network/lwm2m/wakaama_lwm2m/wakaama-master/examples/shared\commandline.c ****                  uint8_t *data,
 338:g:/iot/IoT_Device_Demo/iot_link/network/lwm2m/wakaama_lwm2m/wakaama-master/examples/shared\commandline.c ****                  int dataLength,
 339:g:/iot/IoT_Device_Demo/iot_link/network/lwm2m/wakaama_lwm2m/wakaama-master/examples/shared\commandline.c ****                  int indent)
 340:g:/iot/IoT_Device_Demo/iot_link/network/lwm2m/wakaama_lwm2m/wakaama-master/examples/shared\commandline.c **** {
 1359              		.loc 1 340 1
 1360              		.cfi_startproc
 1361              		@ args = 4, pretend = 0, frame = 24
 1362              		@ frame_needed = 1, uses_anonymous_args = 0
 1363 0000 80B5     		push	{r7, lr}
 1364              	.LCFI53:
 1365              		.cfi_def_cfa_offset 8
 1366              		.cfi_offset 7, -8
 1367              		.cfi_offset 14, -4
 1368 0002 86B0     		sub	sp, sp, #24
 1369              	.LCFI54:
 1370              		.cfi_def_cfa_offset 32
 1371 0004 00AF     		add	r7, sp, #0
 1372              	.LCFI55:
 1373              		.cfi_def_cfa_register 7
 1374 0006 F860     		str	r0, [r7, #12]
 1375 0008 7A60     		str	r2, [r7, #4]
 1376 000a 3B60     		str	r3, [r7]
 1377 000c 0B46     		mov	r3, r1	@ movhi
 1378 000e 7B81     		strh	r3, [r7, #10]	@ movhi
 341:g:/iot/IoT_Device_Demo/iot_link/network/lwm2m/wakaama_lwm2m/wakaama-master/examples/shared\commandline.c ****     int i;
 342:g:/iot/IoT_Device_Demo/iot_link/network/lwm2m/wakaama_lwm2m/wakaama-master/examples/shared\commandline.c **** 
 343:g:/iot/IoT_Device_Demo/iot_link/network/lwm2m/wakaama_lwm2m/wakaama-master/examples/shared\commandline.c ****     print_indent(stream, indent);
ARM GAS  C:\Users\ADMINI~1\AppData\Local\Temp\ccT1G34X.s 			page 33


 1379              		.loc 1 343 5
 1380 0010 396A     		ldr	r1, [r7, #32]
 1381 0012 F868     		ldr	r0, [r7, #12]
 1382 0014 FFF7FEFF 		bl	print_indent
 344:g:/iot/IoT_Device_Demo/iot_link/network/lwm2m/wakaama_lwm2m/wakaama-master/examples/shared\commandline.c ****     fprintf(stream, "%d bytes received of type ", dataLength);
 1383              		.loc 1 344 5
 1384 0018 3A68     		ldr	r2, [r7]
 1385 001a 4C49     		ldr	r1, .L88
 1386 001c F868     		ldr	r0, [r7, #12]
 1387 001e FFF7FEFF 		bl	fprintf
 345:g:/iot/IoT_Device_Demo/iot_link/network/lwm2m/wakaama_lwm2m/wakaama-master/examples/shared\commandline.c **** 
 346:g:/iot/IoT_Device_Demo/iot_link/network/lwm2m/wakaama_lwm2m/wakaama-master/examples/shared\commandline.c ****     switch (format)
 1388              		.loc 1 346 5
 1389 0022 7B89     		ldrh	r3, [r7, #10]
 1390 0024 42F61752 		movw	r2, #11543
 1391 0028 9342     		cmp	r3, r2
 1392 002a 3BD0     		beq	.L77
 1393 002c 42F61752 		movw	r2, #11543
 1394 0030 9342     		cmp	r3, r2
 1395 0032 79DC     		bgt	.L78
 1396 0034 42F61652 		movw	r2, #11542
 1397 0038 9342     		cmp	r3, r2
 1398 003a 26D0     		beq	.L79
 1399 003c 42F61652 		movw	r2, #11542
 1400 0040 9342     		cmp	r3, r2
 1401 0042 71DC     		bgt	.L78
 1402 0044 2A2B     		cmp	r3, #42
 1403 0046 13D0     		beq	.L80
 1404 0048 2A2B     		cmp	r3, #42
 1405 004a 6DDC     		bgt	.L78
 1406 004c 002B     		cmp	r3, #0
 1407 004e 02D0     		beq	.L81
 1408 0050 282B     		cmp	r3, #40
 1409 0052 48D0     		beq	.L82
 1410 0054 68E0     		b	.L78
 1411              	.L81:
 347:g:/iot/IoT_Device_Demo/iot_link/network/lwm2m/wakaama_lwm2m/wakaama-master/examples/shared\commandline.c ****     {
 348:g:/iot/IoT_Device_Demo/iot_link/network/lwm2m/wakaama_lwm2m/wakaama-master/examples/shared\commandline.c ****     case LWM2M_CONTENT_TEXT:
 349:g:/iot/IoT_Device_Demo/iot_link/network/lwm2m/wakaama_lwm2m/wakaama-master/examples/shared\commandline.c ****         fprintf(stream, "text/plain:\r\n");
 1412              		.loc 1 349 9
 1413 0056 FB68     		ldr	r3, [r7, #12]
 1414 0058 0D22     		movs	r2, #13
 1415 005a 0121     		movs	r1, #1
 1416 005c 3C48     		ldr	r0, .L88+4
 1417 005e FFF7FEFF 		bl	fwrite
 350:g:/iot/IoT_Device_Demo/iot_link/network/lwm2m/wakaama_lwm2m/wakaama-master/examples/shared\commandline.c ****         output_buffer(stream, data, dataLength, indent);
 1418              		.loc 1 350 9
 1419 0062 3B6A     		ldr	r3, [r7, #32]
 1420 0064 3A68     		ldr	r2, [r7]
 1421 0066 7968     		ldr	r1, [r7, #4]
 1422 0068 F868     		ldr	r0, [r7, #12]
 1423 006a FFF7FEFF 		bl	output_buffer
 351:g:/iot/IoT_Device_Demo/iot_link/network/lwm2m/wakaama_lwm2m/wakaama-master/examples/shared\commandline.c ****         break;
 1424              		.loc 1 351 9
 1425 006e 68E0     		b	.L83
 1426              	.L80:
 352:g:/iot/IoT_Device_Demo/iot_link/network/lwm2m/wakaama_lwm2m/wakaama-master/examples/shared\commandline.c **** 
ARM GAS  C:\Users\ADMINI~1\AppData\Local\Temp\ccT1G34X.s 			page 34


 353:g:/iot/IoT_Device_Demo/iot_link/network/lwm2m/wakaama_lwm2m/wakaama-master/examples/shared\commandline.c ****     case LWM2M_CONTENT_OPAQUE:
 354:g:/iot/IoT_Device_Demo/iot_link/network/lwm2m/wakaama_lwm2m/wakaama-master/examples/shared\commandline.c ****         fprintf(stream, "application/octet-stream:\r\n");
 1427              		.loc 1 354 9
 1428 0070 FB68     		ldr	r3, [r7, #12]
 1429 0072 1B22     		movs	r2, #27
 1430 0074 0121     		movs	r1, #1
 1431 0076 3748     		ldr	r0, .L88+8
 1432 0078 FFF7FEFF 		bl	fwrite
 355:g:/iot/IoT_Device_Demo/iot_link/network/lwm2m/wakaama_lwm2m/wakaama-master/examples/shared\commandline.c ****         output_buffer(stream, data, dataLength, indent);
 1433              		.loc 1 355 9
 1434 007c 3B6A     		ldr	r3, [r7, #32]
 1435 007e 3A68     		ldr	r2, [r7]
 1436 0080 7968     		ldr	r1, [r7, #4]
 1437 0082 F868     		ldr	r0, [r7, #12]
 1438 0084 FFF7FEFF 		bl	output_buffer
 356:g:/iot/IoT_Device_Demo/iot_link/network/lwm2m/wakaama_lwm2m/wakaama-master/examples/shared\commandline.c ****         break;
 1439              		.loc 1 356 9
 1440 0088 5BE0     		b	.L83
 1441              	.L79:
 357:g:/iot/IoT_Device_Demo/iot_link/network/lwm2m/wakaama_lwm2m/wakaama-master/examples/shared\commandline.c **** 
 358:g:/iot/IoT_Device_Demo/iot_link/network/lwm2m/wakaama_lwm2m/wakaama-master/examples/shared\commandline.c ****     case LWM2M_CONTENT_TLV:
 359:g:/iot/IoT_Device_Demo/iot_link/network/lwm2m/wakaama_lwm2m/wakaama-master/examples/shared\commandline.c ****         fprintf(stream, "application/vnd.oma.lwm2m+tlv:\r\n");
 1442              		.loc 1 359 9
 1443 008a FB68     		ldr	r3, [r7, #12]
 1444 008c 2022     		movs	r2, #32
 1445 008e 0121     		movs	r1, #1
 1446 0090 3148     		ldr	r0, .L88+12
 1447 0092 FFF7FEFF 		bl	fwrite
 360:g:/iot/IoT_Device_Demo/iot_link/network/lwm2m/wakaama_lwm2m/wakaama-master/examples/shared\commandline.c ****         output_tlv(stream, data, dataLength, indent);
 1448              		.loc 1 360 9
 1449 0096 3A68     		ldr	r2, [r7]
 1450 0098 3B6A     		ldr	r3, [r7, #32]
 1451 009a 7968     		ldr	r1, [r7, #4]
 1452 009c F868     		ldr	r0, [r7, #12]
 1453 009e FFF7FEFF 		bl	output_tlv
 361:g:/iot/IoT_Device_Demo/iot_link/network/lwm2m/wakaama_lwm2m/wakaama-master/examples/shared\commandline.c ****         break;
 1454              		.loc 1 361 9
 1455 00a2 4EE0     		b	.L83
 1456              	.L77:
 362:g:/iot/IoT_Device_Demo/iot_link/network/lwm2m/wakaama_lwm2m/wakaama-master/examples/shared\commandline.c **** 
 363:g:/iot/IoT_Device_Demo/iot_link/network/lwm2m/wakaama_lwm2m/wakaama-master/examples/shared\commandline.c ****     case LWM2M_CONTENT_JSON:
 364:g:/iot/IoT_Device_Demo/iot_link/network/lwm2m/wakaama_lwm2m/wakaama-master/examples/shared\commandline.c ****         fprintf(stream, "application/vnd.oma.lwm2m+json:\r\n");
 1457              		.loc 1 364 9
 1458 00a4 FB68     		ldr	r3, [r7, #12]
 1459 00a6 2122     		movs	r2, #33
 1460 00a8 0121     		movs	r1, #1
 1461 00aa 2C48     		ldr	r0, .L88+16
 1462 00ac FFF7FEFF 		bl	fwrite
 365:g:/iot/IoT_Device_Demo/iot_link/network/lwm2m/wakaama_lwm2m/wakaama-master/examples/shared\commandline.c ****         print_indent(stream, indent);
 1463              		.loc 1 365 9
 1464 00b0 396A     		ldr	r1, [r7, #32]
 1465 00b2 F868     		ldr	r0, [r7, #12]
 1466 00b4 FFF7FEFF 		bl	print_indent
 366:g:/iot/IoT_Device_Demo/iot_link/network/lwm2m/wakaama_lwm2m/wakaama-master/examples/shared\commandline.c ****         for (i = 0 ; i < dataLength ; i++)
 1467              		.loc 1 366 16
 1468 00b8 0023     		movs	r3, #0
 1469 00ba 7B61     		str	r3, [r7, #20]
ARM GAS  C:\Users\ADMINI~1\AppData\Local\Temp\ccT1G34X.s 			page 35


 1470              		.loc 1 366 9
 1471 00bc 0AE0     		b	.L84
 1472              	.L85:
 367:g:/iot/IoT_Device_Demo/iot_link/network/lwm2m/wakaama_lwm2m/wakaama-master/examples/shared\commandline.c ****         {
 368:g:/iot/IoT_Device_Demo/iot_link/network/lwm2m/wakaama_lwm2m/wakaama-master/examples/shared\commandline.c ****             fprintf(stream, "%c", data[i]);
 1473              		.loc 1 368 39 discriminator 3
 1474 00be 7B69     		ldr	r3, [r7, #20]
 1475 00c0 7A68     		ldr	r2, [r7, #4]
 1476 00c2 1344     		add	r3, r3, r2
 1477 00c4 1B78     		ldrb	r3, [r3]	@ zero_extendqisi2
 1478              		.loc 1 368 13 discriminator 3
 1479 00c6 F968     		ldr	r1, [r7, #12]
 1480 00c8 1846     		mov	r0, r3
 1481 00ca FFF7FEFF 		bl	fputc
 366:g:/iot/IoT_Device_Demo/iot_link/network/lwm2m/wakaama_lwm2m/wakaama-master/examples/shared\commandline.c ****         for (i = 0 ; i < dataLength ; i++)
 1482              		.loc 1 366 40 discriminator 3
 1483 00ce 7B69     		ldr	r3, [r7, #20]
 1484 00d0 0133     		adds	r3, r3, #1
 1485 00d2 7B61     		str	r3, [r7, #20]
 1486              	.L84:
 366:g:/iot/IoT_Device_Demo/iot_link/network/lwm2m/wakaama_lwm2m/wakaama-master/examples/shared\commandline.c ****         for (i = 0 ; i < dataLength ; i++)
 1487              		.loc 1 366 9 discriminator 1
 1488 00d4 7A69     		ldr	r2, [r7, #20]
 1489 00d6 3B68     		ldr	r3, [r7]
 1490 00d8 9A42     		cmp	r2, r3
 1491 00da F0DB     		blt	.L85
 369:g:/iot/IoT_Device_Demo/iot_link/network/lwm2m/wakaama_lwm2m/wakaama-master/examples/shared\commandline.c ****         }
 370:g:/iot/IoT_Device_Demo/iot_link/network/lwm2m/wakaama_lwm2m/wakaama-master/examples/shared\commandline.c ****         fprintf(stream, "\n");
 1492              		.loc 1 370 9
 1493 00dc F968     		ldr	r1, [r7, #12]
 1494 00de 0A20     		movs	r0, #10
 1495 00e0 FFF7FEFF 		bl	fputc
 371:g:/iot/IoT_Device_Demo/iot_link/network/lwm2m/wakaama_lwm2m/wakaama-master/examples/shared\commandline.c ****         break;
 1496              		.loc 1 371 9
 1497 00e4 2DE0     		b	.L83
 1498              	.L82:
 372:g:/iot/IoT_Device_Demo/iot_link/network/lwm2m/wakaama_lwm2m/wakaama-master/examples/shared\commandline.c **** 
 373:g:/iot/IoT_Device_Demo/iot_link/network/lwm2m/wakaama_lwm2m/wakaama-master/examples/shared\commandline.c ****     case LWM2M_CONTENT_LINK:
 374:g:/iot/IoT_Device_Demo/iot_link/network/lwm2m/wakaama_lwm2m/wakaama-master/examples/shared\commandline.c ****         fprintf(stream, "application/link-format:\r\n");
 1499              		.loc 1 374 9
 1500 00e6 FB68     		ldr	r3, [r7, #12]
 1501 00e8 1A22     		movs	r2, #26
 1502 00ea 0121     		movs	r1, #1
 1503 00ec 1C48     		ldr	r0, .L88+20
 1504 00ee FFF7FEFF 		bl	fwrite
 375:g:/iot/IoT_Device_Demo/iot_link/network/lwm2m/wakaama_lwm2m/wakaama-master/examples/shared\commandline.c ****         print_indent(stream, indent);
 1505              		.loc 1 375 9
 1506 00f2 396A     		ldr	r1, [r7, #32]
 1507 00f4 F868     		ldr	r0, [r7, #12]
 1508 00f6 FFF7FEFF 		bl	print_indent
 376:g:/iot/IoT_Device_Demo/iot_link/network/lwm2m/wakaama_lwm2m/wakaama-master/examples/shared\commandline.c ****         for (i = 0 ; i < dataLength ; i++)
 1509              		.loc 1 376 16
 1510 00fa 0023     		movs	r3, #0
 1511 00fc 7B61     		str	r3, [r7, #20]
 1512              		.loc 1 376 9
 1513 00fe 0AE0     		b	.L86
 1514              	.L87:
ARM GAS  C:\Users\ADMINI~1\AppData\Local\Temp\ccT1G34X.s 			page 36


 377:g:/iot/IoT_Device_Demo/iot_link/network/lwm2m/wakaama_lwm2m/wakaama-master/examples/shared\commandline.c ****         {
 378:g:/iot/IoT_Device_Demo/iot_link/network/lwm2m/wakaama_lwm2m/wakaama-master/examples/shared\commandline.c ****             fprintf(stream, "%c", data[i]);
 1515              		.loc 1 378 39 discriminator 3
 1516 0100 7B69     		ldr	r3, [r7, #20]
 1517 0102 7A68     		ldr	r2, [r7, #4]
 1518 0104 1344     		add	r3, r3, r2
 1519 0106 1B78     		ldrb	r3, [r3]	@ zero_extendqisi2
 1520              		.loc 1 378 13 discriminator 3
 1521 0108 F968     		ldr	r1, [r7, #12]
 1522 010a 1846     		mov	r0, r3
 1523 010c FFF7FEFF 		bl	fputc
 376:g:/iot/IoT_Device_Demo/iot_link/network/lwm2m/wakaama_lwm2m/wakaama-master/examples/shared\commandline.c ****         for (i = 0 ; i < dataLength ; i++)
 1524              		.loc 1 376 40 discriminator 3
 1525 0110 7B69     		ldr	r3, [r7, #20]
 1526 0112 0133     		adds	r3, r3, #1
 1527 0114 7B61     		str	r3, [r7, #20]
 1528              	.L86:
 376:g:/iot/IoT_Device_Demo/iot_link/network/lwm2m/wakaama_lwm2m/wakaama-master/examples/shared\commandline.c ****         for (i = 0 ; i < dataLength ; i++)
 1529              		.loc 1 376 9 discriminator 1
 1530 0116 7A69     		ldr	r2, [r7, #20]
 1531 0118 3B68     		ldr	r3, [r7]
 1532 011a 9A42     		cmp	r2, r3
 1533 011c F0DB     		blt	.L87
 379:g:/iot/IoT_Device_Demo/iot_link/network/lwm2m/wakaama_lwm2m/wakaama-master/examples/shared\commandline.c ****         }
 380:g:/iot/IoT_Device_Demo/iot_link/network/lwm2m/wakaama_lwm2m/wakaama-master/examples/shared\commandline.c ****         fprintf(stream, "\n");
 1534              		.loc 1 380 9
 1535 011e F968     		ldr	r1, [r7, #12]
 1536 0120 0A20     		movs	r0, #10
 1537 0122 FFF7FEFF 		bl	fputc
 381:g:/iot/IoT_Device_Demo/iot_link/network/lwm2m/wakaama_lwm2m/wakaama-master/examples/shared\commandline.c ****         break;
 1538              		.loc 1 381 9
 1539 0126 0CE0     		b	.L83
 1540              	.L78:
 382:g:/iot/IoT_Device_Demo/iot_link/network/lwm2m/wakaama_lwm2m/wakaama-master/examples/shared\commandline.c **** 
 383:g:/iot/IoT_Device_Demo/iot_link/network/lwm2m/wakaama_lwm2m/wakaama-master/examples/shared\commandline.c ****     default:
 384:g:/iot/IoT_Device_Demo/iot_link/network/lwm2m/wakaama_lwm2m/wakaama-master/examples/shared\commandline.c ****         fprintf(stream, "Unknown (%d):\r\n", format);
 1541              		.loc 1 384 9
 1542 0128 7B89     		ldrh	r3, [r7, #10]
 1543 012a 1A46     		mov	r2, r3
 1544 012c 0D49     		ldr	r1, .L88+24
 1545 012e F868     		ldr	r0, [r7, #12]
 1546 0130 FFF7FEFF 		bl	fprintf
 385:g:/iot/IoT_Device_Demo/iot_link/network/lwm2m/wakaama_lwm2m/wakaama-master/examples/shared\commandline.c ****         output_buffer(stream, data, dataLength, indent);
 1547              		.loc 1 385 9
 1548 0134 3B6A     		ldr	r3, [r7, #32]
 1549 0136 3A68     		ldr	r2, [r7]
 1550 0138 7968     		ldr	r1, [r7, #4]
 1551 013a F868     		ldr	r0, [r7, #12]
 1552 013c FFF7FEFF 		bl	output_buffer
 386:g:/iot/IoT_Device_Demo/iot_link/network/lwm2m/wakaama_lwm2m/wakaama-master/examples/shared\commandline.c ****         break;
 1553              		.loc 1 386 9
 1554 0140 00BF     		nop
 1555              	.L83:
 387:g:/iot/IoT_Device_Demo/iot_link/network/lwm2m/wakaama_lwm2m/wakaama-master/examples/shared\commandline.c ****     }
 388:g:/iot/IoT_Device_Demo/iot_link/network/lwm2m/wakaama_lwm2m/wakaama-master/examples/shared\commandline.c **** }
 1556              		.loc 1 388 1
 1557 0142 00BF     		nop
ARM GAS  C:\Users\ADMINI~1\AppData\Local\Temp\ccT1G34X.s 			page 37


 1558 0144 1837     		adds	r7, r7, #24
 1559              	.LCFI56:
 1560              		.cfi_def_cfa_offset 8
 1561 0146 BD46     		mov	sp, r7
 1562              	.LCFI57:
 1563              		.cfi_def_cfa_register 13
 1564              		@ sp needed
 1565 0148 80BD     		pop	{r7, pc}
 1566              	.L89:
 1567 014a 00BF     		.align	2
 1568              	.L88:
 1569 014c 38010000 		.word	.LC20
 1570 0150 54010000 		.word	.LC21
 1571 0154 64010000 		.word	.LC22
 1572 0158 80010000 		.word	.LC23
 1573 015c A4010000 		.word	.LC24
 1574 0160 C8010000 		.word	.LC25
 1575 0164 E4010000 		.word	.LC26
 1576              		.cfi_endproc
 1577              	.LFE14:
 1579              		.section	.rodata
 1580              		.align	2
 1581              	.LC27:
 1582 01f4 69643A20 		.ascii	"id: %d\015\012\000"
 1582      25640D0A 
 1582      00
 1583 01fd 000000   		.align	2
 1584              	.LC28:
 1585 0200 74797065 		.ascii	"type: \000"
 1585      3A2000
 1586 0207 00       		.align	2
 1587              	.LC29:
 1588 0208 4C574D32 		.ascii	"LWM2M_TYPE_OBJECT\015\012\000"
 1588      4D5F5459 
 1588      50455F4F 
 1588      424A4543 
 1588      540D0A00 
 1589              		.align	2
 1590              	.LC30:
 1591 021c 4C574D32 		.ascii	"LWM2M_TYPE_OBJECT_INSTANCE\015\012\000"
 1591      4D5F5459 
 1591      50455F4F 
 1591      424A4543 
 1591      545F494E 
 1592 0239 000000   		.align	2
 1593              	.LC31:
 1594 023c 4C574D32 		.ascii	"LWM2M_TYPE_MULTIPLE_RESOURCE\015\012\000"
 1594      4D5F5459 
 1594      50455F4D 
 1594      554C5449 
 1594      504C455F 
 1595 025b 00       		.align	2
 1596              	.LC32:
 1597 025c 4C574D32 		.ascii	"LWM2M_TYPE_UNDEFINED\015\012\000"
 1597      4D5F5459 
 1597      50455F55 
 1597      4E444546 
ARM GAS  C:\Users\ADMINI~1\AppData\Local\Temp\ccT1G34X.s 			page 38


 1597      494E4544 
 1598 0273 00       		.align	2
 1599              	.LC33:
 1600 0274 4C574D32 		.ascii	"LWM2M_TYPE_STRING\015\012\000"
 1600      4D5F5459 
 1600      50455F53 
 1600      5452494E 
 1600      470D0A00 
 1601              		.align	2
 1602              	.LC34:
 1603 0288 22252E2A 		.ascii	"\"%.*s\"\015\012\000"
 1603      73220D0A 
 1603      00
 1604 0291 000000   		.align	2
 1605              	.LC35:
 1606 0294 4C574D32 		.ascii	"LWM2M_TYPE_OPAQUE\015\012\000"
 1606      4D5F5459 
 1606      50455F4F 
 1606      50415155 
 1606      450D0A00 
 1607              		.align	2
 1608              	.LC36:
 1609 02a8 4C574D32 		.ascii	"LWM2M_TYPE_INTEGER: \000"
 1609      4D5F5459 
 1609      50455F49 
 1609      4E544547 
 1609      45523A20 
 1610 02bd 000000   		.align	2
 1611              	.LC37:
 1612 02c0 0D0A00   		.ascii	"\015\012\000"
 1613 02c3 00       		.align	2
 1614              	.LC38:
 1615 02c4 4C574D32 		.ascii	"LWM2M_TYPE_FLOAT: \000"
 1615      4D5F5459 
 1615      50455F46 
 1615      4C4F4154 
 1615      3A2000
 1616 02d7 00       		.align	2
 1617              	.LC39:
 1618 02d8 4C574D32 		.ascii	"LWM2M_TYPE_BOOLEAN: \000"
 1618      4D5F5459 
 1618      50455F42 
 1618      4F4F4C45 
 1618      414E3A20 
 1619 02ed 000000   		.align	2
 1620              	.LC40:
 1621 02f0 74727565 		.ascii	"true\000"
 1621      00
 1622 02f5 000000   		.align	2
 1623              	.LC41:
 1624 02f8 66616C73 		.ascii	"false\000"
 1624      6500
 1625 02fe 0000     		.align	2
 1626              	.LC42:
 1627 0300 4C574D32 		.ascii	"LWM2M_TYPE_OBJECT_LINK\015\012\000"
 1627      4D5F5459 
 1627      50455F4F 
ARM GAS  C:\Users\ADMINI~1\AppData\Local\Temp\ccT1G34X.s 			page 39


 1627      424A4543 
 1627      545F4C49 
 1628 0319 000000   		.align	2
 1629              	.LC43:
 1630 031c 756E6B6E 		.ascii	"unknown (%d)\015\012\000"
 1630      6F776E20 
 1630      28256429 
 1630      0D0A00
 1631              		.section	.text.dump_tlv,"ax",%progbits
 1632              		.align	1
 1633              		.global	dump_tlv
 1634              		.syntax unified
 1635              		.thumb
 1636              		.thumb_func
 1637              		.fpu fpv4-sp-d16
 1639              	dump_tlv:
 1640              	.LFB15:
 389:g:/iot/IoT_Device_Demo/iot_link/network/lwm2m/wakaama_lwm2m/wakaama-master/examples/shared\commandline.c **** 
 390:g:/iot/IoT_Device_Demo/iot_link/network/lwm2m/wakaama_lwm2m/wakaama-master/examples/shared\commandline.c **** void dump_tlv(FILE *stream,
 391:g:/iot/IoT_Device_Demo/iot_link/network/lwm2m/wakaama_lwm2m/wakaama-master/examples/shared\commandline.c ****               int size,
 392:g:/iot/IoT_Device_Demo/iot_link/network/lwm2m/wakaama_lwm2m/wakaama-master/examples/shared\commandline.c ****               lwm2m_data_t *dataP,
 393:g:/iot/IoT_Device_Demo/iot_link/network/lwm2m/wakaama_lwm2m/wakaama-master/examples/shared\commandline.c ****               int indent)
 394:g:/iot/IoT_Device_Demo/iot_link/network/lwm2m/wakaama_lwm2m/wakaama-master/examples/shared\commandline.c **** {
 1641              		.loc 1 394 1
 1642              		.cfi_startproc
 1643              		@ args = 0, pretend = 0, frame = 24
 1644              		@ frame_needed = 1, uses_anonymous_args = 0
 1645 0000 80B5     		push	{r7, lr}
 1646              	.LCFI58:
 1647              		.cfi_def_cfa_offset 8
 1648              		.cfi_offset 7, -8
 1649              		.cfi_offset 14, -4
 1650 0002 86B0     		sub	sp, sp, #24
 1651              	.LCFI59:
 1652              		.cfi_def_cfa_offset 32
 1653 0004 00AF     		add	r7, sp, #0
 1654              	.LCFI60:
 1655              		.cfi_def_cfa_register 7
 1656 0006 F860     		str	r0, [r7, #12]
 1657 0008 B960     		str	r1, [r7, #8]
 1658 000a 7A60     		str	r2, [r7, #4]
 1659 000c 3B60     		str	r3, [r7]
 395:g:/iot/IoT_Device_Demo/iot_link/network/lwm2m/wakaama_lwm2m/wakaama-master/examples/shared\commandline.c ****     int i;
 396:g:/iot/IoT_Device_Demo/iot_link/network/lwm2m/wakaama_lwm2m/wakaama-master/examples/shared\commandline.c **** 
 397:g:/iot/IoT_Device_Demo/iot_link/network/lwm2m/wakaama_lwm2m/wakaama-master/examples/shared\commandline.c ****     for(i = 0 ; i < size ; i++)
 1660              		.loc 1 397 11
 1661 000e 0023     		movs	r3, #0
 1662 0010 7B61     		str	r3, [r7, #20]
 1663              		.loc 1 397 5
 1664 0012 39E1     		b	.L91
 1665              	.L107:
 398:g:/iot/IoT_Device_Demo/iot_link/network/lwm2m/wakaama_lwm2m/wakaama-master/examples/shared\commandline.c ****     {
 399:g:/iot/IoT_Device_Demo/iot_link/network/lwm2m/wakaama_lwm2m/wakaama-master/examples/shared\commandline.c ****         print_indent(stream, indent);
 1666              		.loc 1 399 9
 1667 0014 3968     		ldr	r1, [r7]
 1668 0016 F868     		ldr	r0, [r7, #12]
 1669 0018 FFF7FEFF 		bl	print_indent
ARM GAS  C:\Users\ADMINI~1\AppData\Local\Temp\ccT1G34X.s 			page 40


 400:g:/iot/IoT_Device_Demo/iot_link/network/lwm2m/wakaama_lwm2m/wakaama-master/examples/shared\commandline.c ****         fprintf(stream, "{\r\n");
 1670              		.loc 1 400 9
 1671 001c FB68     		ldr	r3, [r7, #12]
 1672 001e 0322     		movs	r2, #3
 1673 0020 0121     		movs	r1, #1
 1674 0022 9E48     		ldr	r0, .L108
 1675 0024 FFF7FEFF 		bl	fwrite
 401:g:/iot/IoT_Device_Demo/iot_link/network/lwm2m/wakaama_lwm2m/wakaama-master/examples/shared\commandline.c ****         print_indent(stream, indent + 1);
 1676              		.loc 1 401 9
 1677 0028 3B68     		ldr	r3, [r7]
 1678 002a 0133     		adds	r3, r3, #1
 1679 002c 1946     		mov	r1, r3
 1680 002e F868     		ldr	r0, [r7, #12]
 1681 0030 FFF7FEFF 		bl	print_indent
 402:g:/iot/IoT_Device_Demo/iot_link/network/lwm2m/wakaama_lwm2m/wakaama-master/examples/shared\commandline.c ****         fprintf(stream, "id: %d\r\n", dataP[i].id);
 1682              		.loc 1 402 44
 1683 0034 7B69     		ldr	r3, [r7, #20]
 1684 0036 1B01     		lsls	r3, r3, #4
 1685 0038 7A68     		ldr	r2, [r7, #4]
 1686 003a 1344     		add	r3, r3, r2
 1687              		.loc 1 402 47
 1688 003c 5B88     		ldrh	r3, [r3, #2]
 1689              		.loc 1 402 9
 1690 003e 1A46     		mov	r2, r3
 1691 0040 9749     		ldr	r1, .L108+4
 1692 0042 F868     		ldr	r0, [r7, #12]
 1693 0044 FFF7FEFF 		bl	fprintf
 403:g:/iot/IoT_Device_Demo/iot_link/network/lwm2m/wakaama_lwm2m/wakaama-master/examples/shared\commandline.c **** 
 404:g:/iot/IoT_Device_Demo/iot_link/network/lwm2m/wakaama_lwm2m/wakaama-master/examples/shared\commandline.c ****         print_indent(stream, indent + 1);
 1694              		.loc 1 404 9
 1695 0048 3B68     		ldr	r3, [r7]
 1696 004a 0133     		adds	r3, r3, #1
 1697 004c 1946     		mov	r1, r3
 1698 004e F868     		ldr	r0, [r7, #12]
 1699 0050 FFF7FEFF 		bl	print_indent
 405:g:/iot/IoT_Device_Demo/iot_link/network/lwm2m/wakaama_lwm2m/wakaama-master/examples/shared\commandline.c ****         fprintf(stream, "type: ");
 1700              		.loc 1 405 9
 1701 0054 FB68     		ldr	r3, [r7, #12]
 1702 0056 0622     		movs	r2, #6
 1703 0058 0121     		movs	r1, #1
 1704 005a 9248     		ldr	r0, .L108+8
 1705 005c FFF7FEFF 		bl	fwrite
 406:g:/iot/IoT_Device_Demo/iot_link/network/lwm2m/wakaama_lwm2m/wakaama-master/examples/shared\commandline.c ****         switch (dataP[i].type)
 1706              		.loc 1 406 22
 1707 0060 7B69     		ldr	r3, [r7, #20]
 1708 0062 1B01     		lsls	r3, r3, #4
 1709 0064 7A68     		ldr	r2, [r7, #4]
 1710 0066 1344     		add	r3, r3, r2
 1711              		.loc 1 406 25
 1712 0068 1B78     		ldrb	r3, [r3]	@ zero_extendqisi2
 1713 006a 092B     		cmp	r3, #9
 1714 006c 00F2F480 		bhi	.L92
 1715 0070 01A2     		adr	r2, .L94
 1716 0072 52F823F0 		ldr	pc, [r2, r3, lsl #2]
 1717 0076 00BF     		.p2align 2
 1718              	.L94:
 1719 0078 2B010000 		.word	.L103+1
ARM GAS  C:\Users\ADMINI~1\AppData\Local\Temp\ccT1G34X.s 			page 41


 1720 007c A1000000 		.word	.L102+1
 1721 0080 CF000000 		.word	.L101+1
 1722 0084 FD000000 		.word	.L100+1
 1723 0088 39010000 		.word	.L99+1
 1724 008c 73010000 		.word	.L98+1
 1725 0090 A1010000 		.word	.L97+1
 1726 0094 DB010000 		.word	.L96+1
 1727 0098 15020000 		.word	.L95+1
 1728 009c 4B020000 		.word	.L93+1
 1729              		.p2align 1
 1730              	.L102:
 407:g:/iot/IoT_Device_Demo/iot_link/network/lwm2m/wakaama_lwm2m/wakaama-master/examples/shared\commandline.c ****         {
 408:g:/iot/IoT_Device_Demo/iot_link/network/lwm2m/wakaama_lwm2m/wakaama-master/examples/shared\commandline.c ****         case LWM2M_TYPE_OBJECT:
 409:g:/iot/IoT_Device_Demo/iot_link/network/lwm2m/wakaama_lwm2m/wakaama-master/examples/shared\commandline.c ****             fprintf(stream, "LWM2M_TYPE_OBJECT\r\n");
 1731              		.loc 1 409 13
 1732 00a0 FB68     		ldr	r3, [r7, #12]
 1733 00a2 1322     		movs	r2, #19
 1734 00a4 0121     		movs	r1, #1
 1735 00a6 8048     		ldr	r0, .L108+12
 1736 00a8 FFF7FEFF 		bl	fwrite
 410:g:/iot/IoT_Device_Demo/iot_link/network/lwm2m/wakaama_lwm2m/wakaama-master/examples/shared\commandline.c ****             dump_tlv(stream, dataP[i].value.asChildren.count, dataP[i].value.asChildren.array, inde
 1737              		.loc 1 410 35
 1738 00ac 7B69     		ldr	r3, [r7, #20]
 1739 00ae 1B01     		lsls	r3, r3, #4
 1740 00b0 7A68     		ldr	r2, [r7, #4]
 1741 00b2 1344     		add	r3, r3, r2
 1742              		.loc 1 410 55
 1743 00b4 9B68     		ldr	r3, [r3, #8]
 1744              		.loc 1 410 13
 1745 00b6 1946     		mov	r1, r3
 1746              		.loc 1 410 68
 1747 00b8 7B69     		ldr	r3, [r7, #20]
 1748 00ba 1B01     		lsls	r3, r3, #4
 1749 00bc 7A68     		ldr	r2, [r7, #4]
 1750 00be 1344     		add	r3, r3, r2
 1751              		.loc 1 410 13
 1752 00c0 DA68     		ldr	r2, [r3, #12]
 1753 00c2 3B68     		ldr	r3, [r7]
 1754 00c4 0133     		adds	r3, r3, #1
 1755 00c6 F868     		ldr	r0, [r7, #12]
 1756 00c8 FFF7FEFF 		bl	dump_tlv
 411:g:/iot/IoT_Device_Demo/iot_link/network/lwm2m/wakaama_lwm2m/wakaama-master/examples/shared\commandline.c ****             break;
 1757              		.loc 1 411 13
 1758 00cc CFE0     		b	.L104
 1759              	.L101:
 412:g:/iot/IoT_Device_Demo/iot_link/network/lwm2m/wakaama_lwm2m/wakaama-master/examples/shared\commandline.c ****         case LWM2M_TYPE_OBJECT_INSTANCE:
 413:g:/iot/IoT_Device_Demo/iot_link/network/lwm2m/wakaama_lwm2m/wakaama-master/examples/shared\commandline.c ****             fprintf(stream, "LWM2M_TYPE_OBJECT_INSTANCE\r\n");
 1760              		.loc 1 413 13
 1761 00ce FB68     		ldr	r3, [r7, #12]
 1762 00d0 1C22     		movs	r2, #28
 1763 00d2 0121     		movs	r1, #1
 1764 00d4 7548     		ldr	r0, .L108+16
 1765 00d6 FFF7FEFF 		bl	fwrite
 414:g:/iot/IoT_Device_Demo/iot_link/network/lwm2m/wakaama_lwm2m/wakaama-master/examples/shared\commandline.c ****             dump_tlv(stream, dataP[i].value.asChildren.count, dataP[i].value.asChildren.array, inde
 1766              		.loc 1 414 35
 1767 00da 7B69     		ldr	r3, [r7, #20]
 1768 00dc 1B01     		lsls	r3, r3, #4
ARM GAS  C:\Users\ADMINI~1\AppData\Local\Temp\ccT1G34X.s 			page 42


 1769 00de 7A68     		ldr	r2, [r7, #4]
 1770 00e0 1344     		add	r3, r3, r2
 1771              		.loc 1 414 55
 1772 00e2 9B68     		ldr	r3, [r3, #8]
 1773              		.loc 1 414 13
 1774 00e4 1946     		mov	r1, r3
 1775              		.loc 1 414 68
 1776 00e6 7B69     		ldr	r3, [r7, #20]
 1777 00e8 1B01     		lsls	r3, r3, #4
 1778 00ea 7A68     		ldr	r2, [r7, #4]
 1779 00ec 1344     		add	r3, r3, r2
 1780              		.loc 1 414 13
 1781 00ee DA68     		ldr	r2, [r3, #12]
 1782 00f0 3B68     		ldr	r3, [r7]
 1783 00f2 0133     		adds	r3, r3, #1
 1784 00f4 F868     		ldr	r0, [r7, #12]
 1785 00f6 FFF7FEFF 		bl	dump_tlv
 415:g:/iot/IoT_Device_Demo/iot_link/network/lwm2m/wakaama_lwm2m/wakaama-master/examples/shared\commandline.c ****             break;
 1786              		.loc 1 415 13
 1787 00fa B8E0     		b	.L104
 1788              	.L100:
 416:g:/iot/IoT_Device_Demo/iot_link/network/lwm2m/wakaama_lwm2m/wakaama-master/examples/shared\commandline.c ****         case LWM2M_TYPE_MULTIPLE_RESOURCE:
 417:g:/iot/IoT_Device_Demo/iot_link/network/lwm2m/wakaama_lwm2m/wakaama-master/examples/shared\commandline.c ****             fprintf(stream, "LWM2M_TYPE_MULTIPLE_RESOURCE\r\n");
 1789              		.loc 1 417 13
 1790 00fc FB68     		ldr	r3, [r7, #12]
 1791 00fe 1E22     		movs	r2, #30
 1792 0100 0121     		movs	r1, #1
 1793 0102 6B48     		ldr	r0, .L108+20
 1794 0104 FFF7FEFF 		bl	fwrite
 418:g:/iot/IoT_Device_Demo/iot_link/network/lwm2m/wakaama_lwm2m/wakaama-master/examples/shared\commandline.c ****             dump_tlv(stream, dataP[i].value.asChildren.count, dataP[i].value.asChildren.array, inde
 1795              		.loc 1 418 35
 1796 0108 7B69     		ldr	r3, [r7, #20]
 1797 010a 1B01     		lsls	r3, r3, #4
 1798 010c 7A68     		ldr	r2, [r7, #4]
 1799 010e 1344     		add	r3, r3, r2
 1800              		.loc 1 418 55
 1801 0110 9B68     		ldr	r3, [r3, #8]
 1802              		.loc 1 418 13
 1803 0112 1946     		mov	r1, r3
 1804              		.loc 1 418 68
 1805 0114 7B69     		ldr	r3, [r7, #20]
 1806 0116 1B01     		lsls	r3, r3, #4
 1807 0118 7A68     		ldr	r2, [r7, #4]
 1808 011a 1344     		add	r3, r3, r2
 1809              		.loc 1 418 13
 1810 011c DA68     		ldr	r2, [r3, #12]
 1811 011e 3B68     		ldr	r3, [r7]
 1812 0120 0133     		adds	r3, r3, #1
 1813 0122 F868     		ldr	r0, [r7, #12]
 1814 0124 FFF7FEFF 		bl	dump_tlv
 419:g:/iot/IoT_Device_Demo/iot_link/network/lwm2m/wakaama_lwm2m/wakaama-master/examples/shared\commandline.c ****             break;
 1815              		.loc 1 419 13
 1816 0128 A1E0     		b	.L104
 1817              	.L103:
 420:g:/iot/IoT_Device_Demo/iot_link/network/lwm2m/wakaama_lwm2m/wakaama-master/examples/shared\commandline.c ****         case LWM2M_TYPE_UNDEFINED:
 421:g:/iot/IoT_Device_Demo/iot_link/network/lwm2m/wakaama_lwm2m/wakaama-master/examples/shared\commandline.c ****             fprintf(stream, "LWM2M_TYPE_UNDEFINED\r\n");
 1818              		.loc 1 421 13
ARM GAS  C:\Users\ADMINI~1\AppData\Local\Temp\ccT1G34X.s 			page 43


 1819 012a FB68     		ldr	r3, [r7, #12]
 1820 012c 1622     		movs	r2, #22
 1821 012e 0121     		movs	r1, #1
 1822 0130 6048     		ldr	r0, .L108+24
 1823 0132 FFF7FEFF 		bl	fwrite
 422:g:/iot/IoT_Device_Demo/iot_link/network/lwm2m/wakaama_lwm2m/wakaama-master/examples/shared\commandline.c ****             break;
 1824              		.loc 1 422 13
 1825 0136 9AE0     		b	.L104
 1826              	.L99:
 423:g:/iot/IoT_Device_Demo/iot_link/network/lwm2m/wakaama_lwm2m/wakaama-master/examples/shared\commandline.c ****         case LWM2M_TYPE_STRING:
 424:g:/iot/IoT_Device_Demo/iot_link/network/lwm2m/wakaama_lwm2m/wakaama-master/examples/shared\commandline.c ****             fprintf(stream, "LWM2M_TYPE_STRING\r\n");
 1827              		.loc 1 424 13
 1828 0138 FB68     		ldr	r3, [r7, #12]
 1829 013a 1322     		movs	r2, #19
 1830 013c 0121     		movs	r1, #1
 1831 013e 5E48     		ldr	r0, .L108+28
 1832 0140 FFF7FEFF 		bl	fwrite
 425:g:/iot/IoT_Device_Demo/iot_link/network/lwm2m/wakaama_lwm2m/wakaama-master/examples/shared\commandline.c ****             print_indent(stream, indent + 1);
 1833              		.loc 1 425 13
 1834 0144 3B68     		ldr	r3, [r7]
 1835 0146 0133     		adds	r3, r3, #1
 1836 0148 1946     		mov	r1, r3
 1837 014a F868     		ldr	r0, [r7, #12]
 1838 014c FFF7FEFF 		bl	print_indent
 426:g:/iot/IoT_Device_Demo/iot_link/network/lwm2m/wakaama_lwm2m/wakaama-master/examples/shared\commandline.c ****             fprintf(stream, "\"%.*s\"\r\n", (int)dataP[i].value.asBuffer.length, dataP[i].value.asB
 1839              		.loc 1 426 55
 1840 0150 7B69     		ldr	r3, [r7, #20]
 1841 0152 1B01     		lsls	r3, r3, #4
 1842 0154 7A68     		ldr	r2, [r7, #4]
 1843 0156 1344     		add	r3, r3, r2
 1844              		.loc 1 426 73
 1845 0158 9B68     		ldr	r3, [r3, #8]
 1846              		.loc 1 426 13
 1847 015a 1946     		mov	r1, r3
 1848              		.loc 1 426 87
 1849 015c 7B69     		ldr	r3, [r7, #20]
 1850 015e 1B01     		lsls	r3, r3, #4
 1851 0160 7A68     		ldr	r2, [r7, #4]
 1852 0162 1344     		add	r3, r3, r2
 1853              		.loc 1 426 13
 1854 0164 DB68     		ldr	r3, [r3, #12]
 1855 0166 0A46     		mov	r2, r1
 1856 0168 5449     		ldr	r1, .L108+32
 1857 016a F868     		ldr	r0, [r7, #12]
 1858 016c FFF7FEFF 		bl	fprintf
 427:g:/iot/IoT_Device_Demo/iot_link/network/lwm2m/wakaama_lwm2m/wakaama-master/examples/shared\commandline.c ****             break;
 1859              		.loc 1 427 13
 1860 0170 7DE0     		b	.L104
 1861              	.L98:
 428:g:/iot/IoT_Device_Demo/iot_link/network/lwm2m/wakaama_lwm2m/wakaama-master/examples/shared\commandline.c ****         case LWM2M_TYPE_OPAQUE:
 429:g:/iot/IoT_Device_Demo/iot_link/network/lwm2m/wakaama_lwm2m/wakaama-master/examples/shared\commandline.c ****             fprintf(stream, "LWM2M_TYPE_OPAQUE\r\n");
 1862              		.loc 1 429 13
 1863 0172 FB68     		ldr	r3, [r7, #12]
 1864 0174 1322     		movs	r2, #19
 1865 0176 0121     		movs	r1, #1
 1866 0178 5148     		ldr	r0, .L108+36
 1867 017a FFF7FEFF 		bl	fwrite
ARM GAS  C:\Users\ADMINI~1\AppData\Local\Temp\ccT1G34X.s 			page 44


 430:g:/iot/IoT_Device_Demo/iot_link/network/lwm2m/wakaama_lwm2m/wakaama-master/examples/shared\commandline.c ****             output_buffer(stream, dataP[i].value.asBuffer.buffer, dataP[i].value.asBuffer.length, i
 1868              		.loc 1 430 40
 1869 017e 7B69     		ldr	r3, [r7, #20]
 1870 0180 1B01     		lsls	r3, r3, #4
 1871 0182 7A68     		ldr	r2, [r7, #4]
 1872 0184 1344     		add	r3, r3, r2
 1873              		.loc 1 430 13
 1874 0186 D968     		ldr	r1, [r3, #12]
 1875              		.loc 1 430 72
 1876 0188 7B69     		ldr	r3, [r7, #20]
 1877 018a 1B01     		lsls	r3, r3, #4
 1878 018c 7A68     		ldr	r2, [r7, #4]
 1879 018e 1344     		add	r3, r3, r2
 1880              		.loc 1 430 90
 1881 0190 9B68     		ldr	r3, [r3, #8]
 1882              		.loc 1 430 13
 1883 0192 1A46     		mov	r2, r3
 1884 0194 3B68     		ldr	r3, [r7]
 1885 0196 0133     		adds	r3, r3, #1
 1886 0198 F868     		ldr	r0, [r7, #12]
 1887 019a FFF7FEFF 		bl	output_buffer
 431:g:/iot/IoT_Device_Demo/iot_link/network/lwm2m/wakaama_lwm2m/wakaama-master/examples/shared\commandline.c ****             break;
 1888              		.loc 1 431 13
 1889 019e 66E0     		b	.L104
 1890              	.L97:
 432:g:/iot/IoT_Device_Demo/iot_link/network/lwm2m/wakaama_lwm2m/wakaama-master/examples/shared\commandline.c ****         case LWM2M_TYPE_INTEGER:
 433:g:/iot/IoT_Device_Demo/iot_link/network/lwm2m/wakaama_lwm2m/wakaama-master/examples/shared\commandline.c ****             fprintf(stream, "LWM2M_TYPE_INTEGER: ");
 1891              		.loc 1 433 13
 1892 01a0 FB68     		ldr	r3, [r7, #12]
 1893 01a2 1422     		movs	r2, #20
 1894 01a4 0121     		movs	r1, #1
 1895 01a6 4748     		ldr	r0, .L108+40
 1896 01a8 FFF7FEFF 		bl	fwrite
 434:g:/iot/IoT_Device_Demo/iot_link/network/lwm2m/wakaama_lwm2m/wakaama-master/examples/shared\commandline.c ****             print_indent(stream, indent + 1);
 1897              		.loc 1 434 13
 1898 01ac 3B68     		ldr	r3, [r7]
 1899 01ae 0133     		adds	r3, r3, #1
 1900 01b0 1946     		mov	r1, r3
 1901 01b2 F868     		ldr	r0, [r7, #12]
 1902 01b4 FFF7FEFF 		bl	print_indent
 435:g:/iot/IoT_Device_Demo/iot_link/network/lwm2m/wakaama_lwm2m/wakaama-master/examples/shared\commandline.c ****             fprintf(stream, "%" PRId64, dataP[i].value.asInteger);
 1903              		.loc 1 435 46
 1904 01b8 7B69     		ldr	r3, [r7, #20]
 1905 01ba 1B01     		lsls	r3, r3, #4
 1906 01bc 7A68     		ldr	r2, [r7, #4]
 1907 01be 1344     		add	r3, r3, r2
 1908              		.loc 1 435 13
 1909 01c0 D3E90223 		ldrd	r2, [r3, #8]
 1910 01c4 4049     		ldr	r1, .L108+44
 1911 01c6 F868     		ldr	r0, [r7, #12]
 1912 01c8 FFF7FEFF 		bl	fprintf
 436:g:/iot/IoT_Device_Demo/iot_link/network/lwm2m/wakaama_lwm2m/wakaama-master/examples/shared\commandline.c ****             fprintf(stream, "\r\n");
 1913              		.loc 1 436 13
 1914 01cc FB68     		ldr	r3, [r7, #12]
 1915 01ce 0222     		movs	r2, #2
 1916 01d0 0121     		movs	r1, #1
 1917 01d2 3E48     		ldr	r0, .L108+48
ARM GAS  C:\Users\ADMINI~1\AppData\Local\Temp\ccT1G34X.s 			page 45


 1918 01d4 FFF7FEFF 		bl	fwrite
 437:g:/iot/IoT_Device_Demo/iot_link/network/lwm2m/wakaama_lwm2m/wakaama-master/examples/shared\commandline.c ****             break;
 1919              		.loc 1 437 13
 1920 01d8 49E0     		b	.L104
 1921              	.L96:
 438:g:/iot/IoT_Device_Demo/iot_link/network/lwm2m/wakaama_lwm2m/wakaama-master/examples/shared\commandline.c ****         case LWM2M_TYPE_FLOAT:
 439:g:/iot/IoT_Device_Demo/iot_link/network/lwm2m/wakaama_lwm2m/wakaama-master/examples/shared\commandline.c ****             fprintf(stream, "LWM2M_TYPE_FLOAT: ");
 1922              		.loc 1 439 13
 1923 01da FB68     		ldr	r3, [r7, #12]
 1924 01dc 1222     		movs	r2, #18
 1925 01de 0121     		movs	r1, #1
 1926 01e0 3B48     		ldr	r0, .L108+52
 1927 01e2 FFF7FEFF 		bl	fwrite
 440:g:/iot/IoT_Device_Demo/iot_link/network/lwm2m/wakaama_lwm2m/wakaama-master/examples/shared\commandline.c ****             print_indent(stream, indent + 1);
 1928              		.loc 1 440 13
 1929 01e6 3B68     		ldr	r3, [r7]
 1930 01e8 0133     		adds	r3, r3, #1
 1931 01ea 1946     		mov	r1, r3
 1932 01ec F868     		ldr	r0, [r7, #12]
 1933 01ee FFF7FEFF 		bl	print_indent
 441:g:/iot/IoT_Device_Demo/iot_link/network/lwm2m/wakaama_lwm2m/wakaama-master/examples/shared\commandline.c ****             fprintf(stream, "%" PRId64, dataP[i].value.asInteger);
 1934              		.loc 1 441 46
 1935 01f2 7B69     		ldr	r3, [r7, #20]
 1936 01f4 1B01     		lsls	r3, r3, #4
 1937 01f6 7A68     		ldr	r2, [r7, #4]
 1938 01f8 1344     		add	r3, r3, r2
 1939              		.loc 1 441 13
 1940 01fa D3E90223 		ldrd	r2, [r3, #8]
 1941 01fe 3249     		ldr	r1, .L108+44
 1942 0200 F868     		ldr	r0, [r7, #12]
 1943 0202 FFF7FEFF 		bl	fprintf
 442:g:/iot/IoT_Device_Demo/iot_link/network/lwm2m/wakaama_lwm2m/wakaama-master/examples/shared\commandline.c ****             fprintf(stream, "\r\n");
 1944              		.loc 1 442 13
 1945 0206 FB68     		ldr	r3, [r7, #12]
 1946 0208 0222     		movs	r2, #2
 1947 020a 0121     		movs	r1, #1
 1948 020c 2F48     		ldr	r0, .L108+48
 1949 020e FFF7FEFF 		bl	fwrite
 443:g:/iot/IoT_Device_Demo/iot_link/network/lwm2m/wakaama_lwm2m/wakaama-master/examples/shared\commandline.c ****             break;
 1950              		.loc 1 443 13
 1951 0212 2CE0     		b	.L104
 1952              	.L95:
 444:g:/iot/IoT_Device_Demo/iot_link/network/lwm2m/wakaama_lwm2m/wakaama-master/examples/shared\commandline.c ****         case LWM2M_TYPE_BOOLEAN:
 445:g:/iot/IoT_Device_Demo/iot_link/network/lwm2m/wakaama_lwm2m/wakaama-master/examples/shared\commandline.c ****             fprintf(stream, "LWM2M_TYPE_BOOLEAN: ");
 1953              		.loc 1 445 13
 1954 0214 FB68     		ldr	r3, [r7, #12]
 1955 0216 1422     		movs	r2, #20
 1956 0218 0121     		movs	r1, #1
 1957 021a 2E48     		ldr	r0, .L108+56
 1958 021c FFF7FEFF 		bl	fwrite
 446:g:/iot/IoT_Device_Demo/iot_link/network/lwm2m/wakaama_lwm2m/wakaama-master/examples/shared\commandline.c ****             fprintf(stream, "%s", dataP[i].value.asBoolean ? "true" : "false");
 1959              		.loc 1 446 40
 1960 0220 7B69     		ldr	r3, [r7, #20]
 1961 0222 1B01     		lsls	r3, r3, #4
 1962 0224 7A68     		ldr	r2, [r7, #4]
 1963 0226 1344     		add	r3, r3, r2
 1964              		.loc 1 446 49
ARM GAS  C:\Users\ADMINI~1\AppData\Local\Temp\ccT1G34X.s 			page 46


 1965 0228 1B7A     		ldrb	r3, [r3, #8]	@ zero_extendqisi2
 1966              		.loc 1 446 13
 1967 022a 002B     		cmp	r3, #0
 1968 022c 01D0     		beq	.L105
 1969              		.loc 1 446 13 is_stmt 0 discriminator 1
 1970 022e 2A4B     		ldr	r3, .L108+60
 1971 0230 00E0     		b	.L106
 1972              	.L105:
 1973              		.loc 1 446 13 discriminator 2
 1974 0232 2A4B     		ldr	r3, .L108+64
 1975              	.L106:
 1976              		.loc 1 446 13 discriminator 4
 1977 0234 F968     		ldr	r1, [r7, #12]
 1978 0236 1846     		mov	r0, r3
 1979 0238 FFF7FEFF 		bl	fputs
 447:g:/iot/IoT_Device_Demo/iot_link/network/lwm2m/wakaama_lwm2m/wakaama-master/examples/shared\commandline.c ****             fprintf(stream, "\r\n");
 1980              		.loc 1 447 13 is_stmt 1 discriminator 4
 1981 023c FB68     		ldr	r3, [r7, #12]
 1982 023e 0222     		movs	r2, #2
 1983 0240 0121     		movs	r1, #1
 1984 0242 2248     		ldr	r0, .L108+48
 1985 0244 FFF7FEFF 		bl	fwrite
 448:g:/iot/IoT_Device_Demo/iot_link/network/lwm2m/wakaama_lwm2m/wakaama-master/examples/shared\commandline.c ****             break;
 1986              		.loc 1 448 13 discriminator 4
 1987 0248 11E0     		b	.L104
 1988              	.L93:
 449:g:/iot/IoT_Device_Demo/iot_link/network/lwm2m/wakaama_lwm2m/wakaama-master/examples/shared\commandline.c ****         case LWM2M_TYPE_OBJECT_LINK:
 450:g:/iot/IoT_Device_Demo/iot_link/network/lwm2m/wakaama_lwm2m/wakaama-master/examples/shared\commandline.c ****             fprintf(stream, "LWM2M_TYPE_OBJECT_LINK\r\n");
 1989              		.loc 1 450 13
 1990 024a FB68     		ldr	r3, [r7, #12]
 1991 024c 1822     		movs	r2, #24
 1992 024e 0121     		movs	r1, #1
 1993 0250 2348     		ldr	r0, .L108+68
 1994 0252 FFF7FEFF 		bl	fwrite
 451:g:/iot/IoT_Device_Demo/iot_link/network/lwm2m/wakaama_lwm2m/wakaama-master/examples/shared\commandline.c ****             break;
 1995              		.loc 1 451 13
 1996 0256 0AE0     		b	.L104
 1997              	.L92:
 452:g:/iot/IoT_Device_Demo/iot_link/network/lwm2m/wakaama_lwm2m/wakaama-master/examples/shared\commandline.c ****         default:
 453:g:/iot/IoT_Device_Demo/iot_link/network/lwm2m/wakaama_lwm2m/wakaama-master/examples/shared\commandline.c ****             fprintf(stream, "unknown (%d)\r\n", (int)dataP[i].type);
 1998              		.loc 1 453 59
 1999 0258 7B69     		ldr	r3, [r7, #20]
 2000 025a 1B01     		lsls	r3, r3, #4
 2001 025c 7A68     		ldr	r2, [r7, #4]
 2002 025e 1344     		add	r3, r3, r2
 2003              		.loc 1 453 62
 2004 0260 1B78     		ldrb	r3, [r3]	@ zero_extendqisi2
 2005              		.loc 1 453 13
 2006 0262 1A46     		mov	r2, r3
 2007 0264 1F49     		ldr	r1, .L108+72
 2008 0266 F868     		ldr	r0, [r7, #12]
 2009 0268 FFF7FEFF 		bl	fprintf
 454:g:/iot/IoT_Device_Demo/iot_link/network/lwm2m/wakaama_lwm2m/wakaama-master/examples/shared\commandline.c ****             break;
 2010              		.loc 1 454 13
 2011 026c 00BF     		nop
 2012              	.L104:
 455:g:/iot/IoT_Device_Demo/iot_link/network/lwm2m/wakaama_lwm2m/wakaama-master/examples/shared\commandline.c ****         }
ARM GAS  C:\Users\ADMINI~1\AppData\Local\Temp\ccT1G34X.s 			page 47


 456:g:/iot/IoT_Device_Demo/iot_link/network/lwm2m/wakaama_lwm2m/wakaama-master/examples/shared\commandline.c ****         print_indent(stream, indent);
 2013              		.loc 1 456 9 discriminator 2
 2014 026e 3968     		ldr	r1, [r7]
 2015 0270 F868     		ldr	r0, [r7, #12]
 2016 0272 FFF7FEFF 		bl	print_indent
 457:g:/iot/IoT_Device_Demo/iot_link/network/lwm2m/wakaama_lwm2m/wakaama-master/examples/shared\commandline.c ****         fprintf(stream, "}\r\n");
 2017              		.loc 1 457 9 discriminator 2
 2018 0276 FB68     		ldr	r3, [r7, #12]
 2019 0278 0322     		movs	r2, #3
 2020 027a 0121     		movs	r1, #1
 2021 027c 1A48     		ldr	r0, .L108+76
 2022 027e FFF7FEFF 		bl	fwrite
 397:g:/iot/IoT_Device_Demo/iot_link/network/lwm2m/wakaama_lwm2m/wakaama-master/examples/shared\commandline.c ****     {
 2023              		.loc 1 397 29 discriminator 2
 2024 0282 7B69     		ldr	r3, [r7, #20]
 2025 0284 0133     		adds	r3, r3, #1
 2026 0286 7B61     		str	r3, [r7, #20]
 2027              	.L91:
 397:g:/iot/IoT_Device_Demo/iot_link/network/lwm2m/wakaama_lwm2m/wakaama-master/examples/shared\commandline.c ****     {
 2028              		.loc 1 397 5 discriminator 1
 2029 0288 7A69     		ldr	r2, [r7, #20]
 2030 028a BB68     		ldr	r3, [r7, #8]
 2031 028c 9A42     		cmp	r2, r3
 2032 028e FFF6C1AE 		blt	.L107
 458:g:/iot/IoT_Device_Demo/iot_link/network/lwm2m/wakaama_lwm2m/wakaama-master/examples/shared\commandline.c ****     }
 459:g:/iot/IoT_Device_Demo/iot_link/network/lwm2m/wakaama_lwm2m/wakaama-master/examples/shared\commandline.c **** }
 2033              		.loc 1 459 1
 2034 0292 00BF     		nop
 2035 0294 00BF     		nop
 2036 0296 1837     		adds	r7, r7, #24
 2037              	.LCFI61:
 2038              		.cfi_def_cfa_offset 8
 2039 0298 BD46     		mov	sp, r7
 2040              	.LCFI62:
 2041              		.cfi_def_cfa_register 13
 2042              		@ sp needed
 2043 029a 80BD     		pop	{r7, pc}
 2044              	.L109:
 2045              		.align	2
 2046              	.L108:
 2047 029c 88000000 		.word	.LC6
 2048 02a0 F4010000 		.word	.LC27
 2049 02a4 00020000 		.word	.LC28
 2050 02a8 08020000 		.word	.LC29
 2051 02ac 1C020000 		.word	.LC30
 2052 02b0 3C020000 		.word	.LC31
 2053 02b4 5C020000 		.word	.LC32
 2054 02b8 74020000 		.word	.LC33
 2055 02bc 88020000 		.word	.LC34
 2056 02c0 94020000 		.word	.LC35
 2057 02c4 A8020000 		.word	.LC36
 2058 02c8 F8000000 		.word	.LC15
 2059 02cc C0020000 		.word	.LC37
 2060 02d0 C4020000 		.word	.LC38
 2061 02d4 D8020000 		.word	.LC39
 2062 02d8 F0020000 		.word	.LC40
 2063 02dc F8020000 		.word	.LC41
ARM GAS  C:\Users\ADMINI~1\AppData\Local\Temp\ccT1G34X.s 			page 48


 2064 02e0 00030000 		.word	.LC42
 2065 02e4 1C030000 		.word	.LC43
 2066 02e8 34010000 		.word	.LC19
 2067              		.cfi_endproc
 2068              	.LFE15:
 2070              		.section	.rodata
 2071 032b 00       		.align	2
 2072              	.LC44:
 2073 032c 434F4150 		.ascii	"COAP_NO_ERROR\000"
 2073      5F4E4F5F 
 2073      4552524F 
 2073      5200
 2074 033a 0000     		.align	2
 2075              	.LC45:
 2076 033c 434F4150 		.ascii	"COAP_IGNORE\000"
 2076      5F49474E 
 2076      4F524500 
 2077              		.align	2
 2078              	.LC46:
 2079 0348 434F4150 		.ascii	"COAP_201_CREATED\000"
 2079      5F323031 
 2079      5F435245 
 2079      41544544 
 2079      00
 2080 0359 000000   		.align	2
 2081              	.LC47:
 2082 035c 434F4150 		.ascii	"COAP_202_DELETED\000"
 2082      5F323032 
 2082      5F44454C 
 2082      45544544 
 2082      00
 2083 036d 000000   		.align	2
 2084              	.LC48:
 2085 0370 434F4150 		.ascii	"COAP_204_CHANGED\000"
 2085      5F323034 
 2085      5F434841 
 2085      4E474544 
 2085      00
 2086 0381 000000   		.align	2
 2087              	.LC49:
 2088 0384 434F4150 		.ascii	"COAP_205_CONTENT\000"
 2088      5F323035 
 2088      5F434F4E 
 2088      54454E54 
 2088      00
 2089 0395 000000   		.align	2
 2090              	.LC50:
 2091 0398 434F4150 		.ascii	"COAP_400_BAD_REQUEST\000"
 2091      5F343030 
 2091      5F424144 
 2091      5F524551 
 2091      55455354 
 2092 03ad 000000   		.align	2
 2093              	.LC51:
 2094 03b0 434F4150 		.ascii	"COAP_401_UNAUTHORIZED\000"
 2094      5F343031 
 2094      5F554E41 
ARM GAS  C:\Users\ADMINI~1\AppData\Local\Temp\ccT1G34X.s 			page 49


 2094      5554484F 
 2094      52495A45 
 2095 03c6 0000     		.align	2
 2096              	.LC52:
 2097 03c8 434F4150 		.ascii	"COAP_404_NOT_FOUND\000"
 2097      5F343034 
 2097      5F4E4F54 
 2097      5F464F55 
 2097      4E4400
 2098 03db 00       		.align	2
 2099              	.LC53:
 2100 03dc 434F4150 		.ascii	"COAP_405_METHOD_NOT_ALLOWED\000"
 2100      5F343035 
 2100      5F4D4554 
 2100      484F445F 
 2100      4E4F545F 
 2101              		.align	2
 2102              	.LC54:
 2103 03f8 434F4150 		.ascii	"COAP_406_NOT_ACCEPTABLE\000"
 2103      5F343036 
 2103      5F4E4F54 
 2103      5F414343 
 2103      45505441 
 2104              		.align	2
 2105              	.LC55:
 2106 0410 434F4150 		.ascii	"COAP_500_INTERNAL_SERVER_ERROR\000"
 2106      5F353030 
 2106      5F494E54 
 2106      45524E41 
 2106      4C5F5345 
 2107 042f 00       		.align	2
 2108              	.LC56:
 2109 0430 434F4150 		.ascii	"COAP_501_NOT_IMPLEMENTED\000"
 2109      5F353031 
 2109      5F4E4F54 
 2109      5F494D50 
 2109      4C454D45 
 2110 0449 000000   		.align	2
 2111              	.LC57:
 2112 044c 434F4150 		.ascii	"COAP_503_SERVICE_UNAVAILABLE\000"
 2112      5F353033 
 2112      5F534552 
 2112      56494345 
 2112      5F554E41 
 2113 0469 000000   		.align	2
 2114              	.LC58:
 2115 046c 00       		.ascii	"\000"
 2116              		.section	.text.prv_status_to_string,"ax",%progbits
 2117              		.align	1
 2118              		.syntax unified
 2119              		.thumb
 2120              		.thumb_func
 2121              		.fpu fpv4-sp-d16
 2123              	prv_status_to_string:
 2124              	.LFB16:
 460:g:/iot/IoT_Device_Demo/iot_link/network/lwm2m/wakaama_lwm2m/wakaama-master/examples/shared\commandline.c **** 
 461:g:/iot/IoT_Device_Demo/iot_link/network/lwm2m/wakaama_lwm2m/wakaama-master/examples/shared\commandline.c **** #define CODE_TO_STRING(X)   case X : return #X
ARM GAS  C:\Users\ADMINI~1\AppData\Local\Temp\ccT1G34X.s 			page 50


 462:g:/iot/IoT_Device_Demo/iot_link/network/lwm2m/wakaama_lwm2m/wakaama-master/examples/shared\commandline.c **** 
 463:g:/iot/IoT_Device_Demo/iot_link/network/lwm2m/wakaama_lwm2m/wakaama-master/examples/shared\commandline.c **** static const char *prv_status_to_string(int status)
 464:g:/iot/IoT_Device_Demo/iot_link/network/lwm2m/wakaama_lwm2m/wakaama-master/examples/shared\commandline.c **** {
 2125              		.loc 1 464 1
 2126              		.cfi_startproc
 2127              		@ args = 0, pretend = 0, frame = 8
 2128              		@ frame_needed = 1, uses_anonymous_args = 0
 2129              		@ link register save eliminated.
 2130 0000 80B4     		push	{r7}
 2131              	.LCFI63:
 2132              		.cfi_def_cfa_offset 4
 2133              		.cfi_offset 7, -4
 2134 0002 83B0     		sub	sp, sp, #12
 2135              	.LCFI64:
 2136              		.cfi_def_cfa_offset 16
 2137 0004 00AF     		add	r7, sp, #0
 2138              	.LCFI65:
 2139              		.cfi_def_cfa_register 7
 2140 0006 7860     		str	r0, [r7, #4]
 465:g:/iot/IoT_Device_Demo/iot_link/network/lwm2m/wakaama_lwm2m/wakaama-master/examples/shared\commandline.c ****     switch(status)
 2141              		.loc 1 465 5
 2142 0008 7B68     		ldr	r3, [r7, #4]
 2143 000a A32B     		cmp	r3, #163
 2144 000c 00F38E80 		bgt	.L111
 2145 0010 7B68     		ldr	r3, [r7, #4]
 2146 0012 802B     		cmp	r3, #128
 2147 0014 0DDA     		bge	.L112
 2148 0016 7B68     		ldr	r3, [r7, #4]
 2149 0018 452B     		cmp	r3, #69
 2150 001a 00F38780 		bgt	.L111
 2151 001e 7B68     		ldr	r3, [r7, #4]
 2152 0020 412B     		cmp	r3, #65
 2153 0022 55DA     		bge	.L113
 2154 0024 7B68     		ldr	r3, [r7, #4]
 2155 0026 002B     		cmp	r3, #0
 2156 0028 64D0     		beq	.L114
 2157 002a 7B68     		ldr	r3, [r7, #4]
 2158 002c 012B     		cmp	r3, #1
 2159 002e 63D0     		beq	.L115
 2160 0030 7CE0     		b	.L111
 2161              	.L112:
 2162 0032 7B68     		ldr	r3, [r7, #4]
 2163 0034 803B     		subs	r3, r3, #128
 2164 0036 232B     		cmp	r3, #35
 2165 0038 78D8     		bhi	.L111
 2166 003a 01A2     		adr	r2, .L117
 2167 003c 52F823F0 		ldr	pc, [r2, r3, lsl #2]
 2168              		.p2align 2
 2169              	.L117:
 2170 0040 0D010000 		.word	.L124+1
 2171 0044 11010000 		.word	.L123+1
 2172 0048 2D010000 		.word	.L111+1
 2173 004c 2D010000 		.word	.L111+1
 2174 0050 15010000 		.word	.L122+1
 2175 0054 19010000 		.word	.L121+1
 2176 0058 1D010000 		.word	.L120+1
 2177 005c 2D010000 		.word	.L111+1
ARM GAS  C:\Users\ADMINI~1\AppData\Local\Temp\ccT1G34X.s 			page 51


 2178 0060 2D010000 		.word	.L111+1
 2179 0064 2D010000 		.word	.L111+1
 2180 0068 2D010000 		.word	.L111+1
 2181 006c 2D010000 		.word	.L111+1
 2182 0070 2D010000 		.word	.L111+1
 2183 0074 2D010000 		.word	.L111+1
 2184 0078 2D010000 		.word	.L111+1
 2185 007c 2D010000 		.word	.L111+1
 2186 0080 2D010000 		.word	.L111+1
 2187 0084 2D010000 		.word	.L111+1
 2188 0088 2D010000 		.word	.L111+1
 2189 008c 2D010000 		.word	.L111+1
 2190 0090 2D010000 		.word	.L111+1
 2191 0094 2D010000 		.word	.L111+1
 2192 0098 2D010000 		.word	.L111+1
 2193 009c 2D010000 		.word	.L111+1
 2194 00a0 2D010000 		.word	.L111+1
 2195 00a4 2D010000 		.word	.L111+1
 2196 00a8 2D010000 		.word	.L111+1
 2197 00ac 2D010000 		.word	.L111+1
 2198 00b0 2D010000 		.word	.L111+1
 2199 00b4 2D010000 		.word	.L111+1
 2200 00b8 2D010000 		.word	.L111+1
 2201 00bc 2D010000 		.word	.L111+1
 2202 00c0 21010000 		.word	.L119+1
 2203 00c4 25010000 		.word	.L118+1
 2204 00c8 2D010000 		.word	.L111+1
 2205 00cc 29010000 		.word	.L116+1
 2206              		.p2align 1
 2207              	.L113:
 2208 00d0 7B68     		ldr	r3, [r7, #4]
 2209 00d2 413B     		subs	r3, r3, #65
 2210 00d4 042B     		cmp	r3, #4
 2211 00d6 29D8     		bhi	.L111
 2212 00d8 01A2     		adr	r2, .L126
 2213 00da 52F823F0 		ldr	pc, [r2, r3, lsl #2]
 2214 00de 00BF     		.p2align 2
 2215              	.L126:
 2216 00e0 FD000000 		.word	.L129+1
 2217 00e4 01010000 		.word	.L128+1
 2218 00e8 2D010000 		.word	.L111+1
 2219 00ec 05010000 		.word	.L127+1
 2220 00f0 09010000 		.word	.L125+1
 2221              		.p2align 1
 2222              	.L114:
 466:g:/iot/IoT_Device_Demo/iot_link/network/lwm2m/wakaama_lwm2m/wakaama-master/examples/shared\commandline.c ****     {
 467:g:/iot/IoT_Device_Demo/iot_link/network/lwm2m/wakaama_lwm2m/wakaama-master/examples/shared\commandline.c ****         CODE_TO_STRING(COAP_NO_ERROR);
 2223              		.loc 1 467 9
 2224 00f4 114B     		ldr	r3, .L131
 2225 00f6 1AE0     		b	.L130
 2226              	.L115:
 468:g:/iot/IoT_Device_Demo/iot_link/network/lwm2m/wakaama_lwm2m/wakaama-master/examples/shared\commandline.c ****         CODE_TO_STRING(COAP_IGNORE);
 2227              		.loc 1 468 9
 2228 00f8 114B     		ldr	r3, .L131+4
 2229 00fa 18E0     		b	.L130
 2230              	.L129:
 469:g:/iot/IoT_Device_Demo/iot_link/network/lwm2m/wakaama_lwm2m/wakaama-master/examples/shared\commandline.c ****         CODE_TO_STRING(COAP_201_CREATED);
ARM GAS  C:\Users\ADMINI~1\AppData\Local\Temp\ccT1G34X.s 			page 52


 2231              		.loc 1 469 9
 2232 00fc 114B     		ldr	r3, .L131+8
 2233 00fe 16E0     		b	.L130
 2234              	.L128:
 470:g:/iot/IoT_Device_Demo/iot_link/network/lwm2m/wakaama_lwm2m/wakaama-master/examples/shared\commandline.c ****         CODE_TO_STRING(COAP_202_DELETED);
 2235              		.loc 1 470 9
 2236 0100 114B     		ldr	r3, .L131+12
 2237 0102 14E0     		b	.L130
 2238              	.L127:
 471:g:/iot/IoT_Device_Demo/iot_link/network/lwm2m/wakaama_lwm2m/wakaama-master/examples/shared\commandline.c ****         CODE_TO_STRING(COAP_204_CHANGED);
 2239              		.loc 1 471 9
 2240 0104 114B     		ldr	r3, .L131+16
 2241 0106 12E0     		b	.L130
 2242              	.L125:
 472:g:/iot/IoT_Device_Demo/iot_link/network/lwm2m/wakaama_lwm2m/wakaama-master/examples/shared\commandline.c ****         CODE_TO_STRING(COAP_205_CONTENT);
 2243              		.loc 1 472 9
 2244 0108 114B     		ldr	r3, .L131+20
 2245 010a 10E0     		b	.L130
 2246              	.L124:
 473:g:/iot/IoT_Device_Demo/iot_link/network/lwm2m/wakaama_lwm2m/wakaama-master/examples/shared\commandline.c ****         CODE_TO_STRING(COAP_400_BAD_REQUEST);
 2247              		.loc 1 473 9
 2248 010c 114B     		ldr	r3, .L131+24
 2249 010e 0EE0     		b	.L130
 2250              	.L123:
 474:g:/iot/IoT_Device_Demo/iot_link/network/lwm2m/wakaama_lwm2m/wakaama-master/examples/shared\commandline.c ****         CODE_TO_STRING(COAP_401_UNAUTHORIZED);
 2251              		.loc 1 474 9
 2252 0110 114B     		ldr	r3, .L131+28
 2253 0112 0CE0     		b	.L130
 2254              	.L122:
 475:g:/iot/IoT_Device_Demo/iot_link/network/lwm2m/wakaama_lwm2m/wakaama-master/examples/shared\commandline.c ****         CODE_TO_STRING(COAP_404_NOT_FOUND);
 2255              		.loc 1 475 9
 2256 0114 114B     		ldr	r3, .L131+32
 2257 0116 0AE0     		b	.L130
 2258              	.L121:
 476:g:/iot/IoT_Device_Demo/iot_link/network/lwm2m/wakaama_lwm2m/wakaama-master/examples/shared\commandline.c ****         CODE_TO_STRING(COAP_405_METHOD_NOT_ALLOWED);
 2259              		.loc 1 476 9
 2260 0118 114B     		ldr	r3, .L131+36
 2261 011a 08E0     		b	.L130
 2262              	.L120:
 477:g:/iot/IoT_Device_Demo/iot_link/network/lwm2m/wakaama_lwm2m/wakaama-master/examples/shared\commandline.c ****         CODE_TO_STRING(COAP_406_NOT_ACCEPTABLE);
 2263              		.loc 1 477 9
 2264 011c 114B     		ldr	r3, .L131+40
 2265 011e 06E0     		b	.L130
 2266              	.L119:
 478:g:/iot/IoT_Device_Demo/iot_link/network/lwm2m/wakaama_lwm2m/wakaama-master/examples/shared\commandline.c ****         CODE_TO_STRING(COAP_500_INTERNAL_SERVER_ERROR);
 2267              		.loc 1 478 9
 2268 0120 114B     		ldr	r3, .L131+44
 2269 0122 04E0     		b	.L130
 2270              	.L118:
 479:g:/iot/IoT_Device_Demo/iot_link/network/lwm2m/wakaama_lwm2m/wakaama-master/examples/shared\commandline.c ****         CODE_TO_STRING(COAP_501_NOT_IMPLEMENTED);
 2271              		.loc 1 479 9
 2272 0124 114B     		ldr	r3, .L131+48
 2273 0126 02E0     		b	.L130
 2274              	.L116:
 480:g:/iot/IoT_Device_Demo/iot_link/network/lwm2m/wakaama_lwm2m/wakaama-master/examples/shared\commandline.c ****         CODE_TO_STRING(COAP_503_SERVICE_UNAVAILABLE);
 2275              		.loc 1 480 9
 2276 0128 114B     		ldr	r3, .L131+52
ARM GAS  C:\Users\ADMINI~1\AppData\Local\Temp\ccT1G34X.s 			page 53


 2277 012a 00E0     		b	.L130
 2278              	.L111:
 481:g:/iot/IoT_Device_Demo/iot_link/network/lwm2m/wakaama_lwm2m/wakaama-master/examples/shared\commandline.c ****     default:
 482:g:/iot/IoT_Device_Demo/iot_link/network/lwm2m/wakaama_lwm2m/wakaama-master/examples/shared\commandline.c ****         return "";
 2279              		.loc 1 482 16
 2280 012c 114B     		ldr	r3, .L131+56
 2281              	.L130:
 483:g:/iot/IoT_Device_Demo/iot_link/network/lwm2m/wakaama_lwm2m/wakaama-master/examples/shared\commandline.c ****     }
 484:g:/iot/IoT_Device_Demo/iot_link/network/lwm2m/wakaama_lwm2m/wakaama-master/examples/shared\commandline.c **** }
 2282              		.loc 1 484 1
 2283 012e 1846     		mov	r0, r3
 2284 0130 0C37     		adds	r7, r7, #12
 2285              	.LCFI66:
 2286              		.cfi_def_cfa_offset 4
 2287 0132 BD46     		mov	sp, r7
 2288              	.LCFI67:
 2289              		.cfi_def_cfa_register 13
 2290              		@ sp needed
 2291 0134 5DF8047B 		ldr	r7, [sp], #4
 2292              	.LCFI68:
 2293              		.cfi_restore 7
 2294              		.cfi_def_cfa_offset 0
 2295 0138 7047     		bx	lr
 2296              	.L132:
 2297 013a 00BF     		.align	2
 2298              	.L131:
 2299 013c 2C030000 		.word	.LC44
 2300 0140 3C030000 		.word	.LC45
 2301 0144 48030000 		.word	.LC46
 2302 0148 5C030000 		.word	.LC47
 2303 014c 70030000 		.word	.LC48
 2304 0150 84030000 		.word	.LC49
 2305 0154 98030000 		.word	.LC50
 2306 0158 B0030000 		.word	.LC51
 2307 015c C8030000 		.word	.LC52
 2308 0160 DC030000 		.word	.LC53
 2309 0164 F8030000 		.word	.LC54
 2310 0168 10040000 		.word	.LC55
 2311 016c 30040000 		.word	.LC56
 2312 0170 4C040000 		.word	.LC57
 2313 0174 6C040000 		.word	.LC58
 2314              		.cfi_endproc
 2315              	.LFE16:
 2317              		.section	.rodata
 2318 046d 000000   		.align	2
 2319              	.LC59:
 2320 0470 25642E25 		.ascii	"%d.%02d (%s)\000"
 2320      30326420 
 2320      28257329 
 2320      00
 2321              		.section	.text.print_status,"ax",%progbits
 2322              		.align	1
 2323              		.global	print_status
 2324              		.syntax unified
 2325              		.thumb
 2326              		.thumb_func
 2327              		.fpu fpv4-sp-d16
ARM GAS  C:\Users\ADMINI~1\AppData\Local\Temp\ccT1G34X.s 			page 54


 2329              	print_status:
 2330              	.LFB17:
 485:g:/iot/IoT_Device_Demo/iot_link/network/lwm2m/wakaama_lwm2m/wakaama-master/examples/shared\commandline.c **** 
 486:g:/iot/IoT_Device_Demo/iot_link/network/lwm2m/wakaama_lwm2m/wakaama-master/examples/shared\commandline.c **** void print_status(FILE *stream,
 487:g:/iot/IoT_Device_Demo/iot_link/network/lwm2m/wakaama_lwm2m/wakaama-master/examples/shared\commandline.c ****                   uint8_t status)
 488:g:/iot/IoT_Device_Demo/iot_link/network/lwm2m/wakaama_lwm2m/wakaama-master/examples/shared\commandline.c **** {
 2331              		.loc 1 488 1
 2332              		.cfi_startproc
 2333              		@ args = 0, pretend = 0, frame = 8
 2334              		@ frame_needed = 1, uses_anonymous_args = 0
 2335 0000 B0B5     		push	{r4, r5, r7, lr}
 2336              	.LCFI69:
 2337              		.cfi_def_cfa_offset 16
 2338              		.cfi_offset 4, -16
 2339              		.cfi_offset 5, -12
 2340              		.cfi_offset 7, -8
 2341              		.cfi_offset 14, -4
 2342 0002 84B0     		sub	sp, sp, #16
 2343              	.LCFI70:
 2344              		.cfi_def_cfa_offset 32
 2345 0004 02AF     		add	r7, sp, #8
 2346              	.LCFI71:
 2347              		.cfi_def_cfa 7, 24
 2348 0006 7860     		str	r0, [r7, #4]
 2349 0008 0B46     		mov	r3, r1
 2350 000a FB70     		strb	r3, [r7, #3]
 489:g:/iot/IoT_Device_Demo/iot_link/network/lwm2m/wakaama_lwm2m/wakaama-master/examples/shared\commandline.c ****     fprintf(stream, "%d.%02d (%s)", (status & 0xE0) >> 5, status & 0x1F, prv_status_to_string(statu
 2351              		.loc 1 489 53
 2352 000c FB78     		ldrb	r3, [r7, #3]	@ zero_extendqisi2
 2353 000e 5B09     		lsrs	r3, r3, #5
 2354 0010 DBB2     		uxtb	r3, r3
 2355              		.loc 1 489 5
 2356 0012 1D46     		mov	r5, r3
 2357 0014 FB78     		ldrb	r3, [r7, #3]	@ zero_extendqisi2
 2358 0016 03F01F04 		and	r4, r3, #31
 2359 001a FB78     		ldrb	r3, [r7, #3]	@ zero_extendqisi2
 2360 001c 1846     		mov	r0, r3
 2361 001e FFF7FEFF 		bl	prv_status_to_string
 2362 0022 0346     		mov	r3, r0
 2363 0024 0093     		str	r3, [sp]
 2364 0026 2346     		mov	r3, r4
 2365 0028 2A46     		mov	r2, r5
 2366 002a 0449     		ldr	r1, .L134
 2367 002c 7868     		ldr	r0, [r7, #4]
 2368 002e FFF7FEFF 		bl	fprintf
 490:g:/iot/IoT_Device_Demo/iot_link/network/lwm2m/wakaama_lwm2m/wakaama-master/examples/shared\commandline.c **** }
 2369              		.loc 1 490 1
 2370 0032 00BF     		nop
 2371 0034 0837     		adds	r7, r7, #8
 2372              	.LCFI72:
 2373              		.cfi_def_cfa_offset 16
 2374 0036 BD46     		mov	sp, r7
 2375              	.LCFI73:
 2376              		.cfi_def_cfa_register 13
 2377              		@ sp needed
 2378 0038 B0BD     		pop	{r4, r5, r7, pc}
 2379              	.L135:
ARM GAS  C:\Users\ADMINI~1\AppData\Local\Temp\ccT1G34X.s 			page 55


 2380 003a 00BF     		.align	2
 2381              	.L134:
 2382 003c 70040000 		.word	.LC59
 2383              		.cfi_endproc
 2384              	.LFE17:
 2386              		.section	.text.prv_b64Revert,"ax",%progbits
 2387              		.align	1
 2388              		.syntax unified
 2389              		.thumb
 2390              		.thumb_func
 2391              		.fpu fpv4-sp-d16
 2393              	prv_b64Revert:
 2394              	.LFB18:
 491:g:/iot/IoT_Device_Demo/iot_link/network/lwm2m/wakaama_lwm2m/wakaama-master/examples/shared\commandline.c **** 
 492:g:/iot/IoT_Device_Demo/iot_link/network/lwm2m/wakaama_lwm2m/wakaama-master/examples/shared\commandline.c **** /**********************************************************
 493:g:/iot/IoT_Device_Demo/iot_link/network/lwm2m/wakaama_lwm2m/wakaama-master/examples/shared\commandline.c **** * Base64 decoding function
 494:g:/iot/IoT_Device_Demo/iot_link/network/lwm2m/wakaama_lwm2m/wakaama-master/examples/shared\commandline.c **** *
 495:g:/iot/IoT_Device_Demo/iot_link/network/lwm2m/wakaama_lwm2m/wakaama-master/examples/shared\commandline.c **** * WARNING: Bugged for input strings with length < 4
 496:g:/iot/IoT_Device_Demo/iot_link/network/lwm2m/wakaama_lwm2m/wakaama-master/examples/shared\commandline.c **** *
 497:g:/iot/IoT_Device_Demo/iot_link/network/lwm2m/wakaama_lwm2m/wakaama-master/examples/shared\commandline.c **** */
 498:g:/iot/IoT_Device_Demo/iot_link/network/lwm2m/wakaama_lwm2m/wakaama-master/examples/shared\commandline.c **** 
 499:g:/iot/IoT_Device_Demo/iot_link/network/lwm2m/wakaama_lwm2m/wakaama-master/examples/shared\commandline.c **** #define PRV_B64_PADDING '='
 500:g:/iot/IoT_Device_Demo/iot_link/network/lwm2m/wakaama_lwm2m/wakaama-master/examples/shared\commandline.c **** 
 501:g:/iot/IoT_Device_Demo/iot_link/network/lwm2m/wakaama_lwm2m/wakaama-master/examples/shared\commandline.c **** static uint8_t prv_b64Revert(uint8_t value)
 502:g:/iot/IoT_Device_Demo/iot_link/network/lwm2m/wakaama_lwm2m/wakaama-master/examples/shared\commandline.c **** {
 2395              		.loc 1 502 1
 2396              		.cfi_startproc
 2397              		@ args = 0, pretend = 0, frame = 8
 2398              		@ frame_needed = 1, uses_anonymous_args = 0
 2399              		@ link register save eliminated.
 2400 0000 80B4     		push	{r7}
 2401              	.LCFI74:
 2402              		.cfi_def_cfa_offset 4
 2403              		.cfi_offset 7, -4
 2404 0002 83B0     		sub	sp, sp, #12
 2405              	.LCFI75:
 2406              		.cfi_def_cfa_offset 16
 2407 0004 00AF     		add	r7, sp, #0
 2408              	.LCFI76:
 2409              		.cfi_def_cfa_register 7
 2410 0006 0346     		mov	r3, r0
 2411 0008 FB71     		strb	r3, [r7, #7]
 503:g:/iot/IoT_Device_Demo/iot_link/network/lwm2m/wakaama_lwm2m/wakaama-master/examples/shared\commandline.c ****     if (value >= 'A' && value <= 'Z')
 2412              		.loc 1 503 8
 2413 000a FB79     		ldrb	r3, [r7, #7]	@ zero_extendqisi2
 2414 000c 402B     		cmp	r3, #64
 2415 000e 06D9     		bls	.L137
 2416              		.loc 1 503 22 discriminator 1
 2417 0010 FB79     		ldrb	r3, [r7, #7]	@ zero_extendqisi2
 2418 0012 5A2B     		cmp	r3, #90
 2419 0014 03D8     		bhi	.L137
 504:g:/iot/IoT_Device_Demo/iot_link/network/lwm2m/wakaama_lwm2m/wakaama-master/examples/shared\commandline.c ****     {
 505:g:/iot/IoT_Device_Demo/iot_link/network/lwm2m/wakaama_lwm2m/wakaama-master/examples/shared\commandline.c ****         return (value - 'A');
 2420              		.loc 1 505 23
 2421 0016 FB79     		ldrb	r3, [r7, #7]
 2422 0018 413B     		subs	r3, r3, #65
 2423 001a DBB2     		uxtb	r3, r3
ARM GAS  C:\Users\ADMINI~1\AppData\Local\Temp\ccT1G34X.s 			page 56


 2424 001c 1EE0     		b	.L138
 2425              	.L137:
 506:g:/iot/IoT_Device_Demo/iot_link/network/lwm2m/wakaama_lwm2m/wakaama-master/examples/shared\commandline.c ****     }
 507:g:/iot/IoT_Device_Demo/iot_link/network/lwm2m/wakaama_lwm2m/wakaama-master/examples/shared\commandline.c ****     if (value >= 'a' && value <= 'z')
 2426              		.loc 1 507 8
 2427 001e FB79     		ldrb	r3, [r7, #7]	@ zero_extendqisi2
 2428 0020 602B     		cmp	r3, #96
 2429 0022 06D9     		bls	.L139
 2430              		.loc 1 507 22 discriminator 1
 2431 0024 FB79     		ldrb	r3, [r7, #7]	@ zero_extendqisi2
 2432 0026 7A2B     		cmp	r3, #122
 2433 0028 03D8     		bhi	.L139
 508:g:/iot/IoT_Device_Demo/iot_link/network/lwm2m/wakaama_lwm2m/wakaama-master/examples/shared\commandline.c ****     {
 509:g:/iot/IoT_Device_Demo/iot_link/network/lwm2m/wakaama_lwm2m/wakaama-master/examples/shared\commandline.c ****         return (26 + value - 'a');
 2434              		.loc 1 509 28
 2435 002a FB79     		ldrb	r3, [r7, #7]
 2436 002c 473B     		subs	r3, r3, #71
 2437 002e DBB2     		uxtb	r3, r3
 2438 0030 14E0     		b	.L138
 2439              	.L139:
 510:g:/iot/IoT_Device_Demo/iot_link/network/lwm2m/wakaama_lwm2m/wakaama-master/examples/shared\commandline.c ****     }
 511:g:/iot/IoT_Device_Demo/iot_link/network/lwm2m/wakaama_lwm2m/wakaama-master/examples/shared\commandline.c ****     if (value >= '0' && value <= '9')
 2440              		.loc 1 511 8
 2441 0032 FB79     		ldrb	r3, [r7, #7]	@ zero_extendqisi2
 2442 0034 2F2B     		cmp	r3, #47
 2443 0036 06D9     		bls	.L140
 2444              		.loc 1 511 22 discriminator 1
 2445 0038 FB79     		ldrb	r3, [r7, #7]	@ zero_extendqisi2
 2446 003a 392B     		cmp	r3, #57
 2447 003c 03D8     		bhi	.L140
 512:g:/iot/IoT_Device_Demo/iot_link/network/lwm2m/wakaama_lwm2m/wakaama-master/examples/shared\commandline.c ****     {
 513:g:/iot/IoT_Device_Demo/iot_link/network/lwm2m/wakaama_lwm2m/wakaama-master/examples/shared\commandline.c ****         return (52 + value - '0');
 2448              		.loc 1 513 28
 2449 003e FB79     		ldrb	r3, [r7, #7]
 2450 0040 0433     		adds	r3, r3, #4
 2451 0042 DBB2     		uxtb	r3, r3
 2452 0044 0AE0     		b	.L138
 2453              	.L140:
 514:g:/iot/IoT_Device_Demo/iot_link/network/lwm2m/wakaama_lwm2m/wakaama-master/examples/shared\commandline.c ****     }
 515:g:/iot/IoT_Device_Demo/iot_link/network/lwm2m/wakaama_lwm2m/wakaama-master/examples/shared\commandline.c ****     switch (value)
 2454              		.loc 1 515 5
 2455 0046 FB79     		ldrb	r3, [r7, #7]	@ zero_extendqisi2
 2456 0048 2B2B     		cmp	r3, #43
 2457 004a 02D0     		beq	.L141
 2458 004c 2F2B     		cmp	r3, #47
 2459 004e 02D0     		beq	.L142
 2460 0050 03E0     		b	.L144
 2461              	.L141:
 516:g:/iot/IoT_Device_Demo/iot_link/network/lwm2m/wakaama_lwm2m/wakaama-master/examples/shared\commandline.c ****     {
 517:g:/iot/IoT_Device_Demo/iot_link/network/lwm2m/wakaama_lwm2m/wakaama-master/examples/shared\commandline.c ****     case '+':
 518:g:/iot/IoT_Device_Demo/iot_link/network/lwm2m/wakaama_lwm2m/wakaama-master/examples/shared\commandline.c ****         return 62;
 2462              		.loc 1 518 16
 2463 0052 3E23     		movs	r3, #62
 2464 0054 02E0     		b	.L138
 2465              	.L142:
 519:g:/iot/IoT_Device_Demo/iot_link/network/lwm2m/wakaama_lwm2m/wakaama-master/examples/shared\commandline.c ****     case '/':
 520:g:/iot/IoT_Device_Demo/iot_link/network/lwm2m/wakaama_lwm2m/wakaama-master/examples/shared\commandline.c ****         return 63;
ARM GAS  C:\Users\ADMINI~1\AppData\Local\Temp\ccT1G34X.s 			page 57


 2466              		.loc 1 520 16
 2467 0056 3F23     		movs	r3, #63
 2468 0058 00E0     		b	.L138
 2469              	.L144:
 521:g:/iot/IoT_Device_Demo/iot_link/network/lwm2m/wakaama_lwm2m/wakaama-master/examples/shared\commandline.c ****     default:
 522:g:/iot/IoT_Device_Demo/iot_link/network/lwm2m/wakaama_lwm2m/wakaama-master/examples/shared\commandline.c ****         return 0;
 2470              		.loc 1 522 16
 2471 005a 0023     		movs	r3, #0
 2472              	.L138:
 523:g:/iot/IoT_Device_Demo/iot_link/network/lwm2m/wakaama_lwm2m/wakaama-master/examples/shared\commandline.c ****     }
 524:g:/iot/IoT_Device_Demo/iot_link/network/lwm2m/wakaama_lwm2m/wakaama-master/examples/shared\commandline.c **** }
 2473              		.loc 1 524 1
 2474 005c 1846     		mov	r0, r3
 2475 005e 0C37     		adds	r7, r7, #12
 2476              	.LCFI77:
 2477              		.cfi_def_cfa_offset 4
 2478 0060 BD46     		mov	sp, r7
 2479              	.LCFI78:
 2480              		.cfi_def_cfa_register 13
 2481              		@ sp needed
 2482 0062 5DF8047B 		ldr	r7, [sp], #4
 2483              	.LCFI79:
 2484              		.cfi_restore 7
 2485              		.cfi_def_cfa_offset 0
 2486 0066 7047     		bx	lr
 2487              		.cfi_endproc
 2488              	.LFE18:
 2490              		.section	.text.prv_decodeBlock,"ax",%progbits
 2491              		.align	1
 2492              		.syntax unified
 2493              		.thumb
 2494              		.thumb_func
 2495              		.fpu fpv4-sp-d16
 2497              	prv_decodeBlock:
 2498              	.LFB19:
 525:g:/iot/IoT_Device_Demo/iot_link/network/lwm2m/wakaama_lwm2m/wakaama-master/examples/shared\commandline.c **** 
 526:g:/iot/IoT_Device_Demo/iot_link/network/lwm2m/wakaama_lwm2m/wakaama-master/examples/shared\commandline.c **** static void prv_decodeBlock(uint8_t input[4],
 527:g:/iot/IoT_Device_Demo/iot_link/network/lwm2m/wakaama_lwm2m/wakaama-master/examples/shared\commandline.c ****                             uint8_t output[3])
 528:g:/iot/IoT_Device_Demo/iot_link/network/lwm2m/wakaama_lwm2m/wakaama-master/examples/shared\commandline.c **** {
 2499              		.loc 1 528 1
 2500              		.cfi_startproc
 2501              		@ args = 0, pretend = 0, frame = 16
 2502              		@ frame_needed = 1, uses_anonymous_args = 0
 2503 0000 80B5     		push	{r7, lr}
 2504              	.LCFI80:
 2505              		.cfi_def_cfa_offset 8
 2506              		.cfi_offset 7, -8
 2507              		.cfi_offset 14, -4
 2508 0002 84B0     		sub	sp, sp, #16
 2509              	.LCFI81:
 2510              		.cfi_def_cfa_offset 24
 2511 0004 00AF     		add	r7, sp, #0
 2512              	.LCFI82:
 2513              		.cfi_def_cfa_register 7
 2514 0006 7860     		str	r0, [r7, #4]
 2515 0008 3960     		str	r1, [r7]
 529:g:/iot/IoT_Device_Demo/iot_link/network/lwm2m/wakaama_lwm2m/wakaama-master/examples/shared\commandline.c ****     uint8_t tmp[4];
ARM GAS  C:\Users\ADMINI~1\AppData\Local\Temp\ccT1G34X.s 			page 58


 530:g:/iot/IoT_Device_Demo/iot_link/network/lwm2m/wakaama_lwm2m/wakaama-master/examples/shared\commandline.c ****     int i;
 531:g:/iot/IoT_Device_Demo/iot_link/network/lwm2m/wakaama_lwm2m/wakaama-master/examples/shared\commandline.c **** 
 532:g:/iot/IoT_Device_Demo/iot_link/network/lwm2m/wakaama_lwm2m/wakaama-master/examples/shared\commandline.c ****     memset(output, 0, 3);
 2516              		.loc 1 532 5
 2517 000a 0322     		movs	r2, #3
 2518 000c 0021     		movs	r1, #0
 2519 000e 3868     		ldr	r0, [r7]
 2520 0010 FFF7FEFF 		bl	memset
 533:g:/iot/IoT_Device_Demo/iot_link/network/lwm2m/wakaama_lwm2m/wakaama-master/examples/shared\commandline.c **** 
 534:g:/iot/IoT_Device_Demo/iot_link/network/lwm2m/wakaama_lwm2m/wakaama-master/examples/shared\commandline.c ****     for (i = 0; i < 4; i++)
 2521              		.loc 1 534 12
 2522 0014 0023     		movs	r3, #0
 2523 0016 FB60     		str	r3, [r7, #12]
 2524              		.loc 1 534 5
 2525 0018 11E0     		b	.L146
 2526              	.L147:
 535:g:/iot/IoT_Device_Demo/iot_link/network/lwm2m/wakaama_lwm2m/wakaama-master/examples/shared\commandline.c ****     {
 536:g:/iot/IoT_Device_Demo/iot_link/network/lwm2m/wakaama_lwm2m/wakaama-master/examples/shared\commandline.c ****         tmp[i] = prv_b64Revert(input[i]);
 2527              		.loc 1 536 37 discriminator 3
 2528 001a FB68     		ldr	r3, [r7, #12]
 2529 001c 7A68     		ldr	r2, [r7, #4]
 2530 001e 1344     		add	r3, r3, r2
 2531              		.loc 1 536 18 discriminator 3
 2532 0020 1B78     		ldrb	r3, [r3]	@ zero_extendqisi2
 2533 0022 1846     		mov	r0, r3
 2534 0024 FFF7FEFF 		bl	prv_b64Revert
 2535 0028 0346     		mov	r3, r0
 2536 002a 1946     		mov	r1, r3
 2537              		.loc 1 536 16 discriminator 3
 2538 002c 07F10802 		add	r2, r7, #8
 2539 0030 FB68     		ldr	r3, [r7, #12]
 2540 0032 1344     		add	r3, r3, r2
 2541 0034 0A46     		mov	r2, r1
 2542 0036 1A70     		strb	r2, [r3]
 534:g:/iot/IoT_Device_Demo/iot_link/network/lwm2m/wakaama_lwm2m/wakaama-master/examples/shared\commandline.c ****     {
 2543              		.loc 1 534 25 discriminator 3
 2544 0038 FB68     		ldr	r3, [r7, #12]
 2545 003a 0133     		adds	r3, r3, #1
 2546 003c FB60     		str	r3, [r7, #12]
 2547              	.L146:
 534:g:/iot/IoT_Device_Demo/iot_link/network/lwm2m/wakaama_lwm2m/wakaama-master/examples/shared\commandline.c ****     {
 2548              		.loc 1 534 5 discriminator 1
 2549 003e FB68     		ldr	r3, [r7, #12]
 2550 0040 032B     		cmp	r3, #3
 2551 0042 EADD     		ble	.L147
 537:g:/iot/IoT_Device_Demo/iot_link/network/lwm2m/wakaama_lwm2m/wakaama-master/examples/shared\commandline.c ****     }
 538:g:/iot/IoT_Device_Demo/iot_link/network/lwm2m/wakaama_lwm2m/wakaama-master/examples/shared\commandline.c **** 
 539:g:/iot/IoT_Device_Demo/iot_link/network/lwm2m/wakaama_lwm2m/wakaama-master/examples/shared\commandline.c ****     output[0] = (tmp[0] << 2) | (tmp[1] >> 4);
 2552              		.loc 1 539 21
 2553 0044 3B7A     		ldrb	r3, [r7, #8]	@ zero_extendqisi2
 2554              		.loc 1 539 25
 2555 0046 9B00     		lsls	r3, r3, #2
 2556              		.loc 1 539 31
 2557 0048 5AB2     		sxtb	r2, r3
 2558              		.loc 1 539 37
 2559 004a 7B7A     		ldrb	r3, [r7, #9]	@ zero_extendqisi2
 2560              		.loc 1 539 31
ARM GAS  C:\Users\ADMINI~1\AppData\Local\Temp\ccT1G34X.s 			page 59


 2561 004c 1B09     		lsrs	r3, r3, #4
 2562 004e DBB2     		uxtb	r3, r3
 2563 0050 5BB2     		sxtb	r3, r3
 2564 0052 1343     		orrs	r3, r3, r2
 2565 0054 5BB2     		sxtb	r3, r3
 2566 0056 DAB2     		uxtb	r2, r3
 2567              		.loc 1 539 15
 2568 0058 3B68     		ldr	r3, [r7]
 2569 005a 1A70     		strb	r2, [r3]
 540:g:/iot/IoT_Device_Demo/iot_link/network/lwm2m/wakaama_lwm2m/wakaama-master/examples/shared\commandline.c ****     output[1] = (tmp[1] << 4) | (tmp[2] >> 2);
 2570              		.loc 1 540 21
 2571 005c 7B7A     		ldrb	r3, [r7, #9]	@ zero_extendqisi2
 2572              		.loc 1 540 25
 2573 005e 1B01     		lsls	r3, r3, #4
 2574              		.loc 1 540 31
 2575 0060 5AB2     		sxtb	r2, r3
 2576              		.loc 1 540 37
 2577 0062 BB7A     		ldrb	r3, [r7, #10]	@ zero_extendqisi2
 2578              		.loc 1 540 31
 2579 0064 9B08     		lsrs	r3, r3, #2
 2580 0066 DBB2     		uxtb	r3, r3
 2581 0068 5BB2     		sxtb	r3, r3
 2582 006a 1343     		orrs	r3, r3, r2
 2583 006c 5AB2     		sxtb	r2, r3
 2584              		.loc 1 540 11
 2585 006e 3B68     		ldr	r3, [r7]
 2586 0070 0133     		adds	r3, r3, #1
 2587              		.loc 1 540 31
 2588 0072 D2B2     		uxtb	r2, r2
 2589              		.loc 1 540 15
 2590 0074 1A70     		strb	r2, [r3]
 541:g:/iot/IoT_Device_Demo/iot_link/network/lwm2m/wakaama_lwm2m/wakaama-master/examples/shared\commandline.c ****     output[2] = (tmp[2] << 6) | tmp[3];
 2591              		.loc 1 541 21
 2592 0076 BB7A     		ldrb	r3, [r7, #10]	@ zero_extendqisi2
 2593              		.loc 1 541 25
 2594 0078 9B01     		lsls	r3, r3, #6
 2595              		.loc 1 541 31
 2596 007a 5AB2     		sxtb	r2, r3
 2597              		.loc 1 541 36
 2598 007c FB7A     		ldrb	r3, [r7, #11]	@ zero_extendqisi2
 2599 007e 5BB2     		sxtb	r3, r3
 2600              		.loc 1 541 31
 2601 0080 1343     		orrs	r3, r3, r2
 2602 0082 5AB2     		sxtb	r2, r3
 2603              		.loc 1 541 11
 2604 0084 3B68     		ldr	r3, [r7]
 2605 0086 0233     		adds	r3, r3, #2
 2606              		.loc 1 541 31
 2607 0088 D2B2     		uxtb	r2, r2
 2608              		.loc 1 541 15
 2609 008a 1A70     		strb	r2, [r3]
 542:g:/iot/IoT_Device_Demo/iot_link/network/lwm2m/wakaama_lwm2m/wakaama-master/examples/shared\commandline.c **** }
 2610              		.loc 1 542 1
 2611 008c 00BF     		nop
 2612 008e 1037     		adds	r7, r7, #16
 2613              	.LCFI83:
 2614              		.cfi_def_cfa_offset 8
ARM GAS  C:\Users\ADMINI~1\AppData\Local\Temp\ccT1G34X.s 			page 60


 2615 0090 BD46     		mov	sp, r7
 2616              	.LCFI84:
 2617              		.cfi_def_cfa_register 13
 2618              		@ sp needed
 2619 0092 80BD     		pop	{r7, pc}
 2620              		.cfi_endproc
 2621              	.LFE19:
 2623              		.section	.text.base64_decode,"ax",%progbits
 2624              		.align	1
 2625              		.global	base64_decode
 2626              		.syntax unified
 2627              		.thumb
 2628              		.thumb_func
 2629              		.fpu fpv4-sp-d16
 2631              	base64_decode:
 2632              	.LFB20:
 543:g:/iot/IoT_Device_Demo/iot_link/network/lwm2m/wakaama_lwm2m/wakaama-master/examples/shared\commandline.c **** 
 544:g:/iot/IoT_Device_Demo/iot_link/network/lwm2m/wakaama_lwm2m/wakaama-master/examples/shared\commandline.c **** size_t base64_decode(uint8_t *dataP,
 545:g:/iot/IoT_Device_Demo/iot_link/network/lwm2m/wakaama_lwm2m/wakaama-master/examples/shared\commandline.c ****                      size_t dataLen,
 546:g:/iot/IoT_Device_Demo/iot_link/network/lwm2m/wakaama_lwm2m/wakaama-master/examples/shared\commandline.c ****                      uint8_t **bufferP)
 547:g:/iot/IoT_Device_Demo/iot_link/network/lwm2m/wakaama_lwm2m/wakaama-master/examples/shared\commandline.c **** {
 2633              		.loc 1 547 1
 2634              		.cfi_startproc
 2635              		@ args = 0, pretend = 0, frame = 40
 2636              		@ frame_needed = 1, uses_anonymous_args = 0
 2637 0000 80B5     		push	{r7, lr}
 2638              	.LCFI85:
 2639              		.cfi_def_cfa_offset 8
 2640              		.cfi_offset 7, -8
 2641              		.cfi_offset 14, -4
 2642 0002 8AB0     		sub	sp, sp, #40
 2643              	.LCFI86:
 2644              		.cfi_def_cfa_offset 48
 2645 0004 00AF     		add	r7, sp, #0
 2646              	.LCFI87:
 2647              		.cfi_def_cfa_register 7
 2648 0006 F860     		str	r0, [r7, #12]
 2649 0008 B960     		str	r1, [r7, #8]
 2650 000a 7A60     		str	r2, [r7, #4]
 548:g:/iot/IoT_Device_Demo/iot_link/network/lwm2m/wakaama_lwm2m/wakaama-master/examples/shared\commandline.c ****     size_t data_index;
 549:g:/iot/IoT_Device_Demo/iot_link/network/lwm2m/wakaama_lwm2m/wakaama-master/examples/shared\commandline.c ****     size_t result_index;
 550:g:/iot/IoT_Device_Demo/iot_link/network/lwm2m/wakaama_lwm2m/wakaama-master/examples/shared\commandline.c ****     size_t result_len;
 551:g:/iot/IoT_Device_Demo/iot_link/network/lwm2m/wakaama_lwm2m/wakaama-master/examples/shared\commandline.c **** 
 552:g:/iot/IoT_Device_Demo/iot_link/network/lwm2m/wakaama_lwm2m/wakaama-master/examples/shared\commandline.c ****     if (dataLen % 4) return 0;
 2651              		.loc 1 552 17
 2652 000c BB68     		ldr	r3, [r7, #8]
 2653 000e 03F00303 		and	r3, r3, #3
 2654              		.loc 1 552 8
 2655 0012 002B     		cmp	r3, #0
 2656 0014 01D0     		beq	.L149
 2657              		.loc 1 552 29 discriminator 1
 2658 0016 0023     		movs	r3, #0
 2659 0018 E2E0     		b	.L150
 2660              	.L149:
 553:g:/iot/IoT_Device_Demo/iot_link/network/lwm2m/wakaama_lwm2m/wakaama-master/examples/shared\commandline.c **** 
 554:g:/iot/IoT_Device_Demo/iot_link/network/lwm2m/wakaama_lwm2m/wakaama-master/examples/shared\commandline.c ****     result_len = (dataLen >> 2) * 3;
 2661              		.loc 1 554 27
ARM GAS  C:\Users\ADMINI~1\AppData\Local\Temp\ccT1G34X.s 			page 61


 2662 001a BB68     		ldr	r3, [r7, #8]
 2663 001c 9A08     		lsrs	r2, r3, #2
 2664              		.loc 1 554 16
 2665 001e 1346     		mov	r3, r2
 2666 0020 5B00     		lsls	r3, r3, #1
 2667 0022 1344     		add	r3, r3, r2
 2668 0024 FB61     		str	r3, [r7, #28]
 555:g:/iot/IoT_Device_Demo/iot_link/network/lwm2m/wakaama_lwm2m/wakaama-master/examples/shared\commandline.c ****     *bufferP = (uint8_t *)lwm2m_malloc(result_len);
 2669              		.loc 1 555 27
 2670 0026 F869     		ldr	r0, [r7, #28]
 2671 0028 FFF7FEFF 		bl	lwm2m_malloc
 2672 002c 0246     		mov	r2, r0
 2673              		.loc 1 555 14
 2674 002e 7B68     		ldr	r3, [r7, #4]
 2675 0030 1A60     		str	r2, [r3]
 556:g:/iot/IoT_Device_Demo/iot_link/network/lwm2m/wakaama_lwm2m/wakaama-master/examples/shared\commandline.c ****     if (NULL == *bufferP) return 0;
 2676              		.loc 1 556 17
 2677 0032 7B68     		ldr	r3, [r7, #4]
 2678 0034 1B68     		ldr	r3, [r3]
 2679              		.loc 1 556 8
 2680 0036 002B     		cmp	r3, #0
 2681 0038 01D1     		bne	.L151
 2682              		.loc 1 556 34 discriminator 1
 2683 003a 0023     		movs	r3, #0
 2684 003c D0E0     		b	.L150
 2685              	.L151:
 557:g:/iot/IoT_Device_Demo/iot_link/network/lwm2m/wakaama_lwm2m/wakaama-master/examples/shared\commandline.c ****     memset(*bufferP, 0, result_len);
 2686              		.loc 1 557 5
 2687 003e 7B68     		ldr	r3, [r7, #4]
 2688 0040 1B68     		ldr	r3, [r3]
 2689 0042 FA69     		ldr	r2, [r7, #28]
 2690 0044 0021     		movs	r1, #0
 2691 0046 1846     		mov	r0, r3
 2692 0048 FFF7FEFF 		bl	memset
 558:g:/iot/IoT_Device_Demo/iot_link/network/lwm2m/wakaama_lwm2m/wakaama-master/examples/shared\commandline.c **** 
 559:g:/iot/IoT_Device_Demo/iot_link/network/lwm2m/wakaama_lwm2m/wakaama-master/examples/shared\commandline.c ****     // remove padding
 560:g:/iot/IoT_Device_Demo/iot_link/network/lwm2m/wakaama_lwm2m/wakaama-master/examples/shared\commandline.c ****     while (dataP[dataLen - 1] == PRV_B64_PADDING)
 2693              		.loc 1 560 11
 2694 004c 02E0     		b	.L152
 2695              	.L153:
 561:g:/iot/IoT_Device_Demo/iot_link/network/lwm2m/wakaama_lwm2m/wakaama-master/examples/shared\commandline.c ****     {
 562:g:/iot/IoT_Device_Demo/iot_link/network/lwm2m/wakaama_lwm2m/wakaama-master/examples/shared\commandline.c ****         dataLen--;
 2696              		.loc 1 562 16
 2697 004e BB68     		ldr	r3, [r7, #8]
 2698 0050 013B     		subs	r3, r3, #1
 2699 0052 BB60     		str	r3, [r7, #8]
 2700              	.L152:
 560:g:/iot/IoT_Device_Demo/iot_link/network/lwm2m/wakaama_lwm2m/wakaama-master/examples/shared\commandline.c ****     {
 2701              		.loc 1 560 17
 2702 0054 BB68     		ldr	r3, [r7, #8]
 2703 0056 013B     		subs	r3, r3, #1
 2704 0058 FA68     		ldr	r2, [r7, #12]
 2705 005a 1344     		add	r3, r3, r2
 2706 005c 1B78     		ldrb	r3, [r3]	@ zero_extendqisi2
 560:g:/iot/IoT_Device_Demo/iot_link/network/lwm2m/wakaama_lwm2m/wakaama-master/examples/shared\commandline.c ****     {
 2707              		.loc 1 560 11
 2708 005e 3D2B     		cmp	r3, #61
ARM GAS  C:\Users\ADMINI~1\AppData\Local\Temp\ccT1G34X.s 			page 62


 2709 0060 F5D0     		beq	.L153
 563:g:/iot/IoT_Device_Demo/iot_link/network/lwm2m/wakaama_lwm2m/wakaama-master/examples/shared\commandline.c ****     }
 564:g:/iot/IoT_Device_Demo/iot_link/network/lwm2m/wakaama_lwm2m/wakaama-master/examples/shared\commandline.c **** 
 565:g:/iot/IoT_Device_Demo/iot_link/network/lwm2m/wakaama_lwm2m/wakaama-master/examples/shared\commandline.c ****     data_index = 0;
 2710              		.loc 1 565 16
 2711 0062 0023     		movs	r3, #0
 2712 0064 7B62     		str	r3, [r7, #36]
 566:g:/iot/IoT_Device_Demo/iot_link/network/lwm2m/wakaama_lwm2m/wakaama-master/examples/shared\commandline.c ****     result_index = 0;
 2713              		.loc 1 566 18
 2714 0066 0023     		movs	r3, #0
 2715 0068 3B62     		str	r3, [r7, #32]
 567:g:/iot/IoT_Device_Demo/iot_link/network/lwm2m/wakaama_lwm2m/wakaama-master/examples/shared\commandline.c ****     while (data_index < dataLen)
 2716              		.loc 1 567 11
 2717 006a 0FE0     		b	.L154
 2718              	.L155:
 568:g:/iot/IoT_Device_Demo/iot_link/network/lwm2m/wakaama_lwm2m/wakaama-master/examples/shared\commandline.c ****     {
 569:g:/iot/IoT_Device_Demo/iot_link/network/lwm2m/wakaama_lwm2m/wakaama-master/examples/shared\commandline.c ****         prv_decodeBlock(dataP + data_index, *bufferP + result_index);
 2719              		.loc 1 569 9
 2720 006c FA68     		ldr	r2, [r7, #12]
 2721 006e 7B6A     		ldr	r3, [r7, #36]
 2722 0070 D018     		adds	r0, r2, r3
 2723              		.loc 1 569 45
 2724 0072 7B68     		ldr	r3, [r7, #4]
 2725 0074 1A68     		ldr	r2, [r3]
 2726              		.loc 1 569 9
 2727 0076 3B6A     		ldr	r3, [r7, #32]
 2728 0078 1344     		add	r3, r3, r2
 2729 007a 1946     		mov	r1, r3
 2730 007c FFF7FEFF 		bl	prv_decodeBlock
 570:g:/iot/IoT_Device_Demo/iot_link/network/lwm2m/wakaama_lwm2m/wakaama-master/examples/shared\commandline.c ****         data_index += 4;
 2731              		.loc 1 570 20
 2732 0080 7B6A     		ldr	r3, [r7, #36]
 2733 0082 0433     		adds	r3, r3, #4
 2734 0084 7B62     		str	r3, [r7, #36]
 571:g:/iot/IoT_Device_Demo/iot_link/network/lwm2m/wakaama_lwm2m/wakaama-master/examples/shared\commandline.c ****         result_index += 3;
 2735              		.loc 1 571 22
 2736 0086 3B6A     		ldr	r3, [r7, #32]
 2737 0088 0333     		adds	r3, r3, #3
 2738 008a 3B62     		str	r3, [r7, #32]
 2739              	.L154:
 567:g:/iot/IoT_Device_Demo/iot_link/network/lwm2m/wakaama_lwm2m/wakaama-master/examples/shared\commandline.c ****     {
 2740              		.loc 1 567 11
 2741 008c 7A6A     		ldr	r2, [r7, #36]
 2742 008e BB68     		ldr	r3, [r7, #8]
 2743 0090 9A42     		cmp	r2, r3
 2744 0092 EBD3     		bcc	.L155
 572:g:/iot/IoT_Device_Demo/iot_link/network/lwm2m/wakaama_lwm2m/wakaama-master/examples/shared\commandline.c ****     }
 573:g:/iot/IoT_Device_Demo/iot_link/network/lwm2m/wakaama_lwm2m/wakaama-master/examples/shared\commandline.c ****     switch (data_index - dataLen)
 2745              		.loc 1 573 24
 2746 0094 7A6A     		ldr	r2, [r7, #36]
 2747 0096 BB68     		ldr	r3, [r7, #8]
 2748 0098 D31A     		subs	r3, r2, r3
 2749              		.loc 1 573 5
 2750 009a 032B     		cmp	r3, #3
 2751 009c 3FD0     		beq	.L156
 2752 009e 032B     		cmp	r3, #3
 2753 00a0 00F29180 		bhi	.L157
ARM GAS  C:\Users\ADMINI~1\AppData\Local\Temp\ccT1G34X.s 			page 63


 2754 00a4 002B     		cmp	r3, #0
 2755 00a6 00F09980 		beq	.L161
 2756 00aa 022B     		cmp	r3, #2
 2757 00ac 40F08B80 		bne	.L157
 2758              	.LBB4:
 574:g:/iot/IoT_Device_Demo/iot_link/network/lwm2m/wakaama_lwm2m/wakaama-master/examples/shared\commandline.c ****     {
 575:g:/iot/IoT_Device_Demo/iot_link/network/lwm2m/wakaama_lwm2m/wakaama-master/examples/shared\commandline.c ****     case 0:
 576:g:/iot/IoT_Device_Demo/iot_link/network/lwm2m/wakaama_lwm2m/wakaama-master/examples/shared\commandline.c ****         break;
 577:g:/iot/IoT_Device_Demo/iot_link/network/lwm2m/wakaama_lwm2m/wakaama-master/examples/shared\commandline.c ****     case 2:
 578:g:/iot/IoT_Device_Demo/iot_link/network/lwm2m/wakaama_lwm2m/wakaama-master/examples/shared\commandline.c ****     {
 579:g:/iot/IoT_Device_Demo/iot_link/network/lwm2m/wakaama_lwm2m/wakaama-master/examples/shared\commandline.c ****         uint8_t tmp[2];
 580:g:/iot/IoT_Device_Demo/iot_link/network/lwm2m/wakaama_lwm2m/wakaama-master/examples/shared\commandline.c **** 
 581:g:/iot/IoT_Device_Demo/iot_link/network/lwm2m/wakaama_lwm2m/wakaama-master/examples/shared\commandline.c ****         tmp[0] = prv_b64Revert(dataP[dataLen - 2]);
 2759              		.loc 1 581 37
 2760 00b0 BB68     		ldr	r3, [r7, #8]
 2761 00b2 023B     		subs	r3, r3, #2
 2762 00b4 FA68     		ldr	r2, [r7, #12]
 2763 00b6 1344     		add	r3, r3, r2
 2764              		.loc 1 581 18
 2765 00b8 1B78     		ldrb	r3, [r3]	@ zero_extendqisi2
 2766 00ba 1846     		mov	r0, r3
 2767 00bc FFF7FEFF 		bl	prv_b64Revert
 2768 00c0 0346     		mov	r3, r0
 2769              		.loc 1 581 16
 2770 00c2 3B76     		strb	r3, [r7, #24]
 582:g:/iot/IoT_Device_Demo/iot_link/network/lwm2m/wakaama_lwm2m/wakaama-master/examples/shared\commandline.c ****         tmp[1] = prv_b64Revert(dataP[dataLen - 1]);
 2771              		.loc 1 582 37
 2772 00c4 BB68     		ldr	r3, [r7, #8]
 2773 00c6 013B     		subs	r3, r3, #1
 2774 00c8 FA68     		ldr	r2, [r7, #12]
 2775 00ca 1344     		add	r3, r3, r2
 2776              		.loc 1 582 18
 2777 00cc 1B78     		ldrb	r3, [r3]	@ zero_extendqisi2
 2778 00ce 1846     		mov	r0, r3
 2779 00d0 FFF7FEFF 		bl	prv_b64Revert
 2780 00d4 0346     		mov	r3, r0
 2781              		.loc 1 582 16
 2782 00d6 7B76     		strb	r3, [r7, #25]
 583:g:/iot/IoT_Device_Demo/iot_link/network/lwm2m/wakaama_lwm2m/wakaama-master/examples/shared\commandline.c **** 
 584:g:/iot/IoT_Device_Demo/iot_link/network/lwm2m/wakaama_lwm2m/wakaama-master/examples/shared\commandline.c ****         *bufferP[result_index - 3] = (tmp[0] << 2) | (tmp[1] >> 4);
 2783              		.loc 1 584 42
 2784 00d8 3B7E     		ldrb	r3, [r7, #24]	@ zero_extendqisi2
 2785              		.loc 1 584 46
 2786 00da 9B00     		lsls	r3, r3, #2
 2787              		.loc 1 584 52
 2788 00dc 5AB2     		sxtb	r2, r3
 2789              		.loc 1 584 58
 2790 00de 7B7E     		ldrb	r3, [r7, #25]	@ zero_extendqisi2
 2791              		.loc 1 584 52
 2792 00e0 1B09     		lsrs	r3, r3, #4
 2793 00e2 DBB2     		uxtb	r3, r3
 2794 00e4 5BB2     		sxtb	r3, r3
 2795 00e6 1343     		orrs	r3, r3, r2
 2796 00e8 59B2     		sxtb	r1, r3
 2797              		.loc 1 584 17
 2798 00ea 3B6A     		ldr	r3, [r7, #32]
 2799 00ec 03F18043 		add	r3, r3, #1073741824
ARM GAS  C:\Users\ADMINI~1\AppData\Local\Temp\ccT1G34X.s 			page 64


 2800 00f0 033B     		subs	r3, r3, #3
 2801 00f2 9B00     		lsls	r3, r3, #2
 2802 00f4 7A68     		ldr	r2, [r7, #4]
 2803 00f6 1344     		add	r3, r3, r2
 2804 00f8 1B68     		ldr	r3, [r3]
 2805              		.loc 1 584 52
 2806 00fa CAB2     		uxtb	r2, r1
 2807              		.loc 1 584 36
 2808 00fc 1A70     		strb	r2, [r3]
 585:g:/iot/IoT_Device_Demo/iot_link/network/lwm2m/wakaama_lwm2m/wakaama-master/examples/shared\commandline.c ****         *bufferP[result_index - 2] = (tmp[1] << 4);
 2809              		.loc 1 585 42
 2810 00fe 7A7E     		ldrb	r2, [r7, #25]	@ zero_extendqisi2
 2811              		.loc 1 585 17
 2812 0100 3B6A     		ldr	r3, [r7, #32]
 2813 0102 03F18043 		add	r3, r3, #1073741824
 2814 0106 023B     		subs	r3, r3, #2
 2815 0108 9B00     		lsls	r3, r3, #2
 2816 010a 7968     		ldr	r1, [r7, #4]
 2817 010c 0B44     		add	r3, r3, r1
 2818 010e 1B68     		ldr	r3, [r3]
 2819              		.loc 1 585 46
 2820 0110 1201     		lsls	r2, r2, #4
 2821 0112 D2B2     		uxtb	r2, r2
 2822              		.loc 1 585 36
 2823 0114 1A70     		strb	r2, [r3]
 586:g:/iot/IoT_Device_Demo/iot_link/network/lwm2m/wakaama_lwm2m/wakaama-master/examples/shared\commandline.c ****         result_len -= 2;
 2824              		.loc 1 586 20
 2825 0116 FB69     		ldr	r3, [r7, #28]
 2826 0118 023B     		subs	r3, r3, #2
 2827 011a FB61     		str	r3, [r7, #28]
 2828              	.LBE4:
 587:g:/iot/IoT_Device_Demo/iot_link/network/lwm2m/wakaama_lwm2m/wakaama-master/examples/shared\commandline.c ****     }
 588:g:/iot/IoT_Device_Demo/iot_link/network/lwm2m/wakaama_lwm2m/wakaama-master/examples/shared\commandline.c ****     break;
 2829              		.loc 1 588 5
 2830 011c 5FE0     		b	.L160
 2831              	.L156:
 2832              	.LBB5:
 589:g:/iot/IoT_Device_Demo/iot_link/network/lwm2m/wakaama_lwm2m/wakaama-master/examples/shared\commandline.c ****     case 3:
 590:g:/iot/IoT_Device_Demo/iot_link/network/lwm2m/wakaama_lwm2m/wakaama-master/examples/shared\commandline.c ****     {
 591:g:/iot/IoT_Device_Demo/iot_link/network/lwm2m/wakaama_lwm2m/wakaama-master/examples/shared\commandline.c ****         uint8_t tmp[3];
 592:g:/iot/IoT_Device_Demo/iot_link/network/lwm2m/wakaama_lwm2m/wakaama-master/examples/shared\commandline.c **** 
 593:g:/iot/IoT_Device_Demo/iot_link/network/lwm2m/wakaama_lwm2m/wakaama-master/examples/shared\commandline.c ****         tmp[0] = prv_b64Revert(dataP[dataLen - 3]);
 2833              		.loc 1 593 37
 2834 011e BB68     		ldr	r3, [r7, #8]
 2835 0120 033B     		subs	r3, r3, #3
 2836 0122 FA68     		ldr	r2, [r7, #12]
 2837 0124 1344     		add	r3, r3, r2
 2838              		.loc 1 593 18
 2839 0126 1B78     		ldrb	r3, [r3]	@ zero_extendqisi2
 2840 0128 1846     		mov	r0, r3
 2841 012a FFF7FEFF 		bl	prv_b64Revert
 2842 012e 0346     		mov	r3, r0
 2843              		.loc 1 593 16
 2844 0130 3B75     		strb	r3, [r7, #20]
 594:g:/iot/IoT_Device_Demo/iot_link/network/lwm2m/wakaama_lwm2m/wakaama-master/examples/shared\commandline.c ****         tmp[1] = prv_b64Revert(dataP[dataLen - 2]);
 2845              		.loc 1 594 37
 2846 0132 BB68     		ldr	r3, [r7, #8]
ARM GAS  C:\Users\ADMINI~1\AppData\Local\Temp\ccT1G34X.s 			page 65


 2847 0134 023B     		subs	r3, r3, #2
 2848 0136 FA68     		ldr	r2, [r7, #12]
 2849 0138 1344     		add	r3, r3, r2
 2850              		.loc 1 594 18
 2851 013a 1B78     		ldrb	r3, [r3]	@ zero_extendqisi2
 2852 013c 1846     		mov	r0, r3
 2853 013e FFF7FEFF 		bl	prv_b64Revert
 2854 0142 0346     		mov	r3, r0
 2855              		.loc 1 594 16
 2856 0144 7B75     		strb	r3, [r7, #21]
 595:g:/iot/IoT_Device_Demo/iot_link/network/lwm2m/wakaama_lwm2m/wakaama-master/examples/shared\commandline.c ****         tmp[2] = prv_b64Revert(dataP[dataLen - 1]);
 2857              		.loc 1 595 37
 2858 0146 BB68     		ldr	r3, [r7, #8]
 2859 0148 013B     		subs	r3, r3, #1
 2860 014a FA68     		ldr	r2, [r7, #12]
 2861 014c 1344     		add	r3, r3, r2
 2862              		.loc 1 595 18
 2863 014e 1B78     		ldrb	r3, [r3]	@ zero_extendqisi2
 2864 0150 1846     		mov	r0, r3
 2865 0152 FFF7FEFF 		bl	prv_b64Revert
 2866 0156 0346     		mov	r3, r0
 2867              		.loc 1 595 16
 2868 0158 BB75     		strb	r3, [r7, #22]
 596:g:/iot/IoT_Device_Demo/iot_link/network/lwm2m/wakaama_lwm2m/wakaama-master/examples/shared\commandline.c **** 
 597:g:/iot/IoT_Device_Demo/iot_link/network/lwm2m/wakaama_lwm2m/wakaama-master/examples/shared\commandline.c ****         *bufferP[result_index - 3] = (tmp[0] << 2) | (tmp[1] >> 4);
 2869              		.loc 1 597 42
 2870 015a 3B7D     		ldrb	r3, [r7, #20]	@ zero_extendqisi2
 2871              		.loc 1 597 46
 2872 015c 9B00     		lsls	r3, r3, #2
 2873              		.loc 1 597 52
 2874 015e 5AB2     		sxtb	r2, r3
 2875              		.loc 1 597 58
 2876 0160 7B7D     		ldrb	r3, [r7, #21]	@ zero_extendqisi2
 2877              		.loc 1 597 52
 2878 0162 1B09     		lsrs	r3, r3, #4
 2879 0164 DBB2     		uxtb	r3, r3
 2880 0166 5BB2     		sxtb	r3, r3
 2881 0168 1343     		orrs	r3, r3, r2
 2882 016a 59B2     		sxtb	r1, r3
 2883              		.loc 1 597 17
 2884 016c 3B6A     		ldr	r3, [r7, #32]
 2885 016e 03F18043 		add	r3, r3, #1073741824
 2886 0172 033B     		subs	r3, r3, #3
 2887 0174 9B00     		lsls	r3, r3, #2
 2888 0176 7A68     		ldr	r2, [r7, #4]
 2889 0178 1344     		add	r3, r3, r2
 2890 017a 1B68     		ldr	r3, [r3]
 2891              		.loc 1 597 52
 2892 017c CAB2     		uxtb	r2, r1
 2893              		.loc 1 597 36
 2894 017e 1A70     		strb	r2, [r3]
 598:g:/iot/IoT_Device_Demo/iot_link/network/lwm2m/wakaama_lwm2m/wakaama-master/examples/shared\commandline.c ****         *bufferP[result_index - 2] = (tmp[1] << 4) | (tmp[2] >> 2);
 2895              		.loc 1 598 42
 2896 0180 7B7D     		ldrb	r3, [r7, #21]	@ zero_extendqisi2
 2897              		.loc 1 598 46
 2898 0182 1B01     		lsls	r3, r3, #4
 2899              		.loc 1 598 52
ARM GAS  C:\Users\ADMINI~1\AppData\Local\Temp\ccT1G34X.s 			page 66


 2900 0184 5AB2     		sxtb	r2, r3
 2901              		.loc 1 598 58
 2902 0186 BB7D     		ldrb	r3, [r7, #22]	@ zero_extendqisi2
 2903              		.loc 1 598 52
 2904 0188 9B08     		lsrs	r3, r3, #2
 2905 018a DBB2     		uxtb	r3, r3
 2906 018c 5BB2     		sxtb	r3, r3
 2907 018e 1343     		orrs	r3, r3, r2
 2908 0190 59B2     		sxtb	r1, r3
 2909              		.loc 1 598 17
 2910 0192 3B6A     		ldr	r3, [r7, #32]
 2911 0194 03F18043 		add	r3, r3, #1073741824
 2912 0198 023B     		subs	r3, r3, #2
 2913 019a 9B00     		lsls	r3, r3, #2
 2914 019c 7A68     		ldr	r2, [r7, #4]
 2915 019e 1344     		add	r3, r3, r2
 2916 01a0 1B68     		ldr	r3, [r3]
 2917              		.loc 1 598 52
 2918 01a2 CAB2     		uxtb	r2, r1
 2919              		.loc 1 598 36
 2920 01a4 1A70     		strb	r2, [r3]
 599:g:/iot/IoT_Device_Demo/iot_link/network/lwm2m/wakaama_lwm2m/wakaama-master/examples/shared\commandline.c ****         *bufferP[result_index - 1] = (tmp[2] << 6);
 2921              		.loc 1 599 42
 2922 01a6 BA7D     		ldrb	r2, [r7, #22]	@ zero_extendqisi2
 2923              		.loc 1 599 17
 2924 01a8 3B6A     		ldr	r3, [r7, #32]
 2925 01aa 03F18043 		add	r3, r3, #1073741824
 2926 01ae 013B     		subs	r3, r3, #1
 2927 01b0 9B00     		lsls	r3, r3, #2
 2928 01b2 7968     		ldr	r1, [r7, #4]
 2929 01b4 0B44     		add	r3, r3, r1
 2930 01b6 1B68     		ldr	r3, [r3]
 2931              		.loc 1 599 46
 2932 01b8 9201     		lsls	r2, r2, #6
 2933 01ba D2B2     		uxtb	r2, r2
 2934              		.loc 1 599 36
 2935 01bc 1A70     		strb	r2, [r3]
 600:g:/iot/IoT_Device_Demo/iot_link/network/lwm2m/wakaama_lwm2m/wakaama-master/examples/shared\commandline.c ****         result_len -= 1;
 2936              		.loc 1 600 20
 2937 01be FB69     		ldr	r3, [r7, #28]
 2938 01c0 013B     		subs	r3, r3, #1
 2939 01c2 FB61     		str	r3, [r7, #28]
 2940              	.LBE5:
 601:g:/iot/IoT_Device_Demo/iot_link/network/lwm2m/wakaama_lwm2m/wakaama-master/examples/shared\commandline.c ****     }
 602:g:/iot/IoT_Device_Demo/iot_link/network/lwm2m/wakaama_lwm2m/wakaama-master/examples/shared\commandline.c ****     break;
 2941              		.loc 1 602 5
 2942 01c4 0BE0     		b	.L160
 2943              	.L157:
 603:g:/iot/IoT_Device_Demo/iot_link/network/lwm2m/wakaama_lwm2m/wakaama-master/examples/shared\commandline.c ****     default:
 604:g:/iot/IoT_Device_Demo/iot_link/network/lwm2m/wakaama_lwm2m/wakaama-master/examples/shared\commandline.c ****         // error
 605:g:/iot/IoT_Device_Demo/iot_link/network/lwm2m/wakaama_lwm2m/wakaama-master/examples/shared\commandline.c ****         lwm2m_free(*bufferP);
 2944              		.loc 1 605 9
 2945 01c6 7B68     		ldr	r3, [r7, #4]
 2946 01c8 1B68     		ldr	r3, [r3]
 2947 01ca 1846     		mov	r0, r3
 2948 01cc FFF7FEFF 		bl	lwm2m_free
 606:g:/iot/IoT_Device_Demo/iot_link/network/lwm2m/wakaama_lwm2m/wakaama-master/examples/shared\commandline.c ****         *bufferP = NULL;
ARM GAS  C:\Users\ADMINI~1\AppData\Local\Temp\ccT1G34X.s 			page 67


 2949              		.loc 1 606 18
 2950 01d0 7B68     		ldr	r3, [r7, #4]
 2951 01d2 0022     		movs	r2, #0
 2952 01d4 1A60     		str	r2, [r3]
 607:g:/iot/IoT_Device_Demo/iot_link/network/lwm2m/wakaama_lwm2m/wakaama-master/examples/shared\commandline.c ****         result_len = 0;
 2953              		.loc 1 607 20
 2954 01d6 0023     		movs	r3, #0
 2955 01d8 FB61     		str	r3, [r7, #28]
 608:g:/iot/IoT_Device_Demo/iot_link/network/lwm2m/wakaama_lwm2m/wakaama-master/examples/shared\commandline.c ****         break;
 2956              		.loc 1 608 9
 2957 01da 00E0     		b	.L160
 2958              	.L161:
 576:g:/iot/IoT_Device_Demo/iot_link/network/lwm2m/wakaama_lwm2m/wakaama-master/examples/shared\commandline.c ****     case 2:
 2959              		.loc 1 576 9
 2960 01dc 00BF     		nop
 2961              	.L160:
 609:g:/iot/IoT_Device_Demo/iot_link/network/lwm2m/wakaama_lwm2m/wakaama-master/examples/shared\commandline.c ****     }
 610:g:/iot/IoT_Device_Demo/iot_link/network/lwm2m/wakaama_lwm2m/wakaama-master/examples/shared\commandline.c **** 
 611:g:/iot/IoT_Device_Demo/iot_link/network/lwm2m/wakaama_lwm2m/wakaama-master/examples/shared\commandline.c ****     return result_len;
 2962              		.loc 1 611 12
 2963 01de FB69     		ldr	r3, [r7, #28]
 2964              	.L150:
 612:g:/iot/IoT_Device_Demo/iot_link/network/lwm2m/wakaama_lwm2m/wakaama-master/examples/shared\commandline.c **** }
 2965              		.loc 1 612 1
 2966 01e0 1846     		mov	r0, r3
 2967 01e2 2837     		adds	r7, r7, #40
 2968              	.LCFI88:
 2969              		.cfi_def_cfa_offset 8
 2970 01e4 BD46     		mov	sp, r7
 2971              	.LCFI89:
 2972              		.cfi_def_cfa_register 13
 2973              		@ sp needed
 2974 01e6 80BD     		pop	{r7, pc}
 2975              		.cfi_endproc
 2976              	.LFE20:
 2978              		.text
 2979              	.Letext0:
 2980              		.file 2 "g:\\iot\\.huawei-liteos-studio\\tools\\arm-none-eabi\\lib\\gcc\\arm-none-eabi\\9.2.1\\inc
 2981              		.file 3 "g:\\iot\\.huawei-liteos-studio\\tools\\arm-none-eabi\\arm-none-eabi\\include\\machine\\_d
 2982              		.file 4 "g:\\iot\\.huawei-liteos-studio\\tools\\arm-none-eabi\\arm-none-eabi\\include\\sys\\lock.h
 2983              		.file 5 "g:\\iot\\.huawei-liteos-studio\\tools\\arm-none-eabi\\arm-none-eabi\\include\\sys\\_types
 2984              		.file 6 "g:\\iot\\.huawei-liteos-studio\\tools\\arm-none-eabi\\arm-none-eabi\\include\\sys\\reent.
 2985              		.file 7 "g:\\iot\\.huawei-liteos-studio\\tools\\arm-none-eabi\\arm-none-eabi\\include\\stdlib.h"
 2986              		.file 8 "g:\\iot\\.huawei-liteos-studio\\tools\\arm-none-eabi\\arm-none-eabi\\include\\sys\\_stdin
 2987              		.file 9 "g:\\iot\\.huawei-liteos-studio\\tools\\arm-none-eabi\\arm-none-eabi\\include\\stdio.h"
 2988              		.file 10 "g:\\iot\\.huawei-liteos-studio\\tools\\arm-none-eabi\\arm-none-eabi\\include\\ctype.h"
 2989              		.file 11 "g:\\iot\\.huawei-liteos-studio\\tools\\arm-none-eabi\\arm-none-eabi\\include\\time.h"
 2990              		.file 12 "g:/iot/IoT_Device_Demo/iot_link/network/lwm2m/wakaama_lwm2m/wakaama-master/core/er-coap-
 2991              		.file 13 "g:/iot/IoT_Device_Demo/iot_link/network/lwm2m/wakaama_lwm2m/wakaama-master/core/liblwm2m
 2992              		.file 14 "g:/iot/IoT_Device_Demo/iot_link/network/lwm2m/wakaama_lwm2m/wakaama-master/examples/shar
ARM GAS  C:\Users\ADMINI~1\AppData\Local\Temp\ccT1G34X.s 			page 68

