ARM GAS  C:\Users\ADMINI~1\AppData\Local\Temp\ccZhVq0e.s 			page 1


   1              		.cpu cortex-m4
   2              		.eabi_attribute 27, 1
   3              		.eabi_attribute 28, 1
   4              		.eabi_attribute 20, 1
   5              		.eabi_attribute 21, 1
   6              		.eabi_attribute 23, 3
   7              		.eabi_attribute 24, 1
   8              		.eabi_attribute 25, 1
   9              		.eabi_attribute 26, 1
  10              		.eabi_attribute 30, 6
  11              		.eabi_attribute 34, 1
  12              		.eabi_attribute 18, 4
  13              		.file	"sal_netdb.c"
  14              		.text
  15              	.Ltext0:
  16              		.cfi_sections	.debug_frame
  17              		.section	.rodata
  18              		.align	2
  19              	.LC0:
  20 0000 25642E25 		.ascii	"%d.%d.%d.%d\000"
  20      642E2564 
  20      2E256400 
  21              		.section	.text.inet_addr,"ax",%progbits
  22              		.align	1
  23              		.weak	inet_addr
  24              		.arch armv7e-m
  25              		.syntax unified
  26              		.thumb
  27              		.thumb_func
  28              		.fpu fpv4-sp-d16
  30              	inet_addr:
  31              	.LFB3:
  32              		.file 1 "g:/iot/IoT_Device_Demo/iot_link/network/tcpip/sal/sal_netdb.c"
   1:g:/iot/IoT_Device_Demo/iot_link/network/tcpip/sal\sal_netdb.c **** /*----------------------------------------------------------------------------
   2:g:/iot/IoT_Device_Demo/iot_link/network/tcpip/sal\sal_netdb.c ****  * Copyright (c) <2018>, <Huawei Technologies Co., Ltd>
   3:g:/iot/IoT_Device_Demo/iot_link/network/tcpip/sal\sal_netdb.c ****  * All rights reserved.
   4:g:/iot/IoT_Device_Demo/iot_link/network/tcpip/sal\sal_netdb.c ****  * Redistribution and use in source and binary forms, with or without modification,
   5:g:/iot/IoT_Device_Demo/iot_link/network/tcpip/sal\sal_netdb.c ****  * are permitted provided that the following conditions are met:
   6:g:/iot/IoT_Device_Demo/iot_link/network/tcpip/sal\sal_netdb.c ****  * 1. Redistributions of source code must retain the above copyright notice, this list of
   7:g:/iot/IoT_Device_Demo/iot_link/network/tcpip/sal\sal_netdb.c ****  * conditions and the following disclaimer.
   8:g:/iot/IoT_Device_Demo/iot_link/network/tcpip/sal\sal_netdb.c ****  * 2. Redistributions in binary form must reproduce the above copyright notice, this list
   9:g:/iot/IoT_Device_Demo/iot_link/network/tcpip/sal\sal_netdb.c ****  * of conditions and the following disclaimer in the documentation and/or other materials
  10:g:/iot/IoT_Device_Demo/iot_link/network/tcpip/sal\sal_netdb.c ****  * provided with the distribution.
  11:g:/iot/IoT_Device_Demo/iot_link/network/tcpip/sal\sal_netdb.c ****  * 3. Neither the name of the copyright holder nor the names of its contributors may be used
  12:g:/iot/IoT_Device_Demo/iot_link/network/tcpip/sal\sal_netdb.c ****  * to endorse or promote products derived from this software without specific prior written
  13:g:/iot/IoT_Device_Demo/iot_link/network/tcpip/sal\sal_netdb.c ****  * permission.
  14:g:/iot/IoT_Device_Demo/iot_link/network/tcpip/sal\sal_netdb.c ****  * THIS SOFTWARE IS PROVIDED BY THE COPYRIGHT HOLDERS AND CONTRIBUTORS
  15:g:/iot/IoT_Device_Demo/iot_link/network/tcpip/sal\sal_netdb.c ****  * "AS IS" AND ANY EXPRESS OR IMPLIED WARRANTIES, INCLUDING, BUT NOT LIMITED TO,
  16:g:/iot/IoT_Device_Demo/iot_link/network/tcpip/sal\sal_netdb.c ****  * THE IMPLIED WARRANTIES OF MERCHANTABILITY AND FITNESS FOR A PARTICULAR
  17:g:/iot/IoT_Device_Demo/iot_link/network/tcpip/sal\sal_netdb.c ****  * PURPOSE ARE DISCLAIMED. IN NO EVENT SHALL THE COPYRIGHT HOLDER OR
  18:g:/iot/IoT_Device_Demo/iot_link/network/tcpip/sal\sal_netdb.c ****  * CONTRIBUTORS BE LIABLE FOR ANY DIRECT, INDIRECT, INCIDENTAL, SPECIAL,
  19:g:/iot/IoT_Device_Demo/iot_link/network/tcpip/sal\sal_netdb.c ****  * EXEMPLARY, OR CONSEQUENTIAL DAMAGES (INCLUDING, BUT NOT LIMITED TO,
  20:g:/iot/IoT_Device_Demo/iot_link/network/tcpip/sal\sal_netdb.c ****  * PROCUREMENT OF SUBSTITUTE GOODS OR SERVICES; LOSS OF USE, DATA, OR PROFITS;
  21:g:/iot/IoT_Device_Demo/iot_link/network/tcpip/sal\sal_netdb.c ****  * OR BUSINESS INTERRUPTION) HOWEVER CAUSED AND ON ANY THEORY OF LIABILITY,
  22:g:/iot/IoT_Device_Demo/iot_link/network/tcpip/sal\sal_netdb.c ****  * WHETHER IN CONTRACT, STRICT LIABILITY, OR TORT (INCLUDING NEGLIGENCE OR
  23:g:/iot/IoT_Device_Demo/iot_link/network/tcpip/sal\sal_netdb.c ****  * OTHERWISE) ARISING IN ANY WAY OUT OF THE USE OF THIS SOFTWARE, EVEN IF
  24:g:/iot/IoT_Device_Demo/iot_link/network/tcpip/sal\sal_netdb.c ****  * ADVISED OF THE POSSIBILITY OF SUCH DAMAGE.
ARM GAS  C:\Users\ADMINI~1\AppData\Local\Temp\ccZhVq0e.s 			page 2


  25:g:/iot/IoT_Device_Demo/iot_link/network/tcpip/sal\sal_netdb.c ****  *---------------------------------------------------------------------------*/
  26:g:/iot/IoT_Device_Demo/iot_link/network/tcpip/sal\sal_netdb.c **** /*----------------------------------------------------------------------------
  27:g:/iot/IoT_Device_Demo/iot_link/network/tcpip/sal\sal_netdb.c ****  * Notice of Export Control Law
  28:g:/iot/IoT_Device_Demo/iot_link/network/tcpip/sal\sal_netdb.c ****  * ===============================================
  29:g:/iot/IoT_Device_Demo/iot_link/network/tcpip/sal\sal_netdb.c ****  * Huawei LiteOS may be subject to applicable export control laws and regulations, which might
  30:g:/iot/IoT_Device_Demo/iot_link/network/tcpip/sal\sal_netdb.c ****  * include those applicable to Huawei LiteOS of U.S. and the country in which you are located.
  31:g:/iot/IoT_Device_Demo/iot_link/network/tcpip/sal\sal_netdb.c ****  * Import, export and usage of Huawei LiteOS in any manner by you shall be in compliance with such
  32:g:/iot/IoT_Device_Demo/iot_link/network/tcpip/sal\sal_netdb.c ****  * applicable export control laws and regulations.
  33:g:/iot/IoT_Device_Demo/iot_link/network/tcpip/sal\sal_netdb.c ****  *---------------------------------------------------------------------------*/
  34:g:/iot/IoT_Device_Demo/iot_link/network/tcpip/sal\sal_netdb.c **** /**
  35:g:/iot/IoT_Device_Demo/iot_link/network/tcpip/sal\sal_netdb.c ****  *  DATE                AUTHOR      INSTRUCTION
  36:g:/iot/IoT_Device_Demo/iot_link/network/tcpip/sal\sal_netdb.c ****  *  2019-05-09 16:17  zhangqianfu  The first version  
  37:g:/iot/IoT_Device_Demo/iot_link/network/tcpip/sal\sal_netdb.c ****  *
  38:g:/iot/IoT_Device_Demo/iot_link/network/tcpip/sal\sal_netdb.c ****  */
  39:g:/iot/IoT_Device_Demo/iot_link/network/tcpip/sal\sal_netdb.c **** 
  40:g:/iot/IoT_Device_Demo/iot_link/network/tcpip/sal\sal_netdb.c **** #include <stdint.h>
  41:g:/iot/IoT_Device_Demo/iot_link/network/tcpip/sal\sal_netdb.c **** #include <stddef.h>
  42:g:/iot/IoT_Device_Demo/iot_link/network/tcpip/sal\sal_netdb.c **** #include <string.h>
  43:g:/iot/IoT_Device_Demo/iot_link/network/tcpip/sal\sal_netdb.c **** 
  44:g:/iot/IoT_Device_Demo/iot_link/network/tcpip/sal\sal_netdb.c **** #include <sal.h>
  45:g:/iot/IoT_Device_Demo/iot_link/network/tcpip/sal\sal_netdb.c **** 
  46:g:/iot/IoT_Device_Demo/iot_link/network/tcpip/sal\sal_netdb.c **** __attribute__((weak)) in_addr_t inet_addr(const char *addr)
  47:g:/iot/IoT_Device_Demo/iot_link/network/tcpip/sal\sal_netdb.c **** {
  33              		.loc 1 47 1
  34              		.cfi_startproc
  35              		@ args = 0, pretend = 0, frame = 40
  36              		@ frame_needed = 1, uses_anonymous_args = 0
  37 0000 80B5     		push	{r7, lr}
  38              	.LCFI0:
  39              		.cfi_def_cfa_offset 8
  40              		.cfi_offset 7, -8
  41              		.cfi_offset 14, -4
  42 0002 8CB0     		sub	sp, sp, #48
  43              	.LCFI1:
  44              		.cfi_def_cfa_offset 56
  45 0004 02AF     		add	r7, sp, #8
  46              	.LCFI2:
  47              		.cfi_def_cfa 7, 48
  48 0006 7860     		str	r0, [r7, #4]
  48:g:/iot/IoT_Device_Demo/iot_link/network/tcpip/sal\sal_netdb.c ****     int para;
  49:g:/iot/IoT_Device_Demo/iot_link/network/tcpip/sal\sal_netdb.c ****     int tmp[4];
  50:g:/iot/IoT_Device_Demo/iot_link/network/tcpip/sal\sal_netdb.c ****     in_addr_t result = INADDR_NONE;
  49              		.loc 1 50 15
  50 0008 0023     		movs	r3, #0
  51 000a 3B61     		str	r3, [r7, #16]
  51:g:/iot/IoT_Device_Demo/iot_link/network/tcpip/sal\sal_netdb.c ****     unsigned char  ip[4];
  52:g:/iot/IoT_Device_Demo/iot_link/network/tcpip/sal\sal_netdb.c **** 
  53:g:/iot/IoT_Device_Demo/iot_link/network/tcpip/sal\sal_netdb.c ****     para = sscanf(addr,"%d.%d.%d.%d",&tmp[0],&tmp[1],&tmp[2],&tmp[3]);
  52              		.loc 1 53 12
  53 000c 07F11403 		add	r3, r7, #20
  54 0010 191D     		adds	r1, r3, #4
  55 0012 07F11402 		add	r2, r7, #20
  56 0016 07F11403 		add	r3, r7, #20
  57 001a 0C33     		adds	r3, r3, #12
  58 001c 0193     		str	r3, [sp, #4]
  59 001e 07F11403 		add	r3, r7, #20
  60 0022 0833     		adds	r3, r3, #8
ARM GAS  C:\Users\ADMINI~1\AppData\Local\Temp\ccZhVq0e.s 			page 3


  61 0024 0093     		str	r3, [sp]
  62 0026 0B46     		mov	r3, r1
  63 0028 0D49     		ldr	r1, .L4
  64 002a 7868     		ldr	r0, [r7, #4]
  65 002c FFF7FEFF 		bl	sscanf
  66 0030 7862     		str	r0, [r7, #36]
  54:g:/iot/IoT_Device_Demo/iot_link/network/tcpip/sal\sal_netdb.c ****     if(para == 4)
  67              		.loc 1 54 7
  68 0032 7B6A     		ldr	r3, [r7, #36]
  69 0034 042B     		cmp	r3, #4
  70 0036 0DD1     		bne	.L2
  55:g:/iot/IoT_Device_Demo/iot_link/network/tcpip/sal\sal_netdb.c ****     {
  56:g:/iot/IoT_Device_Demo/iot_link/network/tcpip/sal\sal_netdb.c ****         ip[0] = (unsigned char)tmp[0];
  71              		.loc 1 56 35
  72 0038 7B69     		ldr	r3, [r7, #20]
  73              		.loc 1 56 17
  74 003a DBB2     		uxtb	r3, r3
  75              		.loc 1 56 15
  76 003c 3B73     		strb	r3, [r7, #12]
  57:g:/iot/IoT_Device_Demo/iot_link/network/tcpip/sal\sal_netdb.c ****         ip[1] = (unsigned char)tmp[1];
  77              		.loc 1 57 35
  78 003e BB69     		ldr	r3, [r7, #24]
  79              		.loc 1 57 17
  80 0040 DBB2     		uxtb	r3, r3
  81              		.loc 1 57 15
  82 0042 7B73     		strb	r3, [r7, #13]
  58:g:/iot/IoT_Device_Demo/iot_link/network/tcpip/sal\sal_netdb.c ****         ip[2] = (unsigned char)tmp[2];
  83              		.loc 1 58 35
  84 0044 FB69     		ldr	r3, [r7, #28]
  85              		.loc 1 58 17
  86 0046 DBB2     		uxtb	r3, r3
  87              		.loc 1 58 15
  88 0048 BB73     		strb	r3, [r7, #14]
  59:g:/iot/IoT_Device_Demo/iot_link/network/tcpip/sal\sal_netdb.c ****         ip[3] = (unsigned char)tmp[3];
  89              		.loc 1 59 35
  90 004a 3B6A     		ldr	r3, [r7, #32]
  91              		.loc 1 59 17
  92 004c DBB2     		uxtb	r3, r3
  93              		.loc 1 59 15
  94 004e FB73     		strb	r3, [r7, #15]
  95 0050 FB68     		ldr	r3, [r7, #12]
  60:g:/iot/IoT_Device_Demo/iot_link/network/tcpip/sal\sal_netdb.c ****         (void) memcpy((void *)&result,(void *)ip,sizeof(result));
  96              		.loc 1 60 16
  97 0052 3B61     		str	r3, [r7, #16]
  98              	.L2:
  61:g:/iot/IoT_Device_Demo/iot_link/network/tcpip/sal\sal_netdb.c ****     }
  62:g:/iot/IoT_Device_Demo/iot_link/network/tcpip/sal\sal_netdb.c ****     return result;
  99              		.loc 1 62 12
 100 0054 3B69     		ldr	r3, [r7, #16]
  63:g:/iot/IoT_Device_Demo/iot_link/network/tcpip/sal\sal_netdb.c **** }
 101              		.loc 1 63 1
 102 0056 1846     		mov	r0, r3
 103 0058 2837     		adds	r7, r7, #40
 104              	.LCFI3:
 105              		.cfi_def_cfa_offset 8
 106 005a BD46     		mov	sp, r7
 107              	.LCFI4:
ARM GAS  C:\Users\ADMINI~1\AppData\Local\Temp\ccZhVq0e.s 			page 4


 108              		.cfi_def_cfa_register 13
 109              		@ sp needed
 110 005c 80BD     		pop	{r7, pc}
 111              	.L5:
 112 005e 00BF     		.align	2
 113              	.L4:
 114 0060 00000000 		.word	.LC0
 115              		.cfi_endproc
 116              	.LFE3:
 118              		.section	.text.inet_aton,"ax",%progbits
 119              		.align	1
 120              		.weak	inet_aton
 121              		.syntax unified
 122              		.thumb
 123              		.thumb_func
 124              		.fpu fpv4-sp-d16
 126              	inet_aton:
 127              	.LFB4:
  64:g:/iot/IoT_Device_Demo/iot_link/network/tcpip/sal\sal_netdb.c **** 
  65:g:/iot/IoT_Device_Demo/iot_link/network/tcpip/sal\sal_netdb.c **** __attribute__((weak)) int inet_aton(const char *string,struct in_addr *addr)
  66:g:/iot/IoT_Device_Demo/iot_link/network/tcpip/sal\sal_netdb.c **** {
 128              		.loc 1 66 1
 129              		.cfi_startproc
 130              		@ args = 0, pretend = 0, frame = 40
 131              		@ frame_needed = 1, uses_anonymous_args = 0
 132 0000 80B5     		push	{r7, lr}
 133              	.LCFI5:
 134              		.cfi_def_cfa_offset 8
 135              		.cfi_offset 7, -8
 136              		.cfi_offset 14, -4
 137 0002 8CB0     		sub	sp, sp, #48
 138              	.LCFI6:
 139              		.cfi_def_cfa_offset 56
 140 0004 02AF     		add	r7, sp, #8
 141              	.LCFI7:
 142              		.cfi_def_cfa 7, 48
 143 0006 7860     		str	r0, [r7, #4]
 144 0008 3960     		str	r1, [r7]
  67:g:/iot/IoT_Device_Demo/iot_link/network/tcpip/sal\sal_netdb.c ****     int para;
  68:g:/iot/IoT_Device_Demo/iot_link/network/tcpip/sal\sal_netdb.c ****     int tmp[4];
  69:g:/iot/IoT_Device_Demo/iot_link/network/tcpip/sal\sal_netdb.c ****     unsigned char  ip[4];
  70:g:/iot/IoT_Device_Demo/iot_link/network/tcpip/sal\sal_netdb.c ****     int result = 0;
 145              		.loc 1 70 9
 146 000a 0023     		movs	r3, #0
 147 000c 7B62     		str	r3, [r7, #36]
  71:g:/iot/IoT_Device_Demo/iot_link/network/tcpip/sal\sal_netdb.c **** 
  72:g:/iot/IoT_Device_Demo/iot_link/network/tcpip/sal\sal_netdb.c ****     para = sscanf(string,"%d.%d.%d.%d",&tmp[0],&tmp[1],&tmp[2],&tmp[3]);
 148              		.loc 1 72 12
 149 000e 07F11003 		add	r3, r7, #16
 150 0012 191D     		adds	r1, r3, #4
 151 0014 07F11002 		add	r2, r7, #16
 152 0018 07F11003 		add	r3, r7, #16
 153 001c 0C33     		adds	r3, r3, #12
 154 001e 0193     		str	r3, [sp, #4]
 155 0020 07F11003 		add	r3, r7, #16
 156 0024 0833     		adds	r3, r3, #8
 157 0026 0093     		str	r3, [sp]
ARM GAS  C:\Users\ADMINI~1\AppData\Local\Temp\ccZhVq0e.s 			page 5


 158 0028 0B46     		mov	r3, r1
 159 002a 0F49     		ldr	r1, .L9
 160 002c 7868     		ldr	r0, [r7, #4]
 161 002e FFF7FEFF 		bl	sscanf
 162 0032 3862     		str	r0, [r7, #32]
  73:g:/iot/IoT_Device_Demo/iot_link/network/tcpip/sal\sal_netdb.c ****     if(para == 4)
 163              		.loc 1 73 7
 164 0034 3B6A     		ldr	r3, [r7, #32]
 165 0036 042B     		cmp	r3, #4
 166 0038 10D1     		bne	.L7
  74:g:/iot/IoT_Device_Demo/iot_link/network/tcpip/sal\sal_netdb.c ****     {
  75:g:/iot/IoT_Device_Demo/iot_link/network/tcpip/sal\sal_netdb.c ****         ip[0] = (unsigned char)tmp[0];
 167              		.loc 1 75 35
 168 003a 3B69     		ldr	r3, [r7, #16]
 169              		.loc 1 75 17
 170 003c DBB2     		uxtb	r3, r3
 171              		.loc 1 75 15
 172 003e 3B73     		strb	r3, [r7, #12]
  76:g:/iot/IoT_Device_Demo/iot_link/network/tcpip/sal\sal_netdb.c ****         ip[1] = (unsigned char)tmp[1];
 173              		.loc 1 76 35
 174 0040 7B69     		ldr	r3, [r7, #20]
 175              		.loc 1 76 17
 176 0042 DBB2     		uxtb	r3, r3
 177              		.loc 1 76 15
 178 0044 7B73     		strb	r3, [r7, #13]
  77:g:/iot/IoT_Device_Demo/iot_link/network/tcpip/sal\sal_netdb.c ****         ip[2] = (unsigned char)tmp[2];
 179              		.loc 1 77 35
 180 0046 BB69     		ldr	r3, [r7, #24]
 181              		.loc 1 77 17
 182 0048 DBB2     		uxtb	r3, r3
 183              		.loc 1 77 15
 184 004a BB73     		strb	r3, [r7, #14]
  78:g:/iot/IoT_Device_Demo/iot_link/network/tcpip/sal\sal_netdb.c ****         ip[3] = (unsigned char)tmp[3];
 185              		.loc 1 78 35
 186 004c FB69     		ldr	r3, [r7, #28]
 187              		.loc 1 78 17
 188 004e DBB2     		uxtb	r3, r3
 189              		.loc 1 78 15
 190 0050 FB73     		strb	r3, [r7, #15]
 191 0052 FA68     		ldr	r2, [r7, #12]
  79:g:/iot/IoT_Device_Demo/iot_link/network/tcpip/sal\sal_netdb.c ****         (void) memcpy((void *)addr,(void *)ip,sizeof(ip));
 192              		.loc 1 79 16
 193 0054 3B68     		ldr	r3, [r7]
 194 0056 1A60     		str	r2, [r3]	@ unaligned
  80:g:/iot/IoT_Device_Demo/iot_link/network/tcpip/sal\sal_netdb.c ****         result = 1;
 195              		.loc 1 80 16
 196 0058 0123     		movs	r3, #1
 197 005a 7B62     		str	r3, [r7, #36]
 198              	.L7:
  81:g:/iot/IoT_Device_Demo/iot_link/network/tcpip/sal\sal_netdb.c ****     }
  82:g:/iot/IoT_Device_Demo/iot_link/network/tcpip/sal\sal_netdb.c **** 
  83:g:/iot/IoT_Device_Demo/iot_link/network/tcpip/sal\sal_netdb.c ****     return result;
 199              		.loc 1 83 12
 200 005c 7B6A     		ldr	r3, [r7, #36]
  84:g:/iot/IoT_Device_Demo/iot_link/network/tcpip/sal\sal_netdb.c **** }
 201              		.loc 1 84 1
 202 005e 1846     		mov	r0, r3
ARM GAS  C:\Users\ADMINI~1\AppData\Local\Temp\ccZhVq0e.s 			page 6


 203 0060 2837     		adds	r7, r7, #40
 204              	.LCFI8:
 205              		.cfi_def_cfa_offset 8
 206 0062 BD46     		mov	sp, r7
 207              	.LCFI9:
 208              		.cfi_def_cfa_register 13
 209              		@ sp needed
 210 0064 80BD     		pop	{r7, pc}
 211              	.L10:
 212 0066 00BF     		.align	2
 213              	.L9:
 214 0068 00000000 		.word	.LC0
 215              		.cfi_endproc
 216              	.LFE4:
 218              		.section	.bss.s_inet_addr_buf,"aw",%nobits
 219              		.align	2
 222              	s_inet_addr_buf:
 223 0000 00000000 		.space	16
 223      00000000 
 223      00000000 
 223      00000000 
 224              		.section	.text.inet_ntoa,"ax",%progbits
 225              		.align	1
 226              		.weak	inet_ntoa
 227              		.syntax unified
 228              		.thumb
 229              		.thumb_func
 230              		.fpu fpv4-sp-d16
 232              	inet_ntoa:
 233              	.LFB5:
  85:g:/iot/IoT_Device_Demo/iot_link/network/tcpip/sal\sal_netdb.c **** 
  86:g:/iot/IoT_Device_Demo/iot_link/network/tcpip/sal\sal_netdb.c **** 
  87:g:/iot/IoT_Device_Demo/iot_link/network/tcpip/sal\sal_netdb.c **** #define cn_inet_addrlen_max     16
  88:g:/iot/IoT_Device_Demo/iot_link/network/tcpip/sal\sal_netdb.c **** static  char s_inet_addr_buf[cn_inet_addrlen_max];
  89:g:/iot/IoT_Device_Demo/iot_link/network/tcpip/sal\sal_netdb.c **** 
  90:g:/iot/IoT_Device_Demo/iot_link/network/tcpip/sal\sal_netdb.c **** __attribute__((weak)) char *inet_ntoa(struct in_addr addr)
  91:g:/iot/IoT_Device_Demo/iot_link/network/tcpip/sal\sal_netdb.c **** {
 234              		.loc 1 91 1
 235              		.cfi_startproc
 236              		@ args = 0, pretend = 0, frame = 32
 237              		@ frame_needed = 1, uses_anonymous_args = 0
 238 0000 80B5     		push	{r7, lr}
 239              	.LCFI10:
 240              		.cfi_def_cfa_offset 8
 241              		.cfi_offset 7, -8
 242              		.cfi_offset 14, -4
 243 0002 8AB0     		sub	sp, sp, #40
 244              	.LCFI11:
 245              		.cfi_def_cfa_offset 48
 246 0004 02AF     		add	r7, sp, #8
 247              	.LCFI12:
 248              		.cfi_def_cfa 7, 40
 249 0006 7860     		str	r0, [r7, #4]
 250 0008 7B68     		ldr	r3, [r7, #4]
  92:g:/iot/IoT_Device_Demo/iot_link/network/tcpip/sal\sal_netdb.c ****     unsigned char ip[4];
  93:g:/iot/IoT_Device_Demo/iot_link/network/tcpip/sal\sal_netdb.c ****     int tmp[4];
  94:g:/iot/IoT_Device_Demo/iot_link/network/tcpip/sal\sal_netdb.c ****     (void) memcpy((void *)ip,(void *)&addr,sizeof(ip));
ARM GAS  C:\Users\ADMINI~1\AppData\Local\Temp\ccZhVq0e.s 			page 7


 251              		.loc 1 94 12
 252 000a FB61     		str	r3, [r7, #28]
  95:g:/iot/IoT_Device_Demo/iot_link/network/tcpip/sal\sal_netdb.c ****     (void) memset((void *)s_inet_addr_buf,0,cn_inet_addrlen_max);
 253              		.loc 1 95 12
 254 000c 1022     		movs	r2, #16
 255 000e 0021     		movs	r1, #0
 256 0010 0D48     		ldr	r0, .L13
 257 0012 FFF7FEFF 		bl	memset
  96:g:/iot/IoT_Device_Demo/iot_link/network/tcpip/sal\sal_netdb.c **** 
  97:g:/iot/IoT_Device_Demo/iot_link/network/tcpip/sal\sal_netdb.c ****     tmp[0] = (int)ip[0];
 258              		.loc 1 97 21
 259 0016 3B7F     		ldrb	r3, [r7, #28]	@ zero_extendqisi2
 260              		.loc 1 97 12
 261 0018 FB60     		str	r3, [r7, #12]
  98:g:/iot/IoT_Device_Demo/iot_link/network/tcpip/sal\sal_netdb.c ****     tmp[1] = (int)ip[1];
 262              		.loc 1 98 21
 263 001a 7B7F     		ldrb	r3, [r7, #29]	@ zero_extendqisi2
 264              		.loc 1 98 12
 265 001c 3B61     		str	r3, [r7, #16]
  99:g:/iot/IoT_Device_Demo/iot_link/network/tcpip/sal\sal_netdb.c ****     tmp[2] = (int)ip[2];
 266              		.loc 1 99 21
 267 001e BB7F     		ldrb	r3, [r7, #30]	@ zero_extendqisi2
 268              		.loc 1 99 12
 269 0020 7B61     		str	r3, [r7, #20]
 100:g:/iot/IoT_Device_Demo/iot_link/network/tcpip/sal\sal_netdb.c ****     tmp[3] = (int)ip[3];
 270              		.loc 1 100 21
 271 0022 FB7F     		ldrb	r3, [r7, #31]	@ zero_extendqisi2
 272              		.loc 1 100 12
 273 0024 BB61     		str	r3, [r7, #24]
 101:g:/iot/IoT_Device_Demo/iot_link/network/tcpip/sal\sal_netdb.c ****     (void) sprintf(s_inet_addr_buf,"%d.%d.%d.%d",tmp[0],tmp[1],tmp[2],tmp[3]);
 274              		.loc 1 101 12
 275 0026 F968     		ldr	r1, [r7, #12]
 276 0028 3869     		ldr	r0, [r7, #16]
 277 002a 7B69     		ldr	r3, [r7, #20]
 278 002c BA69     		ldr	r2, [r7, #24]
 279 002e 0192     		str	r2, [sp, #4]
 280 0030 0093     		str	r3, [sp]
 281 0032 0346     		mov	r3, r0
 282 0034 0A46     		mov	r2, r1
 283 0036 0549     		ldr	r1, .L13+4
 284 0038 0348     		ldr	r0, .L13
 285 003a FFF7FEFF 		bl	sprintf
 102:g:/iot/IoT_Device_Demo/iot_link/network/tcpip/sal\sal_netdb.c **** 
 103:g:/iot/IoT_Device_Demo/iot_link/network/tcpip/sal\sal_netdb.c ****     return (char *)s_inet_addr_buf;
 286              		.loc 1 103 12
 287 003e 024B     		ldr	r3, .L13
 104:g:/iot/IoT_Device_Demo/iot_link/network/tcpip/sal\sal_netdb.c **** }
 288              		.loc 1 104 1
 289 0040 1846     		mov	r0, r3
 290 0042 2037     		adds	r7, r7, #32
 291              	.LCFI13:
 292              		.cfi_def_cfa_offset 8
 293 0044 BD46     		mov	sp, r7
 294              	.LCFI14:
 295              		.cfi_def_cfa_register 13
 296              		@ sp needed
 297 0046 80BD     		pop	{r7, pc}
ARM GAS  C:\Users\ADMINI~1\AppData\Local\Temp\ccZhVq0e.s 			page 8


 298              	.L14:
 299              		.align	2
 300              	.L13:
 301 0048 00000000 		.word	s_inet_addr_buf
 302 004c 00000000 		.word	.LC0
 303              		.cfi_endproc
 304              	.LFE5:
 306              		.section	.text.inet_ntop,"ax",%progbits
 307              		.align	1
 308              		.weak	inet_ntop
 309              		.syntax unified
 310              		.thumb
 311              		.thumb_func
 312              		.fpu fpv4-sp-d16
 314              	inet_ntop:
 315              	.LFB6:
 105:g:/iot/IoT_Device_Demo/iot_link/network/tcpip/sal\sal_netdb.c **** 
 106:g:/iot/IoT_Device_Demo/iot_link/network/tcpip/sal\sal_netdb.c **** __attribute__((weak)) const char *inet_ntop(int af, const void *src, char *dst, socklen_t cnt)
 107:g:/iot/IoT_Device_Demo/iot_link/network/tcpip/sal\sal_netdb.c **** {
 316              		.loc 1 107 1
 317              		.cfi_startproc
 318              		@ args = 0, pretend = 0, frame = 32
 319              		@ frame_needed = 1, uses_anonymous_args = 0
 320 0000 80B5     		push	{r7, lr}
 321              	.LCFI15:
 322              		.cfi_def_cfa_offset 8
 323              		.cfi_offset 7, -8
 324              		.cfi_offset 14, -4
 325 0002 88B0     		sub	sp, sp, #32
 326              	.LCFI16:
 327              		.cfi_def_cfa_offset 40
 328 0004 00AF     		add	r7, sp, #0
 329              	.LCFI17:
 330              		.cfi_def_cfa_register 7
 331 0006 F860     		str	r0, [r7, #12]
 332 0008 B960     		str	r1, [r7, #8]
 333 000a 7A60     		str	r2, [r7, #4]
 334 000c 3B60     		str	r3, [r7]
 108:g:/iot/IoT_Device_Demo/iot_link/network/tcpip/sal\sal_netdb.c ****     char *str;
 109:g:/iot/IoT_Device_Demo/iot_link/network/tcpip/sal\sal_netdb.c ****     char          *result = NULL;
 335              		.loc 1 109 20
 336 000e 0023     		movs	r3, #0
 337 0010 FB61     		str	r3, [r7, #28]
 110:g:/iot/IoT_Device_Demo/iot_link/network/tcpip/sal\sal_netdb.c ****     struct in_addr addr;
 111:g:/iot/IoT_Device_Demo/iot_link/network/tcpip/sal\sal_netdb.c **** 
 112:g:/iot/IoT_Device_Demo/iot_link/network/tcpip/sal\sal_netdb.c ****     if((NULL == src)||(NULL == dst))
 338              		.loc 1 112 7
 339 0012 BB68     		ldr	r3, [r7, #8]
 340 0014 002B     		cmp	r3, #0
 341 0016 02D0     		beq	.L16
 342              		.loc 1 112 21 discriminator 1
 343 0018 7B68     		ldr	r3, [r7, #4]
 344 001a 002B     		cmp	r3, #0
 345 001c 01D1     		bne	.L17
 346              	.L16:
 113:g:/iot/IoT_Device_Demo/iot_link/network/tcpip/sal\sal_netdb.c ****     {
 114:g:/iot/IoT_Device_Demo/iot_link/network/tcpip/sal\sal_netdb.c ****         return result;
ARM GAS  C:\Users\ADMINI~1\AppData\Local\Temp\ccZhVq0e.s 			page 9


 347              		.loc 1 114 16
 348 001e FB69     		ldr	r3, [r7, #28]
 349 0020 22E0     		b	.L20
 350              	.L17:
 115:g:/iot/IoT_Device_Demo/iot_link/network/tcpip/sal\sal_netdb.c ****     }
 116:g:/iot/IoT_Device_Demo/iot_link/network/tcpip/sal\sal_netdb.c **** 
 117:g:/iot/IoT_Device_Demo/iot_link/network/tcpip/sal\sal_netdb.c ****     if(af==AF_INET)
 351              		.loc 1 117 7
 352 0022 FB68     		ldr	r3, [r7, #12]
 353 0024 022B     		cmp	r3, #2
 354 0026 1ED1     		bne	.L19
 355 0028 BB68     		ldr	r3, [r7, #8]
 356 002a 1B68     		ldr	r3, [r3]	@ unaligned
 118:g:/iot/IoT_Device_Demo/iot_link/network/tcpip/sal\sal_netdb.c ****     {
 119:g:/iot/IoT_Device_Demo/iot_link/network/tcpip/sal\sal_netdb.c **** 
 120:g:/iot/IoT_Device_Demo/iot_link/network/tcpip/sal\sal_netdb.c ****         (void) memcpy((void *)&addr,src,sizeof(addr));
 357              		.loc 1 120 16
 358 002c 7B61     		str	r3, [r7, #20]
 121:g:/iot/IoT_Device_Demo/iot_link/network/tcpip/sal\sal_netdb.c ****         str = inet_ntoa(addr);
 359              		.loc 1 121 15
 360 002e 7869     		ldr	r0, [r7, #20]
 361 0030 FFF7FEFF 		bl	inet_ntoa
 362 0034 B861     		str	r0, [r7, #24]
 122:g:/iot/IoT_Device_Demo/iot_link/network/tcpip/sal\sal_netdb.c **** 
 123:g:/iot/IoT_Device_Demo/iot_link/network/tcpip/sal\sal_netdb.c ****         if((NULL != str)&&(cnt >(socklen_t)(strlen(str)+1)))
 363              		.loc 1 123 11
 364 0036 BB69     		ldr	r3, [r7, #24]
 365 0038 002B     		cmp	r3, #0
 366 003a 14D0     		beq	.L19
 367              		.loc 1 123 45 discriminator 1
 368 003c B869     		ldr	r0, [r7, #24]
 369 003e FFF7FEFF 		bl	strlen
 370 0042 0346     		mov	r3, r0
 371              		.loc 1 123 56 discriminator 1
 372 0044 0133     		adds	r3, r3, #1
 373              		.loc 1 123 33 discriminator 1
 374 0046 1A46     		mov	r2, r3
 375              		.loc 1 123 25 discriminator 1
 376 0048 3B68     		ldr	r3, [r7]
 377 004a 9342     		cmp	r3, r2
 378 004c 0BDD     		ble	.L19
 124:g:/iot/IoT_Device_Demo/iot_link/network/tcpip/sal\sal_netdb.c ****         {
 125:g:/iot/IoT_Device_Demo/iot_link/network/tcpip/sal\sal_netdb.c ****             (void) memcpy((void*)dst,(void*)str,strlen(str)+1);
 379              		.loc 1 125 49
 380 004e B869     		ldr	r0, [r7, #24]
 381 0050 FFF7FEFF 		bl	strlen
 382 0054 0346     		mov	r3, r0
 383              		.loc 1 125 20
 384 0056 0133     		adds	r3, r3, #1
 385 0058 1A46     		mov	r2, r3
 386 005a B969     		ldr	r1, [r7, #24]
 387 005c 7868     		ldr	r0, [r7, #4]
 388 005e FFF7FEFF 		bl	memcpy
 126:g:/iot/IoT_Device_Demo/iot_link/network/tcpip/sal\sal_netdb.c ****             result = dst;
 389              		.loc 1 126 20
 390 0062 7B68     		ldr	r3, [r7, #4]
 391 0064 FB61     		str	r3, [r7, #28]
ARM GAS  C:\Users\ADMINI~1\AppData\Local\Temp\ccZhVq0e.s 			page 10


 392              	.L19:
 127:g:/iot/IoT_Device_Demo/iot_link/network/tcpip/sal\sal_netdb.c ****         }
 128:g:/iot/IoT_Device_Demo/iot_link/network/tcpip/sal\sal_netdb.c ****     }
 129:g:/iot/IoT_Device_Demo/iot_link/network/tcpip/sal\sal_netdb.c **** 
 130:g:/iot/IoT_Device_Demo/iot_link/network/tcpip/sal\sal_netdb.c ****     return result;
 393              		.loc 1 130 12
 394 0066 FB69     		ldr	r3, [r7, #28]
 395              	.L20:
 131:g:/iot/IoT_Device_Demo/iot_link/network/tcpip/sal\sal_netdb.c **** }
 396              		.loc 1 131 1 discriminator 1
 397 0068 1846     		mov	r0, r3
 398 006a 2037     		adds	r7, r7, #32
 399              	.LCFI18:
 400              		.cfi_def_cfa_offset 8
 401 006c BD46     		mov	sp, r7
 402              	.LCFI19:
 403              		.cfi_def_cfa_register 13
 404              		@ sp needed
 405 006e 80BD     		pop	{r7, pc}
 406              		.cfi_endproc
 407              	.LFE6:
 409              		.section	.text.inet_pton,"ax",%progbits
 410              		.align	1
 411              		.weak	inet_pton
 412              		.syntax unified
 413              		.thumb
 414              		.thumb_func
 415              		.fpu fpv4-sp-d16
 417              	inet_pton:
 418              	.LFB7:
 132:g:/iot/IoT_Device_Demo/iot_link/network/tcpip/sal\sal_netdb.c **** 
 133:g:/iot/IoT_Device_Demo/iot_link/network/tcpip/sal\sal_netdb.c **** __attribute__((weak)) int inet_pton(int af, const char *src, void *dst)
 134:g:/iot/IoT_Device_Demo/iot_link/network/tcpip/sal\sal_netdb.c **** {
 419              		.loc 1 134 1
 420              		.cfi_startproc
 421              		@ args = 0, pretend = 0, frame = 24
 422              		@ frame_needed = 1, uses_anonymous_args = 0
 423 0000 80B5     		push	{r7, lr}
 424              	.LCFI20:
 425              		.cfi_def_cfa_offset 8
 426              		.cfi_offset 7, -8
 427              		.cfi_offset 14, -4
 428 0002 86B0     		sub	sp, sp, #24
 429              	.LCFI21:
 430              		.cfi_def_cfa_offset 32
 431 0004 00AF     		add	r7, sp, #0
 432              	.LCFI22:
 433              		.cfi_def_cfa_register 7
 434 0006 F860     		str	r0, [r7, #12]
 435 0008 B960     		str	r1, [r7, #8]
 436 000a 7A60     		str	r2, [r7, #4]
 135:g:/iot/IoT_Device_Demo/iot_link/network/tcpip/sal\sal_netdb.c **** 
 136:g:/iot/IoT_Device_Demo/iot_link/network/tcpip/sal\sal_netdb.c ****     int result = -1;
 437              		.loc 1 136 9
 438 000c 4FF0FF33 		mov	r3, #-1
 439 0010 7B61     		str	r3, [r7, #20]
 137:g:/iot/IoT_Device_Demo/iot_link/network/tcpip/sal\sal_netdb.c ****     struct in_addr addr;
ARM GAS  C:\Users\ADMINI~1\AppData\Local\Temp\ccZhVq0e.s 			page 11


 138:g:/iot/IoT_Device_Demo/iot_link/network/tcpip/sal\sal_netdb.c **** 
 139:g:/iot/IoT_Device_Demo/iot_link/network/tcpip/sal\sal_netdb.c ****     if((NULL == src)||(NULL == dst))
 440              		.loc 1 139 7
 441 0012 BB68     		ldr	r3, [r7, #8]
 442 0014 002B     		cmp	r3, #0
 443 0016 02D0     		beq	.L22
 444              		.loc 1 139 21 discriminator 1
 445 0018 7B68     		ldr	r3, [r7, #4]
 446 001a 002B     		cmp	r3, #0
 447 001c 03D1     		bne	.L23
 448              	.L22:
 140:g:/iot/IoT_Device_Demo/iot_link/network/tcpip/sal\sal_netdb.c ****     {
 141:g:/iot/IoT_Device_Demo/iot_link/network/tcpip/sal\sal_netdb.c ****         result = 0;
 449              		.loc 1 141 16
 450 001e 0023     		movs	r3, #0
 451 0020 7B61     		str	r3, [r7, #20]
 142:g:/iot/IoT_Device_Demo/iot_link/network/tcpip/sal\sal_netdb.c ****         return result;
 452              		.loc 1 142 16
 453 0022 7B69     		ldr	r3, [r7, #20]
 454 0024 11E0     		b	.L26
 455              	.L23:
 143:g:/iot/IoT_Device_Demo/iot_link/network/tcpip/sal\sal_netdb.c ****     }
 144:g:/iot/IoT_Device_Demo/iot_link/network/tcpip/sal\sal_netdb.c **** 
 145:g:/iot/IoT_Device_Demo/iot_link/network/tcpip/sal\sal_netdb.c ****     if(af==AF_INET)
 456              		.loc 1 145 7
 457 0026 FB68     		ldr	r3, [r7, #12]
 458 0028 022B     		cmp	r3, #2
 459 002a 0DD1     		bne	.L25
 146:g:/iot/IoT_Device_Demo/iot_link/network/tcpip/sal\sal_netdb.c ****     {
 147:g:/iot/IoT_Device_Demo/iot_link/network/tcpip/sal\sal_netdb.c ****         if(inet_aton(src,&addr))
 460              		.loc 1 147 12
 461 002c 07F11003 		add	r3, r7, #16
 462 0030 1946     		mov	r1, r3
 463 0032 B868     		ldr	r0, [r7, #8]
 464 0034 FFF7FEFF 		bl	inet_aton
 465 0038 0346     		mov	r3, r0
 466              		.loc 1 147 11
 467 003a 002B     		cmp	r3, #0
 468 003c 04D0     		beq	.L25
 469 003e 3A69     		ldr	r2, [r7, #16]
 148:g:/iot/IoT_Device_Demo/iot_link/network/tcpip/sal\sal_netdb.c ****         {
 149:g:/iot/IoT_Device_Demo/iot_link/network/tcpip/sal\sal_netdb.c ****             (void) memcpy((void *)dst,&addr,sizeof(addr));
 470              		.loc 1 149 20
 471 0040 7B68     		ldr	r3, [r7, #4]
 472 0042 1A60     		str	r2, [r3]	@ unaligned
 150:g:/iot/IoT_Device_Demo/iot_link/network/tcpip/sal\sal_netdb.c ****             result = 1;
 473              		.loc 1 150 20
 474 0044 0123     		movs	r3, #1
 475 0046 7B61     		str	r3, [r7, #20]
 476              	.L25:
 151:g:/iot/IoT_Device_Demo/iot_link/network/tcpip/sal\sal_netdb.c ****         }
 152:g:/iot/IoT_Device_Demo/iot_link/network/tcpip/sal\sal_netdb.c ****     }
 153:g:/iot/IoT_Device_Demo/iot_link/network/tcpip/sal\sal_netdb.c **** 
 154:g:/iot/IoT_Device_Demo/iot_link/network/tcpip/sal\sal_netdb.c ****     return result;
 477              		.loc 1 154 12
 478 0048 7B69     		ldr	r3, [r7, #20]
 479              	.L26:
ARM GAS  C:\Users\ADMINI~1\AppData\Local\Temp\ccZhVq0e.s 			page 12


 155:g:/iot/IoT_Device_Demo/iot_link/network/tcpip/sal\sal_netdb.c **** }
 480              		.loc 1 155 1 discriminator 1
 481 004a 1846     		mov	r0, r3
 482 004c 1837     		adds	r7, r7, #24
 483              	.LCFI23:
 484              		.cfi_def_cfa_offset 8
 485 004e BD46     		mov	sp, r7
 486              	.LCFI24:
 487              		.cfi_def_cfa_register 13
 488              		@ sp needed
 489 0050 80BD     		pop	{r7, pc}
 490              		.cfi_endproc
 491              	.LFE7:
 493              		.text
 494              	.Letext0:
 495              		.file 2 "g:\\iot\\.huawei-liteos-studio\\tools\\arm-none-eabi\\arm-none-eabi\\include\\machine\\_d
 496              		.file 3 "g:\\iot\\.huawei-liteos-studio\\tools\\arm-none-eabi\\arm-none-eabi\\include\\sys\\_stdin
 497              		.file 4 "g:\\iot\\.huawei-liteos-studio\\tools\\arm-none-eabi\\arm-none-eabi\\include\\sys\\lock.h
 498              		.file 5 "g:\\iot\\.huawei-liteos-studio\\tools\\arm-none-eabi\\arm-none-eabi\\include\\sys\\_types
 499              		.file 6 "g:\\iot\\.huawei-liteos-studio\\tools\\arm-none-eabi\\lib\\gcc\\arm-none-eabi\\9.2.1\\inc
 500              		.file 7 "g:\\iot\\.huawei-liteos-studio\\tools\\arm-none-eabi\\arm-none-eabi\\include\\sys\\reent.
 501              		.file 8 "g:/iot/IoT_Device_Demo/iot_link/inc/sal_types.h"
ARM GAS  C:\Users\ADMINI~1\AppData\Local\Temp\ccZhVq0e.s 			page 13

