ARM GAS  C:\Users\ADMINI~1\AppData\Local\Temp\ccTcVp5n.s 			page 1


   1              		.cpu cortex-m4
   2              		.eabi_attribute 27, 1
   3              		.eabi_attribute 28, 1
   4              		.eabi_attribute 20, 1
   5              		.eabi_attribute 21, 1
   6              		.eabi_attribute 23, 3
   7              		.eabi_attribute 24, 1
   8              		.eabi_attribute 25, 1
   9              		.eabi_attribute 26, 1
  10              		.eabi_attribute 30, 6
  11              		.eabi_attribute 34, 1
  12              		.eabi_attribute 18, 4
  13              		.file	"agent_lwm2m.c"
  14              		.text
  15              	.Ltext0:
  16              		.cfi_sections	.debug_frame
  17              		.section	.bss.s_oc_lwm2m_agent,"aw",%nobits
  18              		.align	2
  21              	s_oc_lwm2m_agent:
  22 0000 00000000 		.space	4
  23              		.section	.bss.uri_list,"aw",%nobits
  24              		.align	2
  27              	uri_list:
  28 0000 00000000 		.space	4
  29              		.section	.text.lwm2m_agent_receive,"ax",%progbits
  30              		.align	1
  31              		.arch armv7e-m
  32              		.syntax unified
  33              		.thumb
  34              		.thumb_func
  35              		.fpu fpv4-sp-d16
  37              	lwm2m_agent_receive:
  38              	.LFB3:
  39              		.file 1 "g:/iot/IoT_Device_Demo/iot_link/oc/oc_lwm2m/atiny_lwm2m/agent_lwm2m.c"
   1:g:/iot/IoT_Device_Demo/iot_link/oc/oc_lwm2m/atiny_lwm2m\agent_lwm2m.c **** /*----------------------------------------------------------------------------
   2:g:/iot/IoT_Device_Demo/iot_link/oc/oc_lwm2m/atiny_lwm2m\agent_lwm2m.c ****  * Copyright (c) <2018>, <Huawei Technologies Co., Ltd>
   3:g:/iot/IoT_Device_Demo/iot_link/oc/oc_lwm2m/atiny_lwm2m\agent_lwm2m.c ****  * All rights reserved.
   4:g:/iot/IoT_Device_Demo/iot_link/oc/oc_lwm2m/atiny_lwm2m\agent_lwm2m.c ****  * Redistribution and use in source and binary forms, with or without modification,
   5:g:/iot/IoT_Device_Demo/iot_link/oc/oc_lwm2m/atiny_lwm2m\agent_lwm2m.c ****  * are permitted provided that the following conditions are met:
   6:g:/iot/IoT_Device_Demo/iot_link/oc/oc_lwm2m/atiny_lwm2m\agent_lwm2m.c ****  * 1. Redistributions of source code must retain the above copyright notice, this list of
   7:g:/iot/IoT_Device_Demo/iot_link/oc/oc_lwm2m/atiny_lwm2m\agent_lwm2m.c ****  * conditions and the following disclaimer.
   8:g:/iot/IoT_Device_Demo/iot_link/oc/oc_lwm2m/atiny_lwm2m\agent_lwm2m.c ****  * 2. Redistributions in binary form must reproduce the above copyright notice, this list
   9:g:/iot/IoT_Device_Demo/iot_link/oc/oc_lwm2m/atiny_lwm2m\agent_lwm2m.c ****  * of conditions and the following disclaimer in the documentation and/or other materials
  10:g:/iot/IoT_Device_Demo/iot_link/oc/oc_lwm2m/atiny_lwm2m\agent_lwm2m.c ****  * provided with the distribution.
  11:g:/iot/IoT_Device_Demo/iot_link/oc/oc_lwm2m/atiny_lwm2m\agent_lwm2m.c ****  * 3. Neither the name of the copyright holder nor the names of its contributors may be used
  12:g:/iot/IoT_Device_Demo/iot_link/oc/oc_lwm2m/atiny_lwm2m\agent_lwm2m.c ****  * to endorse or promote products derived from this software without specific prior written
  13:g:/iot/IoT_Device_Demo/iot_link/oc/oc_lwm2m/atiny_lwm2m\agent_lwm2m.c ****  * permission.
  14:g:/iot/IoT_Device_Demo/iot_link/oc/oc_lwm2m/atiny_lwm2m\agent_lwm2m.c ****  * THIS SOFTWARE IS PROVIDED BY THE COPYRIGHT HOLDERS AND CONTRIBUTORS
  15:g:/iot/IoT_Device_Demo/iot_link/oc/oc_lwm2m/atiny_lwm2m\agent_lwm2m.c ****  * "AS IS" AND ANY EXPRESS OR IMPLIED WARRANTIES, INCLUDING, BUT NOT LIMITED TO,
  16:g:/iot/IoT_Device_Demo/iot_link/oc/oc_lwm2m/atiny_lwm2m\agent_lwm2m.c ****  * THE IMPLIED WARRANTIES OF MERCHANTABILITY AND FITNESS FOR A PARTICULAR
  17:g:/iot/IoT_Device_Demo/iot_link/oc/oc_lwm2m/atiny_lwm2m\agent_lwm2m.c ****  * PURPOSE ARE DISCLAIMED. IN NO EVENT SHALL THE COPYRIGHT HOLDER OR
  18:g:/iot/IoT_Device_Demo/iot_link/oc/oc_lwm2m/atiny_lwm2m\agent_lwm2m.c ****  * CONTRIBUTORS BE LIABLE FOR ANY DIRECT, INDIRECT, INCIDENTAL, SPECIAL,
  19:g:/iot/IoT_Device_Demo/iot_link/oc/oc_lwm2m/atiny_lwm2m\agent_lwm2m.c ****  * EXEMPLARY, OR CONSEQUENTIAL DAMAGES (INCLUDING, BUT NOT LIMITED TO,
  20:g:/iot/IoT_Device_Demo/iot_link/oc/oc_lwm2m/atiny_lwm2m\agent_lwm2m.c ****  * PROCUREMENT OF SUBSTITUTE GOODS OR SERVICES; LOSS OF USE, DATA, OR PROFITS;
  21:g:/iot/IoT_Device_Demo/iot_link/oc/oc_lwm2m/atiny_lwm2m\agent_lwm2m.c ****  * OR BUSINESS INTERRUPTION) HOWEVER CAUSED AND ON ANY THEORY OF LIABILITY,
  22:g:/iot/IoT_Device_Demo/iot_link/oc/oc_lwm2m/atiny_lwm2m\agent_lwm2m.c ****  * WHETHER IN CONTRACT, STRICT LIABILITY, OR TORT (INCLUDING NEGLIGENCE OR
  23:g:/iot/IoT_Device_Demo/iot_link/oc/oc_lwm2m/atiny_lwm2m\agent_lwm2m.c ****  * OTHERWISE) ARISING IN ANY WAY OUT OF THE USE OF THIS SOFTWARE, EVEN IF
ARM GAS  C:\Users\ADMINI~1\AppData\Local\Temp\ccTcVp5n.s 			page 2


  24:g:/iot/IoT_Device_Demo/iot_link/oc/oc_lwm2m/atiny_lwm2m\agent_lwm2m.c ****  * ADVISED OF THE POSSIBILITY OF SUCH DAMAGE.
  25:g:/iot/IoT_Device_Demo/iot_link/oc/oc_lwm2m/atiny_lwm2m\agent_lwm2m.c ****  *---------------------------------------------------------------------------*/
  26:g:/iot/IoT_Device_Demo/iot_link/oc/oc_lwm2m/atiny_lwm2m\agent_lwm2m.c **** /*----------------------------------------------------------------------------
  27:g:/iot/IoT_Device_Demo/iot_link/oc/oc_lwm2m/atiny_lwm2m\agent_lwm2m.c ****  * Notice of Export Control Law
  28:g:/iot/IoT_Device_Demo/iot_link/oc/oc_lwm2m/atiny_lwm2m\agent_lwm2m.c ****  * ===============================================
  29:g:/iot/IoT_Device_Demo/iot_link/oc/oc_lwm2m/atiny_lwm2m\agent_lwm2m.c ****  * Huawei LiteOS may be subject to applicable export control laws and regulations, which might
  30:g:/iot/IoT_Device_Demo/iot_link/oc/oc_lwm2m/atiny_lwm2m\agent_lwm2m.c ****  * include those applicable to Huawei LiteOS of U.S. and the country in which you are located.
  31:g:/iot/IoT_Device_Demo/iot_link/oc/oc_lwm2m/atiny_lwm2m\agent_lwm2m.c ****  * Import, export and usage of Huawei LiteOS in any manner by you shall be in compliance with such
  32:g:/iot/IoT_Device_Demo/iot_link/oc/oc_lwm2m/atiny_lwm2m\agent_lwm2m.c ****  * applicable export control laws and regulations.
  33:g:/iot/IoT_Device_Demo/iot_link/oc/oc_lwm2m/atiny_lwm2m\agent_lwm2m.c ****  *---------------------------------------------------------------------------*/
  34:g:/iot/IoT_Device_Demo/iot_link/oc/oc_lwm2m/atiny_lwm2m\agent_lwm2m.c **** /**
  35:g:/iot/IoT_Device_Demo/iot_link/oc/oc_lwm2m/atiny_lwm2m\agent_lwm2m.c ****  *  DATE                AUTHOR      INSTRUCTION
  36:g:/iot/IoT_Device_Demo/iot_link/oc/oc_lwm2m/atiny_lwm2m\agent_lwm2m.c ****  *  2019-05-21 16:25  zhangqianfu  The first version
  37:g:/iot/IoT_Device_Demo/iot_link/oc/oc_lwm2m/atiny_lwm2m\agent_lwm2m.c ****  *
  38:g:/iot/IoT_Device_Demo/iot_link/oc/oc_lwm2m/atiny_lwm2m\agent_lwm2m.c ****  */
  39:g:/iot/IoT_Device_Demo/iot_link/oc/oc_lwm2m/atiny_lwm2m\agent_lwm2m.c **** 
  40:g:/iot/IoT_Device_Demo/iot_link/oc/oc_lwm2m/atiny_lwm2m\agent_lwm2m.c **** #include <osal.h>
  41:g:/iot/IoT_Device_Demo/iot_link/oc/oc_lwm2m/atiny_lwm2m\agent_lwm2m.c **** #include <lwm2m_al.h>
  42:g:/iot/IoT_Device_Demo/iot_link/oc/oc_lwm2m/atiny_lwm2m\agent_lwm2m.c **** #include <oc_lwm2m_al.h>
  43:g:/iot/IoT_Device_Demo/iot_link/oc/oc_lwm2m/atiny_lwm2m\agent_lwm2m.c **** #include <atiny_log.h>
  44:g:/iot/IoT_Device_Demo/iot_link/oc/oc_lwm2m/atiny_lwm2m\agent_lwm2m.c **** #include <string.h>
  45:g:/iot/IoT_Device_Demo/iot_link/oc/oc_lwm2m/atiny_lwm2m\agent_lwm2m.c **** 
  46:g:/iot/IoT_Device_Demo/iot_link/oc/oc_lwm2m/atiny_lwm2m\agent_lwm2m.c **** typedef enum
  47:g:/iot/IoT_Device_Demo/iot_link/oc/oc_lwm2m/atiny_lwm2m\agent_lwm2m.c **** {
  48:g:/iot/IoT_Device_Demo/iot_link/oc/oc_lwm2m/atiny_lwm2m\agent_lwm2m.c ****     ATINY_OK                   =  0,
  49:g:/iot/IoT_Device_Demo/iot_link/oc/oc_lwm2m/atiny_lwm2m\agent_lwm2m.c ****     ATINY_ARG_INVALID          = -1,
  50:g:/iot/IoT_Device_Demo/iot_link/oc/oc_lwm2m/atiny_lwm2m\agent_lwm2m.c ****     ATINY_BUF_OVERFLOW         = -2,
  51:g:/iot/IoT_Device_Demo/iot_link/oc/oc_lwm2m/atiny_lwm2m\agent_lwm2m.c ****     ATINY_MSG_CONGEST          = -3,
  52:g:/iot/IoT_Device_Demo/iot_link/oc/oc_lwm2m/atiny_lwm2m\agent_lwm2m.c ****     ATINY_MALLOC_FAILED        = -4,
  53:g:/iot/IoT_Device_Demo/iot_link/oc/oc_lwm2m/atiny_lwm2m\agent_lwm2m.c ****     ATINY_RESOURCE_NOT_FOUND   = -5,
  54:g:/iot/IoT_Device_Demo/iot_link/oc/oc_lwm2m/atiny_lwm2m\agent_lwm2m.c ****     ATINY_RESOURCE_NOT_ENOUGH  = -6,
  55:g:/iot/IoT_Device_Demo/iot_link/oc/oc_lwm2m/atiny_lwm2m\agent_lwm2m.c ****     ATINY_CLIENT_UNREGISTERED  = -7,
  56:g:/iot/IoT_Device_Demo/iot_link/oc/oc_lwm2m/atiny_lwm2m\agent_lwm2m.c ****     ATINY_SOCKET_CREATE_FAILED = -8,
  57:g:/iot/IoT_Device_Demo/iot_link/oc/oc_lwm2m/atiny_lwm2m\agent_lwm2m.c ****     ATINY_ERR                  = -9
  58:g:/iot/IoT_Device_Demo/iot_link/oc/oc_lwm2m/atiny_lwm2m\agent_lwm2m.c **** } atiny_error_e;
  59:g:/iot/IoT_Device_Demo/iot_link/oc/oc_lwm2m/atiny_lwm2m\agent_lwm2m.c **** 
  60:g:/iot/IoT_Device_Demo/iot_link/oc/oc_lwm2m/atiny_lwm2m\agent_lwm2m.c **** ///< uptils now, we don't support the multi handle mode
  61:g:/iot/IoT_Device_Demo/iot_link/oc/oc_lwm2m/atiny_lwm2m\agent_lwm2m.c **** 
  62:g:/iot/IoT_Device_Demo/iot_link/oc/oc_lwm2m/atiny_lwm2m\agent_lwm2m.c **** typedef enum
  63:g:/iot/IoT_Device_Demo/iot_link/oc/oc_lwm2m/atiny_lwm2m\agent_lwm2m.c **** {
  64:g:/iot/IoT_Device_Demo/iot_link/oc/oc_lwm2m/atiny_lwm2m\agent_lwm2m.c ****     ATINY_BOOTSTRAP_FACTORY = 0,
  65:g:/iot/IoT_Device_Demo/iot_link/oc/oc_lwm2m/atiny_lwm2m\agent_lwm2m.c ****     ATINY_BOOTSTRAP_CLIENT_INITIATED,
  66:g:/iot/IoT_Device_Demo/iot_link/oc/oc_lwm2m/atiny_lwm2m\agent_lwm2m.c ****     ATINY_BOOTSTRAP_SEQUENCE
  67:g:/iot/IoT_Device_Demo/iot_link/oc/oc_lwm2m/atiny_lwm2m\agent_lwm2m.c **** } atiny_bootstrap_type_e;
  68:g:/iot/IoT_Device_Demo/iot_link/oc/oc_lwm2m/atiny_lwm2m\agent_lwm2m.c **** 
  69:g:/iot/IoT_Device_Demo/iot_link/oc/oc_lwm2m/atiny_lwm2m\agent_lwm2m.c **** typedef struct
  70:g:/iot/IoT_Device_Demo/iot_link/oc/oc_lwm2m/atiny_lwm2m\agent_lwm2m.c **** {
  71:g:/iot/IoT_Device_Demo/iot_link/oc/oc_lwm2m/atiny_lwm2m\agent_lwm2m.c ****     char                   *binding;       /* support U and UQ bind mode */
  72:g:/iot/IoT_Device_Demo/iot_link/oc/oc_lwm2m/atiny_lwm2m\agent_lwm2m.c ****     int                     life_time;      /* required option */
  73:g:/iot/IoT_Device_Demo/iot_link/oc/oc_lwm2m/atiny_lwm2m\agent_lwm2m.c ****     unsigned int            storing_cnt;    /* storing count */
  74:g:/iot/IoT_Device_Demo/iot_link/oc/oc_lwm2m/atiny_lwm2m\agent_lwm2m.c ****     atiny_bootstrap_type_e  bootstrap_mode; /* bootstrap mode  */
  75:g:/iot/IoT_Device_Demo/iot_link/oc/oc_lwm2m/atiny_lwm2m\agent_lwm2m.c ****     int                     hold_off_time;  /* bootstrap hold off time for server initiated bootstr
  76:g:/iot/IoT_Device_Demo/iot_link/oc/oc_lwm2m/atiny_lwm2m\agent_lwm2m.c **** } atiny_server_param_t;
  77:g:/iot/IoT_Device_Demo/iot_link/oc/oc_lwm2m/atiny_lwm2m\agent_lwm2m.c **** 
  78:g:/iot/IoT_Device_Demo/iot_link/oc/oc_lwm2m/atiny_lwm2m\agent_lwm2m.c **** typedef struct
  79:g:/iot/IoT_Device_Demo/iot_link/oc/oc_lwm2m/atiny_lwm2m\agent_lwm2m.c **** {
  80:g:/iot/IoT_Device_Demo/iot_link/oc/oc_lwm2m/atiny_lwm2m\agent_lwm2m.c ****     char           *server_ip;
ARM GAS  C:\Users\ADMINI~1\AppData\Local\Temp\ccTcVp5n.s 			page 3


  81:g:/iot/IoT_Device_Demo/iot_link/oc/oc_lwm2m/atiny_lwm2m\agent_lwm2m.c ****     char           *server_port;
  82:g:/iot/IoT_Device_Demo/iot_link/oc/oc_lwm2m/atiny_lwm2m\agent_lwm2m.c ****     char           *psk_id;
  83:g:/iot/IoT_Device_Demo/iot_link/oc/oc_lwm2m/atiny_lwm2m\agent_lwm2m.c ****     char           *psk;
  84:g:/iot/IoT_Device_Demo/iot_link/oc/oc_lwm2m/atiny_lwm2m\agent_lwm2m.c ****     unsigned short  psk_len;
  85:g:/iot/IoT_Device_Demo/iot_link/oc/oc_lwm2m/atiny_lwm2m\agent_lwm2m.c **** } atiny_security_param_t;
  86:g:/iot/IoT_Device_Demo/iot_link/oc/oc_lwm2m/atiny_lwm2m\agent_lwm2m.c **** 
  87:g:/iot/IoT_Device_Demo/iot_link/oc/oc_lwm2m/atiny_lwm2m\agent_lwm2m.c **** typedef struct
  88:g:/iot/IoT_Device_Demo/iot_link/oc/oc_lwm2m/atiny_lwm2m\agent_lwm2m.c **** {
  89:g:/iot/IoT_Device_Demo/iot_link/oc/oc_lwm2m/atiny_lwm2m\agent_lwm2m.c ****     atiny_server_param_t    server_params;
  90:g:/iot/IoT_Device_Demo/iot_link/oc/oc_lwm2m/atiny_lwm2m\agent_lwm2m.c **** 
  91:g:/iot/IoT_Device_Demo/iot_link/oc/oc_lwm2m/atiny_lwm2m\agent_lwm2m.c ****     //both iot_server and bs_server have psk & pskID, index 0 for iot_server, and index 1 for bs_se
  92:g:/iot/IoT_Device_Demo/iot_link/oc/oc_lwm2m/atiny_lwm2m\agent_lwm2m.c ****     atiny_security_param_t  security_params[2];
  93:g:/iot/IoT_Device_Demo/iot_link/oc/oc_lwm2m/atiny_lwm2m\agent_lwm2m.c **** 
  94:g:/iot/IoT_Device_Demo/iot_link/oc/oc_lwm2m/atiny_lwm2m\agent_lwm2m.c ****     void                   *userData;
  95:g:/iot/IoT_Device_Demo/iot_link/oc/oc_lwm2m/atiny_lwm2m\agent_lwm2m.c **** } atiny_param_t;
  96:g:/iot/IoT_Device_Demo/iot_link/oc/oc_lwm2m/atiny_lwm2m\agent_lwm2m.c **** 
  97:g:/iot/IoT_Device_Demo/iot_link/oc/oc_lwm2m/atiny_lwm2m\agent_lwm2m.c **** typedef struct
  98:g:/iot/IoT_Device_Demo/iot_link/oc/oc_lwm2m/atiny_lwm2m\agent_lwm2m.c **** {
  99:g:/iot/IoT_Device_Demo/iot_link/oc/oc_lwm2m/atiny_lwm2m\agent_lwm2m.c ****     char *endpoint_name;
 100:g:/iot/IoT_Device_Demo/iot_link/oc/oc_lwm2m/atiny_lwm2m\agent_lwm2m.c ****     char *manufacturer;
 101:g:/iot/IoT_Device_Demo/iot_link/oc/oc_lwm2m/atiny_lwm2m\agent_lwm2m.c ****     char *dev_type;
 102:g:/iot/IoT_Device_Demo/iot_link/oc/oc_lwm2m/atiny_lwm2m\agent_lwm2m.c **** } atiny_device_info_t;
 103:g:/iot/IoT_Device_Demo/iot_link/oc/oc_lwm2m/atiny_lwm2m\agent_lwm2m.c **** 
 104:g:/iot/IoT_Device_Demo/iot_link/oc/oc_lwm2m/atiny_lwm2m\agent_lwm2m.c **** typedef struct
 105:g:/iot/IoT_Device_Demo/iot_link/oc/oc_lwm2m/atiny_lwm2m\agent_lwm2m.c **** {
 106:g:/iot/IoT_Device_Demo/iot_link/oc/oc_lwm2m/atiny_lwm2m\agent_lwm2m.c ****     atiny_device_info_t device_info;
 107:g:/iot/IoT_Device_Demo/iot_link/oc/oc_lwm2m/atiny_lwm2m\agent_lwm2m.c ****     atiny_param_t       tiny_param;
 108:g:/iot/IoT_Device_Demo/iot_link/oc/oc_lwm2m/atiny_lwm2m\agent_lwm2m.c ****     oc_config_param_t   config_para;
 109:g:/iot/IoT_Device_Demo/iot_link/oc/oc_lwm2m/atiny_lwm2m\agent_lwm2m.c ****     void               *agent_handle;
 110:g:/iot/IoT_Device_Demo/iot_link/oc/oc_lwm2m/atiny_lwm2m\agent_lwm2m.c ****     void               *task_handle;
 111:g:/iot/IoT_Device_Demo/iot_link/oc/oc_lwm2m/atiny_lwm2m\agent_lwm2m.c **** } oc_lwm2m_imp_agent_t;
 112:g:/iot/IoT_Device_Demo/iot_link/oc/oc_lwm2m/atiny_lwm2m\agent_lwm2m.c **** 
 113:g:/iot/IoT_Device_Demo/iot_link/oc/oc_lwm2m/atiny_lwm2m\agent_lwm2m.c **** static oc_lwm2m_imp_agent_t  *s_oc_lwm2m_agent = NULL;
 114:g:/iot/IoT_Device_Demo/iot_link/oc/oc_lwm2m/atiny_lwm2m\agent_lwm2m.c **** 
 115:g:/iot/IoT_Device_Demo/iot_link/oc/oc_lwm2m/atiny_lwm2m\agent_lwm2m.c **** #define SERVER_ID                           (123)
 116:g:/iot/IoT_Device_Demo/iot_link/oc/oc_lwm2m/atiny_lwm2m\agent_lwm2m.c **** #define BINARY_APP_DATA_OBJECT_ID           19
 117:g:/iot/IoT_Device_Demo/iot_link/oc/oc_lwm2m/atiny_lwm2m\agent_lwm2m.c **** #define BINARY_APP_DATA_OBJECT_INSTANCE_NUM 2
 118:g:/iot/IoT_Device_Demo/iot_link/oc/oc_lwm2m/atiny_lwm2m\agent_lwm2m.c **** #define BINARY_APP_DATA_RES_ID              0
 119:g:/iot/IoT_Device_Demo/iot_link/oc/oc_lwm2m/atiny_lwm2m\agent_lwm2m.c **** #define MSG_NEED_CONFIRMED                  1
 120:g:/iot/IoT_Device_Demo/iot_link/oc/oc_lwm2m/atiny_lwm2m\agent_lwm2m.c **** 
 121:g:/iot/IoT_Device_Demo/iot_link/oc/oc_lwm2m/atiny_lwm2m\agent_lwm2m.c **** #define APP_UP_CHANNEL_URI      "/19/0/0"
 122:g:/iot/IoT_Device_Demo/iot_link/oc/oc_lwm2m/atiny_lwm2m\agent_lwm2m.c **** #define APP_DOWN_CHANNEL_URI    "/19/1/0"
 123:g:/iot/IoT_Device_Demo/iot_link/oc/oc_lwm2m/atiny_lwm2m\agent_lwm2m.c **** 
 124:g:/iot/IoT_Device_Demo/iot_link/oc/oc_lwm2m/atiny_lwm2m\agent_lwm2m.c **** typedef struct object_uri_list_t
 125:g:/iot/IoT_Device_Demo/iot_link/oc/oc_lwm2m/atiny_lwm2m\agent_lwm2m.c **** {
 126:g:/iot/IoT_Device_Demo/iot_link/oc/oc_lwm2m/atiny_lwm2m\agent_lwm2m.c ****     struct object_uri_list_t *next;
 127:g:/iot/IoT_Device_Demo/iot_link/oc/oc_lwm2m/atiny_lwm2m\agent_lwm2m.c ****     uint16_t object_id;
 128:g:/iot/IoT_Device_Demo/iot_link/oc/oc_lwm2m/atiny_lwm2m\agent_lwm2m.c **** } object_uri_list;
 129:g:/iot/IoT_Device_Demo/iot_link/oc/oc_lwm2m/atiny_lwm2m\agent_lwm2m.c **** 
 130:g:/iot/IoT_Device_Demo/iot_link/oc/oc_lwm2m/atiny_lwm2m\agent_lwm2m.c **** static object_uri_list *uri_list;
 131:g:/iot/IoT_Device_Demo/iot_link/oc/oc_lwm2m/atiny_lwm2m\agent_lwm2m.c **** 
 132:g:/iot/IoT_Device_Demo/iot_link/oc/oc_lwm2m/atiny_lwm2m\agent_lwm2m.c **** static int lwm2m_agent_receive(en_oc_lwm2m_msg_t type, char *msg, int len)
 133:g:/iot/IoT_Device_Demo/iot_link/oc/oc_lwm2m/atiny_lwm2m\agent_lwm2m.c **** {
  40              		.loc 1 133 1
  41              		.cfi_startproc
  42              		@ args = 0, pretend = 0, frame = 16
  43              		@ frame_needed = 1, uses_anonymous_args = 0
ARM GAS  C:\Users\ADMINI~1\AppData\Local\Temp\ccTcVp5n.s 			page 4


  44 0000 90B5     		push	{r4, r7, lr}
  45              	.LCFI0:
  46              		.cfi_def_cfa_offset 12
  47              		.cfi_offset 4, -12
  48              		.cfi_offset 7, -8
  49              		.cfi_offset 14, -4
  50 0002 85B0     		sub	sp, sp, #20
  51              	.LCFI1:
  52              		.cfi_def_cfa_offset 32
  53 0004 00AF     		add	r7, sp, #0
  54              	.LCFI2:
  55              		.cfi_def_cfa_register 7
  56 0006 0346     		mov	r3, r0
  57 0008 B960     		str	r1, [r7, #8]
  58 000a 7A60     		str	r2, [r7, #4]
  59 000c FB73     		strb	r3, [r7, #15]
 134:g:/iot/IoT_Device_Demo/iot_link/oc/oc_lwm2m/atiny_lwm2m\agent_lwm2m.c ****     if ((NULL != s_oc_lwm2m_agent) && (NULL != s_oc_lwm2m_agent->config_para.rcv_func))
  60              		.loc 1 134 15
  61 000e 0D4B     		ldr	r3, .L4
  62 0010 1B68     		ldr	r3, [r3]
  63              		.loc 1 134 8
  64 0012 002B     		cmp	r3, #0
  65 0014 11D0     		beq	.L2
  66              		.loc 1 134 64 discriminator 1
  67 0016 0B4B     		ldr	r3, .L4
  68 0018 1B68     		ldr	r3, [r3]
  69              		.loc 1 134 77 discriminator 1
  70 001a D3F88030 		ldr	r3, [r3, #128]
  71              		.loc 1 134 36 discriminator 1
  72 001e 002B     		cmp	r3, #0
  73 0020 0BD0     		beq	.L2
 135:g:/iot/IoT_Device_Demo/iot_link/oc/oc_lwm2m/atiny_lwm2m\agent_lwm2m.c ****     {
 136:g:/iot/IoT_Device_Demo/iot_link/oc/oc_lwm2m/atiny_lwm2m\agent_lwm2m.c ****         s_oc_lwm2m_agent->config_para.rcv_func(s_oc_lwm2m_agent->config_para.usr_data, type, msg, l
  74              		.loc 1 136 25
  75 0022 084B     		ldr	r3, .L4
  76 0024 1B68     		ldr	r3, [r3]
  77              		.loc 1 136 38
  78 0026 D3F88040 		ldr	r4, [r3, #128]
  79              		.loc 1 136 64
  80 002a 064B     		ldr	r3, .L4
  81 002c 1B68     		ldr	r3, [r3]
  82              		.loc 1 136 9
  83 002e D3F88400 		ldr	r0, [r3, #132]
  84 0032 F97B     		ldrb	r1, [r7, #15]	@ zero_extendqisi2
  85 0034 7B68     		ldr	r3, [r7, #4]
  86 0036 BA68     		ldr	r2, [r7, #8]
  87 0038 A047     		blx	r4
  88              	.LVL0:
  89              	.L2:
 137:g:/iot/IoT_Device_Demo/iot_link/oc/oc_lwm2m/atiny_lwm2m\agent_lwm2m.c ****     }
 138:g:/iot/IoT_Device_Demo/iot_link/oc/oc_lwm2m/atiny_lwm2m\agent_lwm2m.c **** 
 139:g:/iot/IoT_Device_Demo/iot_link/oc/oc_lwm2m/atiny_lwm2m\agent_lwm2m.c ****     return 0;
  90              		.loc 1 139 12
  91 003a 0023     		movs	r3, #0
 140:g:/iot/IoT_Device_Demo/iot_link/oc/oc_lwm2m/atiny_lwm2m\agent_lwm2m.c **** }
  92              		.loc 1 140 1
  93 003c 1846     		mov	r0, r3
ARM GAS  C:\Users\ADMINI~1\AppData\Local\Temp\ccTcVp5n.s 			page 5


  94 003e 1437     		adds	r7, r7, #20
  95              	.LCFI3:
  96              		.cfi_def_cfa_offset 12
  97 0040 BD46     		mov	sp, r7
  98              	.LCFI4:
  99              		.cfi_def_cfa_register 13
 100              		@ sp needed
 101 0042 90BD     		pop	{r4, r7, pc}
 102              	.L5:
 103              		.align	2
 104              	.L4:
 105 0044 00000000 		.word	s_oc_lwm2m_agent
 106              		.cfi_endproc
 107              	.LFE3:
 109              		.section	.rodata
 110              		.align	2
 111              	.LC0:
 112 0000 5B25735D 		.ascii	"[%s][%u][%s:%d] uri: %s, op: %d\012\015\012\000"
 112      5B25755D 
 112      5B25733A 
 112      25645D20 
 112      7572693A 
 113 0023 00       		.align	2
 114              	.LC1:
 115 0024 2F31392F 		.ascii	"/19/1/0\000"
 115      312F3000 
 116              		.align	2
 117              	.LC2:
 118 002c 2F312F30 		.ascii	"/1/0/9\000"
 118      2F3900
 119              		.section	.text.agent_dealer_callback,"ax",%progbits
 120              		.align	1
 121              		.syntax unified
 122              		.thumb
 123              		.thumb_func
 124              		.fpu fpv4-sp-d16
 126              	agent_dealer_callback:
 127              	.LFB4:
 141:g:/iot/IoT_Device_Demo/iot_link/oc/oc_lwm2m/atiny_lwm2m\agent_lwm2m.c **** 
 142:g:/iot/IoT_Device_Demo/iot_link/oc/oc_lwm2m/atiny_lwm2m\agent_lwm2m.c **** static int agent_dealer_callback(int op, const char *uri, char *msg, int len)
 143:g:/iot/IoT_Device_Demo/iot_link/oc/oc_lwm2m/atiny_lwm2m\agent_lwm2m.c **** {
 128              		.loc 1 143 1
 129              		.cfi_startproc
 130              		@ args = 0, pretend = 0, frame = 24
 131              		@ frame_needed = 1, uses_anonymous_args = 0
 132 0000 90B5     		push	{r4, r7, lr}
 133              	.LCFI5:
 134              		.cfi_def_cfa_offset 12
 135              		.cfi_offset 4, -12
 136              		.cfi_offset 7, -8
 137              		.cfi_offset 14, -4
 138 0002 8BB0     		sub	sp, sp, #44
 139              	.LCFI6:
 140              		.cfi_def_cfa_offset 56
 141 0004 04AF     		add	r7, sp, #16
 142              	.LCFI7:
 143              		.cfi_def_cfa 7, 40
ARM GAS  C:\Users\ADMINI~1\AppData\Local\Temp\ccTcVp5n.s 			page 6


 144 0006 F860     		str	r0, [r7, #12]
 145 0008 B960     		str	r1, [r7, #8]
 146 000a 7A60     		str	r2, [r7, #4]
 147 000c 3B60     		str	r3, [r7]
 144:g:/iot/IoT_Device_Demo/iot_link/oc/oc_lwm2m/atiny_lwm2m\agent_lwm2m.c ****     int ret = -1;
 148              		.loc 1 144 9
 149 000e 4FF0FF33 		mov	r3, #-1
 150 0012 7B61     		str	r3, [r7, #20]
 145:g:/iot/IoT_Device_Demo/iot_link/oc/oc_lwm2m/atiny_lwm2m\agent_lwm2m.c ****     LINK_LOG_DEBUG("uri: %s, op: %d\n", uri, op);
 151              		.loc 1 145 5
 152 0014 FFF7FEFF 		bl	link_log_level_get
 153 0018 0346     		mov	r3, r0
 154 001a 012B     		cmp	r3, #1
 155 001c 12D8     		bhi	.L7
 156              		.loc 1 145 5 is_stmt 0 discriminator 1
 157 001e 0120     		movs	r0, #1
 158 0020 FFF7FEFF 		bl	link_log_level_name
 159 0024 0446     		mov	r4, r0
 160 0026 FFF7FEFF 		bl	osal_sys_time
 161 002a 0246     		mov	r2, r0
 162 002c 0B46     		mov	r3, r1
 163 002e FB68     		ldr	r3, [r7, #12]
 164 0030 0293     		str	r3, [sp, #8]
 165 0032 BB68     		ldr	r3, [r7, #8]
 166 0034 0193     		str	r3, [sp, #4]
 167 0036 9123     		movs	r3, #145
 168 0038 0093     		str	r3, [sp]
 169 003a 234B     		ldr	r3, .L19
 170 003c 2146     		mov	r1, r4
 171 003e 2348     		ldr	r0, .L19+4
 172 0040 FFF7FEFF 		bl	printf
 173              	.L7:
 146:g:/iot/IoT_Device_Demo/iot_link/oc/oc_lwm2m/atiny_lwm2m\agent_lwm2m.c **** 
 147:g:/iot/IoT_Device_Demo/iot_link/oc/oc_lwm2m/atiny_lwm2m\agent_lwm2m.c ****     if ((0 == strcmp(uri, APP_DOWN_CHANNEL_URI))
 174              		.loc 1 147 15 is_stmt 1
 175 0044 2249     		ldr	r1, .L19+8
 176 0046 B868     		ldr	r0, [r7, #8]
 177 0048 FFF7FEFF 		bl	strcmp
 178 004c 0346     		mov	r3, r0
 179              		.loc 1 147 8
 180 004e 002B     		cmp	r3, #0
 181 0050 06D0     		beq	.L8
 148:g:/iot/IoT_Device_Demo/iot_link/oc/oc_lwm2m/atiny_lwm2m\agent_lwm2m.c ****         || (0 == strcmp(uri, URI_TRIGER_SERVER_INITIATED_BS)))
 182              		.loc 1 148 18
 183 0052 2049     		ldr	r1, .L19+12
 184 0054 B868     		ldr	r0, [r7, #8]
 185 0056 FFF7FEFF 		bl	strcmp
 186 005a 0346     		mov	r3, r0
 187              		.loc 1 148 9
 188 005c 002B     		cmp	r3, #0
 189 005e 2BD1     		bne	.L17
 190              	.L8:
 191 0060 FB68     		ldr	r3, [r7, #12]
 192 0062 023B     		subs	r3, r3, #2
 193 0064 032B     		cmp	r3, #3
 194 0066 29D8     		bhi	.L18
 195 0068 01A2     		adr	r2, .L12
ARM GAS  C:\Users\ADMINI~1\AppData\Local\Temp\ccTcVp5n.s 			page 7


 196 006a 52F823F0 		ldr	pc, [r2, r3, lsl #2]
 197 006e 00BF     		.p2align 2
 198              	.L12:
 199 0070 81000000 		.word	.L15+1
 200 0074 8F000000 		.word	.L14+1
 201 0078 9D000000 		.word	.L13+1
 202 007c AB000000 		.word	.L11+1
 203              		.p2align 1
 204              	.L15:
 149:g:/iot/IoT_Device_Demo/iot_link/oc/oc_lwm2m/atiny_lwm2m\agent_lwm2m.c ****     {
 150:g:/iot/IoT_Device_Demo/iot_link/oc/oc_lwm2m/atiny_lwm2m\agent_lwm2m.c **** 		switch (op)
 151:g:/iot/IoT_Device_Demo/iot_link/oc/oc_lwm2m/atiny_lwm2m\agent_lwm2m.c **** 		{
 152:g:/iot/IoT_Device_Demo/iot_link/oc/oc_lwm2m/atiny_lwm2m\agent_lwm2m.c **** 			case LWM2M_AL_OP_WRITE:
 153:g:/iot/IoT_Device_Demo/iot_link/oc/oc_lwm2m/atiny_lwm2m\agent_lwm2m.c **** 				ret = lwm2m_agent_receive(EN_OC_LWM2M_MSG_APPWRITE, msg, len);
 205              		.loc 1 153 11
 206 0080 3A68     		ldr	r2, [r7]
 207 0082 7968     		ldr	r1, [r7, #4]
 208 0084 0020     		movs	r0, #0
 209 0086 FFF7FEFF 		bl	lwm2m_agent_receive
 210 008a 7861     		str	r0, [r7, #20]
 154:g:/iot/IoT_Device_Demo/iot_link/oc/oc_lwm2m/atiny_lwm2m\agent_lwm2m.c **** 				break;
 211              		.loc 1 154 5
 212 008c 17E0     		b	.L9
 213              	.L14:
 155:g:/iot/IoT_Device_Demo/iot_link/oc/oc_lwm2m/atiny_lwm2m\agent_lwm2m.c **** 
 156:g:/iot/IoT_Device_Demo/iot_link/oc/oc_lwm2m/atiny_lwm2m\agent_lwm2m.c **** 			case LWM2M_AL_OP_EXCUTE:
 157:g:/iot/IoT_Device_Demo/iot_link/oc/oc_lwm2m/atiny_lwm2m\agent_lwm2m.c **** 				ret = lwm2m_agent_receive(EN_OC_LWM2M_MSG_APPEXECUTE, msg, len);
 214              		.loc 1 157 11
 215 008e 3A68     		ldr	r2, [r7]
 216 0090 7968     		ldr	r1, [r7, #4]
 217 0092 0220     		movs	r0, #2
 218 0094 FFF7FEFF 		bl	lwm2m_agent_receive
 219 0098 7861     		str	r0, [r7, #20]
 158:g:/iot/IoT_Device_Demo/iot_link/oc/oc_lwm2m/atiny_lwm2m\agent_lwm2m.c **** 				break;
 220              		.loc 1 158 5
 221 009a 10E0     		b	.L9
 222              	.L13:
 159:g:/iot/IoT_Device_Demo/iot_link/oc/oc_lwm2m/atiny_lwm2m\agent_lwm2m.c **** 
 160:g:/iot/IoT_Device_Demo/iot_link/oc/oc_lwm2m/atiny_lwm2m\agent_lwm2m.c **** 			case LWM2M_AL_OP_DISCOVER:
 161:g:/iot/IoT_Device_Demo/iot_link/oc/oc_lwm2m/atiny_lwm2m\agent_lwm2m.c **** 				ret = lwm2m_agent_receive(EN_OC_LWM2M_MSG_APPDISCOVER, msg, len);
 223              		.loc 1 161 11
 224 009c 3A68     		ldr	r2, [r7]
 225 009e 7968     		ldr	r1, [r7, #4]
 226 00a0 0120     		movs	r0, #1
 227 00a2 FFF7FEFF 		bl	lwm2m_agent_receive
 228 00a6 7861     		str	r0, [r7, #20]
 162:g:/iot/IoT_Device_Demo/iot_link/oc/oc_lwm2m/atiny_lwm2m\agent_lwm2m.c **** 				break;
 229              		.loc 1 162 5
 230 00a8 09E0     		b	.L9
 231              	.L11:
 163:g:/iot/IoT_Device_Demo/iot_link/oc/oc_lwm2m/atiny_lwm2m\agent_lwm2m.c **** 
 164:g:/iot/IoT_Device_Demo/iot_link/oc/oc_lwm2m/atiny_lwm2m\agent_lwm2m.c **** 			case LWM2M_AL_OP_SERVERREBS:
 165:g:/iot/IoT_Device_Demo/iot_link/oc/oc_lwm2m/atiny_lwm2m\agent_lwm2m.c **** 				ret = lwm2m_agent_receive(EN_OC_LWM2M_MSG_SERVERREBS, msg, len);
 232              		.loc 1 165 11
 233 00aa 3A68     		ldr	r2, [r7]
 234 00ac 7968     		ldr	r1, [r7, #4]
 235 00ae 0320     		movs	r0, #3
ARM GAS  C:\Users\ADMINI~1\AppData\Local\Temp\ccTcVp5n.s 			page 8


 236 00b0 FFF7FEFF 		bl	lwm2m_agent_receive
 237 00b4 7861     		str	r0, [r7, #20]
 166:g:/iot/IoT_Device_Demo/iot_link/oc/oc_lwm2m/atiny_lwm2m\agent_lwm2m.c **** 				break;
 238              		.loc 1 166 5
 239 00b6 02E0     		b	.L9
 240              	.L17:
 167:g:/iot/IoT_Device_Demo/iot_link/oc/oc_lwm2m/atiny_lwm2m\agent_lwm2m.c **** 
 168:g:/iot/IoT_Device_Demo/iot_link/oc/oc_lwm2m/atiny_lwm2m\agent_lwm2m.c **** 			default:
 169:g:/iot/IoT_Device_Demo/iot_link/oc/oc_lwm2m/atiny_lwm2m\agent_lwm2m.c **** 				break;
 170:g:/iot/IoT_Device_Demo/iot_link/oc/oc_lwm2m/atiny_lwm2m\agent_lwm2m.c **** 		}
 171:g:/iot/IoT_Device_Demo/iot_link/oc/oc_lwm2m/atiny_lwm2m\agent_lwm2m.c ****     }
 241              		.loc 1 171 5
 242 00b8 00BF     		nop
 243 00ba 00E0     		b	.L9
 244              	.L18:
 169:g:/iot/IoT_Device_Demo/iot_link/oc/oc_lwm2m/atiny_lwm2m\agent_lwm2m.c **** 		}
 245              		.loc 1 169 5
 246 00bc 00BF     		nop
 247              	.L9:
 172:g:/iot/IoT_Device_Demo/iot_link/oc/oc_lwm2m/atiny_lwm2m\agent_lwm2m.c ****     return ret;
 248              		.loc 1 172 12
 249 00be 7B69     		ldr	r3, [r7, #20]
 173:g:/iot/IoT_Device_Demo/iot_link/oc/oc_lwm2m/atiny_lwm2m\agent_lwm2m.c **** }
 250              		.loc 1 173 1
 251 00c0 1846     		mov	r0, r3
 252 00c2 1C37     		adds	r7, r7, #28
 253              	.LCFI8:
 254              		.cfi_def_cfa_offset 12
 255 00c4 BD46     		mov	sp, r7
 256              	.LCFI9:
 257              		.cfi_def_cfa_register 13
 258              		@ sp needed
 259 00c6 90BD     		pop	{r4, r7, pc}
 260              	.L20:
 261              		.align	2
 262              	.L19:
 263 00c8 00000000 		.word	__FUNCTION__.7178
 264 00cc 00000000 		.word	.LC0
 265 00d0 24000000 		.word	.LC1
 266 00d4 2C000000 		.word	.LC2
 267              		.cfi_endproc
 268              	.LFE4:
 270              		.section	.text.atiny_check_bootstrap_init_param,"ax",%progbits
 271              		.align	1
 272              		.syntax unified
 273              		.thumb
 274              		.thumb_func
 275              		.fpu fpv4-sp-d16
 277              	atiny_check_bootstrap_init_param:
 278              	.LFB5:
 174:g:/iot/IoT_Device_Demo/iot_link/oc/oc_lwm2m/atiny_lwm2m\agent_lwm2m.c **** 
 175:g:/iot/IoT_Device_Demo/iot_link/oc/oc_lwm2m/atiny_lwm2m\agent_lwm2m.c **** 
 176:g:/iot/IoT_Device_Demo/iot_link/oc/oc_lwm2m/atiny_lwm2m\agent_lwm2m.c **** /*
 177:g:/iot/IoT_Device_Demo/iot_link/oc/oc_lwm2m/atiny_lwm2m\agent_lwm2m.c ****  * modify date:   2018-06-20
 178:g:/iot/IoT_Device_Demo/iot_link/oc/oc_lwm2m/atiny_lwm2m\agent_lwm2m.c ****  * description: in order to check the params for the bootstrap, expecialy for the mode and the ip/p
 179:g:/iot/IoT_Device_Demo/iot_link/oc/oc_lwm2m/atiny_lwm2m\agent_lwm2m.c ****  * return:
 180:g:/iot/IoT_Device_Demo/iot_link/oc/oc_lwm2m/atiny_lwm2m\agent_lwm2m.c ****  *              success: (int)ATINY_OK
ARM GAS  C:\Users\ADMINI~1\AppData\Local\Temp\ccTcVp5n.s 			page 9


 181:g:/iot/IoT_Device_Demo/iot_link/oc/oc_lwm2m/atiny_lwm2m\agent_lwm2m.c ****  *              fail:    (int)ATINY_ARG_INVALID
 182:g:/iot/IoT_Device_Demo/iot_link/oc/oc_lwm2m/atiny_lwm2m\agent_lwm2m.c ****  *
 183:g:/iot/IoT_Device_Demo/iot_link/oc/oc_lwm2m/atiny_lwm2m\agent_lwm2m.c ****  */
 184:g:/iot/IoT_Device_Demo/iot_link/oc/oc_lwm2m/atiny_lwm2m\agent_lwm2m.c **** static int atiny_check_bootstrap_init_param(atiny_param_t *atiny_params)
 185:g:/iot/IoT_Device_Demo/iot_link/oc/oc_lwm2m/atiny_lwm2m\agent_lwm2m.c **** {
 279              		.loc 1 185 1
 280              		.cfi_startproc
 281              		@ args = 0, pretend = 0, frame = 8
 282              		@ frame_needed = 1, uses_anonymous_args = 0
 283              		@ link register save eliminated.
 284 0000 80B4     		push	{r7}
 285              	.LCFI10:
 286              		.cfi_def_cfa_offset 4
 287              		.cfi_offset 7, -4
 288 0002 83B0     		sub	sp, sp, #12
 289              	.LCFI11:
 290              		.cfi_def_cfa_offset 16
 291 0004 00AF     		add	r7, sp, #0
 292              	.LCFI12:
 293              		.cfi_def_cfa_register 7
 294 0006 7860     		str	r0, [r7, #4]
 186:g:/iot/IoT_Device_Demo/iot_link/oc/oc_lwm2m/atiny_lwm2m\agent_lwm2m.c ****     if (NULL == atiny_params)
 295              		.loc 1 186 8
 296 0008 7B68     		ldr	r3, [r7, #4]
 297 000a 002B     		cmp	r3, #0
 298 000c 02D1     		bne	.L22
 187:g:/iot/IoT_Device_Demo/iot_link/oc/oc_lwm2m/atiny_lwm2m\agent_lwm2m.c ****     {
 188:g:/iot/IoT_Device_Demo/iot_link/oc/oc_lwm2m/atiny_lwm2m\agent_lwm2m.c ****         return (int)ATINY_ARG_INVALID;
 299              		.loc 1 188 16
 300 000e 4FF0FF33 		mov	r3, #-1
 301 0012 27E0     		b	.L23
 302              	.L22:
 189:g:/iot/IoT_Device_Demo/iot_link/oc/oc_lwm2m/atiny_lwm2m\agent_lwm2m.c ****     }
 190:g:/iot/IoT_Device_Demo/iot_link/oc/oc_lwm2m/atiny_lwm2m\agent_lwm2m.c **** 
 191:g:/iot/IoT_Device_Demo/iot_link/oc/oc_lwm2m/atiny_lwm2m\agent_lwm2m.c ****     if (ATINY_BOOTSTRAP_FACTORY == atiny_params->server_params.bootstrap_mode)
 303              		.loc 1 191 63
 304 0014 7B68     		ldr	r3, [r7, #4]
 305 0016 1B7B     		ldrb	r3, [r3, #12]	@ zero_extendqisi2
 306              		.loc 1 191 8
 307 0018 002B     		cmp	r3, #0
 308 001a 0AD1     		bne	.L24
 192:g:/iot/IoT_Device_Demo/iot_link/oc/oc_lwm2m/atiny_lwm2m\agent_lwm2m.c ****     {
 193:g:/iot/IoT_Device_Demo/iot_link/oc/oc_lwm2m/atiny_lwm2m\agent_lwm2m.c ****         if ((NULL == atiny_params->security_params[0].server_ip) || (NULL == atiny_params->security
 309              		.loc 1 193 54
 310 001c 7B68     		ldr	r3, [r7, #4]
 311 001e 5B69     		ldr	r3, [r3, #20]
 312              		.loc 1 193 12
 313 0020 002B     		cmp	r3, #0
 314 0022 03D0     		beq	.L25
 315              		.loc 1 193 110 discriminator 1
 316 0024 7B68     		ldr	r3, [r7, #4]
 317 0026 9B69     		ldr	r3, [r3, #24]
 318              		.loc 1 193 66 discriminator 1
 319 0028 002B     		cmp	r3, #0
 320 002a 1AD1     		bne	.L26
 321              	.L25:
 194:g:/iot/IoT_Device_Demo/iot_link/oc/oc_lwm2m/atiny_lwm2m\agent_lwm2m.c ****         {
ARM GAS  C:\Users\ADMINI~1\AppData\Local\Temp\ccTcVp5n.s 			page 10


 195:g:/iot/IoT_Device_Demo/iot_link/oc/oc_lwm2m/atiny_lwm2m\agent_lwm2m.c ****             ATINY_LOG(LOG_FATAL, "[bootstrap_tag]: BOOTSTRAP_FACTORY mode's params is wrong, should
 196:g:/iot/IoT_Device_Demo/iot_link/oc/oc_lwm2m/atiny_lwm2m\agent_lwm2m.c ****             return (int)ATINY_ARG_INVALID;
 322              		.loc 1 196 20
 323 002c 4FF0FF33 		mov	r3, #-1
 324 0030 18E0     		b	.L23
 325              	.L24:
 197:g:/iot/IoT_Device_Demo/iot_link/oc/oc_lwm2m/atiny_lwm2m\agent_lwm2m.c ****         }
 198:g:/iot/IoT_Device_Demo/iot_link/oc/oc_lwm2m/atiny_lwm2m\agent_lwm2m.c ****     }
 199:g:/iot/IoT_Device_Demo/iot_link/oc/oc_lwm2m/atiny_lwm2m\agent_lwm2m.c ****     else if (ATINY_BOOTSTRAP_CLIENT_INITIATED == atiny_params->server_params.bootstrap_mode)
 326              		.loc 1 199 77
 327 0032 7B68     		ldr	r3, [r7, #4]
 328 0034 1B7B     		ldrb	r3, [r3, #12]	@ zero_extendqisi2
 329              		.loc 1 199 13
 330 0036 012B     		cmp	r3, #1
 331 0038 0AD1     		bne	.L27
 200:g:/iot/IoT_Device_Demo/iot_link/oc/oc_lwm2m/atiny_lwm2m\agent_lwm2m.c ****     {
 201:g:/iot/IoT_Device_Demo/iot_link/oc/oc_lwm2m/atiny_lwm2m\agent_lwm2m.c ****         if ((NULL == atiny_params->security_params[1].server_ip) || (NULL == atiny_params->security
 332              		.loc 1 201 54
 333 003a 7B68     		ldr	r3, [r7, #4]
 334 003c 9B6A     		ldr	r3, [r3, #40]
 335              		.loc 1 201 12
 336 003e 002B     		cmp	r3, #0
 337 0040 03D0     		beq	.L28
 338              		.loc 1 201 110 discriminator 1
 339 0042 7B68     		ldr	r3, [r7, #4]
 340 0044 DB6A     		ldr	r3, [r3, #44]
 341              		.loc 1 201 66 discriminator 1
 342 0046 002B     		cmp	r3, #0
 343 0048 0BD1     		bne	.L26
 344              	.L28:
 202:g:/iot/IoT_Device_Demo/iot_link/oc/oc_lwm2m/atiny_lwm2m\agent_lwm2m.c ****         {
 203:g:/iot/IoT_Device_Demo/iot_link/oc/oc_lwm2m/atiny_lwm2m\agent_lwm2m.c ****             ATINY_LOG(LOG_FATAL, "[bootstrap_tag]: BOOTSTRAP_CLIENT_INITIATED mode's params is wron
 204:g:/iot/IoT_Device_Demo/iot_link/oc/oc_lwm2m/atiny_lwm2m\agent_lwm2m.c ****             return (int)ATINY_ARG_INVALID;
 345              		.loc 1 204 20
 346 004a 4FF0FF33 		mov	r3, #-1
 347 004e 09E0     		b	.L23
 348              	.L27:
 205:g:/iot/IoT_Device_Demo/iot_link/oc/oc_lwm2m/atiny_lwm2m\agent_lwm2m.c ****         }
 206:g:/iot/IoT_Device_Demo/iot_link/oc/oc_lwm2m/atiny_lwm2m\agent_lwm2m.c ****     }
 207:g:/iot/IoT_Device_Demo/iot_link/oc/oc_lwm2m/atiny_lwm2m\agent_lwm2m.c ****     else if (ATINY_BOOTSTRAP_SEQUENCE == atiny_params->server_params.bootstrap_mode)
 349              		.loc 1 207 69
 350 0050 7B68     		ldr	r3, [r7, #4]
 351 0052 1B7B     		ldrb	r3, [r3, #12]	@ zero_extendqisi2
 352              		.loc 1 207 13
 353 0054 022B     		cmp	r3, #2
 354 0056 01D1     		bne	.L29
 208:g:/iot/IoT_Device_Demo/iot_link/oc/oc_lwm2m/atiny_lwm2m\agent_lwm2m.c ****     {
 209:g:/iot/IoT_Device_Demo/iot_link/oc/oc_lwm2m/atiny_lwm2m\agent_lwm2m.c ****         return (int)ATINY_OK;
 355              		.loc 1 209 16
 356 0058 0023     		movs	r3, #0
 357 005a 03E0     		b	.L23
 358              	.L29:
 210:g:/iot/IoT_Device_Demo/iot_link/oc/oc_lwm2m/atiny_lwm2m\agent_lwm2m.c ****     }
 211:g:/iot/IoT_Device_Demo/iot_link/oc/oc_lwm2m/atiny_lwm2m\agent_lwm2m.c ****     else
 212:g:/iot/IoT_Device_Demo/iot_link/oc/oc_lwm2m/atiny_lwm2m\agent_lwm2m.c ****     {
 213:g:/iot/IoT_Device_Demo/iot_link/oc/oc_lwm2m/atiny_lwm2m\agent_lwm2m.c ****         //it is ok? if the mode value is not 0,1,2, we all set it to 2 ?
 214:g:/iot/IoT_Device_Demo/iot_link/oc/oc_lwm2m/atiny_lwm2m\agent_lwm2m.c ****         ATINY_LOG(LOG_FATAL, "[bootstrap_tag]: BOOTSTRAP only have three mode, should been :0,1,2")
ARM GAS  C:\Users\ADMINI~1\AppData\Local\Temp\ccTcVp5n.s 			page 11


 215:g:/iot/IoT_Device_Demo/iot_link/oc/oc_lwm2m/atiny_lwm2m\agent_lwm2m.c ****         return (int)ATINY_ARG_INVALID;
 359              		.loc 1 215 16
 360 005c 4FF0FF33 		mov	r3, #-1
 361 0060 00E0     		b	.L23
 362              	.L26:
 216:g:/iot/IoT_Device_Demo/iot_link/oc/oc_lwm2m/atiny_lwm2m\agent_lwm2m.c ****     }
 217:g:/iot/IoT_Device_Demo/iot_link/oc/oc_lwm2m/atiny_lwm2m\agent_lwm2m.c **** 
 218:g:/iot/IoT_Device_Demo/iot_link/oc/oc_lwm2m/atiny_lwm2m\agent_lwm2m.c ****     return (int)ATINY_OK;
 363              		.loc 1 218 12
 364 0062 0023     		movs	r3, #0
 365              	.L23:
 219:g:/iot/IoT_Device_Demo/iot_link/oc/oc_lwm2m/atiny_lwm2m\agent_lwm2m.c **** }
 366              		.loc 1 219 1
 367 0064 1846     		mov	r0, r3
 368 0066 0C37     		adds	r7, r7, #12
 369              	.LCFI13:
 370              		.cfi_def_cfa_offset 4
 371 0068 BD46     		mov	sp, r7
 372              	.LCFI14:
 373              		.cfi_def_cfa_register 13
 374              		@ sp needed
 375 006a 5DF8047B 		ldr	r7, [sp], #4
 376              	.LCFI15:
 377              		.cfi_restore 7
 378              		.cfi_def_cfa_offset 0
 379 006e 7047     		bx	lr
 380              		.cfi_endproc
 381              	.LFE5:
 383              		.section	.text.atiny_check_psk_init_param,"ax",%progbits
 384              		.align	1
 385              		.syntax unified
 386              		.thumb
 387              		.thumb_func
 388              		.fpu fpv4-sp-d16
 390              	atiny_check_psk_init_param:
 391              	.LFB6:
 220:g:/iot/IoT_Device_Demo/iot_link/oc/oc_lwm2m/atiny_lwm2m\agent_lwm2m.c **** 
 221:g:/iot/IoT_Device_Demo/iot_link/oc/oc_lwm2m/atiny_lwm2m\agent_lwm2m.c **** static int atiny_check_psk_init_param(atiny_param_t *atiny_params)
 222:g:/iot/IoT_Device_Demo/iot_link/oc/oc_lwm2m/atiny_lwm2m\agent_lwm2m.c **** {
 392              		.loc 1 222 1
 393              		.cfi_startproc
 394              		@ args = 0, pretend = 0, frame = 32
 395              		@ frame_needed = 1, uses_anonymous_args = 0
 396 0000 80B5     		push	{r7, lr}
 397              	.LCFI16:
 398              		.cfi_def_cfa_offset 8
 399              		.cfi_offset 7, -8
 400              		.cfi_offset 14, -4
 401 0002 88B0     		sub	sp, sp, #32
 402              	.LCFI17:
 403              		.cfi_def_cfa_offset 40
 404 0004 00AF     		add	r7, sp, #0
 405              	.LCFI18:
 406              		.cfi_def_cfa_register 7
 407 0006 7860     		str	r0, [r7, #4]
 223:g:/iot/IoT_Device_Demo/iot_link/oc/oc_lwm2m/atiny_lwm2m\agent_lwm2m.c ****     int i = 0;
 408              		.loc 1 223 9
ARM GAS  C:\Users\ADMINI~1\AppData\Local\Temp\ccTcVp5n.s 			page 12


 409 0008 0023     		movs	r3, #0
 410 000a FB61     		str	r3, [r7, #28]
 224:g:/iot/IoT_Device_Demo/iot_link/oc/oc_lwm2m/atiny_lwm2m\agent_lwm2m.c ****     int psk_id_len = 0;
 411              		.loc 1 224 9
 412 000c 0023     		movs	r3, #0
 413 000e BB61     		str	r3, [r7, #24]
 225:g:/iot/IoT_Device_Demo/iot_link/oc/oc_lwm2m/atiny_lwm2m\agent_lwm2m.c ****     int psk_len = 0;
 414              		.loc 1 225 9
 415 0010 0023     		movs	r3, #0
 416 0012 7B61     		str	r3, [r7, #20]
 226:g:/iot/IoT_Device_Demo/iot_link/oc/oc_lwm2m/atiny_lwm2m\agent_lwm2m.c ****     const int PSK_ID_LIMIT_LEN = 128;
 417              		.loc 1 226 15
 418 0014 8023     		movs	r3, #128
 419 0016 3B61     		str	r3, [r7, #16]
 227:g:/iot/IoT_Device_Demo/iot_link/oc/oc_lwm2m/atiny_lwm2m\agent_lwm2m.c ****     const int PSK_LIMIT_LEN = 64;
 420              		.loc 1 227 15
 421 0018 4023     		movs	r3, #64
 422 001a FB60     		str	r3, [r7, #12]
 228:g:/iot/IoT_Device_Demo/iot_link/oc/oc_lwm2m/atiny_lwm2m\agent_lwm2m.c ****     int total_element = 0;
 423              		.loc 1 228 9
 424 001c 0023     		movs	r3, #0
 425 001e BB60     		str	r3, [r7, #8]
 229:g:/iot/IoT_Device_Demo/iot_link/oc/oc_lwm2m/atiny_lwm2m\agent_lwm2m.c **** 
 230:g:/iot/IoT_Device_Demo/iot_link/oc/oc_lwm2m/atiny_lwm2m\agent_lwm2m.c ****     if (NULL == atiny_params)
 426              		.loc 1 230 8
 427 0020 7B68     		ldr	r3, [r7, #4]
 428 0022 002B     		cmp	r3, #0
 429 0024 02D1     		bne	.L31
 231:g:/iot/IoT_Device_Demo/iot_link/oc/oc_lwm2m/atiny_lwm2m\agent_lwm2m.c ****     {
 232:g:/iot/IoT_Device_Demo/iot_link/oc/oc_lwm2m/atiny_lwm2m\agent_lwm2m.c ****         return (int)ATINY_ARG_INVALID;
 430              		.loc 1 232 16
 431 0026 4FF0FF33 		mov	r3, #-1
 432 002a 49E0     		b	.L32
 433              	.L31:
 233:g:/iot/IoT_Device_Demo/iot_link/oc/oc_lwm2m/atiny_lwm2m\agent_lwm2m.c ****     }
 234:g:/iot/IoT_Device_Demo/iot_link/oc/oc_lwm2m/atiny_lwm2m\agent_lwm2m.c **** 
 235:g:/iot/IoT_Device_Demo/iot_link/oc/oc_lwm2m/atiny_lwm2m\agent_lwm2m.c ****     //security_params have 2 element, we have 2 pair psk.
 236:g:/iot/IoT_Device_Demo/iot_link/oc/oc_lwm2m/atiny_lwm2m\agent_lwm2m.c ****     total_element = (sizeof(atiny_params->security_params)) / (sizeof(atiny_params->security_params
 434              		.loc 1 236 19
 435 002c 0223     		movs	r3, #2
 436 002e BB60     		str	r3, [r7, #8]
 237:g:/iot/IoT_Device_Demo/iot_link/oc/oc_lwm2m/atiny_lwm2m\agent_lwm2m.c **** 
 238:g:/iot/IoT_Device_Demo/iot_link/oc/oc_lwm2m/atiny_lwm2m\agent_lwm2m.c ****     for (i = 0; i < total_element; i++)
 437              		.loc 1 238 12
 438 0030 0023     		movs	r3, #0
 439 0032 FB61     		str	r3, [r7, #28]
 440              		.loc 1 238 5
 441 0034 3FE0     		b	.L33
 442              	.L36:
 239:g:/iot/IoT_Device_Demo/iot_link/oc/oc_lwm2m/atiny_lwm2m\agent_lwm2m.c ****     {
 240:g:/iot/IoT_Device_Demo/iot_link/oc/oc_lwm2m/atiny_lwm2m\agent_lwm2m.c ****         //if there are null, we could run not in security mode
 241:g:/iot/IoT_Device_Demo/iot_link/oc/oc_lwm2m/atiny_lwm2m\agent_lwm2m.c ****         if ((atiny_params->security_params[i].psk_id != NULL) && (atiny_params->security_params[i].
 443              		.loc 1 241 46
 444 0036 7968     		ldr	r1, [r7, #4]
 445 0038 FA69     		ldr	r2, [r7, #28]
 446 003a 1346     		mov	r3, r2
 447 003c 9B00     		lsls	r3, r3, #2
ARM GAS  C:\Users\ADMINI~1\AppData\Local\Temp\ccTcVp5n.s 			page 13


 448 003e 1344     		add	r3, r3, r2
 449 0040 9B00     		lsls	r3, r3, #2
 450 0042 0B44     		add	r3, r3, r1
 451 0044 1C33     		adds	r3, r3, #28
 452 0046 1B68     		ldr	r3, [r3]
 453              		.loc 1 241 12
 454 0048 002B     		cmp	r3, #0
 455 004a 31D0     		beq	.L34
 456              		.loc 1 241 99 discriminator 1
 457 004c 7968     		ldr	r1, [r7, #4]
 458 004e FA69     		ldr	r2, [r7, #28]
 459 0050 1346     		mov	r3, r2
 460 0052 9B00     		lsls	r3, r3, #2
 461 0054 1344     		add	r3, r3, r2
 462 0056 9B00     		lsls	r3, r3, #2
 463 0058 0B44     		add	r3, r3, r1
 464 005a 2033     		adds	r3, r3, #32
 465 005c 1B68     		ldr	r3, [r3]
 466              		.loc 1 241 63 discriminator 1
 467 005e 002B     		cmp	r3, #0
 468 0060 26D0     		beq	.L34
 242:g:/iot/IoT_Device_Demo/iot_link/oc/oc_lwm2m/atiny_lwm2m\agent_lwm2m.c ****         {
 243:g:/iot/IoT_Device_Demo/iot_link/oc/oc_lwm2m/atiny_lwm2m\agent_lwm2m.c ****             psk_id_len = strlen(atiny_params->security_params[i].psk_id);
 469              		.loc 1 243 65
 470 0062 7968     		ldr	r1, [r7, #4]
 471 0064 FA69     		ldr	r2, [r7, #28]
 472 0066 1346     		mov	r3, r2
 473 0068 9B00     		lsls	r3, r3, #2
 474 006a 1344     		add	r3, r3, r2
 475 006c 9B00     		lsls	r3, r3, #2
 476 006e 0B44     		add	r3, r3, r1
 477 0070 1C33     		adds	r3, r3, #28
 478 0072 1B68     		ldr	r3, [r3]
 479              		.loc 1 243 26
 480 0074 1846     		mov	r0, r3
 481 0076 FFF7FEFF 		bl	strlen
 482 007a 0346     		mov	r3, r0
 483              		.loc 1 243 24
 484 007c BB61     		str	r3, [r7, #24]
 244:g:/iot/IoT_Device_Demo/iot_link/oc/oc_lwm2m/atiny_lwm2m\agent_lwm2m.c ****             psk_len = strlen(atiny_params->security_params[i].psk);
 485              		.loc 1 244 62
 486 007e 7968     		ldr	r1, [r7, #4]
 487 0080 FA69     		ldr	r2, [r7, #28]
 488 0082 1346     		mov	r3, r2
 489 0084 9B00     		lsls	r3, r3, #2
 490 0086 1344     		add	r3, r3, r2
 491 0088 9B00     		lsls	r3, r3, #2
 492 008a 0B44     		add	r3, r3, r1
 493 008c 2033     		adds	r3, r3, #32
 494 008e 1B68     		ldr	r3, [r3]
 495              		.loc 1 244 23
 496 0090 1846     		mov	r0, r3
 497 0092 FFF7FEFF 		bl	strlen
 498 0096 0346     		mov	r3, r0
 499              		.loc 1 244 21
 500 0098 7B61     		str	r3, [r7, #20]
 245:g:/iot/IoT_Device_Demo/iot_link/oc/oc_lwm2m/atiny_lwm2m\agent_lwm2m.c **** 
ARM GAS  C:\Users\ADMINI~1\AppData\Local\Temp\ccTcVp5n.s 			page 14


 246:g:/iot/IoT_Device_Demo/iot_link/oc/oc_lwm2m/atiny_lwm2m\agent_lwm2m.c ****             //the limit of the len, please read RFC4279  or OMA-TS-LightweightM2M E.1.1
 247:g:/iot/IoT_Device_Demo/iot_link/oc/oc_lwm2m/atiny_lwm2m\agent_lwm2m.c ****             if ((psk_id_len > PSK_ID_LIMIT_LEN) || (psk_len > PSK_LIMIT_LEN))
 501              		.loc 1 247 16
 502 009a BA69     		ldr	r2, [r7, #24]
 503 009c 3B69     		ldr	r3, [r7, #16]
 504 009e 9A42     		cmp	r2, r3
 505 00a0 03DC     		bgt	.L35
 506              		.loc 1 247 49 discriminator 1
 507 00a2 7A69     		ldr	r2, [r7, #20]
 508 00a4 FB68     		ldr	r3, [r7, #12]
 509 00a6 9A42     		cmp	r2, r3
 510 00a8 02DD     		ble	.L34
 511              	.L35:
 248:g:/iot/IoT_Device_Demo/iot_link/oc/oc_lwm2m/atiny_lwm2m\agent_lwm2m.c ****             {
 249:g:/iot/IoT_Device_Demo/iot_link/oc/oc_lwm2m/atiny_lwm2m\agent_lwm2m.c ****                 ATINY_LOG(LOG_FATAL, "[bootstrap_tag]: psk_id len over 128 or psk len over 64");
 250:g:/iot/IoT_Device_Demo/iot_link/oc/oc_lwm2m/atiny_lwm2m\agent_lwm2m.c ****                 return (int)ATINY_ARG_INVALID;
 512              		.loc 1 250 24
 513 00aa 4FF0FF33 		mov	r3, #-1
 514 00ae 07E0     		b	.L32
 515              	.L34:
 238:g:/iot/IoT_Device_Demo/iot_link/oc/oc_lwm2m/atiny_lwm2m\agent_lwm2m.c ****     {
 516              		.loc 1 238 37 discriminator 2
 517 00b0 FB69     		ldr	r3, [r7, #28]
 518 00b2 0133     		adds	r3, r3, #1
 519 00b4 FB61     		str	r3, [r7, #28]
 520              	.L33:
 238:g:/iot/IoT_Device_Demo/iot_link/oc/oc_lwm2m/atiny_lwm2m\agent_lwm2m.c ****     {
 521              		.loc 1 238 5 discriminator 1
 522 00b6 FA69     		ldr	r2, [r7, #28]
 523 00b8 BB68     		ldr	r3, [r7, #8]
 524 00ba 9A42     		cmp	r2, r3
 525 00bc BBDB     		blt	.L36
 251:g:/iot/IoT_Device_Demo/iot_link/oc/oc_lwm2m/atiny_lwm2m\agent_lwm2m.c ****             }
 252:g:/iot/IoT_Device_Demo/iot_link/oc/oc_lwm2m/atiny_lwm2m\agent_lwm2m.c ****         }
 253:g:/iot/IoT_Device_Demo/iot_link/oc/oc_lwm2m/atiny_lwm2m\agent_lwm2m.c ****     }
 254:g:/iot/IoT_Device_Demo/iot_link/oc/oc_lwm2m/atiny_lwm2m\agent_lwm2m.c **** 
 255:g:/iot/IoT_Device_Demo/iot_link/oc/oc_lwm2m/atiny_lwm2m\agent_lwm2m.c ****     return (int)ATINY_OK;
 526              		.loc 1 255 12
 527 00be 0023     		movs	r3, #0
 528              	.L32:
 256:g:/iot/IoT_Device_Demo/iot_link/oc/oc_lwm2m/atiny_lwm2m\agent_lwm2m.c **** }
 529              		.loc 1 256 1
 530 00c0 1846     		mov	r0, r3
 531 00c2 2037     		adds	r7, r7, #32
 532              	.LCFI19:
 533              		.cfi_def_cfa_offset 8
 534 00c4 BD46     		mov	sp, r7
 535              	.LCFI20:
 536              		.cfi_def_cfa_register 13
 537              		@ sp needed
 538 00c6 80BD     		pop	{r7, pc}
 539              		.cfi_endproc
 540              	.LFE6:
 542              		.section	.text.atiny_check_parameter,"ax",%progbits
 543              		.align	1
 544              		.syntax unified
 545              		.thumb
ARM GAS  C:\Users\ADMINI~1\AppData\Local\Temp\ccTcVp5n.s 			page 15


 546              		.thumb_func
 547              		.fpu fpv4-sp-d16
 549              	atiny_check_parameter:
 550              	.LFB7:
 257:g:/iot/IoT_Device_Demo/iot_link/oc/oc_lwm2m/atiny_lwm2m\agent_lwm2m.c **** 
 258:g:/iot/IoT_Device_Demo/iot_link/oc/oc_lwm2m/atiny_lwm2m\agent_lwm2m.c **** static int atiny_check_parameter(atiny_param_t *atiny_params,
 259:g:/iot/IoT_Device_Demo/iot_link/oc/oc_lwm2m/atiny_lwm2m\agent_lwm2m.c ****                                  const atiny_device_info_t *device_info)
 260:g:/iot/IoT_Device_Demo/iot_link/oc/oc_lwm2m/atiny_lwm2m\agent_lwm2m.c **** {
 551              		.loc 1 260 1
 552              		.cfi_startproc
 553              		@ args = 0, pretend = 0, frame = 8
 554              		@ frame_needed = 1, uses_anonymous_args = 0
 555 0000 80B5     		push	{r7, lr}
 556              	.LCFI21:
 557              		.cfi_def_cfa_offset 8
 558              		.cfi_offset 7, -8
 559              		.cfi_offset 14, -4
 560 0002 82B0     		sub	sp, sp, #8
 561              	.LCFI22:
 562              		.cfi_def_cfa_offset 16
 563 0004 00AF     		add	r7, sp, #0
 564              	.LCFI23:
 565              		.cfi_def_cfa_register 7
 566 0006 7860     		str	r0, [r7, #4]
 567 0008 3960     		str	r1, [r7]
 261:g:/iot/IoT_Device_Demo/iot_link/oc/oc_lwm2m/atiny_lwm2m\agent_lwm2m.c ****     if ((NULL == atiny_params) || (NULL == device_info))
 568              		.loc 1 261 8
 569 000a 7B68     		ldr	r3, [r7, #4]
 570 000c 002B     		cmp	r3, #0
 571 000e 02D0     		beq	.L38
 572              		.loc 1 261 32 discriminator 1
 573 0010 3B68     		ldr	r3, [r7]
 574 0012 002B     		cmp	r3, #0
 575 0014 02D1     		bne	.L39
 576              	.L38:
 262:g:/iot/IoT_Device_Demo/iot_link/oc/oc_lwm2m/atiny_lwm2m\agent_lwm2m.c ****     {
 263:g:/iot/IoT_Device_Demo/iot_link/oc/oc_lwm2m/atiny_lwm2m\agent_lwm2m.c ****         ATINY_LOG(LOG_FATAL, "Parameter null");
 264:g:/iot/IoT_Device_Demo/iot_link/oc/oc_lwm2m/atiny_lwm2m\agent_lwm2m.c ****         return (int)ATINY_ARG_INVALID;
 577              		.loc 1 264 16
 578 0016 4FF0FF33 		mov	r3, #-1
 579 001a 20E0     		b	.L40
 580              	.L39:
 265:g:/iot/IoT_Device_Demo/iot_link/oc/oc_lwm2m/atiny_lwm2m\agent_lwm2m.c ****     }
 266:g:/iot/IoT_Device_Demo/iot_link/oc/oc_lwm2m/atiny_lwm2m\agent_lwm2m.c **** 
 267:g:/iot/IoT_Device_Demo/iot_link/oc/oc_lwm2m/atiny_lwm2m\agent_lwm2m.c ****     if (NULL == device_info->endpoint_name)
 581              		.loc 1 267 28
 582 001c 3B68     		ldr	r3, [r7]
 583 001e 1B68     		ldr	r3, [r3]
 584              		.loc 1 267 8
 585 0020 002B     		cmp	r3, #0
 586 0022 02D1     		bne	.L41
 268:g:/iot/IoT_Device_Demo/iot_link/oc/oc_lwm2m/atiny_lwm2m\agent_lwm2m.c ****     {
 269:g:/iot/IoT_Device_Demo/iot_link/oc/oc_lwm2m/atiny_lwm2m\agent_lwm2m.c ****         ATINY_LOG(LOG_FATAL, "Endpoint name null");
 270:g:/iot/IoT_Device_Demo/iot_link/oc/oc_lwm2m/atiny_lwm2m\agent_lwm2m.c ****         return (int)ATINY_ARG_INVALID;
 587              		.loc 1 270 16
 588 0024 4FF0FF33 		mov	r3, #-1
 589 0028 19E0     		b	.L40
ARM GAS  C:\Users\ADMINI~1\AppData\Local\Temp\ccTcVp5n.s 			page 16


 590              	.L41:
 271:g:/iot/IoT_Device_Demo/iot_link/oc/oc_lwm2m/atiny_lwm2m\agent_lwm2m.c ****     }
 272:g:/iot/IoT_Device_Demo/iot_link/oc/oc_lwm2m/atiny_lwm2m\agent_lwm2m.c **** 
 273:g:/iot/IoT_Device_Demo/iot_link/oc/oc_lwm2m/atiny_lwm2m\agent_lwm2m.c ****     if (NULL == device_info->manufacturer)
 591              		.loc 1 273 28
 592 002a 3B68     		ldr	r3, [r7]
 593 002c 5B68     		ldr	r3, [r3, #4]
 594              		.loc 1 273 8
 595 002e 002B     		cmp	r3, #0
 596 0030 02D1     		bne	.L42
 274:g:/iot/IoT_Device_Demo/iot_link/oc/oc_lwm2m/atiny_lwm2m\agent_lwm2m.c ****     {
 275:g:/iot/IoT_Device_Demo/iot_link/oc/oc_lwm2m/atiny_lwm2m\agent_lwm2m.c ****         ATINY_LOG(LOG_FATAL, "Manufacturer name null");
 276:g:/iot/IoT_Device_Demo/iot_link/oc/oc_lwm2m/atiny_lwm2m\agent_lwm2m.c ****         return (int)ATINY_ARG_INVALID;
 597              		.loc 1 276 16
 598 0032 4FF0FF33 		mov	r3, #-1
 599 0036 12E0     		b	.L40
 600              	.L42:
 277:g:/iot/IoT_Device_Demo/iot_link/oc/oc_lwm2m/atiny_lwm2m\agent_lwm2m.c ****     }
 278:g:/iot/IoT_Device_Demo/iot_link/oc/oc_lwm2m/atiny_lwm2m\agent_lwm2m.c **** 
 279:g:/iot/IoT_Device_Demo/iot_link/oc/oc_lwm2m/atiny_lwm2m\agent_lwm2m.c ****     if ((int)ATINY_OK != atiny_check_bootstrap_init_param(atiny_params))
 601              		.loc 1 279 26
 602 0038 7868     		ldr	r0, [r7, #4]
 603 003a FFF7FEFF 		bl	atiny_check_bootstrap_init_param
 604 003e 0346     		mov	r3, r0
 605              		.loc 1 279 8
 606 0040 002B     		cmp	r3, #0
 607 0042 02D0     		beq	.L43
 280:g:/iot/IoT_Device_Demo/iot_link/oc/oc_lwm2m/atiny_lwm2m\agent_lwm2m.c ****     {
 281:g:/iot/IoT_Device_Demo/iot_link/oc/oc_lwm2m/atiny_lwm2m\agent_lwm2m.c ****         ATINY_LOG(LOG_FATAL, "[bootstrap_tag]: BOOTSTRAP's params are wrong");
 282:g:/iot/IoT_Device_Demo/iot_link/oc/oc_lwm2m/atiny_lwm2m\agent_lwm2m.c ****         return (int)ATINY_ARG_INVALID;
 608              		.loc 1 282 16
 609 0044 4FF0FF33 		mov	r3, #-1
 610 0048 09E0     		b	.L40
 611              	.L43:
 283:g:/iot/IoT_Device_Demo/iot_link/oc/oc_lwm2m/atiny_lwm2m\agent_lwm2m.c ****     }
 284:g:/iot/IoT_Device_Demo/iot_link/oc/oc_lwm2m/atiny_lwm2m\agent_lwm2m.c **** 
 285:g:/iot/IoT_Device_Demo/iot_link/oc/oc_lwm2m/atiny_lwm2m\agent_lwm2m.c ****     //#ifdef LWM2M_BOOTSTRAP
 286:g:/iot/IoT_Device_Demo/iot_link/oc/oc_lwm2m/atiny_lwm2m\agent_lwm2m.c ****     if ((int)ATINY_OK != atiny_check_psk_init_param(atiny_params))
 612              		.loc 1 286 26
 613 004a 7868     		ldr	r0, [r7, #4]
 614 004c FFF7FEFF 		bl	atiny_check_psk_init_param
 615 0050 0346     		mov	r3, r0
 616              		.loc 1 286 8
 617 0052 002B     		cmp	r3, #0
 618 0054 02D0     		beq	.L44
 287:g:/iot/IoT_Device_Demo/iot_link/oc/oc_lwm2m/atiny_lwm2m\agent_lwm2m.c ****     {
 288:g:/iot/IoT_Device_Demo/iot_link/oc/oc_lwm2m/atiny_lwm2m\agent_lwm2m.c ****         ATINY_LOG(LOG_FATAL, "[bootstrap_tag]: psk params are wrong");
 289:g:/iot/IoT_Device_Demo/iot_link/oc/oc_lwm2m/atiny_lwm2m\agent_lwm2m.c ****         return (int)ATINY_ARG_INVALID;
 619              		.loc 1 289 16
 620 0056 4FF0FF33 		mov	r3, #-1
 621 005a 00E0     		b	.L40
 622              	.L44:
 290:g:/iot/IoT_Device_Demo/iot_link/oc/oc_lwm2m/atiny_lwm2m\agent_lwm2m.c ****     }
 291:g:/iot/IoT_Device_Demo/iot_link/oc/oc_lwm2m/atiny_lwm2m\agent_lwm2m.c **** 
 292:g:/iot/IoT_Device_Demo/iot_link/oc/oc_lwm2m/atiny_lwm2m\agent_lwm2m.c ****     //#endif
 293:g:/iot/IoT_Device_Demo/iot_link/oc/oc_lwm2m/atiny_lwm2m\agent_lwm2m.c ****     return (int)ATINY_OK;
 623              		.loc 1 293 12
ARM GAS  C:\Users\ADMINI~1\AppData\Local\Temp\ccTcVp5n.s 			page 17


 624 005c 0023     		movs	r3, #0
 625              	.L40:
 294:g:/iot/IoT_Device_Demo/iot_link/oc/oc_lwm2m/atiny_lwm2m\agent_lwm2m.c **** }
 626              		.loc 1 294 1
 627 005e 1846     		mov	r0, r3
 628 0060 0837     		adds	r7, r7, #8
 629              	.LCFI24:
 630              		.cfi_def_cfa_offset 8
 631 0062 BD46     		mov	sp, r7
 632              	.LCFI25:
 633              		.cfi_def_cfa_register 13
 634              		@ sp needed
 635 0064 80BD     		pop	{r7, pc}
 636              		.cfi_endproc
 637              	.LFE7:
 639              		.section	.text.uri_list_add,"ax",%progbits
 640              		.align	1
 641              		.syntax unified
 642              		.thumb
 643              		.thumb_func
 644              		.fpu fpv4-sp-d16
 646              	uri_list_add:
 647              	.LFB8:
 295:g:/iot/IoT_Device_Demo/iot_link/oc/oc_lwm2m/atiny_lwm2m\agent_lwm2m.c **** 
 296:g:/iot/IoT_Device_Demo/iot_link/oc/oc_lwm2m/atiny_lwm2m\agent_lwm2m.c **** static void uri_list_add(object_uri_list **head, object_uri_list *list)
 297:g:/iot/IoT_Device_Demo/iot_link/oc/oc_lwm2m/atiny_lwm2m\agent_lwm2m.c **** {
 648              		.loc 1 297 1
 649              		.cfi_startproc
 650              		@ args = 0, pretend = 0, frame = 16
 651              		@ frame_needed = 1, uses_anonymous_args = 0
 652              		@ link register save eliminated.
 653 0000 80B4     		push	{r7}
 654              	.LCFI26:
 655              		.cfi_def_cfa_offset 4
 656              		.cfi_offset 7, -4
 657 0002 85B0     		sub	sp, sp, #20
 658              	.LCFI27:
 659              		.cfi_def_cfa_offset 24
 660 0004 00AF     		add	r7, sp, #0
 661              	.LCFI28:
 662              		.cfi_def_cfa_register 7
 663 0006 7860     		str	r0, [r7, #4]
 664 0008 3960     		str	r1, [r7]
 298:g:/iot/IoT_Device_Demo/iot_link/oc/oc_lwm2m/atiny_lwm2m\agent_lwm2m.c ****     object_uri_list *temp;
 299:g:/iot/IoT_Device_Demo/iot_link/oc/oc_lwm2m/atiny_lwm2m\agent_lwm2m.c **** 
 300:g:/iot/IoT_Device_Demo/iot_link/oc/oc_lwm2m/atiny_lwm2m\agent_lwm2m.c ****     if (NULL == *head)
 665              		.loc 1 300 17
 666 000a 7B68     		ldr	r3, [r7, #4]
 667 000c 1B68     		ldr	r3, [r3]
 668              		.loc 1 300 8
 669 000e 002B     		cmp	r3, #0
 670 0010 07D1     		bne	.L46
 301:g:/iot/IoT_Device_Demo/iot_link/oc/oc_lwm2m/atiny_lwm2m\agent_lwm2m.c ****     {
 302:g:/iot/IoT_Device_Demo/iot_link/oc/oc_lwm2m/atiny_lwm2m\agent_lwm2m.c ****         *head = list;
 671              		.loc 1 302 15
 672 0012 7B68     		ldr	r3, [r7, #4]
 673 0014 3A68     		ldr	r2, [r7]
ARM GAS  C:\Users\ADMINI~1\AppData\Local\Temp\ccTcVp5n.s 			page 18


 674 0016 1A60     		str	r2, [r3]
 303:g:/iot/IoT_Device_Demo/iot_link/oc/oc_lwm2m/atiny_lwm2m\agent_lwm2m.c ****         (*head)->next = NULL;
 675              		.loc 1 303 10
 676 0018 7B68     		ldr	r3, [r7, #4]
 677 001a 1B68     		ldr	r3, [r3]
 678              		.loc 1 303 23
 679 001c 0022     		movs	r2, #0
 680 001e 1A60     		str	r2, [r3]
 304:g:/iot/IoT_Device_Demo/iot_link/oc/oc_lwm2m/atiny_lwm2m\agent_lwm2m.c ****     }
 305:g:/iot/IoT_Device_Demo/iot_link/oc/oc_lwm2m/atiny_lwm2m\agent_lwm2m.c ****     else
 306:g:/iot/IoT_Device_Demo/iot_link/oc/oc_lwm2m/atiny_lwm2m\agent_lwm2m.c ****     {
 307:g:/iot/IoT_Device_Demo/iot_link/oc/oc_lwm2m/atiny_lwm2m\agent_lwm2m.c ****         temp = *head;
 308:g:/iot/IoT_Device_Demo/iot_link/oc/oc_lwm2m/atiny_lwm2m\agent_lwm2m.c **** 
 309:g:/iot/IoT_Device_Demo/iot_link/oc/oc_lwm2m/atiny_lwm2m\agent_lwm2m.c ****         while (temp)
 310:g:/iot/IoT_Device_Demo/iot_link/oc/oc_lwm2m/atiny_lwm2m\agent_lwm2m.c ****         {
 311:g:/iot/IoT_Device_Demo/iot_link/oc/oc_lwm2m/atiny_lwm2m\agent_lwm2m.c ****             if (NULL == temp->next)
 312:g:/iot/IoT_Device_Demo/iot_link/oc/oc_lwm2m/atiny_lwm2m\agent_lwm2m.c ****             {
 313:g:/iot/IoT_Device_Demo/iot_link/oc/oc_lwm2m/atiny_lwm2m\agent_lwm2m.c ****                 temp->next = list;
 314:g:/iot/IoT_Device_Demo/iot_link/oc/oc_lwm2m/atiny_lwm2m\agent_lwm2m.c ****                 list->next = NULL;
 315:g:/iot/IoT_Device_Demo/iot_link/oc/oc_lwm2m/atiny_lwm2m\agent_lwm2m.c ****             }
 316:g:/iot/IoT_Device_Demo/iot_link/oc/oc_lwm2m/atiny_lwm2m\agent_lwm2m.c **** 
 317:g:/iot/IoT_Device_Demo/iot_link/oc/oc_lwm2m/atiny_lwm2m\agent_lwm2m.c ****             temp = temp->next;
 318:g:/iot/IoT_Device_Demo/iot_link/oc/oc_lwm2m/atiny_lwm2m\agent_lwm2m.c ****         }
 319:g:/iot/IoT_Device_Demo/iot_link/oc/oc_lwm2m/atiny_lwm2m\agent_lwm2m.c ****     }
 320:g:/iot/IoT_Device_Demo/iot_link/oc/oc_lwm2m/atiny_lwm2m\agent_lwm2m.c **** }
 681              		.loc 1 320 1
 682 0020 13E0     		b	.L51
 683              	.L46:
 307:g:/iot/IoT_Device_Demo/iot_link/oc/oc_lwm2m/atiny_lwm2m\agent_lwm2m.c **** 
 684              		.loc 1 307 14
 685 0022 7B68     		ldr	r3, [r7, #4]
 686 0024 1B68     		ldr	r3, [r3]
 687 0026 FB60     		str	r3, [r7, #12]
 309:g:/iot/IoT_Device_Demo/iot_link/oc/oc_lwm2m/atiny_lwm2m\agent_lwm2m.c ****         {
 688              		.loc 1 309 15
 689 0028 0CE0     		b	.L48
 690              	.L50:
 311:g:/iot/IoT_Device_Demo/iot_link/oc/oc_lwm2m/atiny_lwm2m\agent_lwm2m.c ****             {
 691              		.loc 1 311 29
 692 002a FB68     		ldr	r3, [r7, #12]
 693 002c 1B68     		ldr	r3, [r3]
 311:g:/iot/IoT_Device_Demo/iot_link/oc/oc_lwm2m/atiny_lwm2m\agent_lwm2m.c ****             {
 694              		.loc 1 311 16
 695 002e 002B     		cmp	r3, #0
 696 0030 05D1     		bne	.L49
 313:g:/iot/IoT_Device_Demo/iot_link/oc/oc_lwm2m/atiny_lwm2m\agent_lwm2m.c ****                 list->next = NULL;
 697              		.loc 1 313 28
 698 0032 FB68     		ldr	r3, [r7, #12]
 699 0034 3A68     		ldr	r2, [r7]
 700 0036 1A60     		str	r2, [r3]
 314:g:/iot/IoT_Device_Demo/iot_link/oc/oc_lwm2m/atiny_lwm2m\agent_lwm2m.c ****             }
 701              		.loc 1 314 28
 702 0038 3B68     		ldr	r3, [r7]
 703 003a 0022     		movs	r2, #0
 704 003c 1A60     		str	r2, [r3]
 705              	.L49:
 317:g:/iot/IoT_Device_Demo/iot_link/oc/oc_lwm2m/atiny_lwm2m\agent_lwm2m.c ****         }
ARM GAS  C:\Users\ADMINI~1\AppData\Local\Temp\ccTcVp5n.s 			page 19


 706              		.loc 1 317 18
 707 003e FB68     		ldr	r3, [r7, #12]
 708 0040 1B68     		ldr	r3, [r3]
 709 0042 FB60     		str	r3, [r7, #12]
 710              	.L48:
 309:g:/iot/IoT_Device_Demo/iot_link/oc/oc_lwm2m/atiny_lwm2m\agent_lwm2m.c ****         {
 711              		.loc 1 309 15
 712 0044 FB68     		ldr	r3, [r7, #12]
 713 0046 002B     		cmp	r3, #0
 714 0048 EFD1     		bne	.L50
 715              	.L51:
 716              		.loc 1 320 1
 717 004a 00BF     		nop
 718 004c 1437     		adds	r7, r7, #20
 719              	.LCFI29:
 720              		.cfi_def_cfa_offset 4
 721 004e BD46     		mov	sp, r7
 722              	.LCFI30:
 723              		.cfi_def_cfa_register 13
 724              		@ sp needed
 725 0050 5DF8047B 		ldr	r7, [sp], #4
 726              	.LCFI31:
 727              		.cfi_restore 7
 728              		.cfi_def_cfa_offset 0
 729 0054 7047     		bx	lr
 730              		.cfi_endproc
 731              	.LFE8:
 733              		.section	.text.agent_add_security_object,"ax",%progbits
 734              		.align	1
 735              		.syntax unified
 736              		.thumb
 737              		.thumb_func
 738              		.fpu fpv4-sp-d16
 740              	agent_add_security_object:
 741              	.LFB9:
 321:g:/iot/IoT_Device_Demo/iot_link/oc/oc_lwm2m/atiny_lwm2m\agent_lwm2m.c **** 
 322:g:/iot/IoT_Device_Demo/iot_link/oc/oc_lwm2m/atiny_lwm2m\agent_lwm2m.c **** 
 323:g:/iot/IoT_Device_Demo/iot_link/oc/oc_lwm2m/atiny_lwm2m\agent_lwm2m.c **** static int agent_add_security_object(void *handle, atiny_param_t *lwm2m_params)
 324:g:/iot/IoT_Device_Demo/iot_link/oc/oc_lwm2m/atiny_lwm2m\agent_lwm2m.c **** {
 742              		.loc 1 324 1
 743              		.cfi_startproc
 744              		@ args = 0, pretend = 0, frame = 64
 745              		@ frame_needed = 1, uses_anonymous_args = 0
 746 0000 80B5     		push	{r7, lr}
 747              	.LCFI32:
 748              		.cfi_def_cfa_offset 8
 749              		.cfi_offset 7, -8
 750              		.cfi_offset 14, -4
 751 0002 92B0     		sub	sp, sp, #72
 752              	.LCFI33:
 753              		.cfi_def_cfa_offset 80
 754 0004 02AF     		add	r7, sp, #8
 755              	.LCFI34:
 756              		.cfi_def_cfa 7, 72
 757 0006 7860     		str	r0, [r7, #4]
 758 0008 3960     		str	r1, [r7]
 325:g:/iot/IoT_Device_Demo/iot_link/oc/oc_lwm2m/atiny_lwm2m\agent_lwm2m.c ****     uint16_t instance_id = 0;
ARM GAS  C:\Users\ADMINI~1\AppData\Local\Temp\ccTcVp5n.s 			page 20


 759              		.loc 1 325 14
 760 000a 0023     		movs	r3, #0
 761 000c FB87     		strh	r3, [r7, #62]	@ movhi
 326:g:/iot/IoT_Device_Demo/iot_link/oc/oc_lwm2m/atiny_lwm2m\agent_lwm2m.c ****     const uint8_t INS_IOT_SERVER_FLAG = 0x01;
 762              		.loc 1 326 19
 763 000e 0123     		movs	r3, #1
 764 0010 87F83330 		strb	r3, [r7, #51]
 327:g:/iot/IoT_Device_Demo/iot_link/oc/oc_lwm2m/atiny_lwm2m\agent_lwm2m.c ****     const uint8_t INS_BS_SERVER_FLAG = 0x02;
 765              		.loc 1 327 19
 766 0014 0223     		movs	r3, #2
 767 0016 87F83230 		strb	r3, [r7, #50]
 328:g:/iot/IoT_Device_Demo/iot_link/oc/oc_lwm2m/atiny_lwm2m\agent_lwm2m.c ****     uint8_t  ins_flag = 0x00;
 768              		.loc 1 328 14
 769 001a 0023     		movs	r3, #0
 770 001c 87F83D30 		strb	r3, [r7, #61]
 329:g:/iot/IoT_Device_Demo/iot_link/oc/oc_lwm2m/atiny_lwm2m\agent_lwm2m.c ****     uint8_t total_ins = 1;
 771              		.loc 1 329 13
 772 0020 0123     		movs	r3, #1
 773 0022 87F83C30 		strb	r3, [r7, #60]
 330:g:/iot/IoT_Device_Demo/iot_link/oc/oc_lwm2m/atiny_lwm2m\agent_lwm2m.c ****     uint8_t security_params_index = 0;
 774              		.loc 1 330 13
 775 0026 0023     		movs	r3, #0
 776 0028 87F83B30 		strb	r3, [r7, #59]
 331:g:/iot/IoT_Device_Demo/iot_link/oc/oc_lwm2m/atiny_lwm2m\agent_lwm2m.c ****     int i;
 332:g:/iot/IoT_Device_Demo/iot_link/oc/oc_lwm2m/atiny_lwm2m\agent_lwm2m.c ****     int ret = (int) ATINY_ERR;
 777              		.loc 1 332 9
 778 002c 6FF00803 		mvn	r3, #8
 779 0030 FB62     		str	r3, [r7, #44]
 333:g:/iot/IoT_Device_Demo/iot_link/oc/oc_lwm2m/atiny_lwm2m\agent_lwm2m.c ****     object_uri_list *security_list = NULL;
 780              		.loc 1 333 22
 781 0032 0023     		movs	r3, #0
 782 0034 BB62     		str	r3, [r7, #40]
 334:g:/iot/IoT_Device_Demo/iot_link/oc/oc_lwm2m/atiny_lwm2m\agent_lwm2m.c ****     lwm2m_al_sec_obj_param_t security_object_param;
 335:g:/iot/IoT_Device_Demo/iot_link/oc/oc_lwm2m/atiny_lwm2m\agent_lwm2m.c **** 
 336:g:/iot/IoT_Device_Demo/iot_link/oc/oc_lwm2m/atiny_lwm2m\agent_lwm2m.c ****     if (NULL == lwm2m_params)
 783              		.loc 1 336 8
 784 0036 3B68     		ldr	r3, [r7]
 785 0038 002B     		cmp	r3, #0
 786 003a 02D1     		bne	.L53
 337:g:/iot/IoT_Device_Demo/iot_link/oc/oc_lwm2m/atiny_lwm2m\agent_lwm2m.c ****     {
 338:g:/iot/IoT_Device_Demo/iot_link/oc/oc_lwm2m/atiny_lwm2m\agent_lwm2m.c ****         return (int)ATINY_ARG_INVALID;
 787              		.loc 1 338 16
 788 003c 4FF0FF33 		mov	r3, #-1
 789 0040 EDE0     		b	.L69
 790              	.L53:
 339:g:/iot/IoT_Device_Demo/iot_link/oc/oc_lwm2m/atiny_lwm2m\agent_lwm2m.c ****     }
 340:g:/iot/IoT_Device_Demo/iot_link/oc/oc_lwm2m/atiny_lwm2m\agent_lwm2m.c **** 
 341:g:/iot/IoT_Device_Demo/iot_link/oc/oc_lwm2m/atiny_lwm2m\agent_lwm2m.c ****     security_object_param.server_id = SERVER_ID;
 791              		.loc 1 341 37
 792 0042 7B23     		movs	r3, #123
 793 0044 BB81     		strh	r3, [r7, #12]	@ movhi
 342:g:/iot/IoT_Device_Demo/iot_link/oc/oc_lwm2m/atiny_lwm2m\agent_lwm2m.c ****     security_object_param.hold_off_time = lwm2m_params->server_params.hold_off_time;
 794              		.loc 1 342 70
 795 0046 3B68     		ldr	r3, [r7]
 796 0048 1B69     		ldr	r3, [r3, #16]
 797              		.loc 1 342 41
 798 004a 3B61     		str	r3, [r7, #16]
ARM GAS  C:\Users\ADMINI~1\AppData\Local\Temp\ccTcVp5n.s 			page 21


 343:g:/iot/IoT_Device_Demo/iot_link/oc/oc_lwm2m/atiny_lwm2m\agent_lwm2m.c **** 
 344:g:/iot/IoT_Device_Demo/iot_link/oc/oc_lwm2m/atiny_lwm2m\agent_lwm2m.c ****     switch (lwm2m_params->server_params.bootstrap_mode)
 799              		.loc 1 344 40
 800 004c 3B68     		ldr	r3, [r7]
 801 004e 1B7B     		ldrb	r3, [r3, #12]	@ zero_extendqisi2
 802              		.loc 1 344 5
 803 0050 022B     		cmp	r3, #2
 804 0052 11D0     		beq	.L55
 805 0054 022B     		cmp	r3, #2
 806 0056 3FDC     		bgt	.L56
 807 0058 002B     		cmp	r3, #0
 808 005a 02D0     		beq	.L57
 809 005c 012B     		cmp	r3, #1
 810 005e 30D0     		beq	.L58
 811 0060 3AE0     		b	.L56
 812              	.L57:
 345:g:/iot/IoT_Device_Demo/iot_link/oc/oc_lwm2m/atiny_lwm2m\agent_lwm2m.c ****     {
 346:g:/iot/IoT_Device_Demo/iot_link/oc/oc_lwm2m/atiny_lwm2m\agent_lwm2m.c ****         case ATINY_BOOTSTRAP_FACTORY:
 347:g:/iot/IoT_Device_Demo/iot_link/oc/oc_lwm2m/atiny_lwm2m\agent_lwm2m.c ****             ins_flag |= INS_IOT_SERVER_FLAG;
 813              		.loc 1 347 22
 814 0062 97F83D20 		ldrb	r2, [r7, #61]
 815 0066 97F83330 		ldrb	r3, [r7, #51]
 816 006a 1343     		orrs	r3, r3, r2
 817 006c 87F83D30 		strb	r3, [r7, #61]
 348:g:/iot/IoT_Device_Demo/iot_link/oc/oc_lwm2m/atiny_lwm2m\agent_lwm2m.c ****             total_ins = 1;
 818              		.loc 1 348 23
 819 0070 0123     		movs	r3, #1
 820 0072 87F83C30 		strb	r3, [r7, #60]
 349:g:/iot/IoT_Device_Demo/iot_link/oc/oc_lwm2m/atiny_lwm2m\agent_lwm2m.c ****             break;
 821              		.loc 1 349 13
 822 0076 32E0     		b	.L59
 823              	.L55:
 350:g:/iot/IoT_Device_Demo/iot_link/oc/oc_lwm2m/atiny_lwm2m\agent_lwm2m.c **** 
 351:g:/iot/IoT_Device_Demo/iot_link/oc/oc_lwm2m/atiny_lwm2m\agent_lwm2m.c ****         case ATINY_BOOTSTRAP_SEQUENCE:
 352:g:/iot/IoT_Device_Demo/iot_link/oc/oc_lwm2m/atiny_lwm2m\agent_lwm2m.c ****             if ((lwm2m_params->security_params[0].server_ip != NULL) && (lwm2m_params->security_par
 824              		.loc 1 352 50
 825 0078 3B68     		ldr	r3, [r7]
 826 007a 5B69     		ldr	r3, [r3, #20]
 827              		.loc 1 352 16
 828 007c 002B     		cmp	r3, #0
 829 007e 15D0     		beq	.L60
 830              		.loc 1 352 106 discriminator 1
 831 0080 3B68     		ldr	r3, [r7]
 832 0082 9B69     		ldr	r3, [r3, #24]
 833              		.loc 1 352 70 discriminator 1
 834 0084 002B     		cmp	r3, #0
 835 0086 11D0     		beq	.L60
 353:g:/iot/IoT_Device_Demo/iot_link/oc/oc_lwm2m/atiny_lwm2m\agent_lwm2m.c ****             {
 354:g:/iot/IoT_Device_Demo/iot_link/oc/oc_lwm2m/atiny_lwm2m\agent_lwm2m.c ****                 ins_flag |= INS_IOT_SERVER_FLAG;
 836              		.loc 1 354 26
 837 0088 97F83D20 		ldrb	r2, [r7, #61]
 838 008c 97F83330 		ldrb	r3, [r7, #51]
 839 0090 1343     		orrs	r3, r3, r2
 840 0092 87F83D30 		strb	r3, [r7, #61]
 355:g:/iot/IoT_Device_Demo/iot_link/oc/oc_lwm2m/atiny_lwm2m\agent_lwm2m.c ****                 ins_flag |= INS_BS_SERVER_FLAG;
 841              		.loc 1 355 26
 842 0096 97F83D20 		ldrb	r2, [r7, #61]
ARM GAS  C:\Users\ADMINI~1\AppData\Local\Temp\ccTcVp5n.s 			page 22


 843 009a 97F83230 		ldrb	r3, [r7, #50]
 844 009e 1343     		orrs	r3, r3, r2
 845 00a0 87F83D30 		strb	r3, [r7, #61]
 356:g:/iot/IoT_Device_Demo/iot_link/oc/oc_lwm2m/atiny_lwm2m\agent_lwm2m.c ****                 total_ins = 2;
 846              		.loc 1 356 27
 847 00a4 0223     		movs	r3, #2
 848 00a6 87F83C30 		strb	r3, [r7, #60]
 357:g:/iot/IoT_Device_Demo/iot_link/oc/oc_lwm2m/atiny_lwm2m\agent_lwm2m.c ****             }
 358:g:/iot/IoT_Device_Demo/iot_link/oc/oc_lwm2m/atiny_lwm2m\agent_lwm2m.c ****             else
 359:g:/iot/IoT_Device_Demo/iot_link/oc/oc_lwm2m/atiny_lwm2m\agent_lwm2m.c ****             {
 360:g:/iot/IoT_Device_Demo/iot_link/oc/oc_lwm2m/atiny_lwm2m\agent_lwm2m.c ****                 ins_flag |= INS_BS_SERVER_FLAG;
 361:g:/iot/IoT_Device_Demo/iot_link/oc/oc_lwm2m/atiny_lwm2m\agent_lwm2m.c ****                 total_ins = 1;
 362:g:/iot/IoT_Device_Demo/iot_link/oc/oc_lwm2m/atiny_lwm2m\agent_lwm2m.c ****             }
 363:g:/iot/IoT_Device_Demo/iot_link/oc/oc_lwm2m/atiny_lwm2m\agent_lwm2m.c **** 
 364:g:/iot/IoT_Device_Demo/iot_link/oc/oc_lwm2m/atiny_lwm2m\agent_lwm2m.c ****             break;
 849              		.loc 1 364 13
 850 00aa 18E0     		b	.L59
 851              	.L60:
 360:g:/iot/IoT_Device_Demo/iot_link/oc/oc_lwm2m/atiny_lwm2m\agent_lwm2m.c ****                 total_ins = 1;
 852              		.loc 1 360 26
 853 00ac 97F83D20 		ldrb	r2, [r7, #61]
 854 00b0 97F83230 		ldrb	r3, [r7, #50]
 855 00b4 1343     		orrs	r3, r3, r2
 856 00b6 87F83D30 		strb	r3, [r7, #61]
 361:g:/iot/IoT_Device_Demo/iot_link/oc/oc_lwm2m/atiny_lwm2m\agent_lwm2m.c ****             }
 857              		.loc 1 361 27
 858 00ba 0123     		movs	r3, #1
 859 00bc 87F83C30 		strb	r3, [r7, #60]
 860              		.loc 1 364 13
 861 00c0 0DE0     		b	.L59
 862              	.L58:
 365:g:/iot/IoT_Device_Demo/iot_link/oc/oc_lwm2m/atiny_lwm2m\agent_lwm2m.c **** 
 366:g:/iot/IoT_Device_Demo/iot_link/oc/oc_lwm2m/atiny_lwm2m\agent_lwm2m.c ****         case ATINY_BOOTSTRAP_CLIENT_INITIATED:
 367:g:/iot/IoT_Device_Demo/iot_link/oc/oc_lwm2m/atiny_lwm2m\agent_lwm2m.c ****             ins_flag |= INS_BS_SERVER_FLAG;
 863              		.loc 1 367 22
 864 00c2 97F83D20 		ldrb	r2, [r7, #61]
 865 00c6 97F83230 		ldrb	r3, [r7, #50]
 866 00ca 1343     		orrs	r3, r3, r2
 867 00cc 87F83D30 		strb	r3, [r7, #61]
 368:g:/iot/IoT_Device_Demo/iot_link/oc/oc_lwm2m/atiny_lwm2m\agent_lwm2m.c ****             total_ins = 1;
 868              		.loc 1 368 23
 869 00d0 0123     		movs	r3, #1
 870 00d2 87F83C30 		strb	r3, [r7, #60]
 369:g:/iot/IoT_Device_Demo/iot_link/oc/oc_lwm2m/atiny_lwm2m\agent_lwm2m.c ****             break;
 871              		.loc 1 369 13
 872 00d6 02E0     		b	.L59
 873              	.L56:
 370:g:/iot/IoT_Device_Demo/iot_link/oc/oc_lwm2m/atiny_lwm2m\agent_lwm2m.c **** 
 371:g:/iot/IoT_Device_Demo/iot_link/oc/oc_lwm2m/atiny_lwm2m\agent_lwm2m.c ****         default:
 372:g:/iot/IoT_Device_Demo/iot_link/oc/oc_lwm2m/atiny_lwm2m\agent_lwm2m.c ****             return -1;
 874              		.loc 1 372 20
 875 00d8 4FF0FF33 		mov	r3, #-1
 876 00dc 9FE0     		b	.L69
 877              	.L59:
 373:g:/iot/IoT_Device_Demo/iot_link/oc/oc_lwm2m/atiny_lwm2m\agent_lwm2m.c ****     }
 374:g:/iot/IoT_Device_Demo/iot_link/oc/oc_lwm2m/atiny_lwm2m\agent_lwm2m.c **** 
 375:g:/iot/IoT_Device_Demo/iot_link/oc/oc_lwm2m/atiny_lwm2m\agent_lwm2m.c ****     //at most, have two instance. in fact
ARM GAS  C:\Users\ADMINI~1\AppData\Local\Temp\ccTcVp5n.s 			page 23


 376:g:/iot/IoT_Device_Demo/iot_link/oc/oc_lwm2m/atiny_lwm2m\agent_lwm2m.c ****     for (i = 0; i < total_ins; i++)
 878              		.loc 1 376 12
 879 00de 0023     		movs	r3, #0
 880 00e0 7B63     		str	r3, [r7, #52]
 881              		.loc 1 376 5
 882 00e2 80E0     		b	.L62
 883              	.L67:
 377:g:/iot/IoT_Device_Demo/iot_link/oc/oc_lwm2m/atiny_lwm2m\agent_lwm2m.c ****     {
 378:g:/iot/IoT_Device_Demo/iot_link/oc/oc_lwm2m/atiny_lwm2m\agent_lwm2m.c ****         if ((ins_flag & INS_IOT_SERVER_FLAG) && (ins_flag & INS_BS_SERVER_FLAG))
 884              		.loc 1 378 13
 885 00e4 97F83D20 		ldrb	r2, [r7, #61]
 886 00e8 97F83330 		ldrb	r3, [r7, #51]
 887 00ec 1340     		ands	r3, r3, r2
 888 00ee DBB2     		uxtb	r3, r3
 889              		.loc 1 378 12
 890 00f0 002B     		cmp	r3, #0
 891 00f2 14D0     		beq	.L63
 892              		.loc 1 378 46 discriminator 1
 893 00f4 97F83D20 		ldrb	r2, [r7, #61]
 894 00f8 97F83230 		ldrb	r3, [r7, #50]
 895 00fc 1340     		ands	r3, r3, r2
 896 00fe DBB2     		uxtb	r3, r3
 897 0100 002B     		cmp	r3, #0
 898 0102 0CD0     		beq	.L63
 379:g:/iot/IoT_Device_Demo/iot_link/oc/oc_lwm2m/atiny_lwm2m\agent_lwm2m.c ****         {
 380:g:/iot/IoT_Device_Demo/iot_link/oc/oc_lwm2m/atiny_lwm2m\agent_lwm2m.c ****             instance_id = i;
 899              		.loc 1 380 25
 900 0104 7B6B     		ldr	r3, [r7, #52]
 901 0106 FB87     		strh	r3, [r7, #62]	@ movhi
 381:g:/iot/IoT_Device_Demo/iot_link/oc/oc_lwm2m/atiny_lwm2m\agent_lwm2m.c ****             security_object_param.is_bootstrap = ((i == 0) ? (false) : (true));
 902              		.loc 1 381 70
 903 0108 7B6B     		ldr	r3, [r7, #52]
 904 010a 002B     		cmp	r3, #0
 905 010c 14BF     		ite	ne
 906 010e 0123     		movne	r3, #1
 907 0110 0023     		moveq	r3, #0
 908 0112 DBB2     		uxtb	r3, r3
 909              		.loc 1 381 48
 910 0114 BB73     		strb	r3, [r7, #14]
 382:g:/iot/IoT_Device_Demo/iot_link/oc/oc_lwm2m/atiny_lwm2m\agent_lwm2m.c ****             security_params_index = i;
 911              		.loc 1 382 35
 912 0116 7B6B     		ldr	r3, [r7, #52]
 913 0118 87F83B30 		strb	r3, [r7, #59]
 914 011c 16E0     		b	.L64
 915              	.L63:
 383:g:/iot/IoT_Device_Demo/iot_link/oc/oc_lwm2m/atiny_lwm2m\agent_lwm2m.c ****         }
 384:g:/iot/IoT_Device_Demo/iot_link/oc/oc_lwm2m/atiny_lwm2m\agent_lwm2m.c ****         else
 385:g:/iot/IoT_Device_Demo/iot_link/oc/oc_lwm2m/atiny_lwm2m\agent_lwm2m.c ****         {
 386:g:/iot/IoT_Device_Demo/iot_link/oc/oc_lwm2m/atiny_lwm2m\agent_lwm2m.c ****             if (ins_flag & INS_IOT_SERVER_FLAG)
 916              		.loc 1 386 17
 917 011e 97F83D20 		ldrb	r2, [r7, #61]
 918 0122 97F83330 		ldrb	r3, [r7, #51]
 919 0126 1340     		ands	r3, r3, r2
 920 0128 DBB2     		uxtb	r3, r3
 921              		.loc 1 386 16
 922 012a 002B     		cmp	r3, #0
 923 012c 07D0     		beq	.L65
ARM GAS  C:\Users\ADMINI~1\AppData\Local\Temp\ccTcVp5n.s 			page 24


 387:g:/iot/IoT_Device_Demo/iot_link/oc/oc_lwm2m/atiny_lwm2m\agent_lwm2m.c ****             {
 388:g:/iot/IoT_Device_Demo/iot_link/oc/oc_lwm2m/atiny_lwm2m\agent_lwm2m.c ****                 instance_id = 0;
 924              		.loc 1 388 29
 925 012e 0023     		movs	r3, #0
 926 0130 FB87     		strh	r3, [r7, #62]	@ movhi
 389:g:/iot/IoT_Device_Demo/iot_link/oc/oc_lwm2m/atiny_lwm2m\agent_lwm2m.c ****                 security_object_param.is_bootstrap = false;
 927              		.loc 1 389 52
 928 0132 0023     		movs	r3, #0
 929 0134 BB73     		strb	r3, [r7, #14]
 390:g:/iot/IoT_Device_Demo/iot_link/oc/oc_lwm2m/atiny_lwm2m\agent_lwm2m.c ****                 security_params_index = 0;
 930              		.loc 1 390 39
 931 0136 0023     		movs	r3, #0
 932 0138 87F83B30 		strb	r3, [r7, #59]
 933 013c 06E0     		b	.L64
 934              	.L65:
 391:g:/iot/IoT_Device_Demo/iot_link/oc/oc_lwm2m/atiny_lwm2m\agent_lwm2m.c ****             }
 392:g:/iot/IoT_Device_Demo/iot_link/oc/oc_lwm2m/atiny_lwm2m\agent_lwm2m.c ****             else  //if(ins_flag & INS_BS_SERVER_FLAG)  //even if not set INS_BS_SERVER_FLAG, still 
 393:g:/iot/IoT_Device_Demo/iot_link/oc/oc_lwm2m/atiny_lwm2m\agent_lwm2m.c ****             {
 394:g:/iot/IoT_Device_Demo/iot_link/oc/oc_lwm2m/atiny_lwm2m\agent_lwm2m.c ****                 instance_id = 1;
 935              		.loc 1 394 29
 936 013e 0123     		movs	r3, #1
 937 0140 FB87     		strh	r3, [r7, #62]	@ movhi
 395:g:/iot/IoT_Device_Demo/iot_link/oc/oc_lwm2m/atiny_lwm2m\agent_lwm2m.c ****                 security_object_param.is_bootstrap = true;
 938              		.loc 1 395 52
 939 0142 0123     		movs	r3, #1
 940 0144 BB73     		strb	r3, [r7, #14]
 396:g:/iot/IoT_Device_Demo/iot_link/oc/oc_lwm2m/atiny_lwm2m\agent_lwm2m.c ****                 security_params_index = 1;
 941              		.loc 1 396 39
 942 0146 0123     		movs	r3, #1
 943 0148 87F83B30 		strb	r3, [r7, #59]
 944              	.L64:
 397:g:/iot/IoT_Device_Demo/iot_link/oc/oc_lwm2m/atiny_lwm2m\agent_lwm2m.c ****             }
 398:g:/iot/IoT_Device_Demo/iot_link/oc/oc_lwm2m/atiny_lwm2m\agent_lwm2m.c ****         }
 399:g:/iot/IoT_Device_Demo/iot_link/oc/oc_lwm2m/atiny_lwm2m\agent_lwm2m.c **** 
 400:g:/iot/IoT_Device_Demo/iot_link/oc/oc_lwm2m/atiny_lwm2m\agent_lwm2m.c ****         security_object_param.server_ip = lwm2m_params->security_params[security_params_index].serv
 945              		.loc 1 400 95
 946 014c 97F83B20 		ldrb	r2, [r7, #59]	@ zero_extendqisi2
 947 0150 3968     		ldr	r1, [r7]
 948 0152 1346     		mov	r3, r2
 949 0154 9B00     		lsls	r3, r3, #2
 950 0156 1344     		add	r3, r3, r2
 951 0158 9B00     		lsls	r3, r3, #2
 952 015a 0B44     		add	r3, r3, r1
 953 015c 1433     		adds	r3, r3, #20
 954 015e 1B68     		ldr	r3, [r3]
 955              		.loc 1 400 41
 956 0160 7B61     		str	r3, [r7, #20]
 401:g:/iot/IoT_Device_Demo/iot_link/oc/oc_lwm2m/atiny_lwm2m\agent_lwm2m.c ****         security_object_param.server_port = lwm2m_params->security_params[security_params_index].se
 957              		.loc 1 401 97
 958 0162 97F83B20 		ldrb	r2, [r7, #59]	@ zero_extendqisi2
 959 0166 3968     		ldr	r1, [r7]
 960 0168 1346     		mov	r3, r2
 961 016a 9B00     		lsls	r3, r3, #2
 962 016c 1344     		add	r3, r3, r2
 963 016e 9B00     		lsls	r3, r3, #2
 964 0170 0B44     		add	r3, r3, r1
 965 0172 1833     		adds	r3, r3, #24
ARM GAS  C:\Users\ADMINI~1\AppData\Local\Temp\ccTcVp5n.s 			page 25


 966 0174 1B68     		ldr	r3, [r3]
 967              		.loc 1 401 43
 968 0176 BB61     		str	r3, [r7, #24]
 402:g:/iot/IoT_Device_Demo/iot_link/oc/oc_lwm2m/atiny_lwm2m\agent_lwm2m.c ****         security_object_param.psk_id = lwm2m_params->security_params[security_params_index].psk_id;
 969              		.loc 1 402 92
 970 0178 97F83B20 		ldrb	r2, [r7, #59]	@ zero_extendqisi2
 971 017c 3968     		ldr	r1, [r7]
 972 017e 1346     		mov	r3, r2
 973 0180 9B00     		lsls	r3, r3, #2
 974 0182 1344     		add	r3, r3, r2
 975 0184 9B00     		lsls	r3, r3, #2
 976 0186 0B44     		add	r3, r3, r1
 977 0188 1C33     		adds	r3, r3, #28
 978 018a 1B68     		ldr	r3, [r3]
 979              		.loc 1 402 38
 980 018c FB61     		str	r3, [r7, #28]
 403:g:/iot/IoT_Device_Demo/iot_link/oc/oc_lwm2m/atiny_lwm2m\agent_lwm2m.c ****         security_object_param.psk = lwm2m_params->security_params[security_params_index].psk;
 981              		.loc 1 403 89
 982 018e 97F83B20 		ldrb	r2, [r7, #59]	@ zero_extendqisi2
 983 0192 3968     		ldr	r1, [r7]
 984 0194 1346     		mov	r3, r2
 985 0196 9B00     		lsls	r3, r3, #2
 986 0198 1344     		add	r3, r3, r2
 987 019a 9B00     		lsls	r3, r3, #2
 988 019c 0B44     		add	r3, r3, r1
 989 019e 2033     		adds	r3, r3, #32
 990 01a0 1B68     		ldr	r3, [r3]
 991              		.loc 1 403 35
 992 01a2 3B62     		str	r3, [r7, #32]
 404:g:/iot/IoT_Device_Demo/iot_link/oc/oc_lwm2m/atiny_lwm2m\agent_lwm2m.c ****         security_object_param.psk_len = lwm2m_params->security_params[security_params_index].psk_le
 993              		.loc 1 404 93
 994 01a4 97F83B20 		ldrb	r2, [r7, #59]	@ zero_extendqisi2
 995 01a8 3968     		ldr	r1, [r7]
 996 01aa 1346     		mov	r3, r2
 997 01ac 9B00     		lsls	r3, r3, #2
 998 01ae 1344     		add	r3, r3, r2
 999 01b0 9B00     		lsls	r3, r3, #2
 1000 01b2 0B44     		add	r3, r3, r1
 1001 01b4 2433     		adds	r3, r3, #36
 1002 01b6 1B88     		ldrh	r3, [r3]
 1003              		.loc 1 404 39
 1004 01b8 BB84     		strh	r3, [r7, #36]	@ movhi
 405:g:/iot/IoT_Device_Demo/iot_link/oc/oc_lwm2m/atiny_lwm2m\agent_lwm2m.c ****         ret = lwm2m_al_add_object(handle, (int)OBJ_SECURITY_ID, instance_id, 0, &security_object_pa
 1005              		.loc 1 405 15
 1006 01ba FA8F     		ldrh	r2, [r7, #62]
 1007 01bc 07F10C03 		add	r3, r7, #12
 1008 01c0 0093     		str	r3, [sp]
 1009 01c2 0023     		movs	r3, #0
 1010 01c4 0021     		movs	r1, #0
 1011 01c6 7868     		ldr	r0, [r7, #4]
 1012 01c8 FFF7FEFF 		bl	lwm2m_al_add_object
 1013 01cc F862     		str	r0, [r7, #44]
 406:g:/iot/IoT_Device_Demo/iot_link/oc/oc_lwm2m/atiny_lwm2m\agent_lwm2m.c **** 
 407:g:/iot/IoT_Device_Demo/iot_link/oc/oc_lwm2m/atiny_lwm2m\agent_lwm2m.c ****         if ((int) LWM2M_OK != ret)
 1014              		.loc 1 407 12
 1015 01ce FB6A     		ldr	r3, [r7, #44]
 1016 01d0 002B     		cmp	r3, #0
ARM GAS  C:\Users\ADMINI~1\AppData\Local\Temp\ccTcVp5n.s 			page 26


 1017 01d2 05D0     		beq	.L66
 408:g:/iot/IoT_Device_Demo/iot_link/oc/oc_lwm2m/atiny_lwm2m\agent_lwm2m.c ****         {
 409:g:/iot/IoT_Device_Demo/iot_link/oc/oc_lwm2m/atiny_lwm2m\agent_lwm2m.c ****             (void)lwm2m_al_delete_object(handle, (int)OBJ_SECURITY_ID);
 1018              		.loc 1 409 19
 1019 01d4 0021     		movs	r1, #0
 1020 01d6 7868     		ldr	r0, [r7, #4]
 1021 01d8 FFF7FEFF 		bl	lwm2m_al_delete_object
 410:g:/iot/IoT_Device_Demo/iot_link/oc/oc_lwm2m/atiny_lwm2m\agent_lwm2m.c ****             return ret;
 1022              		.loc 1 410 20
 1023 01dc FB6A     		ldr	r3, [r7, #44]
 1024 01de 1EE0     		b	.L69
 1025              	.L66:
 376:g:/iot/IoT_Device_Demo/iot_link/oc/oc_lwm2m/atiny_lwm2m\agent_lwm2m.c ****     {
 1026              		.loc 1 376 33 discriminator 2
 1027 01e0 7B6B     		ldr	r3, [r7, #52]
 1028 01e2 0133     		adds	r3, r3, #1
 1029 01e4 7B63     		str	r3, [r7, #52]
 1030              	.L62:
 376:g:/iot/IoT_Device_Demo/iot_link/oc/oc_lwm2m/atiny_lwm2m\agent_lwm2m.c ****     {
 1031              		.loc 1 376 19 discriminator 1
 1032 01e6 97F83C30 		ldrb	r3, [r7, #60]	@ zero_extendqisi2
 376:g:/iot/IoT_Device_Demo/iot_link/oc/oc_lwm2m/atiny_lwm2m\agent_lwm2m.c ****     {
 1033              		.loc 1 376 5 discriminator 1
 1034 01ea 7A6B     		ldr	r2, [r7, #52]
 1035 01ec 9A42     		cmp	r2, r3
 1036 01ee FFF679AF 		blt	.L67
 411:g:/iot/IoT_Device_Demo/iot_link/oc/oc_lwm2m/atiny_lwm2m\agent_lwm2m.c ****         }
 412:g:/iot/IoT_Device_Demo/iot_link/oc/oc_lwm2m/atiny_lwm2m\agent_lwm2m.c ****     }//end for loop
 413:g:/iot/IoT_Device_Demo/iot_link/oc/oc_lwm2m/atiny_lwm2m\agent_lwm2m.c **** 
 414:g:/iot/IoT_Device_Demo/iot_link/oc/oc_lwm2m/atiny_lwm2m\agent_lwm2m.c ****     security_list = osal_malloc(sizeof(object_uri_list));
 1037              		.loc 1 414 21
 1038 01f2 0820     		movs	r0, #8
 1039 01f4 FFF7FEFF 		bl	osal_malloc
 1040 01f8 B862     		str	r0, [r7, #40]
 415:g:/iot/IoT_Device_Demo/iot_link/oc/oc_lwm2m/atiny_lwm2m\agent_lwm2m.c **** 
 416:g:/iot/IoT_Device_Demo/iot_link/oc/oc_lwm2m/atiny_lwm2m\agent_lwm2m.c ****     if (NULL == security_list)
 1041              		.loc 1 416 8
 1042 01fa BB6A     		ldr	r3, [r7, #40]
 1043 01fc 002B     		cmp	r3, #0
 1044 01fe 06D1     		bne	.L68
 417:g:/iot/IoT_Device_Demo/iot_link/oc/oc_lwm2m/atiny_lwm2m\agent_lwm2m.c ****     {
 418:g:/iot/IoT_Device_Demo/iot_link/oc/oc_lwm2m/atiny_lwm2m\agent_lwm2m.c ****         (void)lwm2m_al_delete_object(handle, (int)OBJ_SECURITY_ID);
 1045              		.loc 1 418 15
 1046 0200 0021     		movs	r1, #0
 1047 0202 7868     		ldr	r0, [r7, #4]
 1048 0204 FFF7FEFF 		bl	lwm2m_al_delete_object
 419:g:/iot/IoT_Device_Demo/iot_link/oc/oc_lwm2m/atiny_lwm2m\agent_lwm2m.c ****         return (int) ATINY_MALLOC_FAILED;
 1049              		.loc 1 419 16
 1050 0208 6FF00303 		mvn	r3, #3
 1051 020c 07E0     		b	.L69
 1052              	.L68:
 420:g:/iot/IoT_Device_Demo/iot_link/oc/oc_lwm2m/atiny_lwm2m\agent_lwm2m.c ****     }
 421:g:/iot/IoT_Device_Demo/iot_link/oc/oc_lwm2m/atiny_lwm2m\agent_lwm2m.c **** 
 422:g:/iot/IoT_Device_Demo/iot_link/oc/oc_lwm2m/atiny_lwm2m\agent_lwm2m.c ****     security_list->object_id = (int)OBJ_SECURITY_ID;
 1053              		.loc 1 422 30
 1054 020e BB6A     		ldr	r3, [r7, #40]
 1055 0210 0022     		movs	r2, #0
ARM GAS  C:\Users\ADMINI~1\AppData\Local\Temp\ccTcVp5n.s 			page 27


 1056 0212 9A80     		strh	r2, [r3, #4]	@ movhi
 423:g:/iot/IoT_Device_Demo/iot_link/oc/oc_lwm2m/atiny_lwm2m\agent_lwm2m.c ****     uri_list_add(&uri_list, security_list);
 1057              		.loc 1 423 5
 1058 0214 B96A     		ldr	r1, [r7, #40]
 1059 0216 0448     		ldr	r0, .L70
 1060 0218 FFF7FEFF 		bl	uri_list_add
 424:g:/iot/IoT_Device_Demo/iot_link/oc/oc_lwm2m/atiny_lwm2m\agent_lwm2m.c ****     return 0;
 1061              		.loc 1 424 12
 1062 021c 0023     		movs	r3, #0
 1063              	.L69:
 425:g:/iot/IoT_Device_Demo/iot_link/oc/oc_lwm2m/atiny_lwm2m\agent_lwm2m.c **** }
 1064              		.loc 1 425 1 discriminator 1
 1065 021e 1846     		mov	r0, r3
 1066 0220 4037     		adds	r7, r7, #64
 1067              	.LCFI35:
 1068              		.cfi_def_cfa_offset 8
 1069 0222 BD46     		mov	sp, r7
 1070              	.LCFI36:
 1071              		.cfi_def_cfa_register 13
 1072              		@ sp needed
 1073 0224 80BD     		pop	{r7, pc}
 1074              	.L71:
 1075 0226 00BF     		.align	2
 1076              	.L70:
 1077 0228 00000000 		.word	uri_list
 1078              		.cfi_endproc
 1079              	.LFE9:
 1081              		.section	.text.agent_add_server_object,"ax",%progbits
 1082              		.align	1
 1083              		.syntax unified
 1084              		.thumb
 1085              		.thumb_func
 1086              		.fpu fpv4-sp-d16
 1088              	agent_add_server_object:
 1089              	.LFB10:
 426:g:/iot/IoT_Device_Demo/iot_link/oc/oc_lwm2m/atiny_lwm2m\agent_lwm2m.c **** 
 427:g:/iot/IoT_Device_Demo/iot_link/oc/oc_lwm2m/atiny_lwm2m\agent_lwm2m.c **** static int agent_add_server_object(void *handle, atiny_param_t *lwm2m_params)
 428:g:/iot/IoT_Device_Demo/iot_link/oc/oc_lwm2m/atiny_lwm2m\agent_lwm2m.c **** {
 1090              		.loc 1 428 1
 1091              		.cfi_startproc
 1092              		@ args = 0, pretend = 0, frame = 40
 1093              		@ frame_needed = 1, uses_anonymous_args = 0
 1094 0000 80B5     		push	{r7, lr}
 1095              	.LCFI37:
 1096              		.cfi_def_cfa_offset 8
 1097              		.cfi_offset 7, -8
 1098              		.cfi_offset 14, -4
 1099 0002 8CB0     		sub	sp, sp, #48
 1100              	.LCFI38:
 1101              		.cfi_def_cfa_offset 56
 1102 0004 02AF     		add	r7, sp, #8
 1103              	.LCFI39:
 1104              		.cfi_def_cfa 7, 48
 1105 0006 7860     		str	r0, [r7, #4]
 1106 0008 3960     		str	r1, [r7]
 429:g:/iot/IoT_Device_Demo/iot_link/oc/oc_lwm2m/atiny_lwm2m\agent_lwm2m.c ****     uint16_t instance_id = 0;
 1107              		.loc 1 429 14
ARM GAS  C:\Users\ADMINI~1\AppData\Local\Temp\ccTcVp5n.s 			page 28


 1108 000a 0023     		movs	r3, #0
 1109 000c FB84     		strh	r3, [r7, #38]	@ movhi
 430:g:/iot/IoT_Device_Demo/iot_link/oc/oc_lwm2m/atiny_lwm2m\agent_lwm2m.c ****     lwm2m_al_srv_obj_param_t server_object_param;
 431:g:/iot/IoT_Device_Demo/iot_link/oc/oc_lwm2m/atiny_lwm2m\agent_lwm2m.c ****     object_uri_list *server_list = NULL;
 1110              		.loc 1 431 22
 1111 000e 0023     		movs	r3, #0
 1112 0010 3B62     		str	r3, [r7, #32]
 432:g:/iot/IoT_Device_Demo/iot_link/oc/oc_lwm2m/atiny_lwm2m\agent_lwm2m.c ****     int ret = (int) ATINY_ERR;
 1113              		.loc 1 432 9
 1114 0012 6FF00803 		mvn	r3, #8
 1115 0016 FB61     		str	r3, [r7, #28]
 433:g:/iot/IoT_Device_Demo/iot_link/oc/oc_lwm2m/atiny_lwm2m\agent_lwm2m.c **** 
 434:g:/iot/IoT_Device_Demo/iot_link/oc/oc_lwm2m/atiny_lwm2m\agent_lwm2m.c ****     if (NULL == lwm2m_params)
 1116              		.loc 1 434 8
 1117 0018 3B68     		ldr	r3, [r7]
 1118 001a 002B     		cmp	r3, #0
 1119 001c 02D1     		bne	.L73
 435:g:/iot/IoT_Device_Demo/iot_link/oc/oc_lwm2m/atiny_lwm2m\agent_lwm2m.c ****     {
 436:g:/iot/IoT_Device_Demo/iot_link/oc/oc_lwm2m/atiny_lwm2m\agent_lwm2m.c ****         return (int)ATINY_ARG_INVALID;
 1120              		.loc 1 436 16
 1121 001e 4FF0FF33 		mov	r3, #-1
 1122 0022 2FE0     		b	.L77
 1123              	.L73:
 437:g:/iot/IoT_Device_Demo/iot_link/oc/oc_lwm2m/atiny_lwm2m\agent_lwm2m.c ****     }
 438:g:/iot/IoT_Device_Demo/iot_link/oc/oc_lwm2m/atiny_lwm2m\agent_lwm2m.c **** 
 439:g:/iot/IoT_Device_Demo/iot_link/oc/oc_lwm2m/atiny_lwm2m\agent_lwm2m.c ****     server_object_param.server_id = SERVER_ID;
 1124              		.loc 1 439 35
 1125 0024 7B23     		movs	r3, #123
 1126 0026 BB81     		strh	r3, [r7, #12]	@ movhi
 440:g:/iot/IoT_Device_Demo/iot_link/oc/oc_lwm2m/atiny_lwm2m\agent_lwm2m.c ****     server_object_param.binding = lwm2m_params->server_params.binding;
 1127              		.loc 1 440 62
 1128 0028 3B68     		ldr	r3, [r7]
 1129 002a 1B68     		ldr	r3, [r3]
 1130              		.loc 1 440 33
 1131 002c 3B61     		str	r3, [r7, #16]
 441:g:/iot/IoT_Device_Demo/iot_link/oc/oc_lwm2m/atiny_lwm2m\agent_lwm2m.c ****     server_object_param.life_time = lwm2m_params->server_params.life_time;
 1132              		.loc 1 441 64
 1133 002e 3B68     		ldr	r3, [r7]
 1134 0030 5B68     		ldr	r3, [r3, #4]
 1135              		.loc 1 441 35
 1136 0032 7B61     		str	r3, [r7, #20]
 442:g:/iot/IoT_Device_Demo/iot_link/oc/oc_lwm2m/atiny_lwm2m\agent_lwm2m.c ****     server_object_param.storing_cnt = lwm2m_params->server_params.storing_cnt;
 1137              		.loc 1 442 66
 1138 0034 3B68     		ldr	r3, [r7]
 1139 0036 9B68     		ldr	r3, [r3, #8]
 1140              		.loc 1 442 37
 1141 0038 BB61     		str	r3, [r7, #24]
 443:g:/iot/IoT_Device_Demo/iot_link/oc/oc_lwm2m/atiny_lwm2m\agent_lwm2m.c ****     ret = lwm2m_al_add_object(handle, (int)OBJ_SERVER_ID, instance_id, 0, &server_object_param);
 1142              		.loc 1 443 11
 1143 003a FA8C     		ldrh	r2, [r7, #38]
 1144 003c 07F10C03 		add	r3, r7, #12
 1145 0040 0093     		str	r3, [sp]
 1146 0042 0023     		movs	r3, #0
 1147 0044 0121     		movs	r1, #1
 1148 0046 7868     		ldr	r0, [r7, #4]
 1149 0048 FFF7FEFF 		bl	lwm2m_al_add_object
 1150 004c F861     		str	r0, [r7, #28]
ARM GAS  C:\Users\ADMINI~1\AppData\Local\Temp\ccTcVp5n.s 			page 29


 444:g:/iot/IoT_Device_Demo/iot_link/oc/oc_lwm2m/atiny_lwm2m\agent_lwm2m.c **** 
 445:g:/iot/IoT_Device_Demo/iot_link/oc/oc_lwm2m/atiny_lwm2m\agent_lwm2m.c ****     if ((int) LWM2M_OK != ret)
 1151              		.loc 1 445 8
 1152 004e FB69     		ldr	r3, [r7, #28]
 1153 0050 002B     		cmp	r3, #0
 1154 0052 01D0     		beq	.L75
 446:g:/iot/IoT_Device_Demo/iot_link/oc/oc_lwm2m/atiny_lwm2m\agent_lwm2m.c ****     {
 447:g:/iot/IoT_Device_Demo/iot_link/oc/oc_lwm2m/atiny_lwm2m\agent_lwm2m.c ****         return ret;
 1155              		.loc 1 447 16
 1156 0054 FB69     		ldr	r3, [r7, #28]
 1157 0056 15E0     		b	.L77
 1158              	.L75:
 448:g:/iot/IoT_Device_Demo/iot_link/oc/oc_lwm2m/atiny_lwm2m\agent_lwm2m.c ****     }
 449:g:/iot/IoT_Device_Demo/iot_link/oc/oc_lwm2m/atiny_lwm2m\agent_lwm2m.c **** 
 450:g:/iot/IoT_Device_Demo/iot_link/oc/oc_lwm2m/atiny_lwm2m\agent_lwm2m.c ****     server_list = osal_malloc(sizeof(object_uri_list));
 1159              		.loc 1 450 19
 1160 0058 0820     		movs	r0, #8
 1161 005a FFF7FEFF 		bl	osal_malloc
 1162 005e 3862     		str	r0, [r7, #32]
 451:g:/iot/IoT_Device_Demo/iot_link/oc/oc_lwm2m/atiny_lwm2m\agent_lwm2m.c **** 
 452:g:/iot/IoT_Device_Demo/iot_link/oc/oc_lwm2m/atiny_lwm2m\agent_lwm2m.c ****     if (NULL == server_list)
 1163              		.loc 1 452 8
 1164 0060 3B6A     		ldr	r3, [r7, #32]
 1165 0062 002B     		cmp	r3, #0
 1166 0064 06D1     		bne	.L76
 453:g:/iot/IoT_Device_Demo/iot_link/oc/oc_lwm2m/atiny_lwm2m\agent_lwm2m.c ****     {
 454:g:/iot/IoT_Device_Demo/iot_link/oc/oc_lwm2m/atiny_lwm2m\agent_lwm2m.c ****         (void)lwm2m_al_delete_object(handle, (int)OBJ_SERVER_ID);
 1167              		.loc 1 454 15
 1168 0066 0121     		movs	r1, #1
 1169 0068 7868     		ldr	r0, [r7, #4]
 1170 006a FFF7FEFF 		bl	lwm2m_al_delete_object
 455:g:/iot/IoT_Device_Demo/iot_link/oc/oc_lwm2m/atiny_lwm2m\agent_lwm2m.c ****         return (int) ATINY_MALLOC_FAILED;
 1171              		.loc 1 455 16
 1172 006e 6FF00303 		mvn	r3, #3
 1173 0072 07E0     		b	.L77
 1174              	.L76:
 456:g:/iot/IoT_Device_Demo/iot_link/oc/oc_lwm2m/atiny_lwm2m\agent_lwm2m.c ****     }
 457:g:/iot/IoT_Device_Demo/iot_link/oc/oc_lwm2m/atiny_lwm2m\agent_lwm2m.c **** 
 458:g:/iot/IoT_Device_Demo/iot_link/oc/oc_lwm2m/atiny_lwm2m\agent_lwm2m.c ****     server_list->object_id = OBJ_SERVER_ID;
 1175              		.loc 1 458 28
 1176 0074 3B6A     		ldr	r3, [r7, #32]
 1177 0076 0122     		movs	r2, #1
 1178 0078 9A80     		strh	r2, [r3, #4]	@ movhi
 459:g:/iot/IoT_Device_Demo/iot_link/oc/oc_lwm2m/atiny_lwm2m\agent_lwm2m.c ****     uri_list_add(&uri_list, server_list);
 1179              		.loc 1 459 5
 1180 007a 396A     		ldr	r1, [r7, #32]
 1181 007c 0348     		ldr	r0, .L78
 1182 007e FFF7FEFF 		bl	uri_list_add
 460:g:/iot/IoT_Device_Demo/iot_link/oc/oc_lwm2m/atiny_lwm2m\agent_lwm2m.c ****     return 0;
 1183              		.loc 1 460 12
 1184 0082 0023     		movs	r3, #0
 1185              	.L77:
 461:g:/iot/IoT_Device_Demo/iot_link/oc/oc_lwm2m/atiny_lwm2m\agent_lwm2m.c **** }
 1186              		.loc 1 461 1 discriminator 1
 1187 0084 1846     		mov	r0, r3
 1188 0086 2837     		adds	r7, r7, #40
 1189              	.LCFI40:
ARM GAS  C:\Users\ADMINI~1\AppData\Local\Temp\ccTcVp5n.s 			page 30


 1190              		.cfi_def_cfa_offset 8
 1191 0088 BD46     		mov	sp, r7
 1192              	.LCFI41:
 1193              		.cfi_def_cfa_register 13
 1194              		@ sp needed
 1195 008a 80BD     		pop	{r7, pc}
 1196              	.L79:
 1197              		.align	2
 1198              	.L78:
 1199 008c 00000000 		.word	uri_list
 1200              		.cfi_endproc
 1201              	.LFE10:
 1203              		.section	.text.agent_add_acc_ctrl_object,"ax",%progbits
 1204              		.align	1
 1205              		.syntax unified
 1206              		.thumb
 1207              		.thumb_func
 1208              		.fpu fpv4-sp-d16
 1210              	agent_add_acc_ctrl_object:
 1211              	.LFB11:
 462:g:/iot/IoT_Device_Demo/iot_link/oc/oc_lwm2m/atiny_lwm2m\agent_lwm2m.c **** 
 463:g:/iot/IoT_Device_Demo/iot_link/oc/oc_lwm2m/atiny_lwm2m\agent_lwm2m.c **** static int agent_add_acc_ctrl_object(void *handle)
 464:g:/iot/IoT_Device_Demo/iot_link/oc/oc_lwm2m/atiny_lwm2m\agent_lwm2m.c **** {
 1212              		.loc 1 464 1
 1213              		.cfi_startproc
 1214              		@ args = 0, pretend = 0, frame = 24
 1215              		@ frame_needed = 1, uses_anonymous_args = 0
 1216 0000 80B5     		push	{r7, lr}
 1217              	.LCFI42:
 1218              		.cfi_def_cfa_offset 8
 1219              		.cfi_offset 7, -8
 1220              		.cfi_offset 14, -4
 1221 0002 88B0     		sub	sp, sp, #32
 1222              	.LCFI43:
 1223              		.cfi_def_cfa_offset 40
 1224 0004 02AF     		add	r7, sp, #8
 1225              	.LCFI44:
 1226              		.cfi_def_cfa 7, 32
 1227 0006 7860     		str	r0, [r7, #4]
 465:g:/iot/IoT_Device_Demo/iot_link/oc/oc_lwm2m/atiny_lwm2m\agent_lwm2m.c ****     uint16_t instance_id = 0;
 1228              		.loc 1 465 14
 1229 0008 0023     		movs	r3, #0
 1230 000a FB82     		strh	r3, [r7, #22]	@ movhi
 466:g:/iot/IoT_Device_Demo/iot_link/oc/oc_lwm2m/atiny_lwm2m\agent_lwm2m.c ****     object_uri_list *acc_ctrl_list = NULL;
 1231              		.loc 1 466 22
 1232 000c 0023     		movs	r3, #0
 1233 000e 3B61     		str	r3, [r7, #16]
 467:g:/iot/IoT_Device_Demo/iot_link/oc/oc_lwm2m/atiny_lwm2m\agent_lwm2m.c ****     int ret = (int) ATINY_ERR;
 1234              		.loc 1 467 9
 1235 0010 6FF00803 		mvn	r3, #8
 1236 0014 FB60     		str	r3, [r7, #12]
 468:g:/iot/IoT_Device_Demo/iot_link/oc/oc_lwm2m/atiny_lwm2m\agent_lwm2m.c ****     ret = lwm2m_al_add_object(handle, (int)OBJ_ACCESS_CONTROL_ID, instance_id, 0, NULL);
 1237              		.loc 1 468 11
 1238 0016 FA8A     		ldrh	r2, [r7, #22]
 1239 0018 0023     		movs	r3, #0
 1240 001a 0093     		str	r3, [sp]
 1241 001c 0023     		movs	r3, #0
ARM GAS  C:\Users\ADMINI~1\AppData\Local\Temp\ccTcVp5n.s 			page 31


 1242 001e 0221     		movs	r1, #2
 1243 0020 7868     		ldr	r0, [r7, #4]
 1244 0022 FFF7FEFF 		bl	lwm2m_al_add_object
 1245 0026 F860     		str	r0, [r7, #12]
 469:g:/iot/IoT_Device_Demo/iot_link/oc/oc_lwm2m/atiny_lwm2m\agent_lwm2m.c **** 
 470:g:/iot/IoT_Device_Demo/iot_link/oc/oc_lwm2m/atiny_lwm2m\agent_lwm2m.c ****     if ((int) LWM2M_OK != ret)
 1246              		.loc 1 470 8
 1247 0028 FB68     		ldr	r3, [r7, #12]
 1248 002a 002B     		cmp	r3, #0
 1249 002c 01D0     		beq	.L81
 471:g:/iot/IoT_Device_Demo/iot_link/oc/oc_lwm2m/atiny_lwm2m\agent_lwm2m.c ****     {
 472:g:/iot/IoT_Device_Demo/iot_link/oc/oc_lwm2m/atiny_lwm2m\agent_lwm2m.c ****         return ret;
 1250              		.loc 1 472 16
 1251 002e FB68     		ldr	r3, [r7, #12]
 1252 0030 15E0     		b	.L82
 1253              	.L81:
 473:g:/iot/IoT_Device_Demo/iot_link/oc/oc_lwm2m/atiny_lwm2m\agent_lwm2m.c ****     }
 474:g:/iot/IoT_Device_Demo/iot_link/oc/oc_lwm2m/atiny_lwm2m\agent_lwm2m.c **** 
 475:g:/iot/IoT_Device_Demo/iot_link/oc/oc_lwm2m/atiny_lwm2m\agent_lwm2m.c ****     acc_ctrl_list = osal_malloc(sizeof(object_uri_list));
 1254              		.loc 1 475 21
 1255 0032 0820     		movs	r0, #8
 1256 0034 FFF7FEFF 		bl	osal_malloc
 1257 0038 3861     		str	r0, [r7, #16]
 476:g:/iot/IoT_Device_Demo/iot_link/oc/oc_lwm2m/atiny_lwm2m\agent_lwm2m.c **** 
 477:g:/iot/IoT_Device_Demo/iot_link/oc/oc_lwm2m/atiny_lwm2m\agent_lwm2m.c ****     if (NULL == acc_ctrl_list)
 1258              		.loc 1 477 8
 1259 003a 3B69     		ldr	r3, [r7, #16]
 1260 003c 002B     		cmp	r3, #0
 1261 003e 06D1     		bne	.L83
 478:g:/iot/IoT_Device_Demo/iot_link/oc/oc_lwm2m/atiny_lwm2m\agent_lwm2m.c ****     {
 479:g:/iot/IoT_Device_Demo/iot_link/oc/oc_lwm2m/atiny_lwm2m\agent_lwm2m.c ****         (void)lwm2m_al_delete_object(handle, (int)OBJ_ACCESS_CONTROL_ID);
 1262              		.loc 1 479 15
 1263 0040 0221     		movs	r1, #2
 1264 0042 7868     		ldr	r0, [r7, #4]
 1265 0044 FFF7FEFF 		bl	lwm2m_al_delete_object
 480:g:/iot/IoT_Device_Demo/iot_link/oc/oc_lwm2m/atiny_lwm2m\agent_lwm2m.c ****         return (int) ATINY_MALLOC_FAILED;
 1266              		.loc 1 480 16
 1267 0048 6FF00303 		mvn	r3, #3
 1268 004c 07E0     		b	.L82
 1269              	.L83:
 481:g:/iot/IoT_Device_Demo/iot_link/oc/oc_lwm2m/atiny_lwm2m\agent_lwm2m.c ****     }
 482:g:/iot/IoT_Device_Demo/iot_link/oc/oc_lwm2m/atiny_lwm2m\agent_lwm2m.c **** 
 483:g:/iot/IoT_Device_Demo/iot_link/oc/oc_lwm2m/atiny_lwm2m\agent_lwm2m.c ****     acc_ctrl_list->object_id = OBJ_ACCESS_CONTROL_ID;
 1270              		.loc 1 483 30
 1271 004e 3B69     		ldr	r3, [r7, #16]
 1272 0050 0222     		movs	r2, #2
 1273 0052 9A80     		strh	r2, [r3, #4]	@ movhi
 484:g:/iot/IoT_Device_Demo/iot_link/oc/oc_lwm2m/atiny_lwm2m\agent_lwm2m.c ****     uri_list_add(&uri_list, acc_ctrl_list);
 1274              		.loc 1 484 5
 1275 0054 3969     		ldr	r1, [r7, #16]
 1276 0056 0448     		ldr	r0, .L84
 1277 0058 FFF7FEFF 		bl	uri_list_add
 485:g:/iot/IoT_Device_Demo/iot_link/oc/oc_lwm2m/atiny_lwm2m\agent_lwm2m.c ****     return 0;
 1278              		.loc 1 485 12
 1279 005c 0023     		movs	r3, #0
 1280              	.L82:
 486:g:/iot/IoT_Device_Demo/iot_link/oc/oc_lwm2m/atiny_lwm2m\agent_lwm2m.c **** }
ARM GAS  C:\Users\ADMINI~1\AppData\Local\Temp\ccTcVp5n.s 			page 32


 1281              		.loc 1 486 1
 1282 005e 1846     		mov	r0, r3
 1283 0060 1837     		adds	r7, r7, #24
 1284              	.LCFI45:
 1285              		.cfi_def_cfa_offset 8
 1286 0062 BD46     		mov	sp, r7
 1287              	.LCFI46:
 1288              		.cfi_def_cfa_register 13
 1289              		@ sp needed
 1290 0064 80BD     		pop	{r7, pc}
 1291              	.L85:
 1292 0066 00BF     		.align	2
 1293              	.L84:
 1294 0068 00000000 		.word	uri_list
 1295              		.cfi_endproc
 1296              	.LFE11:
 1298              		.section	.text.agent_add_device_object,"ax",%progbits
 1299              		.align	1
 1300              		.syntax unified
 1301              		.thumb
 1302              		.thumb_func
 1303              		.fpu fpv4-sp-d16
 1305              	agent_add_device_object:
 1306              	.LFB12:
 487:g:/iot/IoT_Device_Demo/iot_link/oc/oc_lwm2m/atiny_lwm2m\agent_lwm2m.c **** 
 488:g:/iot/IoT_Device_Demo/iot_link/oc/oc_lwm2m/atiny_lwm2m\agent_lwm2m.c **** static int agent_add_device_object(void *handle)
 489:g:/iot/IoT_Device_Demo/iot_link/oc/oc_lwm2m/atiny_lwm2m\agent_lwm2m.c **** {
 1307              		.loc 1 489 1
 1308              		.cfi_startproc
 1309              		@ args = 0, pretend = 0, frame = 24
 1310              		@ frame_needed = 1, uses_anonymous_args = 0
 1311 0000 80B5     		push	{r7, lr}
 1312              	.LCFI47:
 1313              		.cfi_def_cfa_offset 8
 1314              		.cfi_offset 7, -8
 1315              		.cfi_offset 14, -4
 1316 0002 88B0     		sub	sp, sp, #32
 1317              	.LCFI48:
 1318              		.cfi_def_cfa_offset 40
 1319 0004 02AF     		add	r7, sp, #8
 1320              	.LCFI49:
 1321              		.cfi_def_cfa 7, 32
 1322 0006 7860     		str	r0, [r7, #4]
 490:g:/iot/IoT_Device_Demo/iot_link/oc/oc_lwm2m/atiny_lwm2m\agent_lwm2m.c ****     uint16_t instance_id = 0;
 1323              		.loc 1 490 14
 1324 0008 0023     		movs	r3, #0
 1325 000a FB82     		strh	r3, [r7, #22]	@ movhi
 491:g:/iot/IoT_Device_Demo/iot_link/oc/oc_lwm2m/atiny_lwm2m\agent_lwm2m.c ****     object_uri_list *device_list = NULL;
 1326              		.loc 1 491 22
 1327 000c 0023     		movs	r3, #0
 1328 000e 3B61     		str	r3, [r7, #16]
 492:g:/iot/IoT_Device_Demo/iot_link/oc/oc_lwm2m/atiny_lwm2m\agent_lwm2m.c ****     int ret = (int) ATINY_ERR;
 1329              		.loc 1 492 9
 1330 0010 6FF00803 		mvn	r3, #8
 1331 0014 FB60     		str	r3, [r7, #12]
 493:g:/iot/IoT_Device_Demo/iot_link/oc/oc_lwm2m/atiny_lwm2m\agent_lwm2m.c ****     ret = lwm2m_al_add_object(handle, (int)OBJ_DEVICE_ID, instance_id, 0, NULL);
 1332              		.loc 1 493 11
ARM GAS  C:\Users\ADMINI~1\AppData\Local\Temp\ccTcVp5n.s 			page 33


 1333 0016 FA8A     		ldrh	r2, [r7, #22]
 1334 0018 0023     		movs	r3, #0
 1335 001a 0093     		str	r3, [sp]
 1336 001c 0023     		movs	r3, #0
 1337 001e 0321     		movs	r1, #3
 1338 0020 7868     		ldr	r0, [r7, #4]
 1339 0022 FFF7FEFF 		bl	lwm2m_al_add_object
 1340 0026 F860     		str	r0, [r7, #12]
 494:g:/iot/IoT_Device_Demo/iot_link/oc/oc_lwm2m/atiny_lwm2m\agent_lwm2m.c **** 
 495:g:/iot/IoT_Device_Demo/iot_link/oc/oc_lwm2m/atiny_lwm2m\agent_lwm2m.c ****     if ((int) LWM2M_OK != ret)
 1341              		.loc 1 495 8
 1342 0028 FB68     		ldr	r3, [r7, #12]
 1343 002a 002B     		cmp	r3, #0
 1344 002c 01D0     		beq	.L87
 496:g:/iot/IoT_Device_Demo/iot_link/oc/oc_lwm2m/atiny_lwm2m\agent_lwm2m.c ****     {
 497:g:/iot/IoT_Device_Demo/iot_link/oc/oc_lwm2m/atiny_lwm2m\agent_lwm2m.c ****         return ret;
 1345              		.loc 1 497 16
 1346 002e FB68     		ldr	r3, [r7, #12]
 1347 0030 15E0     		b	.L88
 1348              	.L87:
 498:g:/iot/IoT_Device_Demo/iot_link/oc/oc_lwm2m/atiny_lwm2m\agent_lwm2m.c ****     }
 499:g:/iot/IoT_Device_Demo/iot_link/oc/oc_lwm2m/atiny_lwm2m\agent_lwm2m.c **** 
 500:g:/iot/IoT_Device_Demo/iot_link/oc/oc_lwm2m/atiny_lwm2m\agent_lwm2m.c ****     device_list = osal_malloc(sizeof(object_uri_list));
 1349              		.loc 1 500 19
 1350 0032 0820     		movs	r0, #8
 1351 0034 FFF7FEFF 		bl	osal_malloc
 1352 0038 3861     		str	r0, [r7, #16]
 501:g:/iot/IoT_Device_Demo/iot_link/oc/oc_lwm2m/atiny_lwm2m\agent_lwm2m.c **** 
 502:g:/iot/IoT_Device_Demo/iot_link/oc/oc_lwm2m/atiny_lwm2m\agent_lwm2m.c ****     if (NULL == device_list)
 1353              		.loc 1 502 8
 1354 003a 3B69     		ldr	r3, [r7, #16]
 1355 003c 002B     		cmp	r3, #0
 1356 003e 06D1     		bne	.L89
 503:g:/iot/IoT_Device_Demo/iot_link/oc/oc_lwm2m/atiny_lwm2m\agent_lwm2m.c ****     {
 504:g:/iot/IoT_Device_Demo/iot_link/oc/oc_lwm2m/atiny_lwm2m\agent_lwm2m.c ****         (void)lwm2m_al_delete_object(handle, (int)OBJ_DEVICE_ID);
 1357              		.loc 1 504 15
 1358 0040 0321     		movs	r1, #3
 1359 0042 7868     		ldr	r0, [r7, #4]
 1360 0044 FFF7FEFF 		bl	lwm2m_al_delete_object
 505:g:/iot/IoT_Device_Demo/iot_link/oc/oc_lwm2m/atiny_lwm2m\agent_lwm2m.c ****         return (int) ATINY_MALLOC_FAILED;
 1361              		.loc 1 505 16
 1362 0048 6FF00303 		mvn	r3, #3
 1363 004c 07E0     		b	.L88
 1364              	.L89:
 506:g:/iot/IoT_Device_Demo/iot_link/oc/oc_lwm2m/atiny_lwm2m\agent_lwm2m.c ****     }
 507:g:/iot/IoT_Device_Demo/iot_link/oc/oc_lwm2m/atiny_lwm2m\agent_lwm2m.c **** 
 508:g:/iot/IoT_Device_Demo/iot_link/oc/oc_lwm2m/atiny_lwm2m\agent_lwm2m.c ****     device_list->object_id = OBJ_DEVICE_ID;
 1365              		.loc 1 508 28
 1366 004e 3B69     		ldr	r3, [r7, #16]
 1367 0050 0322     		movs	r2, #3
 1368 0052 9A80     		strh	r2, [r3, #4]	@ movhi
 509:g:/iot/IoT_Device_Demo/iot_link/oc/oc_lwm2m/atiny_lwm2m\agent_lwm2m.c ****     uri_list_add(&uri_list, device_list);
 1369              		.loc 1 509 5
 1370 0054 3969     		ldr	r1, [r7, #16]
 1371 0056 0448     		ldr	r0, .L90
 1372 0058 FFF7FEFF 		bl	uri_list_add
 510:g:/iot/IoT_Device_Demo/iot_link/oc/oc_lwm2m/atiny_lwm2m\agent_lwm2m.c ****     return 0;
ARM GAS  C:\Users\ADMINI~1\AppData\Local\Temp\ccTcVp5n.s 			page 34


 1373              		.loc 1 510 12
 1374 005c 0023     		movs	r3, #0
 1375              	.L88:
 511:g:/iot/IoT_Device_Demo/iot_link/oc/oc_lwm2m/atiny_lwm2m\agent_lwm2m.c **** }
 1376              		.loc 1 511 1
 1377 005e 1846     		mov	r0, r3
 1378 0060 1837     		adds	r7, r7, #24
 1379              	.LCFI50:
 1380              		.cfi_def_cfa_offset 8
 1381 0062 BD46     		mov	sp, r7
 1382              	.LCFI51:
 1383              		.cfi_def_cfa_register 13
 1384              		@ sp needed
 1385 0064 80BD     		pop	{r7, pc}
 1386              	.L91:
 1387 0066 00BF     		.align	2
 1388              	.L90:
 1389 0068 00000000 		.word	uri_list
 1390              		.cfi_endproc
 1391              	.LFE12:
 1393              		.section	.text.agent_add_conn_m_object,"ax",%progbits
 1394              		.align	1
 1395              		.syntax unified
 1396              		.thumb
 1397              		.thumb_func
 1398              		.fpu fpv4-sp-d16
 1400              	agent_add_conn_m_object:
 1401              	.LFB13:
 512:g:/iot/IoT_Device_Demo/iot_link/oc/oc_lwm2m/atiny_lwm2m\agent_lwm2m.c **** 
 513:g:/iot/IoT_Device_Demo/iot_link/oc/oc_lwm2m/atiny_lwm2m\agent_lwm2m.c **** static int agent_add_conn_m_object(void *handle)
 514:g:/iot/IoT_Device_Demo/iot_link/oc/oc_lwm2m/atiny_lwm2m\agent_lwm2m.c **** {
 1402              		.loc 1 514 1
 1403              		.cfi_startproc
 1404              		@ args = 0, pretend = 0, frame = 24
 1405              		@ frame_needed = 1, uses_anonymous_args = 0
 1406 0000 80B5     		push	{r7, lr}
 1407              	.LCFI52:
 1408              		.cfi_def_cfa_offset 8
 1409              		.cfi_offset 7, -8
 1410              		.cfi_offset 14, -4
 1411 0002 88B0     		sub	sp, sp, #32
 1412              	.LCFI53:
 1413              		.cfi_def_cfa_offset 40
 1414 0004 02AF     		add	r7, sp, #8
 1415              	.LCFI54:
 1416              		.cfi_def_cfa 7, 32
 1417 0006 7860     		str	r0, [r7, #4]
 515:g:/iot/IoT_Device_Demo/iot_link/oc/oc_lwm2m/atiny_lwm2m\agent_lwm2m.c ****     uint16_t instance_id = 0;
 1418              		.loc 1 515 14
 1419 0008 0023     		movs	r3, #0
 1420 000a FB82     		strh	r3, [r7, #22]	@ movhi
 516:g:/iot/IoT_Device_Demo/iot_link/oc/oc_lwm2m/atiny_lwm2m\agent_lwm2m.c ****     object_uri_list *conn_m_list = NULL;
 1421              		.loc 1 516 22
 1422 000c 0023     		movs	r3, #0
 1423 000e 3B61     		str	r3, [r7, #16]
 517:g:/iot/IoT_Device_Demo/iot_link/oc/oc_lwm2m/atiny_lwm2m\agent_lwm2m.c ****     int ret = (int) ATINY_ERR;
 1424              		.loc 1 517 9
ARM GAS  C:\Users\ADMINI~1\AppData\Local\Temp\ccTcVp5n.s 			page 35


 1425 0010 6FF00803 		mvn	r3, #8
 1426 0014 FB60     		str	r3, [r7, #12]
 518:g:/iot/IoT_Device_Demo/iot_link/oc/oc_lwm2m/atiny_lwm2m\agent_lwm2m.c ****     ret = lwm2m_al_add_object(handle, (int)OBJ_CONNECTIVITY_MONITORING_ID, instance_id, 0, NULL);
 1427              		.loc 1 518 11
 1428 0016 FA8A     		ldrh	r2, [r7, #22]
 1429 0018 0023     		movs	r3, #0
 1430 001a 0093     		str	r3, [sp]
 1431 001c 0023     		movs	r3, #0
 1432 001e 0421     		movs	r1, #4
 1433 0020 7868     		ldr	r0, [r7, #4]
 1434 0022 FFF7FEFF 		bl	lwm2m_al_add_object
 1435 0026 F860     		str	r0, [r7, #12]
 519:g:/iot/IoT_Device_Demo/iot_link/oc/oc_lwm2m/atiny_lwm2m\agent_lwm2m.c **** 
 520:g:/iot/IoT_Device_Demo/iot_link/oc/oc_lwm2m/atiny_lwm2m\agent_lwm2m.c ****     if ((int) LWM2M_OK != ret)
 1436              		.loc 1 520 8
 1437 0028 FB68     		ldr	r3, [r7, #12]
 1438 002a 002B     		cmp	r3, #0
 1439 002c 01D0     		beq	.L93
 521:g:/iot/IoT_Device_Demo/iot_link/oc/oc_lwm2m/atiny_lwm2m\agent_lwm2m.c ****     {
 522:g:/iot/IoT_Device_Demo/iot_link/oc/oc_lwm2m/atiny_lwm2m\agent_lwm2m.c ****         return ret;
 1440              		.loc 1 522 16
 1441 002e FB68     		ldr	r3, [r7, #12]
 1442 0030 15E0     		b	.L94
 1443              	.L93:
 523:g:/iot/IoT_Device_Demo/iot_link/oc/oc_lwm2m/atiny_lwm2m\agent_lwm2m.c ****     }
 524:g:/iot/IoT_Device_Demo/iot_link/oc/oc_lwm2m/atiny_lwm2m\agent_lwm2m.c **** 
 525:g:/iot/IoT_Device_Demo/iot_link/oc/oc_lwm2m/atiny_lwm2m\agent_lwm2m.c ****     conn_m_list = osal_malloc(sizeof(object_uri_list));
 1444              		.loc 1 525 19
 1445 0032 0820     		movs	r0, #8
 1446 0034 FFF7FEFF 		bl	osal_malloc
 1447 0038 3861     		str	r0, [r7, #16]
 526:g:/iot/IoT_Device_Demo/iot_link/oc/oc_lwm2m/atiny_lwm2m\agent_lwm2m.c **** 
 527:g:/iot/IoT_Device_Demo/iot_link/oc/oc_lwm2m/atiny_lwm2m\agent_lwm2m.c ****     if (NULL == conn_m_list)
 1448              		.loc 1 527 8
 1449 003a 3B69     		ldr	r3, [r7, #16]
 1450 003c 002B     		cmp	r3, #0
 1451 003e 06D1     		bne	.L95
 528:g:/iot/IoT_Device_Demo/iot_link/oc/oc_lwm2m/atiny_lwm2m\agent_lwm2m.c ****     {
 529:g:/iot/IoT_Device_Demo/iot_link/oc/oc_lwm2m/atiny_lwm2m\agent_lwm2m.c ****         (void)lwm2m_al_delete_object(handle, (int)OBJ_CONNECTIVITY_MONITORING_ID);
 1452              		.loc 1 529 15
 1453 0040 0421     		movs	r1, #4
 1454 0042 7868     		ldr	r0, [r7, #4]
 1455 0044 FFF7FEFF 		bl	lwm2m_al_delete_object
 530:g:/iot/IoT_Device_Demo/iot_link/oc/oc_lwm2m/atiny_lwm2m\agent_lwm2m.c ****         return (int) ATINY_MALLOC_FAILED;
 1456              		.loc 1 530 16
 1457 0048 6FF00303 		mvn	r3, #3
 1458 004c 07E0     		b	.L94
 1459              	.L95:
 531:g:/iot/IoT_Device_Demo/iot_link/oc/oc_lwm2m/atiny_lwm2m\agent_lwm2m.c ****     }
 532:g:/iot/IoT_Device_Demo/iot_link/oc/oc_lwm2m/atiny_lwm2m\agent_lwm2m.c **** 
 533:g:/iot/IoT_Device_Demo/iot_link/oc/oc_lwm2m/atiny_lwm2m\agent_lwm2m.c ****     conn_m_list->object_id = OBJ_CONNECTIVITY_MONITORING_ID;
 1460              		.loc 1 533 28
 1461 004e 3B69     		ldr	r3, [r7, #16]
 1462 0050 0422     		movs	r2, #4
 1463 0052 9A80     		strh	r2, [r3, #4]	@ movhi
 534:g:/iot/IoT_Device_Demo/iot_link/oc/oc_lwm2m/atiny_lwm2m\agent_lwm2m.c ****     uri_list_add(&uri_list, conn_m_list);
 1464              		.loc 1 534 5
ARM GAS  C:\Users\ADMINI~1\AppData\Local\Temp\ccTcVp5n.s 			page 36


 1465 0054 3969     		ldr	r1, [r7, #16]
 1466 0056 0448     		ldr	r0, .L96
 1467 0058 FFF7FEFF 		bl	uri_list_add
 535:g:/iot/IoT_Device_Demo/iot_link/oc/oc_lwm2m/atiny_lwm2m\agent_lwm2m.c ****     return 0;
 1468              		.loc 1 535 12
 1469 005c 0023     		movs	r3, #0
 1470              	.L94:
 536:g:/iot/IoT_Device_Demo/iot_link/oc/oc_lwm2m/atiny_lwm2m\agent_lwm2m.c **** }
 1471              		.loc 1 536 1
 1472 005e 1846     		mov	r0, r3
 1473 0060 1837     		adds	r7, r7, #24
 1474              	.LCFI55:
 1475              		.cfi_def_cfa_offset 8
 1476 0062 BD46     		mov	sp, r7
 1477              	.LCFI56:
 1478              		.cfi_def_cfa_register 13
 1479              		@ sp needed
 1480 0064 80BD     		pop	{r7, pc}
 1481              	.L97:
 1482 0066 00BF     		.align	2
 1483              	.L96:
 1484 0068 00000000 		.word	uri_list
 1485              		.cfi_endproc
 1486              	.LFE13:
 1488              		.section	.text.agent_add_firmware_object,"ax",%progbits
 1489              		.align	1
 1490              		.syntax unified
 1491              		.thumb
 1492              		.thumb_func
 1493              		.fpu fpv4-sp-d16
 1495              	agent_add_firmware_object:
 1496              	.LFB14:
 537:g:/iot/IoT_Device_Demo/iot_link/oc/oc_lwm2m/atiny_lwm2m\agent_lwm2m.c **** 
 538:g:/iot/IoT_Device_Demo/iot_link/oc/oc_lwm2m/atiny_lwm2m\agent_lwm2m.c **** static int agent_add_firmware_object(void *handle)
 539:g:/iot/IoT_Device_Demo/iot_link/oc/oc_lwm2m/atiny_lwm2m\agent_lwm2m.c **** {
 1497              		.loc 1 539 1
 1498              		.cfi_startproc
 1499              		@ args = 0, pretend = 0, frame = 8
 1500              		@ frame_needed = 1, uses_anonymous_args = 0
 1501              		@ link register save eliminated.
 1502 0000 80B4     		push	{r7}
 1503              	.LCFI57:
 1504              		.cfi_def_cfa_offset 4
 1505              		.cfi_offset 7, -4
 1506 0002 83B0     		sub	sp, sp, #12
 1507              	.LCFI58:
 1508              		.cfi_def_cfa_offset 16
 1509 0004 00AF     		add	r7, sp, #0
 1510              	.LCFI59:
 1511              		.cfi_def_cfa_register 7
 1512 0006 7860     		str	r0, [r7, #4]
 540:g:/iot/IoT_Device_Demo/iot_link/oc/oc_lwm2m/atiny_lwm2m\agent_lwm2m.c **** #ifdef CONFIG_FEATURE_FOTA
 541:g:/iot/IoT_Device_Demo/iot_link/oc/oc_lwm2m/atiny_lwm2m\agent_lwm2m.c ****     int ret = (int) ATINY_ERR;
 542:g:/iot/IoT_Device_Demo/iot_link/oc/oc_lwm2m/atiny_lwm2m\agent_lwm2m.c ****     uint16_t instance_id = 0;
 543:g:/iot/IoT_Device_Demo/iot_link/oc/oc_lwm2m/atiny_lwm2m\agent_lwm2m.c ****     object_uri_list *firmware_list = NULL;
 544:g:/iot/IoT_Device_Demo/iot_link/oc/oc_lwm2m/atiny_lwm2m\agent_lwm2m.c ****     ret = lwm2m_al_add_object(handle, OBJ_FIRMWARE_UPDATE_ID, instance_id, 0, NULL);
 545:g:/iot/IoT_Device_Demo/iot_link/oc/oc_lwm2m/atiny_lwm2m\agent_lwm2m.c **** 
ARM GAS  C:\Users\ADMINI~1\AppData\Local\Temp\ccTcVp5n.s 			page 37


 546:g:/iot/IoT_Device_Demo/iot_link/oc/oc_lwm2m/atiny_lwm2m\agent_lwm2m.c ****     if ((int) LWM2M_OK != ret)
 547:g:/iot/IoT_Device_Demo/iot_link/oc/oc_lwm2m/atiny_lwm2m\agent_lwm2m.c ****     {
 548:g:/iot/IoT_Device_Demo/iot_link/oc/oc_lwm2m/atiny_lwm2m\agent_lwm2m.c ****         return ret;
 549:g:/iot/IoT_Device_Demo/iot_link/oc/oc_lwm2m/atiny_lwm2m\agent_lwm2m.c ****     }
 550:g:/iot/IoT_Device_Demo/iot_link/oc/oc_lwm2m/atiny_lwm2m\agent_lwm2m.c **** 
 551:g:/iot/IoT_Device_Demo/iot_link/oc/oc_lwm2m/atiny_lwm2m\agent_lwm2m.c ****     firmware_list = osal_malloc(sizeof(object_uri_list));
 552:g:/iot/IoT_Device_Demo/iot_link/oc/oc_lwm2m/atiny_lwm2m\agent_lwm2m.c **** 
 553:g:/iot/IoT_Device_Demo/iot_link/oc/oc_lwm2m/atiny_lwm2m\agent_lwm2m.c ****     if (NULL == firmware_list)
 554:g:/iot/IoT_Device_Demo/iot_link/oc/oc_lwm2m/atiny_lwm2m\agent_lwm2m.c ****     {
 555:g:/iot/IoT_Device_Demo/iot_link/oc/oc_lwm2m/atiny_lwm2m\agent_lwm2m.c ****         lwm2m_al_delete_object(handle, OBJ_FIRMWARE_UPDATE_ID);
 556:g:/iot/IoT_Device_Demo/iot_link/oc/oc_lwm2m/atiny_lwm2m\agent_lwm2m.c ****         return (int) ATINY_MALLOC_FAILED;
 557:g:/iot/IoT_Device_Demo/iot_link/oc/oc_lwm2m/atiny_lwm2m\agent_lwm2m.c ****     }
 558:g:/iot/IoT_Device_Demo/iot_link/oc/oc_lwm2m/atiny_lwm2m\agent_lwm2m.c **** 
 559:g:/iot/IoT_Device_Demo/iot_link/oc/oc_lwm2m/atiny_lwm2m\agent_lwm2m.c ****     firmware_list->object_id = OBJ_FIRMWARE_UPDATE_ID;
 560:g:/iot/IoT_Device_Demo/iot_link/oc/oc_lwm2m/atiny_lwm2m\agent_lwm2m.c ****     uri_list_add(&uri_list, firmware_list);
 561:g:/iot/IoT_Device_Demo/iot_link/oc/oc_lwm2m/atiny_lwm2m\agent_lwm2m.c **** #endif
 562:g:/iot/IoT_Device_Demo/iot_link/oc/oc_lwm2m/atiny_lwm2m\agent_lwm2m.c ****     return 0;
 1513              		.loc 1 562 12
 1514 0008 0023     		movs	r3, #0
 563:g:/iot/IoT_Device_Demo/iot_link/oc/oc_lwm2m/atiny_lwm2m\agent_lwm2m.c **** }
 1515              		.loc 1 563 1
 1516 000a 1846     		mov	r0, r3
 1517 000c 0C37     		adds	r7, r7, #12
 1518              	.LCFI60:
 1519              		.cfi_def_cfa_offset 4
 1520 000e BD46     		mov	sp, r7
 1521              	.LCFI61:
 1522              		.cfi_def_cfa_register 13
 1523              		@ sp needed
 1524 0010 5DF8047B 		ldr	r7, [sp], #4
 1525              	.LCFI62:
 1526              		.cfi_restore 7
 1527              		.cfi_def_cfa_offset 0
 1528 0014 7047     		bx	lr
 1529              		.cfi_endproc
 1530              	.LFE14:
 1532              		.section	.text.agent_add_location_object,"ax",%progbits
 1533              		.align	1
 1534              		.syntax unified
 1535              		.thumb
 1536              		.thumb_func
 1537              		.fpu fpv4-sp-d16
 1539              	agent_add_location_object:
 1540              	.LFB15:
 564:g:/iot/IoT_Device_Demo/iot_link/oc/oc_lwm2m/atiny_lwm2m\agent_lwm2m.c **** 
 565:g:/iot/IoT_Device_Demo/iot_link/oc/oc_lwm2m/atiny_lwm2m\agent_lwm2m.c **** static int agent_add_location_object(void *handle)
 566:g:/iot/IoT_Device_Demo/iot_link/oc/oc_lwm2m/atiny_lwm2m\agent_lwm2m.c **** {
 1541              		.loc 1 566 1
 1542              		.cfi_startproc
 1543              		@ args = 0, pretend = 0, frame = 24
 1544              		@ frame_needed = 1, uses_anonymous_args = 0
 1545 0000 80B5     		push	{r7, lr}
 1546              	.LCFI63:
 1547              		.cfi_def_cfa_offset 8
 1548              		.cfi_offset 7, -8
 1549              		.cfi_offset 14, -4
 1550 0002 88B0     		sub	sp, sp, #32
ARM GAS  C:\Users\ADMINI~1\AppData\Local\Temp\ccTcVp5n.s 			page 38


 1551              	.LCFI64:
 1552              		.cfi_def_cfa_offset 40
 1553 0004 02AF     		add	r7, sp, #8
 1554              	.LCFI65:
 1555              		.cfi_def_cfa 7, 32
 1556 0006 7860     		str	r0, [r7, #4]
 567:g:/iot/IoT_Device_Demo/iot_link/oc/oc_lwm2m/atiny_lwm2m\agent_lwm2m.c ****     uint16_t instance_id = 0;
 1557              		.loc 1 567 14
 1558 0008 0023     		movs	r3, #0
 1559 000a FB82     		strh	r3, [r7, #22]	@ movhi
 568:g:/iot/IoT_Device_Demo/iot_link/oc/oc_lwm2m/atiny_lwm2m\agent_lwm2m.c ****     object_uri_list *location_list = NULL;
 1560              		.loc 1 568 22
 1561 000c 0023     		movs	r3, #0
 1562 000e 3B61     		str	r3, [r7, #16]
 569:g:/iot/IoT_Device_Demo/iot_link/oc/oc_lwm2m/atiny_lwm2m\agent_lwm2m.c ****     int ret = (int) ATINY_ERR;
 1563              		.loc 1 569 9
 1564 0010 6FF00803 		mvn	r3, #8
 1565 0014 FB60     		str	r3, [r7, #12]
 570:g:/iot/IoT_Device_Demo/iot_link/oc/oc_lwm2m/atiny_lwm2m\agent_lwm2m.c ****     ret = lwm2m_al_add_object(handle,(int)OBJ_LOCATION_ID, instance_id, 0, NULL);
 1566              		.loc 1 570 11
 1567 0016 FA8A     		ldrh	r2, [r7, #22]
 1568 0018 0023     		movs	r3, #0
 1569 001a 0093     		str	r3, [sp]
 1570 001c 0023     		movs	r3, #0
 1571 001e 0621     		movs	r1, #6
 1572 0020 7868     		ldr	r0, [r7, #4]
 1573 0022 FFF7FEFF 		bl	lwm2m_al_add_object
 1574 0026 F860     		str	r0, [r7, #12]
 571:g:/iot/IoT_Device_Demo/iot_link/oc/oc_lwm2m/atiny_lwm2m\agent_lwm2m.c **** 
 572:g:/iot/IoT_Device_Demo/iot_link/oc/oc_lwm2m/atiny_lwm2m\agent_lwm2m.c ****     if ((int) LWM2M_OK != ret)
 1575              		.loc 1 572 8
 1576 0028 FB68     		ldr	r3, [r7, #12]
 1577 002a 002B     		cmp	r3, #0
 1578 002c 01D0     		beq	.L101
 573:g:/iot/IoT_Device_Demo/iot_link/oc/oc_lwm2m/atiny_lwm2m\agent_lwm2m.c ****     {
 574:g:/iot/IoT_Device_Demo/iot_link/oc/oc_lwm2m/atiny_lwm2m\agent_lwm2m.c ****         return ret;
 1579              		.loc 1 574 16
 1580 002e FB68     		ldr	r3, [r7, #12]
 1581 0030 15E0     		b	.L102
 1582              	.L101:
 575:g:/iot/IoT_Device_Demo/iot_link/oc/oc_lwm2m/atiny_lwm2m\agent_lwm2m.c ****     }
 576:g:/iot/IoT_Device_Demo/iot_link/oc/oc_lwm2m/atiny_lwm2m\agent_lwm2m.c **** 
 577:g:/iot/IoT_Device_Demo/iot_link/oc/oc_lwm2m/atiny_lwm2m\agent_lwm2m.c ****     location_list = osal_malloc(sizeof(object_uri_list));
 1583              		.loc 1 577 21
 1584 0032 0820     		movs	r0, #8
 1585 0034 FFF7FEFF 		bl	osal_malloc
 1586 0038 3861     		str	r0, [r7, #16]
 578:g:/iot/IoT_Device_Demo/iot_link/oc/oc_lwm2m/atiny_lwm2m\agent_lwm2m.c **** 
 579:g:/iot/IoT_Device_Demo/iot_link/oc/oc_lwm2m/atiny_lwm2m\agent_lwm2m.c ****     if (NULL == location_list)
 1587              		.loc 1 579 8
 1588 003a 3B69     		ldr	r3, [r7, #16]
 1589 003c 002B     		cmp	r3, #0
 1590 003e 06D1     		bne	.L103
 580:g:/iot/IoT_Device_Demo/iot_link/oc/oc_lwm2m/atiny_lwm2m\agent_lwm2m.c ****     {
 581:g:/iot/IoT_Device_Demo/iot_link/oc/oc_lwm2m/atiny_lwm2m\agent_lwm2m.c ****         (void)lwm2m_al_delete_object(handle, (int)OBJ_LOCATION_ID);
 1591              		.loc 1 581 15
 1592 0040 0621     		movs	r1, #6
ARM GAS  C:\Users\ADMINI~1\AppData\Local\Temp\ccTcVp5n.s 			page 39


 1593 0042 7868     		ldr	r0, [r7, #4]
 1594 0044 FFF7FEFF 		bl	lwm2m_al_delete_object
 582:g:/iot/IoT_Device_Demo/iot_link/oc/oc_lwm2m/atiny_lwm2m\agent_lwm2m.c ****         return (int) ATINY_MALLOC_FAILED;
 1595              		.loc 1 582 16
 1596 0048 6FF00303 		mvn	r3, #3
 1597 004c 07E0     		b	.L102
 1598              	.L103:
 583:g:/iot/IoT_Device_Demo/iot_link/oc/oc_lwm2m/atiny_lwm2m\agent_lwm2m.c ****     }
 584:g:/iot/IoT_Device_Demo/iot_link/oc/oc_lwm2m/atiny_lwm2m\agent_lwm2m.c **** 
 585:g:/iot/IoT_Device_Demo/iot_link/oc/oc_lwm2m/atiny_lwm2m\agent_lwm2m.c ****     location_list->object_id = OBJ_LOCATION_ID;
 1599              		.loc 1 585 30
 1600 004e 3B69     		ldr	r3, [r7, #16]
 1601 0050 0622     		movs	r2, #6
 1602 0052 9A80     		strh	r2, [r3, #4]	@ movhi
 586:g:/iot/IoT_Device_Demo/iot_link/oc/oc_lwm2m/atiny_lwm2m\agent_lwm2m.c ****     uri_list_add(&uri_list, location_list);
 1603              		.loc 1 586 5
 1604 0054 3969     		ldr	r1, [r7, #16]
 1605 0056 0448     		ldr	r0, .L104
 1606 0058 FFF7FEFF 		bl	uri_list_add
 587:g:/iot/IoT_Device_Demo/iot_link/oc/oc_lwm2m/atiny_lwm2m\agent_lwm2m.c ****     return 0;
 1607              		.loc 1 587 12
 1608 005c 0023     		movs	r3, #0
 1609              	.L102:
 588:g:/iot/IoT_Device_Demo/iot_link/oc/oc_lwm2m/atiny_lwm2m\agent_lwm2m.c **** }
 1610              		.loc 1 588 1
 1611 005e 1846     		mov	r0, r3
 1612 0060 1837     		adds	r7, r7, #24
 1613              	.LCFI66:
 1614              		.cfi_def_cfa_offset 8
 1615 0062 BD46     		mov	sp, r7
 1616              	.LCFI67:
 1617              		.cfi_def_cfa_register 13
 1618              		@ sp needed
 1619 0064 80BD     		pop	{r7, pc}
 1620              	.L105:
 1621 0066 00BF     		.align	2
 1622              	.L104:
 1623 0068 00000000 		.word	uri_list
 1624              		.cfi_endproc
 1625              	.LFE15:
 1627              		.section	.text.agent_add_binary_app_data_object,"ax",%progbits
 1628              		.align	1
 1629              		.syntax unified
 1630              		.thumb
 1631              		.thumb_func
 1632              		.fpu fpv4-sp-d16
 1634              	agent_add_binary_app_data_object:
 1635              	.LFB16:
 589:g:/iot/IoT_Device_Demo/iot_link/oc/oc_lwm2m/atiny_lwm2m\agent_lwm2m.c **** 
 590:g:/iot/IoT_Device_Demo/iot_link/oc/oc_lwm2m/atiny_lwm2m\agent_lwm2m.c **** static int agent_add_binary_app_data_object(void *handle, unsigned int *storing_cnt)
 591:g:/iot/IoT_Device_Demo/iot_link/oc/oc_lwm2m/atiny_lwm2m\agent_lwm2m.c **** {
 1636              		.loc 1 591 1
 1637              		.cfi_startproc
 1638              		@ args = 0, pretend = 0, frame = 24
 1639              		@ frame_needed = 1, uses_anonymous_args = 0
 1640 0000 80B5     		push	{r7, lr}
 1641              	.LCFI68:
ARM GAS  C:\Users\ADMINI~1\AppData\Local\Temp\ccTcVp5n.s 			page 40


 1642              		.cfi_def_cfa_offset 8
 1643              		.cfi_offset 7, -8
 1644              		.cfi_offset 14, -4
 1645 0002 88B0     		sub	sp, sp, #32
 1646              	.LCFI69:
 1647              		.cfi_def_cfa_offset 40
 1648 0004 02AF     		add	r7, sp, #8
 1649              	.LCFI70:
 1650              		.cfi_def_cfa 7, 32
 1651 0006 7860     		str	r0, [r7, #4]
 1652 0008 3960     		str	r1, [r7]
 592:g:/iot/IoT_Device_Demo/iot_link/oc/oc_lwm2m/atiny_lwm2m\agent_lwm2m.c ****     uint16_t instance_id = 0;
 1653              		.loc 1 592 14
 1654 000a 0023     		movs	r3, #0
 1655 000c 7B82     		strh	r3, [r7, #18]	@ movhi
 593:g:/iot/IoT_Device_Demo/iot_link/oc/oc_lwm2m/atiny_lwm2m\agent_lwm2m.c ****     int i;
 594:g:/iot/IoT_Device_Demo/iot_link/oc/oc_lwm2m/atiny_lwm2m\agent_lwm2m.c ****     object_uri_list *binary_app_list = NULL;
 1656              		.loc 1 594 22
 1657 000e 0023     		movs	r3, #0
 1658 0010 FB60     		str	r3, [r7, #12]
 595:g:/iot/IoT_Device_Demo/iot_link/oc/oc_lwm2m/atiny_lwm2m\agent_lwm2m.c ****     int ret = (int) ATINY_ERR;
 1659              		.loc 1 595 9
 1660 0012 6FF00803 		mvn	r3, #8
 1661 0016 BB60     		str	r3, [r7, #8]
 596:g:/iot/IoT_Device_Demo/iot_link/oc/oc_lwm2m/atiny_lwm2m\agent_lwm2m.c **** 
 597:g:/iot/IoT_Device_Demo/iot_link/oc/oc_lwm2m/atiny_lwm2m\agent_lwm2m.c ****     if (NULL == storing_cnt)
 1662              		.loc 1 597 8
 1663 0018 3B68     		ldr	r3, [r7]
 1664 001a 002B     		cmp	r3, #0
 1665 001c 02D1     		bne	.L107
 598:g:/iot/IoT_Device_Demo/iot_link/oc/oc_lwm2m/atiny_lwm2m\agent_lwm2m.c ****     {
 599:g:/iot/IoT_Device_Demo/iot_link/oc/oc_lwm2m/atiny_lwm2m\agent_lwm2m.c ****         return (int)ATINY_ARG_INVALID;
 1666              		.loc 1 599 16
 1667 001e 4FF0FF33 		mov	r3, #-1
 1668 0022 2EE0     		b	.L108
 1669              	.L107:
 600:g:/iot/IoT_Device_Demo/iot_link/oc/oc_lwm2m/atiny_lwm2m\agent_lwm2m.c ****     }
 601:g:/iot/IoT_Device_Demo/iot_link/oc/oc_lwm2m/atiny_lwm2m\agent_lwm2m.c **** 
 602:g:/iot/IoT_Device_Demo/iot_link/oc/oc_lwm2m/atiny_lwm2m\agent_lwm2m.c ****     // /19/0/0, /19/1/0
 603:g:/iot/IoT_Device_Demo/iot_link/oc/oc_lwm2m/atiny_lwm2m\agent_lwm2m.c ****     for (i = 0; i < BINARY_APP_DATA_OBJECT_INSTANCE_NUM; ++i)
 1670              		.loc 1 603 12
 1671 0024 0023     		movs	r3, #0
 1672 0026 7B61     		str	r3, [r7, #20]
 1673              		.loc 1 603 5
 1674 0028 12E0     		b	.L109
 1675              	.L111:
 604:g:/iot/IoT_Device_Demo/iot_link/oc/oc_lwm2m/atiny_lwm2m\agent_lwm2m.c ****     {
 605:g:/iot/IoT_Device_Demo/iot_link/oc/oc_lwm2m/atiny_lwm2m\agent_lwm2m.c ****         instance_id = i;
 1676              		.loc 1 605 21
 1677 002a 7B69     		ldr	r3, [r7, #20]
 1678 002c 7B82     		strh	r3, [r7, #18]	@ movhi
 606:g:/iot/IoT_Device_Demo/iot_link/oc/oc_lwm2m/atiny_lwm2m\agent_lwm2m.c ****         ret = lwm2m_al_add_object(handle, BINARY_APP_DATA_OBJECT_ID, instance_id, 0, storing_cnt);
 1679              		.loc 1 606 15
 1680 002e 7A8A     		ldrh	r2, [r7, #18]
 1681 0030 3B68     		ldr	r3, [r7]
 1682 0032 0093     		str	r3, [sp]
 1683 0034 0023     		movs	r3, #0
ARM GAS  C:\Users\ADMINI~1\AppData\Local\Temp\ccTcVp5n.s 			page 41


 1684 0036 1321     		movs	r1, #19
 1685 0038 7868     		ldr	r0, [r7, #4]
 1686 003a FFF7FEFF 		bl	lwm2m_al_add_object
 1687 003e B860     		str	r0, [r7, #8]
 607:g:/iot/IoT_Device_Demo/iot_link/oc/oc_lwm2m/atiny_lwm2m\agent_lwm2m.c **** 
 608:g:/iot/IoT_Device_Demo/iot_link/oc/oc_lwm2m/atiny_lwm2m\agent_lwm2m.c ****         if ((int) LWM2M_OK != ret)
 1688              		.loc 1 608 12
 1689 0040 BB68     		ldr	r3, [r7, #8]
 1690 0042 002B     		cmp	r3, #0
 1691 0044 01D0     		beq	.L110
 609:g:/iot/IoT_Device_Demo/iot_link/oc/oc_lwm2m/atiny_lwm2m\agent_lwm2m.c ****         {
 610:g:/iot/IoT_Device_Demo/iot_link/oc/oc_lwm2m/atiny_lwm2m\agent_lwm2m.c ****             return ret;
 1692              		.loc 1 610 20
 1693 0046 BB68     		ldr	r3, [r7, #8]
 1694 0048 1BE0     		b	.L108
 1695              	.L110:
 603:g:/iot/IoT_Device_Demo/iot_link/oc/oc_lwm2m/atiny_lwm2m\agent_lwm2m.c ****     {
 1696              		.loc 1 603 58 discriminator 2
 1697 004a 7B69     		ldr	r3, [r7, #20]
 1698 004c 0133     		adds	r3, r3, #1
 1699 004e 7B61     		str	r3, [r7, #20]
 1700              	.L109:
 603:g:/iot/IoT_Device_Demo/iot_link/oc/oc_lwm2m/atiny_lwm2m\agent_lwm2m.c ****     {
 1701              		.loc 1 603 5 discriminator 1
 1702 0050 7B69     		ldr	r3, [r7, #20]
 1703 0052 012B     		cmp	r3, #1
 1704 0054 E9DD     		ble	.L111
 611:g:/iot/IoT_Device_Demo/iot_link/oc/oc_lwm2m/atiny_lwm2m\agent_lwm2m.c ****         }
 612:g:/iot/IoT_Device_Demo/iot_link/oc/oc_lwm2m/atiny_lwm2m\agent_lwm2m.c ****     }
 613:g:/iot/IoT_Device_Demo/iot_link/oc/oc_lwm2m/atiny_lwm2m\agent_lwm2m.c **** 
 614:g:/iot/IoT_Device_Demo/iot_link/oc/oc_lwm2m/atiny_lwm2m\agent_lwm2m.c ****     binary_app_list = osal_malloc(sizeof(object_uri_list));
 1705              		.loc 1 614 23
 1706 0056 0820     		movs	r0, #8
 1707 0058 FFF7FEFF 		bl	osal_malloc
 1708 005c F860     		str	r0, [r7, #12]
 615:g:/iot/IoT_Device_Demo/iot_link/oc/oc_lwm2m/atiny_lwm2m\agent_lwm2m.c **** 
 616:g:/iot/IoT_Device_Demo/iot_link/oc/oc_lwm2m/atiny_lwm2m\agent_lwm2m.c ****     if (NULL == binary_app_list)
 1709              		.loc 1 616 8
 1710 005e FB68     		ldr	r3, [r7, #12]
 1711 0060 002B     		cmp	r3, #0
 1712 0062 06D1     		bne	.L112
 617:g:/iot/IoT_Device_Demo/iot_link/oc/oc_lwm2m/atiny_lwm2m\agent_lwm2m.c ****     {
 618:g:/iot/IoT_Device_Demo/iot_link/oc/oc_lwm2m/atiny_lwm2m\agent_lwm2m.c ****         (void)lwm2m_al_delete_object(handle, BINARY_APP_DATA_OBJECT_ID);
 1713              		.loc 1 618 15
 1714 0064 1321     		movs	r1, #19
 1715 0066 7868     		ldr	r0, [r7, #4]
 1716 0068 FFF7FEFF 		bl	lwm2m_al_delete_object
 619:g:/iot/IoT_Device_Demo/iot_link/oc/oc_lwm2m/atiny_lwm2m\agent_lwm2m.c ****         return (int) ATINY_MALLOC_FAILED;
 1717              		.loc 1 619 16
 1718 006c 6FF00303 		mvn	r3, #3
 1719 0070 07E0     		b	.L108
 1720              	.L112:
 620:g:/iot/IoT_Device_Demo/iot_link/oc/oc_lwm2m/atiny_lwm2m\agent_lwm2m.c ****     }
 621:g:/iot/IoT_Device_Demo/iot_link/oc/oc_lwm2m/atiny_lwm2m\agent_lwm2m.c **** 
 622:g:/iot/IoT_Device_Demo/iot_link/oc/oc_lwm2m/atiny_lwm2m\agent_lwm2m.c ****     binary_app_list->object_id = BINARY_APP_DATA_OBJECT_ID;
 1721              		.loc 1 622 32
 1722 0072 FB68     		ldr	r3, [r7, #12]
ARM GAS  C:\Users\ADMINI~1\AppData\Local\Temp\ccTcVp5n.s 			page 42


 1723 0074 1322     		movs	r2, #19
 1724 0076 9A80     		strh	r2, [r3, #4]	@ movhi
 623:g:/iot/IoT_Device_Demo/iot_link/oc/oc_lwm2m/atiny_lwm2m\agent_lwm2m.c ****     uri_list_add(&uri_list, binary_app_list);
 1725              		.loc 1 623 5
 1726 0078 F968     		ldr	r1, [r7, #12]
 1727 007a 0448     		ldr	r0, .L113
 1728 007c FFF7FEFF 		bl	uri_list_add
 624:g:/iot/IoT_Device_Demo/iot_link/oc/oc_lwm2m/atiny_lwm2m\agent_lwm2m.c ****     return 0;
 1729              		.loc 1 624 12
 1730 0080 0023     		movs	r3, #0
 1731              	.L108:
 625:g:/iot/IoT_Device_Demo/iot_link/oc/oc_lwm2m/atiny_lwm2m\agent_lwm2m.c **** }
 1732              		.loc 1 625 1
 1733 0082 1846     		mov	r0, r3
 1734 0084 1837     		adds	r7, r7, #24
 1735              	.LCFI71:
 1736              		.cfi_def_cfa_offset 8
 1737 0086 BD46     		mov	sp, r7
 1738              	.LCFI72:
 1739              		.cfi_def_cfa_register 13
 1740              		@ sp needed
 1741 0088 80BD     		pop	{r7, pc}
 1742              	.L114:
 1743 008a 00BF     		.align	2
 1744              	.L113:
 1745 008c 00000000 		.word	uri_list
 1746              		.cfi_endproc
 1747              	.LFE16:
 1749              		.section	.text.agent_add_objects,"ax",%progbits
 1750              		.align	1
 1751              		.syntax unified
 1752              		.thumb
 1753              		.thumb_func
 1754              		.fpu fpv4-sp-d16
 1756              	agent_add_objects:
 1757              	.LFB17:
 626:g:/iot/IoT_Device_Demo/iot_link/oc/oc_lwm2m/atiny_lwm2m\agent_lwm2m.c **** 
 627:g:/iot/IoT_Device_Demo/iot_link/oc/oc_lwm2m/atiny_lwm2m\agent_lwm2m.c **** static int agent_add_objects(void *handle, atiny_param_t *lwm2m_params)
 628:g:/iot/IoT_Device_Demo/iot_link/oc/oc_lwm2m/atiny_lwm2m\agent_lwm2m.c **** {
 1758              		.loc 1 628 1
 1759              		.cfi_startproc
 1760              		@ args = 0, pretend = 0, frame = 16
 1761              		@ frame_needed = 1, uses_anonymous_args = 0
 1762 0000 80B5     		push	{r7, lr}
 1763              	.LCFI73:
 1764              		.cfi_def_cfa_offset 8
 1765              		.cfi_offset 7, -8
 1766              		.cfi_offset 14, -4
 1767 0002 84B0     		sub	sp, sp, #16
 1768              	.LCFI74:
 1769              		.cfi_def_cfa_offset 24
 1770 0004 00AF     		add	r7, sp, #0
 1771              	.LCFI75:
 1772              		.cfi_def_cfa_register 7
 1773 0006 7860     		str	r0, [r7, #4]
 1774 0008 3960     		str	r1, [r7]
 629:g:/iot/IoT_Device_Demo/iot_link/oc/oc_lwm2m/atiny_lwm2m\agent_lwm2m.c ****     int ret = (int) ATINY_ERR;
ARM GAS  C:\Users\ADMINI~1\AppData\Local\Temp\ccTcVp5n.s 			page 43


 1775              		.loc 1 629 9
 1776 000a 6FF00803 		mvn	r3, #8
 1777 000e FB60     		str	r3, [r7, #12]
 630:g:/iot/IoT_Device_Demo/iot_link/oc/oc_lwm2m/atiny_lwm2m\agent_lwm2m.c ****     ret = agent_add_security_object(handle, lwm2m_params);
 1778              		.loc 1 630 11
 1779 0010 3968     		ldr	r1, [r7]
 1780 0012 7868     		ldr	r0, [r7, #4]
 1781 0014 FFF7FEFF 		bl	agent_add_security_object
 1782 0018 F860     		str	r0, [r7, #12]
 631:g:/iot/IoT_Device_Demo/iot_link/oc/oc_lwm2m/atiny_lwm2m\agent_lwm2m.c **** 
 632:g:/iot/IoT_Device_Demo/iot_link/oc/oc_lwm2m/atiny_lwm2m\agent_lwm2m.c ****     if (0 != ret)
 1783              		.loc 1 632 8
 1784 001a FB68     		ldr	r3, [r7, #12]
 1785 001c 002B     		cmp	r3, #0
 1786 001e 01D0     		beq	.L116
 633:g:/iot/IoT_Device_Demo/iot_link/oc/oc_lwm2m/atiny_lwm2m\agent_lwm2m.c ****     {
 634:g:/iot/IoT_Device_Demo/iot_link/oc/oc_lwm2m/atiny_lwm2m\agent_lwm2m.c ****         return ret;
 1787              		.loc 1 634 16
 1788 0020 FB68     		ldr	r3, [r7, #12]
 1789 0022 3DE0     		b	.L117
 1790              	.L116:
 635:g:/iot/IoT_Device_Demo/iot_link/oc/oc_lwm2m/atiny_lwm2m\agent_lwm2m.c ****     }
 636:g:/iot/IoT_Device_Demo/iot_link/oc/oc_lwm2m/atiny_lwm2m\agent_lwm2m.c **** 
 637:g:/iot/IoT_Device_Demo/iot_link/oc/oc_lwm2m/atiny_lwm2m\agent_lwm2m.c ****     ret = agent_add_server_object(handle, lwm2m_params);
 1791              		.loc 1 637 11
 1792 0024 3968     		ldr	r1, [r7]
 1793 0026 7868     		ldr	r0, [r7, #4]
 1794 0028 FFF7FEFF 		bl	agent_add_server_object
 1795 002c F860     		str	r0, [r7, #12]
 638:g:/iot/IoT_Device_Demo/iot_link/oc/oc_lwm2m/atiny_lwm2m\agent_lwm2m.c **** 
 639:g:/iot/IoT_Device_Demo/iot_link/oc/oc_lwm2m/atiny_lwm2m\agent_lwm2m.c ****     if (0 != ret)
 1796              		.loc 1 639 8
 1797 002e FB68     		ldr	r3, [r7, #12]
 1798 0030 002B     		cmp	r3, #0
 1799 0032 01D0     		beq	.L118
 640:g:/iot/IoT_Device_Demo/iot_link/oc/oc_lwm2m/atiny_lwm2m\agent_lwm2m.c ****     {
 641:g:/iot/IoT_Device_Demo/iot_link/oc/oc_lwm2m/atiny_lwm2m\agent_lwm2m.c ****         return ret;
 1800              		.loc 1 641 16
 1801 0034 FB68     		ldr	r3, [r7, #12]
 1802 0036 33E0     		b	.L117
 1803              	.L118:
 642:g:/iot/IoT_Device_Demo/iot_link/oc/oc_lwm2m/atiny_lwm2m\agent_lwm2m.c ****     }
 643:g:/iot/IoT_Device_Demo/iot_link/oc/oc_lwm2m/atiny_lwm2m\agent_lwm2m.c **** 
 644:g:/iot/IoT_Device_Demo/iot_link/oc/oc_lwm2m/atiny_lwm2m\agent_lwm2m.c ****     ret = agent_add_acc_ctrl_object(handle);
 1804              		.loc 1 644 11
 1805 0038 7868     		ldr	r0, [r7, #4]
 1806 003a FFF7FEFF 		bl	agent_add_acc_ctrl_object
 1807 003e F860     		str	r0, [r7, #12]
 645:g:/iot/IoT_Device_Demo/iot_link/oc/oc_lwm2m/atiny_lwm2m\agent_lwm2m.c **** 
 646:g:/iot/IoT_Device_Demo/iot_link/oc/oc_lwm2m/atiny_lwm2m\agent_lwm2m.c ****     if (0 != ret)
 1808              		.loc 1 646 8
 1809 0040 FB68     		ldr	r3, [r7, #12]
 1810 0042 002B     		cmp	r3, #0
 1811 0044 01D0     		beq	.L119
 647:g:/iot/IoT_Device_Demo/iot_link/oc/oc_lwm2m/atiny_lwm2m\agent_lwm2m.c ****     {
 648:g:/iot/IoT_Device_Demo/iot_link/oc/oc_lwm2m/atiny_lwm2m\agent_lwm2m.c ****         return ret;
 1812              		.loc 1 648 16
ARM GAS  C:\Users\ADMINI~1\AppData\Local\Temp\ccTcVp5n.s 			page 44


 1813 0046 FB68     		ldr	r3, [r7, #12]
 1814 0048 2AE0     		b	.L117
 1815              	.L119:
 649:g:/iot/IoT_Device_Demo/iot_link/oc/oc_lwm2m/atiny_lwm2m\agent_lwm2m.c ****     }
 650:g:/iot/IoT_Device_Demo/iot_link/oc/oc_lwm2m/atiny_lwm2m\agent_lwm2m.c **** 
 651:g:/iot/IoT_Device_Demo/iot_link/oc/oc_lwm2m/atiny_lwm2m\agent_lwm2m.c ****     ret = agent_add_device_object(handle);
 1816              		.loc 1 651 11
 1817 004a 7868     		ldr	r0, [r7, #4]
 1818 004c FFF7FEFF 		bl	agent_add_device_object
 1819 0050 F860     		str	r0, [r7, #12]
 652:g:/iot/IoT_Device_Demo/iot_link/oc/oc_lwm2m/atiny_lwm2m\agent_lwm2m.c **** 
 653:g:/iot/IoT_Device_Demo/iot_link/oc/oc_lwm2m/atiny_lwm2m\agent_lwm2m.c ****     if (0 != ret)
 1820              		.loc 1 653 8
 1821 0052 FB68     		ldr	r3, [r7, #12]
 1822 0054 002B     		cmp	r3, #0
 1823 0056 01D0     		beq	.L120
 654:g:/iot/IoT_Device_Demo/iot_link/oc/oc_lwm2m/atiny_lwm2m\agent_lwm2m.c ****     {
 655:g:/iot/IoT_Device_Demo/iot_link/oc/oc_lwm2m/atiny_lwm2m\agent_lwm2m.c ****         return ret;
 1824              		.loc 1 655 16
 1825 0058 FB68     		ldr	r3, [r7, #12]
 1826 005a 21E0     		b	.L117
 1827              	.L120:
 656:g:/iot/IoT_Device_Demo/iot_link/oc/oc_lwm2m/atiny_lwm2m\agent_lwm2m.c ****     }
 657:g:/iot/IoT_Device_Demo/iot_link/oc/oc_lwm2m/atiny_lwm2m\agent_lwm2m.c **** 
 658:g:/iot/IoT_Device_Demo/iot_link/oc/oc_lwm2m/atiny_lwm2m\agent_lwm2m.c ****     ret = agent_add_conn_m_object(handle);
 1828              		.loc 1 658 11
 1829 005c 7868     		ldr	r0, [r7, #4]
 1830 005e FFF7FEFF 		bl	agent_add_conn_m_object
 1831 0062 F860     		str	r0, [r7, #12]
 659:g:/iot/IoT_Device_Demo/iot_link/oc/oc_lwm2m/atiny_lwm2m\agent_lwm2m.c **** 
 660:g:/iot/IoT_Device_Demo/iot_link/oc/oc_lwm2m/atiny_lwm2m\agent_lwm2m.c ****     if (0 != ret)
 1832              		.loc 1 660 8
 1833 0064 FB68     		ldr	r3, [r7, #12]
 1834 0066 002B     		cmp	r3, #0
 1835 0068 01D0     		beq	.L121
 661:g:/iot/IoT_Device_Demo/iot_link/oc/oc_lwm2m/atiny_lwm2m\agent_lwm2m.c ****     {
 662:g:/iot/IoT_Device_Demo/iot_link/oc/oc_lwm2m/atiny_lwm2m\agent_lwm2m.c ****         return ret;
 1836              		.loc 1 662 16
 1837 006a FB68     		ldr	r3, [r7, #12]
 1838 006c 18E0     		b	.L117
 1839              	.L121:
 663:g:/iot/IoT_Device_Demo/iot_link/oc/oc_lwm2m/atiny_lwm2m\agent_lwm2m.c ****     }
 664:g:/iot/IoT_Device_Demo/iot_link/oc/oc_lwm2m/atiny_lwm2m\agent_lwm2m.c **** 
 665:g:/iot/IoT_Device_Demo/iot_link/oc/oc_lwm2m/atiny_lwm2m\agent_lwm2m.c ****     ret = agent_add_firmware_object(handle);
 1840              		.loc 1 665 11
 1841 006e 7868     		ldr	r0, [r7, #4]
 1842 0070 FFF7FEFF 		bl	agent_add_firmware_object
 1843 0074 F860     		str	r0, [r7, #12]
 666:g:/iot/IoT_Device_Demo/iot_link/oc/oc_lwm2m/atiny_lwm2m\agent_lwm2m.c **** 
 667:g:/iot/IoT_Device_Demo/iot_link/oc/oc_lwm2m/atiny_lwm2m\agent_lwm2m.c ****     if (0 != ret)
 1844              		.loc 1 667 8
 1845 0076 FB68     		ldr	r3, [r7, #12]
 1846 0078 002B     		cmp	r3, #0
 1847 007a 01D0     		beq	.L122
 668:g:/iot/IoT_Device_Demo/iot_link/oc/oc_lwm2m/atiny_lwm2m\agent_lwm2m.c ****     {
 669:g:/iot/IoT_Device_Demo/iot_link/oc/oc_lwm2m/atiny_lwm2m\agent_lwm2m.c ****         return ret;
 1848              		.loc 1 669 16
ARM GAS  C:\Users\ADMINI~1\AppData\Local\Temp\ccTcVp5n.s 			page 45


 1849 007c FB68     		ldr	r3, [r7, #12]
 1850 007e 0FE0     		b	.L117
 1851              	.L122:
 670:g:/iot/IoT_Device_Demo/iot_link/oc/oc_lwm2m/atiny_lwm2m\agent_lwm2m.c ****     }
 671:g:/iot/IoT_Device_Demo/iot_link/oc/oc_lwm2m/atiny_lwm2m\agent_lwm2m.c **** 
 672:g:/iot/IoT_Device_Demo/iot_link/oc/oc_lwm2m/atiny_lwm2m\agent_lwm2m.c ****     ret = agent_add_location_object(handle);
 1852              		.loc 1 672 11
 1853 0080 7868     		ldr	r0, [r7, #4]
 1854 0082 FFF7FEFF 		bl	agent_add_location_object
 1855 0086 F860     		str	r0, [r7, #12]
 673:g:/iot/IoT_Device_Demo/iot_link/oc/oc_lwm2m/atiny_lwm2m\agent_lwm2m.c **** 
 674:g:/iot/IoT_Device_Demo/iot_link/oc/oc_lwm2m/atiny_lwm2m\agent_lwm2m.c ****     if (0 != ret)
 1856              		.loc 1 674 8
 1857 0088 FB68     		ldr	r3, [r7, #12]
 1858 008a 002B     		cmp	r3, #0
 1859 008c 01D0     		beq	.L123
 675:g:/iot/IoT_Device_Demo/iot_link/oc/oc_lwm2m/atiny_lwm2m\agent_lwm2m.c ****     {
 676:g:/iot/IoT_Device_Demo/iot_link/oc/oc_lwm2m/atiny_lwm2m\agent_lwm2m.c ****         return ret;
 1860              		.loc 1 676 16
 1861 008e FB68     		ldr	r3, [r7, #12]
 1862 0090 06E0     		b	.L117
 1863              	.L123:
 677:g:/iot/IoT_Device_Demo/iot_link/oc/oc_lwm2m/atiny_lwm2m\agent_lwm2m.c ****     }
 678:g:/iot/IoT_Device_Demo/iot_link/oc/oc_lwm2m/atiny_lwm2m\agent_lwm2m.c **** 
 679:g:/iot/IoT_Device_Demo/iot_link/oc/oc_lwm2m/atiny_lwm2m\agent_lwm2m.c ****     return agent_add_binary_app_data_object(handle, &(lwm2m_params->server_params.storing_cnt));
 1864              		.loc 1 679 12
 1865 0092 3B68     		ldr	r3, [r7]
 1866 0094 0833     		adds	r3, r3, #8
 1867 0096 1946     		mov	r1, r3
 1868 0098 7868     		ldr	r0, [r7, #4]
 1869 009a FFF7FEFF 		bl	agent_add_binary_app_data_object
 1870 009e 0346     		mov	r3, r0
 1871              	.L117:
 680:g:/iot/IoT_Device_Demo/iot_link/oc/oc_lwm2m/atiny_lwm2m\agent_lwm2m.c **** }
 1872              		.loc 1 680 1
 1873 00a0 1846     		mov	r0, r3
 1874 00a2 1037     		adds	r7, r7, #16
 1875              	.LCFI76:
 1876              		.cfi_def_cfa_offset 8
 1877 00a4 BD46     		mov	sp, r7
 1878              	.LCFI77:
 1879              		.cfi_def_cfa_register 13
 1880              		@ sp needed
 1881 00a6 80BD     		pop	{r7, pc}
 1882              		.cfi_endproc
 1883              	.LFE17:
 1885              		.section	.text.agent_delete_object,"ax",%progbits
 1886              		.align	1
 1887              		.syntax unified
 1888              		.thumb
 1889              		.thumb_func
 1890              		.fpu fpv4-sp-d16
 1892              	agent_delete_object:
 1893              	.LFB18:
 681:g:/iot/IoT_Device_Demo/iot_link/oc/oc_lwm2m/atiny_lwm2m\agent_lwm2m.c **** 
 682:g:/iot/IoT_Device_Demo/iot_link/oc/oc_lwm2m/atiny_lwm2m\agent_lwm2m.c **** static int agent_delete_object(void *handle)
 683:g:/iot/IoT_Device_Demo/iot_link/oc/oc_lwm2m/atiny_lwm2m\agent_lwm2m.c **** {
ARM GAS  C:\Users\ADMINI~1\AppData\Local\Temp\ccTcVp5n.s 			page 46


 1894              		.loc 1 683 1
 1895              		.cfi_startproc
 1896              		@ args = 0, pretend = 0, frame = 24
 1897              		@ frame_needed = 1, uses_anonymous_args = 0
 1898 0000 80B5     		push	{r7, lr}
 1899              	.LCFI78:
 1900              		.cfi_def_cfa_offset 8
 1901              		.cfi_offset 7, -8
 1902              		.cfi_offset 14, -4
 1903 0002 86B0     		sub	sp, sp, #24
 1904              	.LCFI79:
 1905              		.cfi_def_cfa_offset 32
 1906 0004 00AF     		add	r7, sp, #0
 1907              	.LCFI80:
 1908              		.cfi_def_cfa_register 7
 1909 0006 7860     		str	r0, [r7, #4]
 684:g:/iot/IoT_Device_Demo/iot_link/oc/oc_lwm2m/atiny_lwm2m\agent_lwm2m.c ****     object_uri_list *temp = uri_list;
 1910              		.loc 1 684 22
 1911 0008 154B     		ldr	r3, .L129
 1912 000a 1B68     		ldr	r3, [r3]
 1913 000c 7B61     		str	r3, [r7, #20]
 685:g:/iot/IoT_Device_Demo/iot_link/oc/oc_lwm2m/atiny_lwm2m\agent_lwm2m.c ****     object_uri_list *node = NULL;
 1914              		.loc 1 685 22
 1915 000e 0023     		movs	r3, #0
 1916 0010 3B61     		str	r3, [r7, #16]
 686:g:/iot/IoT_Device_Demo/iot_link/oc/oc_lwm2m/atiny_lwm2m\agent_lwm2m.c ****     int ret = (int) ATINY_ERR;
 1917              		.loc 1 686 9
 1918 0012 6FF00803 		mvn	r3, #8
 1919 0016 FB60     		str	r3, [r7, #12]
 687:g:/iot/IoT_Device_Demo/iot_link/oc/oc_lwm2m/atiny_lwm2m\agent_lwm2m.c **** 
 688:g:/iot/IoT_Device_Demo/iot_link/oc/oc_lwm2m/atiny_lwm2m\agent_lwm2m.c ****     while (temp != NULL)
 1920              		.loc 1 688 11
 1921 0018 16E0     		b	.L125
 1922              	.L128:
 689:g:/iot/IoT_Device_Demo/iot_link/oc/oc_lwm2m/atiny_lwm2m\agent_lwm2m.c ****     {
 690:g:/iot/IoT_Device_Demo/iot_link/oc/oc_lwm2m/atiny_lwm2m\agent_lwm2m.c ****         node = temp;
 1923              		.loc 1 690 14
 1924 001a 7B69     		ldr	r3, [r7, #20]
 1925 001c 3B61     		str	r3, [r7, #16]
 691:g:/iot/IoT_Device_Demo/iot_link/oc/oc_lwm2m/atiny_lwm2m\agent_lwm2m.c ****         temp = temp->next;
 1926              		.loc 1 691 14
 1927 001e 7B69     		ldr	r3, [r7, #20]
 1928 0020 1B68     		ldr	r3, [r3]
 1929 0022 7B61     		str	r3, [r7, #20]
 692:g:/iot/IoT_Device_Demo/iot_link/oc/oc_lwm2m/atiny_lwm2m\agent_lwm2m.c ****         ret = lwm2m_al_delete_object(handle, node->object_id);
 1930              		.loc 1 692 50
 1931 0024 3B69     		ldr	r3, [r7, #16]
 1932 0026 9B88     		ldrh	r3, [r3, #4]
 1933              		.loc 1 692 15
 1934 0028 1946     		mov	r1, r3
 1935 002a 7868     		ldr	r0, [r7, #4]
 1936 002c FFF7FEFF 		bl	lwm2m_al_delete_object
 1937 0030 F860     		str	r0, [r7, #12]
 693:g:/iot/IoT_Device_Demo/iot_link/oc/oc_lwm2m/atiny_lwm2m\agent_lwm2m.c **** 
 694:g:/iot/IoT_Device_Demo/iot_link/oc/oc_lwm2m/atiny_lwm2m\agent_lwm2m.c ****         if ((int) LWM2M_OK != ret)
 1938              		.loc 1 694 12
 1939 0032 FB68     		ldr	r3, [r7, #12]
ARM GAS  C:\Users\ADMINI~1\AppData\Local\Temp\ccTcVp5n.s 			page 47


 1940 0034 002B     		cmp	r3, #0
 1941 0036 04D0     		beq	.L126
 695:g:/iot/IoT_Device_Demo/iot_link/oc/oc_lwm2m/atiny_lwm2m\agent_lwm2m.c ****         {
 696:g:/iot/IoT_Device_Demo/iot_link/oc/oc_lwm2m/atiny_lwm2m\agent_lwm2m.c ****             osal_free(node);
 1942              		.loc 1 696 13
 1943 0038 3869     		ldr	r0, [r7, #16]
 1944 003a FFF7FEFF 		bl	osal_free
 697:g:/iot/IoT_Device_Demo/iot_link/oc/oc_lwm2m/atiny_lwm2m\agent_lwm2m.c ****             return ret;
 1945              		.loc 1 697 20
 1946 003e FB68     		ldr	r3, [r7, #12]
 1947 0040 09E0     		b	.L127
 1948              	.L126:
 698:g:/iot/IoT_Device_Demo/iot_link/oc/oc_lwm2m/atiny_lwm2m\agent_lwm2m.c ****         }
 699:g:/iot/IoT_Device_Demo/iot_link/oc/oc_lwm2m/atiny_lwm2m\agent_lwm2m.c **** 
 700:g:/iot/IoT_Device_Demo/iot_link/oc/oc_lwm2m/atiny_lwm2m\agent_lwm2m.c ****         osal_free(node);
 1949              		.loc 1 700 9
 1950 0042 3869     		ldr	r0, [r7, #16]
 1951 0044 FFF7FEFF 		bl	osal_free
 1952              	.L125:
 688:g:/iot/IoT_Device_Demo/iot_link/oc/oc_lwm2m/atiny_lwm2m\agent_lwm2m.c ****     {
 1953              		.loc 1 688 11
 1954 0048 7B69     		ldr	r3, [r7, #20]
 1955 004a 002B     		cmp	r3, #0
 1956 004c E5D1     		bne	.L128
 701:g:/iot/IoT_Device_Demo/iot_link/oc/oc_lwm2m/atiny_lwm2m\agent_lwm2m.c ****     }
 702:g:/iot/IoT_Device_Demo/iot_link/oc/oc_lwm2m/atiny_lwm2m\agent_lwm2m.c **** 
 703:g:/iot/IoT_Device_Demo/iot_link/oc/oc_lwm2m/atiny_lwm2m\agent_lwm2m.c ****     uri_list = NULL;
 1957              		.loc 1 703 14
 1958 004e 044B     		ldr	r3, .L129
 1959 0050 0022     		movs	r2, #0
 1960 0052 1A60     		str	r2, [r3]
 704:g:/iot/IoT_Device_Demo/iot_link/oc/oc_lwm2m/atiny_lwm2m\agent_lwm2m.c ****     return 0;
 1961              		.loc 1 704 12
 1962 0054 0023     		movs	r3, #0
 1963              	.L127:
 705:g:/iot/IoT_Device_Demo/iot_link/oc/oc_lwm2m/atiny_lwm2m\agent_lwm2m.c **** }
 1964              		.loc 1 705 1
 1965 0056 1846     		mov	r0, r3
 1966 0058 1837     		adds	r7, r7, #24
 1967              	.LCFI81:
 1968              		.cfi_def_cfa_offset 8
 1969 005a BD46     		mov	sp, r7
 1970              	.LCFI82:
 1971              		.cfi_def_cfa_register 13
 1972              		@ sp needed
 1973 005c 80BD     		pop	{r7, pc}
 1974              	.L130:
 1975 005e 00BF     		.align	2
 1976              	.L129:
 1977 0060 00000000 		.word	uri_list
 1978              		.cfi_endproc
 1979              	.LFE18:
 1981              		.section	.rodata
 1982 0033 00       		.align	2
 1983              	.LC3:
 1984 0034 4C776D32 		.ascii	"Lwm2mFota\000"
 1984      6D466F74 
ARM GAS  C:\Users\ADMINI~1\AppData\Local\Temp\ccTcVp5n.s 			page 48


 1984      6100
 1985 003e 0000     		.align	2
 1986              	.LC4:
 1987 0040 4167656E 		.ascii	"Agent_Tiny\000"
 1987      745F5469 
 1987      6E7900
 1988 004b 00       		.align	2
 1989              	.LC5:
 1990 004c 555100   		.ascii	"UQ\000"
 1991              		.section	.text.__agent_config,"ax",%progbits
 1992              		.align	1
 1993              		.syntax unified
 1994              		.thumb
 1995              		.thumb_func
 1996              		.fpu fpv4-sp-d16
 1998              	__agent_config:
 1999              	.LFB19:
 706:g:/iot/IoT_Device_Demo/iot_link/oc/oc_lwm2m/atiny_lwm2m\agent_lwm2m.c **** 
 707:g:/iot/IoT_Device_Demo/iot_link/oc/oc_lwm2m/atiny_lwm2m\agent_lwm2m.c **** static int __agent_config(oc_config_param_t *param)
 708:g:/iot/IoT_Device_Demo/iot_link/oc/oc_lwm2m/atiny_lwm2m\agent_lwm2m.c **** {
 2000              		.loc 1 708 1
 2001              		.cfi_startproc
 2002              		@ args = 0, pretend = 0, frame = 48
 2003              		@ frame_needed = 1, uses_anonymous_args = 0
 2004 0000 B0B5     		push	{r4, r5, r7, lr}
 2005              	.LCFI83:
 2006              		.cfi_def_cfa_offset 16
 2007              		.cfi_offset 4, -16
 2008              		.cfi_offset 5, -12
 2009              		.cfi_offset 7, -8
 2010              		.cfi_offset 14, -4
 2011 0002 8CB0     		sub	sp, sp, #48
 2012              	.LCFI84:
 2013              		.cfi_def_cfa_offset 64
 2014 0004 00AF     		add	r7, sp, #0
 2015              	.LCFI85:
 2016              		.cfi_def_cfa_register 7
 2017 0006 7860     		str	r0, [r7, #4]
 709:g:/iot/IoT_Device_Demo/iot_link/oc/oc_lwm2m/atiny_lwm2m\agent_lwm2m.c ****     int ret = (int ) en_oc_lwm2m_err_system;
 2018              		.loc 1 709 9
 2019 0008 0923     		movs	r3, #9
 2020 000a FB62     		str	r3, [r7, #44]
 710:g:/iot/IoT_Device_Demo/iot_link/oc/oc_lwm2m/atiny_lwm2m\agent_lwm2m.c ****     oc_lwm2m_imp_agent_t  *agent = NULL;
 2021              		.loc 1 710 28
 2022 000c 0023     		movs	r3, #0
 2023 000e BB62     		str	r3, [r7, #40]
 711:g:/iot/IoT_Device_Demo/iot_link/oc/oc_lwm2m/atiny_lwm2m\agent_lwm2m.c **** 
 712:g:/iot/IoT_Device_Demo/iot_link/oc/oc_lwm2m/atiny_lwm2m\agent_lwm2m.c ****     if (NULL != s_oc_lwm2m_agent)
 2024              		.loc 1 712 14
 2025 0010 6B4B     		ldr	r3, .L141
 2026 0012 1B68     		ldr	r3, [r3]
 2027              		.loc 1 712 8
 2028 0014 002B     		cmp	r3, #0
 2029 0016 03D0     		beq	.L132
 713:g:/iot/IoT_Device_Demo/iot_link/oc/oc_lwm2m/atiny_lwm2m\agent_lwm2m.c ****     {
 714:g:/iot/IoT_Device_Demo/iot_link/oc/oc_lwm2m/atiny_lwm2m\agent_lwm2m.c ****         ret = (int ) en_oc_lwm2m_err_configured;
 2030              		.loc 1 714 13
ARM GAS  C:\Users\ADMINI~1\AppData\Local\Temp\ccTcVp5n.s 			page 49


 2031 0018 0523     		movs	r3, #5
 2032 001a FB62     		str	r3, [r7, #44]
 715:g:/iot/IoT_Device_Demo/iot_link/oc/oc_lwm2m/atiny_lwm2m\agent_lwm2m.c ****         return ret;
 2033              		.loc 1 715 16
 2034 001c FB6A     		ldr	r3, [r7, #44]
 2035 001e CBE0     		b	.L140
 2036              	.L132:
 716:g:/iot/IoT_Device_Demo/iot_link/oc/oc_lwm2m/atiny_lwm2m\agent_lwm2m.c ****     }
 717:g:/iot/IoT_Device_Demo/iot_link/oc/oc_lwm2m/atiny_lwm2m\agent_lwm2m.c **** 
 718:g:/iot/IoT_Device_Demo/iot_link/oc/oc_lwm2m/atiny_lwm2m\agent_lwm2m.c ****     if (NULL == param)
 2037              		.loc 1 718 8
 2038 0020 7B68     		ldr	r3, [r7, #4]
 2039 0022 002B     		cmp	r3, #0
 2040 0024 03D1     		bne	.L134
 719:g:/iot/IoT_Device_Demo/iot_link/oc/oc_lwm2m/atiny_lwm2m\agent_lwm2m.c ****     {
 720:g:/iot/IoT_Device_Demo/iot_link/oc/oc_lwm2m/atiny_lwm2m\agent_lwm2m.c ****         ret =(int ) en_oc_lwm2m_err_parafmt;
 2041              		.loc 1 720 13
 2042 0026 0123     		movs	r3, #1
 2043 0028 FB62     		str	r3, [r7, #44]
 721:g:/iot/IoT_Device_Demo/iot_link/oc/oc_lwm2m/atiny_lwm2m\agent_lwm2m.c ****         return ret;
 2044              		.loc 1 721 16
 2045 002a FB6A     		ldr	r3, [r7, #44]
 2046 002c C4E0     		b	.L140
 2047              	.L134:
 722:g:/iot/IoT_Device_Demo/iot_link/oc/oc_lwm2m/atiny_lwm2m\agent_lwm2m.c ****     }
 723:g:/iot/IoT_Device_Demo/iot_link/oc/oc_lwm2m/atiny_lwm2m\agent_lwm2m.c **** 
 724:g:/iot/IoT_Device_Demo/iot_link/oc/oc_lwm2m/atiny_lwm2m\agent_lwm2m.c ****     agent = osal_zalloc(sizeof(oc_lwm2m_imp_agent_t));
 2048              		.loc 1 724 13
 2049 002e 9020     		movs	r0, #144
 2050 0030 FFF7FEFF 		bl	osal_zalloc
 2051 0034 B862     		str	r0, [r7, #40]
 725:g:/iot/IoT_Device_Demo/iot_link/oc/oc_lwm2m/atiny_lwm2m\agent_lwm2m.c ****     if (NULL == agent)
 2052              		.loc 1 725 8
 2053 0036 BB6A     		ldr	r3, [r7, #40]
 2054 0038 002B     		cmp	r3, #0
 2055 003a 03D1     		bne	.L135
 726:g:/iot/IoT_Device_Demo/iot_link/oc/oc_lwm2m/atiny_lwm2m\agent_lwm2m.c ****     {
 727:g:/iot/IoT_Device_Demo/iot_link/oc/oc_lwm2m/atiny_lwm2m\agent_lwm2m.c ****         ret = (int ) en_oc_lwm2m_err_sysmem;
 2056              		.loc 1 727 13
 2057 003c 0823     		movs	r3, #8
 2058 003e FB62     		str	r3, [r7, #44]
 728:g:/iot/IoT_Device_Demo/iot_link/oc/oc_lwm2m/atiny_lwm2m\agent_lwm2m.c ****         return ret;
 2059              		.loc 1 728 16
 2060 0040 FB6A     		ldr	r3, [r7, #44]
 2061 0042 B9E0     		b	.L140
 2062              	.L135:
 729:g:/iot/IoT_Device_Demo/iot_link/oc/oc_lwm2m/atiny_lwm2m\agent_lwm2m.c ****     }
 730:g:/iot/IoT_Device_Demo/iot_link/oc/oc_lwm2m/atiny_lwm2m\agent_lwm2m.c **** 
 731:g:/iot/IoT_Device_Demo/iot_link/oc/oc_lwm2m/atiny_lwm2m\agent_lwm2m.c ****     agent->config_para = *param;
 2063              		.loc 1 731 24
 2064 0044 BB6A     		ldr	r3, [r7, #40]
 2065 0046 7A68     		ldr	r2, [r7, #4]
 2066 0048 03F14C04 		add	r4, r3, #76
 2067 004c 1546     		mov	r5, r2
 2068 004e 0FCD     		ldmia	r5!, {r0, r1, r2, r3}
 2069 0050 0FC4     		stmia	r4!, {r0, r1, r2, r3}
 2070 0052 0FCD     		ldmia	r5!, {r0, r1, r2, r3}
ARM GAS  C:\Users\ADMINI~1\AppData\Local\Temp\ccTcVp5n.s 			page 50


 2071 0054 0FC4     		stmia	r4!, {r0, r1, r2, r3}
 2072 0056 0FCD     		ldmia	r5!, {r0, r1, r2, r3}
 2073 0058 0FC4     		stmia	r4!, {r0, r1, r2, r3}
 2074 005a 95E80700 		ldm	r5, {r0, r1, r2}
 2075 005e 84E80700 		stm	r4, {r0, r1, r2}
 732:g:/iot/IoT_Device_Demo/iot_link/oc/oc_lwm2m/atiny_lwm2m\agent_lwm2m.c ****     ///< initialize the param that agent tiny need
 733:g:/iot/IoT_Device_Demo/iot_link/oc/oc_lwm2m/atiny_lwm2m\agent_lwm2m.c ****     atiny_param_t *atiny_params;
 734:g:/iot/IoT_Device_Demo/iot_link/oc/oc_lwm2m/atiny_lwm2m\agent_lwm2m.c ****     atiny_security_param_t  *iot_security_param = NULL;
 2076              		.loc 1 734 30
 2077 0062 0023     		movs	r3, #0
 2078 0064 7B62     		str	r3, [r7, #36]
 735:g:/iot/IoT_Device_Demo/iot_link/oc/oc_lwm2m/atiny_lwm2m\agent_lwm2m.c ****     atiny_security_param_t  *bs_security_param = NULL;
 2079              		.loc 1 735 30
 2080 0066 0023     		movs	r3, #0
 2081 0068 3B62     		str	r3, [r7, #32]
 736:g:/iot/IoT_Device_Demo/iot_link/oc/oc_lwm2m/atiny_lwm2m\agent_lwm2m.c ****     atiny_device_info_t *device_info = &agent->device_info;
 2082              		.loc 1 736 26
 2083 006a BB6A     		ldr	r3, [r7, #40]
 2084 006c FB61     		str	r3, [r7, #28]
 737:g:/iot/IoT_Device_Demo/iot_link/oc/oc_lwm2m/atiny_lwm2m\agent_lwm2m.c ****     device_info->endpoint_name = agent->config_para.app_server.ep_id;
 2085              		.loc 1 737 63
 2086 006e BB6A     		ldr	r3, [r7, #40]
 2087 0070 9A6E     		ldr	r2, [r3, #104]
 2088              		.loc 1 737 32
 2089 0072 FB69     		ldr	r3, [r7, #28]
 2090 0074 1A60     		str	r2, [r3]
 738:g:/iot/IoT_Device_Demo/iot_link/oc/oc_lwm2m/atiny_lwm2m\agent_lwm2m.c ****     device_info->dev_type = "Lwm2mFota";
 2091              		.loc 1 738 27
 2092 0076 FB69     		ldr	r3, [r7, #28]
 2093 0078 524A     		ldr	r2, .L141+4
 2094 007a 9A60     		str	r2, [r3, #8]
 739:g:/iot/IoT_Device_Demo/iot_link/oc/oc_lwm2m/atiny_lwm2m\agent_lwm2m.c ****     device_info->manufacturer = "Agent_Tiny";
 2095              		.loc 1 739 31
 2096 007c FB69     		ldr	r3, [r7, #28]
 2097 007e 524A     		ldr	r2, .L141+8
 2098 0080 5A60     		str	r2, [r3, #4]
 740:g:/iot/IoT_Device_Demo/iot_link/oc/oc_lwm2m/atiny_lwm2m\agent_lwm2m.c ****     atiny_params = &agent->tiny_param;
 2099              		.loc 1 740 18
 2100 0082 BB6A     		ldr	r3, [r7, #40]
 2101 0084 0C33     		adds	r3, r3, #12
 2102 0086 BB61     		str	r3, [r7, #24]
 741:g:/iot/IoT_Device_Demo/iot_link/oc/oc_lwm2m/atiny_lwm2m\agent_lwm2m.c ****     atiny_params->server_params.binding = "UQ";
 2103              		.loc 1 741 41
 2104 0088 BB69     		ldr	r3, [r7, #24]
 2105 008a 504A     		ldr	r2, .L141+12
 2106 008c 1A60     		str	r2, [r3]
 742:g:/iot/IoT_Device_Demo/iot_link/oc/oc_lwm2m/atiny_lwm2m\agent_lwm2m.c ****     atiny_params->server_params.life_time = 2000;
 2107              		.loc 1 742 43
 2108 008e BB69     		ldr	r3, [r7, #24]
 2109 0090 4FF4FA62 		mov	r2, #2000
 2110 0094 5A60     		str	r2, [r3, #4]
 743:g:/iot/IoT_Device_Demo/iot_link/oc/oc_lwm2m/atiny_lwm2m\agent_lwm2m.c ****     atiny_params->server_params.storing_cnt = 5;
 2111              		.loc 1 743 45
 2112 0096 BB69     		ldr	r3, [r7, #24]
 2113 0098 0522     		movs	r2, #5
 2114 009a 9A60     		str	r2, [r3, #8]
 744:g:/iot/IoT_Device_Demo/iot_link/oc/oc_lwm2m/atiny_lwm2m\agent_lwm2m.c ****     atiny_params->server_params.bootstrap_mode = param->boot_mode;
ARM GAS  C:\Users\ADMINI~1\AppData\Local\Temp\ccTcVp5n.s 			page 51


 2115              		.loc 1 744 55
 2116 009c 7B68     		ldr	r3, [r7, #4]
 2117 009e 1A78     		ldrb	r2, [r3]	@ zero_extendqisi2
 2118              		.loc 1 744 48
 2119 00a0 BB69     		ldr	r3, [r7, #24]
 2120 00a2 1A73     		strb	r2, [r3, #12]
 745:g:/iot/IoT_Device_Demo/iot_link/oc/oc_lwm2m/atiny_lwm2m\agent_lwm2m.c ****     atiny_params->server_params.hold_off_time = 10;
 2121              		.loc 1 745 47
 2122 00a4 BB69     		ldr	r3, [r7, #24]
 2123 00a6 0A22     		movs	r2, #10
 2124 00a8 1A61     		str	r2, [r3, #16]
 746:g:/iot/IoT_Device_Demo/iot_link/oc/oc_lwm2m/atiny_lwm2m\agent_lwm2m.c ****     atiny_params->userData = param->usr_data;
 2125              		.loc 1 746 35
 2126 00aa 7B68     		ldr	r3, [r7, #4]
 2127 00ac 9A6B     		ldr	r2, [r3, #56]
 2128              		.loc 1 746 28
 2129 00ae BB69     		ldr	r3, [r7, #24]
 2130 00b0 DA63     		str	r2, [r3, #60]
 747:g:/iot/IoT_Device_Demo/iot_link/oc/oc_lwm2m/atiny_lwm2m\agent_lwm2m.c ****     //pay attention: index 0 for iot server, index 1 for bootstrap server.
 748:g:/iot/IoT_Device_Demo/iot_link/oc/oc_lwm2m/atiny_lwm2m\agent_lwm2m.c ****     iot_security_param = &(atiny_params->security_params[0]);
 2131              		.loc 1 748 24
 2132 00b2 BB69     		ldr	r3, [r7, #24]
 2133 00b4 1433     		adds	r3, r3, #20
 2134 00b6 7B62     		str	r3, [r7, #36]
 749:g:/iot/IoT_Device_Demo/iot_link/oc/oc_lwm2m/atiny_lwm2m\agent_lwm2m.c ****     bs_security_param = &(atiny_params->security_params[1]);
 2135              		.loc 1 749 23
 2136 00b8 BB69     		ldr	r3, [r7, #24]
 2137 00ba 2833     		adds	r3, r3, #40
 2138 00bc 3B62     		str	r3, [r7, #32]
 750:g:/iot/IoT_Device_Demo/iot_link/oc/oc_lwm2m/atiny_lwm2m\agent_lwm2m.c ****     iot_security_param->server_ip = agent->config_para.app_server.address;
 2139              		.loc 1 750 66
 2140 00be BB6A     		ldr	r3, [r7, #40]
 2141 00c0 DA6E     		ldr	r2, [r3, #108]
 2142              		.loc 1 750 35
 2143 00c2 7B6A     		ldr	r3, [r7, #36]
 2144 00c4 1A60     		str	r2, [r3]
 751:g:/iot/IoT_Device_Demo/iot_link/oc/oc_lwm2m/atiny_lwm2m\agent_lwm2m.c ****     iot_security_param->server_port = agent->config_para.app_server.port;
 2145              		.loc 1 751 68
 2146 00c6 BB6A     		ldr	r3, [r7, #40]
 2147 00c8 1A6F     		ldr	r2, [r3, #112]
 2148              		.loc 1 751 37
 2149 00ca 7B6A     		ldr	r3, [r7, #36]
 2150 00cc 5A60     		str	r2, [r3, #4]
 752:g:/iot/IoT_Device_Demo/iot_link/oc/oc_lwm2m/atiny_lwm2m\agent_lwm2m.c ****     iot_security_param->psk_id = agent->config_para.app_server.psk_id;
 2151              		.loc 1 752 63
 2152 00ce BB6A     		ldr	r3, [r7, #40]
 2153 00d0 5A6F     		ldr	r2, [r3, #116]
 2154              		.loc 1 752 32
 2155 00d2 7B6A     		ldr	r3, [r7, #36]
 2156 00d4 9A60     		str	r2, [r3, #8]
 753:g:/iot/IoT_Device_Demo/iot_link/oc/oc_lwm2m/atiny_lwm2m\agent_lwm2m.c ****     iot_security_param->psk = agent->config_para.app_server.psk;
 2157              		.loc 1 753 60
 2158 00d6 BB6A     		ldr	r3, [r7, #40]
 2159 00d8 9A6F     		ldr	r2, [r3, #120]
 2160              		.loc 1 753 29
 2161 00da 7B6A     		ldr	r3, [r7, #36]
 2162 00dc DA60     		str	r2, [r3, #12]
ARM GAS  C:\Users\ADMINI~1\AppData\Local\Temp\ccTcVp5n.s 			page 52


 754:g:/iot/IoT_Device_Demo/iot_link/oc/oc_lwm2m/atiny_lwm2m\agent_lwm2m.c ****     iot_security_param->psk_len = agent->config_para.app_server.psk_len;
 2163              		.loc 1 754 64
 2164 00de BB6A     		ldr	r3, [r7, #40]
 2165 00e0 DB6F     		ldr	r3, [r3, #124]
 2166              		.loc 1 754 33
 2167 00e2 9AB2     		uxth	r2, r3
 2168 00e4 7B6A     		ldr	r3, [r7, #36]
 2169 00e6 1A82     		strh	r2, [r3, #16]	@ movhi
 755:g:/iot/IoT_Device_Demo/iot_link/oc/oc_lwm2m/atiny_lwm2m\agent_lwm2m.c ****     bs_security_param->server_ip = agent->config_para.boot_server.address;
 2170              		.loc 1 755 66
 2171 00e8 BB6A     		ldr	r3, [r7, #40]
 2172 00ea 5A6D     		ldr	r2, [r3, #84]
 2173              		.loc 1 755 34
 2174 00ec 3B6A     		ldr	r3, [r7, #32]
 2175 00ee 1A60     		str	r2, [r3]
 756:g:/iot/IoT_Device_Demo/iot_link/oc/oc_lwm2m/atiny_lwm2m\agent_lwm2m.c ****     bs_security_param->server_port = agent->config_para.boot_server.port;
 2176              		.loc 1 756 68
 2177 00f0 BB6A     		ldr	r3, [r7, #40]
 2178 00f2 9A6D     		ldr	r2, [r3, #88]
 2179              		.loc 1 756 36
 2180 00f4 3B6A     		ldr	r3, [r7, #32]
 2181 00f6 5A60     		str	r2, [r3, #4]
 757:g:/iot/IoT_Device_Demo/iot_link/oc/oc_lwm2m/atiny_lwm2m\agent_lwm2m.c ****     bs_security_param->psk_id = agent->config_para.boot_server.psk_id;
 2182              		.loc 1 757 63
 2183 00f8 BB6A     		ldr	r3, [r7, #40]
 2184 00fa DA6D     		ldr	r2, [r3, #92]
 2185              		.loc 1 757 31
 2186 00fc 3B6A     		ldr	r3, [r7, #32]
 2187 00fe 9A60     		str	r2, [r3, #8]
 758:g:/iot/IoT_Device_Demo/iot_link/oc/oc_lwm2m/atiny_lwm2m\agent_lwm2m.c ****     bs_security_param->psk = agent->config_para.boot_server.psk;
 2188              		.loc 1 758 60
 2189 0100 BB6A     		ldr	r3, [r7, #40]
 2190 0102 1A6E     		ldr	r2, [r3, #96]
 2191              		.loc 1 758 28
 2192 0104 3B6A     		ldr	r3, [r7, #32]
 2193 0106 DA60     		str	r2, [r3, #12]
 759:g:/iot/IoT_Device_Demo/iot_link/oc/oc_lwm2m/atiny_lwm2m\agent_lwm2m.c ****     bs_security_param->psk_len = agent->config_para.boot_server.psk_len;
 2194              		.loc 1 759 64
 2195 0108 BB6A     		ldr	r3, [r7, #40]
 2196 010a 5B6E     		ldr	r3, [r3, #100]
 2197              		.loc 1 759 32
 2198 010c 9AB2     		uxth	r2, r3
 2199 010e 3B6A     		ldr	r3, [r7, #32]
 2200 0110 1A82     		strh	r2, [r3, #16]	@ movhi
 760:g:/iot/IoT_Device_Demo/iot_link/oc/oc_lwm2m/atiny_lwm2m\agent_lwm2m.c ****     ret = atiny_check_parameter(atiny_params, device_info);
 2201              		.loc 1 760 11
 2202 0112 F969     		ldr	r1, [r7, #28]
 2203 0114 B869     		ldr	r0, [r7, #24]
 2204 0116 FFF7FEFF 		bl	atiny_check_parameter
 2205 011a F862     		str	r0, [r7, #44]
 761:g:/iot/IoT_Device_Demo/iot_link/oc/oc_lwm2m/atiny_lwm2m\agent_lwm2m.c **** 
 762:g:/iot/IoT_Device_Demo/iot_link/oc/oc_lwm2m/atiny_lwm2m\agent_lwm2m.c ****     if ((int)ATINY_OK != ret)
 2206              		.loc 1 762 8
 2207 011c FB6A     		ldr	r3, [r7, #44]
 2208 011e 002B     		cmp	r3, #0
 2209 0120 06D0     		beq	.L136
 763:g:/iot/IoT_Device_Demo/iot_link/oc/oc_lwm2m/atiny_lwm2m\agent_lwm2m.c ****     {
ARM GAS  C:\Users\ADMINI~1\AppData\Local\Temp\ccTcVp5n.s 			page 53


 764:g:/iot/IoT_Device_Demo/iot_link/oc/oc_lwm2m/atiny_lwm2m\agent_lwm2m.c ****         osal_free(agent);
 2210              		.loc 1 764 9
 2211 0122 B86A     		ldr	r0, [r7, #40]
 2212 0124 FFF7FEFF 		bl	osal_free
 765:g:/iot/IoT_Device_Demo/iot_link/oc/oc_lwm2m/atiny_lwm2m\agent_lwm2m.c **** 
 766:g:/iot/IoT_Device_Demo/iot_link/oc/oc_lwm2m/atiny_lwm2m\agent_lwm2m.c ****         ret = (int ) en_oc_lwm2m_err_parafmt;
 2213              		.loc 1 766 13
 2214 0128 0123     		movs	r3, #1
 2215 012a FB62     		str	r3, [r7, #44]
 767:g:/iot/IoT_Device_Demo/iot_link/oc/oc_lwm2m/atiny_lwm2m\agent_lwm2m.c ****         return ret;
 2216              		.loc 1 767 16
 2217 012c FB6A     		ldr	r3, [r7, #44]
 2218 012e 43E0     		b	.L140
 2219              	.L136:
 768:g:/iot/IoT_Device_Demo/iot_link/oc/oc_lwm2m/atiny_lwm2m\agent_lwm2m.c ****     }
 769:g:/iot/IoT_Device_Demo/iot_link/oc/oc_lwm2m/atiny_lwm2m\agent_lwm2m.c **** 
 770:g:/iot/IoT_Device_Demo/iot_link/oc/oc_lwm2m/atiny_lwm2m\agent_lwm2m.c ****     //TODO: add objects
 771:g:/iot/IoT_Device_Demo/iot_link/oc/oc_lwm2m/atiny_lwm2m\agent_lwm2m.c ****     lwm2m_al_init_param_t init_param;
 772:g:/iot/IoT_Device_Demo/iot_link/oc/oc_lwm2m/atiny_lwm2m\agent_lwm2m.c ****     init_param.endpoint_name =  device_info->endpoint_name;
 2220              		.loc 1 772 44
 2221 0130 FB69     		ldr	r3, [r7, #28]
 2222 0132 1B68     		ldr	r3, [r3]
 2223              		.loc 1 772 30
 2224 0134 BB60     		str	r3, [r7, #8]
 773:g:/iot/IoT_Device_Demo/iot_link/oc/oc_lwm2m/atiny_lwm2m\agent_lwm2m.c ****     init_param.dealer = agent_dealer_callback;
 2225              		.loc 1 773 23
 2226 0136 264B     		ldr	r3, .L141+16
 2227 0138 FB60     		str	r3, [r7, #12]
 774:g:/iot/IoT_Device_Demo/iot_link/oc/oc_lwm2m/atiny_lwm2m\agent_lwm2m.c ****     init_param.bootstrap_type = (int)(param->boot_mode);
 2228              		.loc 1 774 44
 2229 013a 7B68     		ldr	r3, [r7, #4]
 2230 013c 1B78     		ldrb	r3, [r3]	@ zero_extendqisi2
 2231              		.loc 1 774 31
 2232 013e 7B61     		str	r3, [r7, #20]
 775:g:/iot/IoT_Device_Demo/iot_link/oc/oc_lwm2m/atiny_lwm2m\agent_lwm2m.c ****     ret = lwm2m_al_config(&(agent->agent_handle), &init_param);
 2233              		.loc 1 775 11
 2234 0140 BB6A     		ldr	r3, [r7, #40]
 2235 0142 8833     		adds	r3, r3, #136
 2236 0144 07F10802 		add	r2, r7, #8
 2237 0148 1146     		mov	r1, r2
 2238 014a 1846     		mov	r0, r3
 2239 014c FFF7FEFF 		bl	lwm2m_al_config
 2240 0150 F862     		str	r0, [r7, #44]
 776:g:/iot/IoT_Device_Demo/iot_link/oc/oc_lwm2m/atiny_lwm2m\agent_lwm2m.c **** 
 777:g:/iot/IoT_Device_Demo/iot_link/oc/oc_lwm2m/atiny_lwm2m\agent_lwm2m.c ****     if ((int)ATINY_OK != ret)
 2241              		.loc 1 777 8
 2242 0152 FB6A     		ldr	r3, [r7, #44]
 2243 0154 002B     		cmp	r3, #0
 2244 0156 06D0     		beq	.L137
 778:g:/iot/IoT_Device_Demo/iot_link/oc/oc_lwm2m/atiny_lwm2m\agent_lwm2m.c ****     {
 779:g:/iot/IoT_Device_Demo/iot_link/oc/oc_lwm2m/atiny_lwm2m\agent_lwm2m.c ****         osal_free(agent);
 2245              		.loc 1 779 9
 2246 0158 B86A     		ldr	r0, [r7, #40]
 2247 015a FFF7FEFF 		bl	osal_free
 780:g:/iot/IoT_Device_Demo/iot_link/oc/oc_lwm2m/atiny_lwm2m\agent_lwm2m.c ****         ret = (int ) en_oc_lwm2m_err_parafmt;
 2248              		.loc 1 780 13
 2249 015e 0123     		movs	r3, #1
ARM GAS  C:\Users\ADMINI~1\AppData\Local\Temp\ccTcVp5n.s 			page 54


 2250 0160 FB62     		str	r3, [r7, #44]
 781:g:/iot/IoT_Device_Demo/iot_link/oc/oc_lwm2m/atiny_lwm2m\agent_lwm2m.c ****         return ret;
 2251              		.loc 1 781 16
 2252 0162 FB6A     		ldr	r3, [r7, #44]
 2253 0164 28E0     		b	.L140
 2254              	.L137:
 782:g:/iot/IoT_Device_Demo/iot_link/oc/oc_lwm2m/atiny_lwm2m\agent_lwm2m.c ****     }
 783:g:/iot/IoT_Device_Demo/iot_link/oc/oc_lwm2m/atiny_lwm2m\agent_lwm2m.c **** 
 784:g:/iot/IoT_Device_Demo/iot_link/oc/oc_lwm2m/atiny_lwm2m\agent_lwm2m.c ****     ret = agent_add_objects(agent->agent_handle, atiny_params);
 2255              		.loc 1 784 11
 2256 0166 BB6A     		ldr	r3, [r7, #40]
 2257 0168 D3F88830 		ldr	r3, [r3, #136]
 2258 016c B969     		ldr	r1, [r7, #24]
 2259 016e 1846     		mov	r0, r3
 2260 0170 FFF7FEFF 		bl	agent_add_objects
 2261 0174 F862     		str	r0, [r7, #44]
 785:g:/iot/IoT_Device_Demo/iot_link/oc/oc_lwm2m/atiny_lwm2m\agent_lwm2m.c **** 
 786:g:/iot/IoT_Device_Demo/iot_link/oc/oc_lwm2m/atiny_lwm2m\agent_lwm2m.c ****     if (0 != ret)
 2262              		.loc 1 786 8
 2263 0176 FB6A     		ldr	r3, [r7, #44]
 2264 0178 002B     		cmp	r3, #0
 2265 017a 06D0     		beq	.L138
 787:g:/iot/IoT_Device_Demo/iot_link/oc/oc_lwm2m/atiny_lwm2m\agent_lwm2m.c ****     {
 788:g:/iot/IoT_Device_Demo/iot_link/oc/oc_lwm2m/atiny_lwm2m\agent_lwm2m.c ****         osal_free(agent);
 2266              		.loc 1 788 9
 2267 017c B86A     		ldr	r0, [r7, #40]
 2268 017e FFF7FEFF 		bl	osal_free
 789:g:/iot/IoT_Device_Demo/iot_link/oc/oc_lwm2m/atiny_lwm2m\agent_lwm2m.c ****         ret = (int ) en_oc_lwm2m_err_system;
 2269              		.loc 1 789 13
 2270 0182 0923     		movs	r3, #9
 2271 0184 FB62     		str	r3, [r7, #44]
 790:g:/iot/IoT_Device_Demo/iot_link/oc/oc_lwm2m/atiny_lwm2m\agent_lwm2m.c ****         return ret;
 2272              		.loc 1 790 16
 2273 0186 FB6A     		ldr	r3, [r7, #44]
 2274 0188 16E0     		b	.L140
 2275              	.L138:
 791:g:/iot/IoT_Device_Demo/iot_link/oc/oc_lwm2m/atiny_lwm2m\agent_lwm2m.c ****     }
 792:g:/iot/IoT_Device_Demo/iot_link/oc/oc_lwm2m/atiny_lwm2m\agent_lwm2m.c **** 
 793:g:/iot/IoT_Device_Demo/iot_link/oc/oc_lwm2m/atiny_lwm2m\agent_lwm2m.c ****     ret = lwm2m_al_connect(agent->agent_handle);
 2276              		.loc 1 793 11
 2277 018a BB6A     		ldr	r3, [r7, #40]
 2278 018c D3F88830 		ldr	r3, [r3, #136]
 2279 0190 1846     		mov	r0, r3
 2280 0192 FFF7FEFF 		bl	lwm2m_al_connect
 2281 0196 F862     		str	r0, [r7, #44]
 794:g:/iot/IoT_Device_Demo/iot_link/oc/oc_lwm2m/atiny_lwm2m\agent_lwm2m.c **** 
 795:g:/iot/IoT_Device_Demo/iot_link/oc/oc_lwm2m/atiny_lwm2m\agent_lwm2m.c ****     if ((int)ATINY_OK != ret)
 2282              		.loc 1 795 8
 2283 0198 FB6A     		ldr	r3, [r7, #44]
 2284 019a 002B     		cmp	r3, #0
 2285 019c 06D0     		beq	.L139
 796:g:/iot/IoT_Device_Demo/iot_link/oc/oc_lwm2m/atiny_lwm2m\agent_lwm2m.c ****     {
 797:g:/iot/IoT_Device_Demo/iot_link/oc/oc_lwm2m/atiny_lwm2m\agent_lwm2m.c ****         osal_free(agent);
 2286              		.loc 1 797 9
 2287 019e B86A     		ldr	r0, [r7, #40]
 2288 01a0 FFF7FEFF 		bl	osal_free
 798:g:/iot/IoT_Device_Demo/iot_link/oc/oc_lwm2m/atiny_lwm2m\agent_lwm2m.c ****         ret = (int ) en_oc_lwm2m_err_network;
ARM GAS  C:\Users\ADMINI~1\AppData\Local\Temp\ccTcVp5n.s 			page 55


 2289              		.loc 1 798 13
 2290 01a4 0223     		movs	r3, #2
 2291 01a6 FB62     		str	r3, [r7, #44]
 799:g:/iot/IoT_Device_Demo/iot_link/oc/oc_lwm2m/atiny_lwm2m\agent_lwm2m.c ****         return ret;
 2292              		.loc 1 799 16
 2293 01a8 FB6A     		ldr	r3, [r7, #44]
 2294 01aa 05E0     		b	.L140
 2295              	.L139:
 800:g:/iot/IoT_Device_Demo/iot_link/oc/oc_lwm2m/atiny_lwm2m\agent_lwm2m.c ****     }
 801:g:/iot/IoT_Device_Demo/iot_link/oc/oc_lwm2m/atiny_lwm2m\agent_lwm2m.c **** 
 802:g:/iot/IoT_Device_Demo/iot_link/oc/oc_lwm2m/atiny_lwm2m\agent_lwm2m.c ****     s_oc_lwm2m_agent = agent;
 2296              		.loc 1 802 22
 2297 01ac 044A     		ldr	r2, .L141
 2298 01ae BB6A     		ldr	r3, [r7, #40]
 2299 01b0 1360     		str	r3, [r2]
 803:g:/iot/IoT_Device_Demo/iot_link/oc/oc_lwm2m/atiny_lwm2m\agent_lwm2m.c ****     ret = (int ) en_oc_lwm2m_err_ok;
 2300              		.loc 1 803 9
 2301 01b2 0023     		movs	r3, #0
 2302 01b4 FB62     		str	r3, [r7, #44]
 804:g:/iot/IoT_Device_Demo/iot_link/oc/oc_lwm2m/atiny_lwm2m\agent_lwm2m.c **** 
 805:g:/iot/IoT_Device_Demo/iot_link/oc/oc_lwm2m/atiny_lwm2m\agent_lwm2m.c ****     return ret;
 2303              		.loc 1 805 12
 2304 01b6 FB6A     		ldr	r3, [r7, #44]
 2305              	.L140:
 806:g:/iot/IoT_Device_Demo/iot_link/oc/oc_lwm2m/atiny_lwm2m\agent_lwm2m.c **** }
 2306              		.loc 1 806 1 discriminator 1
 2307 01b8 1846     		mov	r0, r3
 2308 01ba 3037     		adds	r7, r7, #48
 2309              	.LCFI86:
 2310              		.cfi_def_cfa_offset 16
 2311 01bc BD46     		mov	sp, r7
 2312              	.LCFI87:
 2313              		.cfi_def_cfa_register 13
 2314              		@ sp needed
 2315 01be B0BD     		pop	{r4, r5, r7, pc}
 2316              	.L142:
 2317              		.align	2
 2318              	.L141:
 2319 01c0 00000000 		.word	s_oc_lwm2m_agent
 2320 01c4 34000000 		.word	.LC3
 2321 01c8 40000000 		.word	.LC4
 2322 01cc 4C000000 		.word	.LC5
 2323 01d0 00000000 		.word	agent_dealer_callback
 2324              		.cfi_endproc
 2325              	.LFE19:
 2327              		.section	.text.__agent_deconfig,"ax",%progbits
 2328              		.align	1
 2329              		.syntax unified
 2330              		.thumb
 2331              		.thumb_func
 2332              		.fpu fpv4-sp-d16
 2334              	__agent_deconfig:
 2335              	.LFB20:
 807:g:/iot/IoT_Device_Demo/iot_link/oc/oc_lwm2m/atiny_lwm2m\agent_lwm2m.c **** 
 808:g:/iot/IoT_Device_Demo/iot_link/oc/oc_lwm2m/atiny_lwm2m\agent_lwm2m.c **** static int __agent_deconfig(void)
 809:g:/iot/IoT_Device_Demo/iot_link/oc/oc_lwm2m/atiny_lwm2m\agent_lwm2m.c **** {
 2336              		.loc 1 809 1
ARM GAS  C:\Users\ADMINI~1\AppData\Local\Temp\ccTcVp5n.s 			page 56


 2337              		.cfi_startproc
 2338              		@ args = 0, pretend = 0, frame = 8
 2339              		@ frame_needed = 1, uses_anonymous_args = 0
 2340 0000 80B5     		push	{r7, lr}
 2341              	.LCFI88:
 2342              		.cfi_def_cfa_offset 8
 2343              		.cfi_offset 7, -8
 2344              		.cfi_offset 14, -4
 2345 0002 82B0     		sub	sp, sp, #8
 2346              	.LCFI89:
 2347              		.cfi_def_cfa_offset 16
 2348 0004 00AF     		add	r7, sp, #0
 2349              	.LCFI90:
 2350              		.cfi_def_cfa_register 7
 810:g:/iot/IoT_Device_Demo/iot_link/oc/oc_lwm2m/atiny_lwm2m\agent_lwm2m.c ****     int ret;
 811:g:/iot/IoT_Device_Demo/iot_link/oc/oc_lwm2m/atiny_lwm2m\agent_lwm2m.c ****     oc_lwm2m_imp_agent_t  *handle = s_oc_lwm2m_agent;
 2351              		.loc 1 811 28
 2352 0006 144B     		ldr	r3, .L146
 2353 0008 1B68     		ldr	r3, [r3]
 2354 000a 7B60     		str	r3, [r7, #4]
 812:g:/iot/IoT_Device_Demo/iot_link/oc/oc_lwm2m/atiny_lwm2m\agent_lwm2m.c **** 
 813:g:/iot/IoT_Device_Demo/iot_link/oc/oc_lwm2m/atiny_lwm2m\agent_lwm2m.c ****     if (NULL == handle)
 2355              		.loc 1 813 8
 2356 000c 7B68     		ldr	r3, [r7, #4]
 2357 000e 002B     		cmp	r3, #0
 2358 0010 03D1     		bne	.L144
 814:g:/iot/IoT_Device_Demo/iot_link/oc/oc_lwm2m/atiny_lwm2m\agent_lwm2m.c ****     {
 815:g:/iot/IoT_Device_Demo/iot_link/oc/oc_lwm2m/atiny_lwm2m\agent_lwm2m.c ****         ret = (int ) en_oc_lwm2m_err_noconfigured;
 2359              		.loc 1 815 13
 2360 0012 0423     		movs	r3, #4
 2361 0014 3B60     		str	r3, [r7]
 816:g:/iot/IoT_Device_Demo/iot_link/oc/oc_lwm2m/atiny_lwm2m\agent_lwm2m.c ****         return ret;
 2362              		.loc 1 816 16
 2363 0016 3B68     		ldr	r3, [r7]
 2364 0018 1AE0     		b	.L145
 2365              	.L144:
 817:g:/iot/IoT_Device_Demo/iot_link/oc/oc_lwm2m/atiny_lwm2m\agent_lwm2m.c ****     }
 818:g:/iot/IoT_Device_Demo/iot_link/oc/oc_lwm2m/atiny_lwm2m\agent_lwm2m.c **** 
 819:g:/iot/IoT_Device_Demo/iot_link/oc/oc_lwm2m/atiny_lwm2m\agent_lwm2m.c ****     (void)lwm2m_al_disconnect(handle->agent_handle);
 2366              		.loc 1 819 11
 2367 001a 7B68     		ldr	r3, [r7, #4]
 2368 001c D3F88830 		ldr	r3, [r3, #136]
 2369 0020 1846     		mov	r0, r3
 2370 0022 FFF7FEFF 		bl	lwm2m_al_disconnect
 820:g:/iot/IoT_Device_Demo/iot_link/oc/oc_lwm2m/atiny_lwm2m\agent_lwm2m.c ****     (void)agent_delete_object(handle->agent_handle);
 2371              		.loc 1 820 11
 2372 0026 7B68     		ldr	r3, [r7, #4]
 2373 0028 D3F88830 		ldr	r3, [r3, #136]
 2374 002c 1846     		mov	r0, r3
 2375 002e FFF7FEFF 		bl	agent_delete_object
 821:g:/iot/IoT_Device_Demo/iot_link/oc/oc_lwm2m/atiny_lwm2m\agent_lwm2m.c ****     (void)lwm2m_al_deconfig(handle->agent_handle);
 2376              		.loc 1 821 11
 2377 0032 7B68     		ldr	r3, [r7, #4]
 2378 0034 D3F88830 		ldr	r3, [r3, #136]
 2379 0038 1846     		mov	r0, r3
 2380 003a FFF7FEFF 		bl	lwm2m_al_deconfig
 822:g:/iot/IoT_Device_Demo/iot_link/oc/oc_lwm2m/atiny_lwm2m\agent_lwm2m.c ****     osal_free(handle);
ARM GAS  C:\Users\ADMINI~1\AppData\Local\Temp\ccTcVp5n.s 			page 57


 2381              		.loc 1 822 5
 2382 003e 7868     		ldr	r0, [r7, #4]
 2383 0040 FFF7FEFF 		bl	osal_free
 823:g:/iot/IoT_Device_Demo/iot_link/oc/oc_lwm2m/atiny_lwm2m\agent_lwm2m.c ****     s_oc_lwm2m_agent = NULL;
 2384              		.loc 1 823 22
 2385 0044 044B     		ldr	r3, .L146
 2386 0046 0022     		movs	r2, #0
 2387 0048 1A60     		str	r2, [r3]
 824:g:/iot/IoT_Device_Demo/iot_link/oc/oc_lwm2m/atiny_lwm2m\agent_lwm2m.c **** 
 825:g:/iot/IoT_Device_Demo/iot_link/oc/oc_lwm2m/atiny_lwm2m\agent_lwm2m.c ****     ret = (int ) en_oc_lwm2m_err_ok;
 2388              		.loc 1 825 9
 2389 004a 0023     		movs	r3, #0
 2390 004c 3B60     		str	r3, [r7]
 826:g:/iot/IoT_Device_Demo/iot_link/oc/oc_lwm2m/atiny_lwm2m\agent_lwm2m.c ****     return ret;
 2391              		.loc 1 826 12
 2392 004e 3B68     		ldr	r3, [r7]
 2393              	.L145:
 827:g:/iot/IoT_Device_Demo/iot_link/oc/oc_lwm2m/atiny_lwm2m\agent_lwm2m.c **** }
 2394              		.loc 1 827 1
 2395 0050 1846     		mov	r0, r3
 2396 0052 0837     		adds	r7, r7, #8
 2397              	.LCFI91:
 2398              		.cfi_def_cfa_offset 8
 2399 0054 BD46     		mov	sp, r7
 2400              	.LCFI92:
 2401              		.cfi_def_cfa_register 13
 2402              		@ sp needed
 2403 0056 80BD     		pop	{r7, pc}
 2404              	.L147:
 2405              		.align	2
 2406              	.L146:
 2407 0058 00000000 		.word	s_oc_lwm2m_agent
 2408              		.cfi_endproc
 2409              	.LFE20:
 2411              		.section	.text.__agent_report,"ax",%progbits
 2412              		.align	1
 2413              		.syntax unified
 2414              		.thumb
 2415              		.thumb_func
 2416              		.fpu fpv4-sp-d16
 2418              	__agent_report:
 2419              	.LFB21:
 828:g:/iot/IoT_Device_Demo/iot_link/oc/oc_lwm2m/atiny_lwm2m\agent_lwm2m.c **** 
 829:g:/iot/IoT_Device_Demo/iot_link/oc/oc_lwm2m/atiny_lwm2m\agent_lwm2m.c **** static int __agent_report(char *msg, int len, int timeout)
 830:g:/iot/IoT_Device_Demo/iot_link/oc/oc_lwm2m/atiny_lwm2m\agent_lwm2m.c **** {
 2420              		.loc 1 830 1
 2421              		.cfi_startproc
 2422              		@ args = 0, pretend = 0, frame = 48
 2423              		@ frame_needed = 1, uses_anonymous_args = 0
 2424 0000 80B5     		push	{r7, lr}
 2425              	.LCFI93:
 2426              		.cfi_def_cfa_offset 8
 2427              		.cfi_offset 7, -8
 2428              		.cfi_offset 14, -4
 2429 0002 8CB0     		sub	sp, sp, #48
 2430              	.LCFI94:
 2431              		.cfi_def_cfa_offset 56
ARM GAS  C:\Users\ADMINI~1\AppData\Local\Temp\ccTcVp5n.s 			page 58


 2432 0004 00AF     		add	r7, sp, #0
 2433              	.LCFI95:
 2434              		.cfi_def_cfa_register 7
 2435 0006 F860     		str	r0, [r7, #12]
 2436 0008 B960     		str	r1, [r7, #8]
 2437 000a 7A60     		str	r2, [r7, #4]
 831:g:/iot/IoT_Device_Demo/iot_link/oc/oc_lwm2m/atiny_lwm2m\agent_lwm2m.c ****     int ret = (int ) en_oc_lwm2m_err_noconfigured;
 2438              		.loc 1 831 9
 2439 000c 0423     		movs	r3, #4
 2440 000e FB62     		str	r3, [r7, #44]
 832:g:/iot/IoT_Device_Demo/iot_link/oc/oc_lwm2m/atiny_lwm2m\agent_lwm2m.c ****     lwm2m_al_send_param_t send_param;
 833:g:/iot/IoT_Device_Demo/iot_link/oc/oc_lwm2m/atiny_lwm2m\agent_lwm2m.c **** 
 834:g:/iot/IoT_Device_Demo/iot_link/oc/oc_lwm2m/atiny_lwm2m\agent_lwm2m.c ****     if(NULL != s_oc_lwm2m_agent)
 2441              		.loc 1 834 13
 2442 0010 124B     		ldr	r3, .L152
 2443 0012 1B68     		ldr	r3, [r3]
 2444              		.loc 1 834 7
 2445 0014 002B     		cmp	r3, #0
 2446 0016 1BD0     		beq	.L149
 835:g:/iot/IoT_Device_Demo/iot_link/oc/oc_lwm2m/atiny_lwm2m\agent_lwm2m.c ****     {
 836:g:/iot/IoT_Device_Demo/iot_link/oc/oc_lwm2m/atiny_lwm2m\agent_lwm2m.c ****         send_param.data = (uint8_t *)msg;
 2447              		.loc 1 836 25
 2448 0018 FB68     		ldr	r3, [r7, #12]
 2449 001a 3B62     		str	r3, [r7, #32]
 837:g:/iot/IoT_Device_Demo/iot_link/oc/oc_lwm2m/atiny_lwm2m\agent_lwm2m.c ****         send_param.length = len;
 2450              		.loc 1 837 27
 2451 001c BB68     		ldr	r3, [r7, #8]
 2452 001e 7B62     		str	r3, [r7, #36]
 838:g:/iot/IoT_Device_Demo/iot_link/oc/oc_lwm2m/atiny_lwm2m\agent_lwm2m.c ****         send_param.mode = MSG_NEED_CONFIRMED;
 2453              		.loc 1 838 25
 2454 0020 0123     		movs	r3, #1
 2455 0022 BB62     		str	r3, [r7, #40]
 839:g:/iot/IoT_Device_Demo/iot_link/oc/oc_lwm2m/atiny_lwm2m\agent_lwm2m.c ****         send_param.object_id = (int) OBJ_APP_DATA_ID;
 2456              		.loc 1 839 30
 2457 0024 1323     		movs	r3, #19
 2458 0026 7B61     		str	r3, [r7, #20]
 840:g:/iot/IoT_Device_Demo/iot_link/oc/oc_lwm2m/atiny_lwm2m\agent_lwm2m.c ****         send_param.object_instance_id = 0;
 2459              		.loc 1 840 39
 2460 0028 0023     		movs	r3, #0
 2461 002a BB61     		str	r3, [r7, #24]
 841:g:/iot/IoT_Device_Demo/iot_link/oc/oc_lwm2m/atiny_lwm2m\agent_lwm2m.c ****         send_param.resource_id = BINARY_APP_DATA_RES_ID;
 2462              		.loc 1 841 32
 2463 002c 0023     		movs	r3, #0
 2464 002e FB61     		str	r3, [r7, #28]
 842:g:/iot/IoT_Device_Demo/iot_link/oc/oc_lwm2m/atiny_lwm2m\agent_lwm2m.c **** 
 843:g:/iot/IoT_Device_Demo/iot_link/oc/oc_lwm2m/atiny_lwm2m\agent_lwm2m.c ****         if(0 == lwm2m_al_send(s_oc_lwm2m_agent,&send_param))
 2465              		.loc 1 843 17
 2466 0030 0A4B     		ldr	r3, .L152
 2467 0032 1B68     		ldr	r3, [r3]
 2468 0034 07F11402 		add	r2, r7, #20
 2469 0038 1146     		mov	r1, r2
 2470 003a 1846     		mov	r0, r3
 2471 003c FFF7FEFF 		bl	lwm2m_al_send
 2472 0040 0346     		mov	r3, r0
 2473              		.loc 1 843 11
 2474 0042 002B     		cmp	r3, #0
 2475 0044 02D1     		bne	.L150
ARM GAS  C:\Users\ADMINI~1\AppData\Local\Temp\ccTcVp5n.s 			page 59


 844:g:/iot/IoT_Device_Demo/iot_link/oc/oc_lwm2m/atiny_lwm2m\agent_lwm2m.c ****         {
 845:g:/iot/IoT_Device_Demo/iot_link/oc/oc_lwm2m/atiny_lwm2m\agent_lwm2m.c ****             ret = (int ) en_oc_lwm2m_err_ok;
 2476              		.loc 1 845 17
 2477 0046 0023     		movs	r3, #0
 2478 0048 FB62     		str	r3, [r7, #44]
 2479 004a 01E0     		b	.L149
 2480              	.L150:
 846:g:/iot/IoT_Device_Demo/iot_link/oc/oc_lwm2m/atiny_lwm2m\agent_lwm2m.c ****         }
 847:g:/iot/IoT_Device_Demo/iot_link/oc/oc_lwm2m/atiny_lwm2m\agent_lwm2m.c ****         else
 848:g:/iot/IoT_Device_Demo/iot_link/oc/oc_lwm2m/atiny_lwm2m\agent_lwm2m.c ****         {
 849:g:/iot/IoT_Device_Demo/iot_link/oc/oc_lwm2m/atiny_lwm2m\agent_lwm2m.c ****             ret  = (int ) en_oc_lwm2m_err_network;
 2481              		.loc 1 849 18
 2482 004c 0223     		movs	r3, #2
 2483 004e FB62     		str	r3, [r7, #44]
 2484              	.L149:
 850:g:/iot/IoT_Device_Demo/iot_link/oc/oc_lwm2m/atiny_lwm2m\agent_lwm2m.c ****         }
 851:g:/iot/IoT_Device_Demo/iot_link/oc/oc_lwm2m/atiny_lwm2m\agent_lwm2m.c ****     }
 852:g:/iot/IoT_Device_Demo/iot_link/oc/oc_lwm2m/atiny_lwm2m\agent_lwm2m.c **** 
 853:g:/iot/IoT_Device_Demo/iot_link/oc/oc_lwm2m/atiny_lwm2m\agent_lwm2m.c ****     return ret;
 2485              		.loc 1 853 12
 2486 0050 FB6A     		ldr	r3, [r7, #44]
 854:g:/iot/IoT_Device_Demo/iot_link/oc/oc_lwm2m/atiny_lwm2m\agent_lwm2m.c **** 
 855:g:/iot/IoT_Device_Demo/iot_link/oc/oc_lwm2m/atiny_lwm2m\agent_lwm2m.c **** }
 2487              		.loc 1 855 1
 2488 0052 1846     		mov	r0, r3
 2489 0054 3037     		adds	r7, r7, #48
 2490              	.LCFI96:
 2491              		.cfi_def_cfa_offset 8
 2492 0056 BD46     		mov	sp, r7
 2493              	.LCFI97:
 2494              		.cfi_def_cfa_register 13
 2495              		@ sp needed
 2496 0058 80BD     		pop	{r7, pc}
 2497              	.L153:
 2498 005a 00BF     		.align	2
 2499              	.L152:
 2500 005c 00000000 		.word	s_oc_lwm2m_agent
 2501              		.cfi_endproc
 2502              	.LFE21:
 2504              		.global	s_oc_lwm2m_agent_opt
 2505              		.section	.rodata.s_oc_lwm2m_agent_opt,"a"
 2506              		.align	2
 2509              	s_oc_lwm2m_agent_opt:
 2510 0000 00000000 		.word	__agent_config
 2511 0004 00000000 		.word	__agent_report
 2512 0008 00000000 		.word	__agent_deconfig
 2513              		.section	.rodata
 2514 004f 00       		.align	2
 2515              	.LC6:
 2516 0050 6F635F6C 		.ascii	"oc_lwm2m_agent\000"
 2516      776D326D 
 2516      5F616765 
 2516      6E7400
 2517              		.section	.text.oc_lwm2m_imp_init,"ax",%progbits
 2518              		.align	1
 2519              		.global	oc_lwm2m_imp_init
 2520              		.syntax unified
ARM GAS  C:\Users\ADMINI~1\AppData\Local\Temp\ccTcVp5n.s 			page 60


 2521              		.thumb
 2522              		.thumb_func
 2523              		.fpu fpv4-sp-d16
 2525              	oc_lwm2m_imp_init:
 2526              	.LFB22:
 856:g:/iot/IoT_Device_Demo/iot_link/oc/oc_lwm2m/atiny_lwm2m\agent_lwm2m.c **** 
 857:g:/iot/IoT_Device_Demo/iot_link/oc/oc_lwm2m/atiny_lwm2m\agent_lwm2m.c **** const oc_lwm2m_opt_t  s_oc_lwm2m_agent_opt = \
 858:g:/iot/IoT_Device_Demo/iot_link/oc/oc_lwm2m/atiny_lwm2m\agent_lwm2m.c **** {
 859:g:/iot/IoT_Device_Demo/iot_link/oc/oc_lwm2m/atiny_lwm2m\agent_lwm2m.c ****     .config = __agent_config,
 860:g:/iot/IoT_Device_Demo/iot_link/oc/oc_lwm2m/atiny_lwm2m\agent_lwm2m.c ****     .deconfig = __agent_deconfig,
 861:g:/iot/IoT_Device_Demo/iot_link/oc/oc_lwm2m/atiny_lwm2m\agent_lwm2m.c ****     .report = __agent_report,
 862:g:/iot/IoT_Device_Demo/iot_link/oc/oc_lwm2m/atiny_lwm2m\agent_lwm2m.c **** };
 863:g:/iot/IoT_Device_Demo/iot_link/oc/oc_lwm2m/atiny_lwm2m\agent_lwm2m.c **** 
 864:g:/iot/IoT_Device_Demo/iot_link/oc/oc_lwm2m/atiny_lwm2m\agent_lwm2m.c **** int oc_lwm2m_imp_init()
 865:g:/iot/IoT_Device_Demo/iot_link/oc/oc_lwm2m/atiny_lwm2m\agent_lwm2m.c **** {
 2527              		.loc 1 865 1
 2528              		.cfi_startproc
 2529              		@ args = 0, pretend = 0, frame = 8
 2530              		@ frame_needed = 1, uses_anonymous_args = 0
 2531 0000 80B5     		push	{r7, lr}
 2532              	.LCFI98:
 2533              		.cfi_def_cfa_offset 8
 2534              		.cfi_offset 7, -8
 2535              		.cfi_offset 14, -4
 2536 0002 82B0     		sub	sp, sp, #8
 2537              	.LCFI99:
 2538              		.cfi_def_cfa_offset 16
 2539 0004 00AF     		add	r7, sp, #0
 2540              	.LCFI100:
 2541              		.cfi_def_cfa_register 7
 866:g:/iot/IoT_Device_Demo/iot_link/oc/oc_lwm2m/atiny_lwm2m\agent_lwm2m.c ****     int ret = -1;
 2542              		.loc 1 866 9
 2543 0006 4FF0FF33 		mov	r3, #-1
 2544 000a 7B60     		str	r3, [r7, #4]
 867:g:/iot/IoT_Device_Demo/iot_link/oc/oc_lwm2m/atiny_lwm2m\agent_lwm2m.c ****     ret = oc_lwm2m_register("oc_lwm2m_agent", &s_oc_lwm2m_agent_opt);
 2545              		.loc 1 867 11
 2546 000c 0449     		ldr	r1, .L156
 2547 000e 0548     		ldr	r0, .L156+4
 2548 0010 FFF7FEFF 		bl	oc_lwm2m_register
 2549 0014 7860     		str	r0, [r7, #4]
 868:g:/iot/IoT_Device_Demo/iot_link/oc/oc_lwm2m/atiny_lwm2m\agent_lwm2m.c ****     return ret;
 2550              		.loc 1 868 12
 2551 0016 7B68     		ldr	r3, [r7, #4]
 869:g:/iot/IoT_Device_Demo/iot_link/oc/oc_lwm2m/atiny_lwm2m\agent_lwm2m.c **** }
 2552              		.loc 1 869 1
 2553 0018 1846     		mov	r0, r3
 2554 001a 0837     		adds	r7, r7, #8
 2555              	.LCFI101:
 2556              		.cfi_def_cfa_offset 8
 2557 001c BD46     		mov	sp, r7
 2558              	.LCFI102:
 2559              		.cfi_def_cfa_register 13
 2560              		@ sp needed
 2561 001e 80BD     		pop	{r7, pc}
 2562              	.L157:
 2563              		.align	2
 2564              	.L156:
ARM GAS  C:\Users\ADMINI~1\AppData\Local\Temp\ccTcVp5n.s 			page 61


 2565 0020 00000000 		.word	s_oc_lwm2m_agent_opt
 2566 0024 50000000 		.word	.LC6
 2567              		.cfi_endproc
 2568              	.LFE22:
 2570              		.section	.rodata.__FUNCTION__.7178,"a"
 2571              		.align	2
 2574              	__FUNCTION__.7178:
 2575 0000 6167656E 		.ascii	"agent_dealer_callback\000"
 2575      745F6465 
 2575      616C6572 
 2575      5F63616C 
 2575      6C626163 
 2576              		.text
 2577              	.Letext0:
 2578              		.file 2 "g:\\iot\\.huawei-liteos-studio\\tools\\arm-none-eabi\\arm-none-eabi\\include\\machine\\_d
 2579              		.file 3 "g:\\iot\\.huawei-liteos-studio\\tools\\arm-none-eabi\\arm-none-eabi\\include\\sys\\_stdin
 2580              		.file 4 "g:\\iot\\.huawei-liteos-studio\\tools\\arm-none-eabi\\arm-none-eabi\\include\\sys\\lock.h
 2581              		.file 5 "g:\\iot\\.huawei-liteos-studio\\tools\\arm-none-eabi\\arm-none-eabi\\include\\sys\\_types
 2582              		.file 6 "g:\\iot\\.huawei-liteos-studio\\tools\\arm-none-eabi\\lib\\gcc\\arm-none-eabi\\9.2.1\\inc
 2583              		.file 7 "g:\\iot\\.huawei-liteos-studio\\tools\\arm-none-eabi\\arm-none-eabi\\include\\sys\\reent.
 2584              		.file 8 "g:/iot/IoT_Device_Demo/iot_link/inc/link_log.h"
 2585              		.file 9 "g:/iot/IoT_Device_Demo/iot_link/network/lwm2m/lwm2m_al/lwm2m_al.h"
 2586              		.file 10 "g:/iot/IoT_Device_Demo/iot_link/oc/oc_lwm2m/oc_lwm2m_al/oc_lwm2m_al.h"
ARM GAS  C:\Users\ADMINI~1\AppData\Local\Temp\ccTcVp5n.s 			page 62

