ARM GAS  C:\Users\ADMINI~1\AppData\Local\Temp\ccO7A1oC.s 			page 1


   1              		.cpu cortex-m4
   2              		.eabi_attribute 27, 1
   3              		.eabi_attribute 28, 1
   4              		.eabi_attribute 20, 1
   5              		.eabi_attribute 21, 1
   6              		.eabi_attribute 23, 3
   7              		.eabi_attribute 24, 1
   8              		.eabi_attribute 25, 1
   9              		.eabi_attribute 26, 1
  10              		.eabi_attribute 30, 6
  11              		.eabi_attribute 34, 1
  12              		.eabi_attribute 18, 4
  13              		.file	"data.c"
  14              		.text
  15              	.Ltext0:
  16              		.cfi_sections	.debug_frame
  17              		.section	.text.dm_isUriOpaqueHandle,"ax",%progbits
  18              		.align	1
  19              		.arch armv7e-m
  20              		.syntax unified
  21              		.thumb
  22              		.thumb_func
  23              		.fpu fpv4-sp-d16
  25              	dm_isUriOpaqueHandle:
  26              	.LFB3:
  27              		.file 1 "g:/iot/IoT_Device_Demo/iot_link/network/lwm2m/wakaama_lwm2m/wakaama-master/core/internals
   1:g:/iot/IoT_Device_Demo/iot_link/network/lwm2m/wakaama_lwm2m/wakaama-master/core\internals.h **** /*----------------------------------------------------------------------------
   2:g:/iot/IoT_Device_Demo/iot_link/network/lwm2m/wakaama_lwm2m/wakaama-master/core\internals.h ****  * Copyright (c) <2016-2018>, <Huawei Technologies Co., Ltd>
   3:g:/iot/IoT_Device_Demo/iot_link/network/lwm2m/wakaama_lwm2m/wakaama-master/core\internals.h ****  * All rights reserved.
   4:g:/iot/IoT_Device_Demo/iot_link/network/lwm2m/wakaama_lwm2m/wakaama-master/core\internals.h ****  * Redistribution and use in source and binary forms, with or without modification,
   5:g:/iot/IoT_Device_Demo/iot_link/network/lwm2m/wakaama_lwm2m/wakaama-master/core\internals.h ****  * are permitted provided that the following conditions are met:
   6:g:/iot/IoT_Device_Demo/iot_link/network/lwm2m/wakaama_lwm2m/wakaama-master/core\internals.h ****  * 1. Redistributions of source code must retain the above copyright notice, this list of
   7:g:/iot/IoT_Device_Demo/iot_link/network/lwm2m/wakaama_lwm2m/wakaama-master/core\internals.h ****  * conditions and the following disclaimer.
   8:g:/iot/IoT_Device_Demo/iot_link/network/lwm2m/wakaama_lwm2m/wakaama-master/core\internals.h ****  * 2. Redistributions in binary form must reproduce the above copyright notice, this list
   9:g:/iot/IoT_Device_Demo/iot_link/network/lwm2m/wakaama_lwm2m/wakaama-master/core\internals.h ****  * of conditions and the following disclaimer in the documentation and/or other materials
  10:g:/iot/IoT_Device_Demo/iot_link/network/lwm2m/wakaama_lwm2m/wakaama-master/core\internals.h ****  * provided with the distribution.
  11:g:/iot/IoT_Device_Demo/iot_link/network/lwm2m/wakaama_lwm2m/wakaama-master/core\internals.h ****  * 3. Neither the name of the copyright holder nor the names of its contributors may be used
  12:g:/iot/IoT_Device_Demo/iot_link/network/lwm2m/wakaama_lwm2m/wakaama-master/core\internals.h ****  * to endorse or promote products derived from this software without specific prior written
  13:g:/iot/IoT_Device_Demo/iot_link/network/lwm2m/wakaama_lwm2m/wakaama-master/core\internals.h ****  * permission.
  14:g:/iot/IoT_Device_Demo/iot_link/network/lwm2m/wakaama_lwm2m/wakaama-master/core\internals.h ****  * THIS SOFTWARE IS PROVIDED BY THE COPYRIGHT HOLDERS AND CONTRIBUTORS
  15:g:/iot/IoT_Device_Demo/iot_link/network/lwm2m/wakaama_lwm2m/wakaama-master/core\internals.h ****  * "AS IS" AND ANY EXPRESS OR IMPLIED WARRANTIES, INCLUDING, BUT NOT LIMITED TO,
  16:g:/iot/IoT_Device_Demo/iot_link/network/lwm2m/wakaama_lwm2m/wakaama-master/core\internals.h ****  * THE IMPLIED WARRANTIES OF MERCHANTABILITY AND FITNESS FOR A PARTICULAR
  17:g:/iot/IoT_Device_Demo/iot_link/network/lwm2m/wakaama_lwm2m/wakaama-master/core\internals.h ****  * PURPOSE ARE DISCLAIMED. IN NO EVENT SHALL THE COPYRIGHT HOLDER OR
  18:g:/iot/IoT_Device_Demo/iot_link/network/lwm2m/wakaama_lwm2m/wakaama-master/core\internals.h ****  * CONTRIBUTORS BE LIABLE FOR ANY DIRECT, INDIRECT, INCIDENTAL, SPECIAL,
  19:g:/iot/IoT_Device_Demo/iot_link/network/lwm2m/wakaama_lwm2m/wakaama-master/core\internals.h ****  * EXEMPLARY, OR CONSEQUENTIAL DAMAGES (INCLUDING, BUT NOT LIMITED TO,
  20:g:/iot/IoT_Device_Demo/iot_link/network/lwm2m/wakaama_lwm2m/wakaama-master/core\internals.h ****  * PROCUREMENT OF SUBSTITUTE GOODS OR SERVICES; LOSS OF USE, DATA, OR PROFITS;
  21:g:/iot/IoT_Device_Demo/iot_link/network/lwm2m/wakaama_lwm2m/wakaama-master/core\internals.h ****  * OR BUSINESS INTERRUPTION) HOWEVER CAUSED AND ON ANY THEORY OF LIABILITY,
  22:g:/iot/IoT_Device_Demo/iot_link/network/lwm2m/wakaama_lwm2m/wakaama-master/core\internals.h ****  * WHETHER IN CONTRACT, STRICT LIABILITY, OR TORT (INCLUDING NEGLIGENCE OR
  23:g:/iot/IoT_Device_Demo/iot_link/network/lwm2m/wakaama_lwm2m/wakaama-master/core\internals.h ****  * OTHERWISE) ARISING IN ANY WAY OUT OF THE USE OF THIS SOFTWARE, EVEN IF
  24:g:/iot/IoT_Device_Demo/iot_link/network/lwm2m/wakaama_lwm2m/wakaama-master/core\internals.h ****  * ADVISED OF THE POSSIBILITY OF SUCH DAMAGE.
  25:g:/iot/IoT_Device_Demo/iot_link/network/lwm2m/wakaama_lwm2m/wakaama-master/core\internals.h ****  *---------------------------------------------------------------------------*/
  26:g:/iot/IoT_Device_Demo/iot_link/network/lwm2m/wakaama_lwm2m/wakaama-master/core\internals.h **** /*----------------------------------------------------------------------------
  27:g:/iot/IoT_Device_Demo/iot_link/network/lwm2m/wakaama_lwm2m/wakaama-master/core\internals.h ****  * Notice of Export Control Law
  28:g:/iot/IoT_Device_Demo/iot_link/network/lwm2m/wakaama_lwm2m/wakaama-master/core\internals.h ****  * ===============================================
  29:g:/iot/IoT_Device_Demo/iot_link/network/lwm2m/wakaama_lwm2m/wakaama-master/core\internals.h ****  * Huawei LiteOS may be subject to applicable export control laws and regulations, which might
  30:g:/iot/IoT_Device_Demo/iot_link/network/lwm2m/wakaama_lwm2m/wakaama-master/core\internals.h ****  * include those applicable to Huawei LiteOS of U.S. and the country in which you are located.
  31:g:/iot/IoT_Device_Demo/iot_link/network/lwm2m/wakaama_lwm2m/wakaama-master/core\internals.h ****  * Import, export and usage of Huawei LiteOS in any manner by you shall be in compliance with such
ARM GAS  C:\Users\ADMINI~1\AppData\Local\Temp\ccO7A1oC.s 			page 2


  32:g:/iot/IoT_Device_Demo/iot_link/network/lwm2m/wakaama_lwm2m/wakaama-master/core\internals.h ****  * applicable export control laws and regulations.
  33:g:/iot/IoT_Device_Demo/iot_link/network/lwm2m/wakaama_lwm2m/wakaama-master/core\internals.h ****  *---------------------------------------------------------------------------*/
  34:g:/iot/IoT_Device_Demo/iot_link/network/lwm2m/wakaama_lwm2m/wakaama-master/core\internals.h **** 
  35:g:/iot/IoT_Device_Demo/iot_link/network/lwm2m/wakaama_lwm2m/wakaama-master/core\internals.h **** /*******************************************************************************
  36:g:/iot/IoT_Device_Demo/iot_link/network/lwm2m/wakaama_lwm2m/wakaama-master/core\internals.h ****  *
  37:g:/iot/IoT_Device_Demo/iot_link/network/lwm2m/wakaama_lwm2m/wakaama-master/core\internals.h ****  * Copyright (c) 2013, 2014 Intel Corporation and others.
  38:g:/iot/IoT_Device_Demo/iot_link/network/lwm2m/wakaama_lwm2m/wakaama-master/core\internals.h ****  * All rights reserved. This program and the accompanying materials
  39:g:/iot/IoT_Device_Demo/iot_link/network/lwm2m/wakaama_lwm2m/wakaama-master/core\internals.h ****  * are made available under the terms of the Eclipse Public License v1.0
  40:g:/iot/IoT_Device_Demo/iot_link/network/lwm2m/wakaama_lwm2m/wakaama-master/core\internals.h ****  * and Eclipse Distribution License v1.0 which accompany this distribution.
  41:g:/iot/IoT_Device_Demo/iot_link/network/lwm2m/wakaama_lwm2m/wakaama-master/core\internals.h ****  *
  42:g:/iot/IoT_Device_Demo/iot_link/network/lwm2m/wakaama_lwm2m/wakaama-master/core\internals.h ****  * The Eclipse Public License is available at
  43:g:/iot/IoT_Device_Demo/iot_link/network/lwm2m/wakaama_lwm2m/wakaama-master/core\internals.h ****  *    http://www.eclipse.org/legal/epl-v10.html
  44:g:/iot/IoT_Device_Demo/iot_link/network/lwm2m/wakaama_lwm2m/wakaama-master/core\internals.h ****  * The Eclipse Distribution License is available at
  45:g:/iot/IoT_Device_Demo/iot_link/network/lwm2m/wakaama_lwm2m/wakaama-master/core\internals.h ****  *    http://www.eclipse.org/org/documents/edl-v10.php.
  46:g:/iot/IoT_Device_Demo/iot_link/network/lwm2m/wakaama_lwm2m/wakaama-master/core\internals.h ****  *
  47:g:/iot/IoT_Device_Demo/iot_link/network/lwm2m/wakaama_lwm2m/wakaama-master/core\internals.h ****  * Contributors:
  48:g:/iot/IoT_Device_Demo/iot_link/network/lwm2m/wakaama_lwm2m/wakaama-master/core\internals.h ****  *    David Navarro, Intel Corporation - initial API and implementation
  49:g:/iot/IoT_Device_Demo/iot_link/network/lwm2m/wakaama_lwm2m/wakaama-master/core\internals.h ****  *    Fabien Fleutot - Please refer to git log
  50:g:/iot/IoT_Device_Demo/iot_link/network/lwm2m/wakaama_lwm2m/wakaama-master/core\internals.h ****  *    Toby Jaffey - Please refer to git log
  51:g:/iot/IoT_Device_Demo/iot_link/network/lwm2m/wakaama_lwm2m/wakaama-master/core\internals.h ****  *    Bosch Software Innovations GmbH - Please refer to git log
  52:g:/iot/IoT_Device_Demo/iot_link/network/lwm2m/wakaama_lwm2m/wakaama-master/core\internals.h ****  *    Pascal Rieux - Please refer to git log
  53:g:/iot/IoT_Device_Demo/iot_link/network/lwm2m/wakaama_lwm2m/wakaama-master/core\internals.h ****  *    Scott Bertin - Please refer to git log
  54:g:/iot/IoT_Device_Demo/iot_link/network/lwm2m/wakaama_lwm2m/wakaama-master/core\internals.h ****  *
  55:g:/iot/IoT_Device_Demo/iot_link/network/lwm2m/wakaama_lwm2m/wakaama-master/core\internals.h ****  *******************************************************************************/
  56:g:/iot/IoT_Device_Demo/iot_link/network/lwm2m/wakaama_lwm2m/wakaama-master/core\internals.h **** /*
  57:g:/iot/IoT_Device_Demo/iot_link/network/lwm2m/wakaama_lwm2m/wakaama-master/core\internals.h ****  Copyright (c) 2013, 2014 Intel Corporation
  58:g:/iot/IoT_Device_Demo/iot_link/network/lwm2m/wakaama_lwm2m/wakaama-master/core\internals.h **** 
  59:g:/iot/IoT_Device_Demo/iot_link/network/lwm2m/wakaama_lwm2m/wakaama-master/core\internals.h ****  Redistribution and use in source and binary forms, with or without modification,
  60:g:/iot/IoT_Device_Demo/iot_link/network/lwm2m/wakaama_lwm2m/wakaama-master/core\internals.h ****  are permitted provided that the following conditions are met:
  61:g:/iot/IoT_Device_Demo/iot_link/network/lwm2m/wakaama_lwm2m/wakaama-master/core\internals.h **** 
  62:g:/iot/IoT_Device_Demo/iot_link/network/lwm2m/wakaama_lwm2m/wakaama-master/core\internals.h ****      * Redistributions of source code must retain the above copyright notice,
  63:g:/iot/IoT_Device_Demo/iot_link/network/lwm2m/wakaama_lwm2m/wakaama-master/core\internals.h ****        this list of conditions and the following disclaimer.
  64:g:/iot/IoT_Device_Demo/iot_link/network/lwm2m/wakaama_lwm2m/wakaama-master/core\internals.h ****      * Redistributions in binary form must reproduce the above copyright notice,
  65:g:/iot/IoT_Device_Demo/iot_link/network/lwm2m/wakaama_lwm2m/wakaama-master/core\internals.h ****        this list of conditions and the following disclaimer in the documentation
  66:g:/iot/IoT_Device_Demo/iot_link/network/lwm2m/wakaama_lwm2m/wakaama-master/core\internals.h ****        and/or other materials provided with the distribution.
  67:g:/iot/IoT_Device_Demo/iot_link/network/lwm2m/wakaama_lwm2m/wakaama-master/core\internals.h ****      * Neither the name of Intel Corporation nor the names of its contributors
  68:g:/iot/IoT_Device_Demo/iot_link/network/lwm2m/wakaama_lwm2m/wakaama-master/core\internals.h ****        may be used to endorse or promote products derived from this software
  69:g:/iot/IoT_Device_Demo/iot_link/network/lwm2m/wakaama_lwm2m/wakaama-master/core\internals.h ****        without specific prior written permission.
  70:g:/iot/IoT_Device_Demo/iot_link/network/lwm2m/wakaama_lwm2m/wakaama-master/core\internals.h **** 
  71:g:/iot/IoT_Device_Demo/iot_link/network/lwm2m/wakaama_lwm2m/wakaama-master/core\internals.h ****  THIS SOFTWARE IS PROVIDED BY THE COPYRIGHT HOLDERS AND CONTRIBUTORS "AS IS" AND
  72:g:/iot/IoT_Device_Demo/iot_link/network/lwm2m/wakaama_lwm2m/wakaama-master/core\internals.h ****  ANY EXPRESS OR IMPLIED WARRANTIES, INCLUDING, BUT NOT LIMITED TO, THE IMPLIED
  73:g:/iot/IoT_Device_Demo/iot_link/network/lwm2m/wakaama_lwm2m/wakaama-master/core\internals.h ****  WARRANTIES OF MERCHANTABILITY AND FITNESS FOR A PARTICULAR PURPOSE ARE DISCLAIMED.
  74:g:/iot/IoT_Device_Demo/iot_link/network/lwm2m/wakaama_lwm2m/wakaama-master/core\internals.h ****  IN NO EVENT SHALL THE COPYRIGHT OWNER OR CONTRIBUTORS BE LIABLE FOR ANY DIRECT,
  75:g:/iot/IoT_Device_Demo/iot_link/network/lwm2m/wakaama_lwm2m/wakaama-master/core\internals.h ****  INDIRECT, INCIDENTAL, SPECIAL, EXEMPLARY, OR CONSEQUENTIAL DAMAGES (INCLUDING,
  76:g:/iot/IoT_Device_Demo/iot_link/network/lwm2m/wakaama_lwm2m/wakaama-master/core\internals.h ****  BUT NOT LIMITED TO, PROCUREMENT OF SUBSTITUTE GOODS OR SERVICES; LOSS OF USE,
  77:g:/iot/IoT_Device_Demo/iot_link/network/lwm2m/wakaama_lwm2m/wakaama-master/core\internals.h ****  DATA, OR PROFITS; OR BUSINESS INTERRUPTION) HOWEVER CAUSED AND ON ANY THEORY OF
  78:g:/iot/IoT_Device_Demo/iot_link/network/lwm2m/wakaama_lwm2m/wakaama-master/core\internals.h ****  LIABILITY, WHETHER IN CONTRACT, STRICT LIABILITY, OR TORT (INCLUDING NEGLIGENCE OR
  79:g:/iot/IoT_Device_Demo/iot_link/network/lwm2m/wakaama_lwm2m/wakaama-master/core\internals.h ****  OTHERWISE) ARISING IN ANY WAY OUT OF THE USE OF THIS SOFTWARE, EVEN IF ADVISED OF
  80:g:/iot/IoT_Device_Demo/iot_link/network/lwm2m/wakaama_lwm2m/wakaama-master/core\internals.h ****  THE POSSIBILITY OF SUCH DAMAGE.
  81:g:/iot/IoT_Device_Demo/iot_link/network/lwm2m/wakaama_lwm2m/wakaama-master/core\internals.h **** 
  82:g:/iot/IoT_Device_Demo/iot_link/network/lwm2m/wakaama_lwm2m/wakaama-master/core\internals.h ****  David Navarro <david.navarro@intel.com>
  83:g:/iot/IoT_Device_Demo/iot_link/network/lwm2m/wakaama_lwm2m/wakaama-master/core\internals.h **** 
  84:g:/iot/IoT_Device_Demo/iot_link/network/lwm2m/wakaama_lwm2m/wakaama-master/core\internals.h **** */
  85:g:/iot/IoT_Device_Demo/iot_link/network/lwm2m/wakaama_lwm2m/wakaama-master/core\internals.h **** 
  86:g:/iot/IoT_Device_Demo/iot_link/network/lwm2m/wakaama_lwm2m/wakaama-master/core\internals.h **** #ifndef _LWM2M_INTERNALS_H_
  87:g:/iot/IoT_Device_Demo/iot_link/network/lwm2m/wakaama_lwm2m/wakaama-master/core\internals.h **** #define _LWM2M_INTERNALS_H_
  88:g:/iot/IoT_Device_Demo/iot_link/network/lwm2m/wakaama_lwm2m/wakaama-master/core\internals.h **** 
ARM GAS  C:\Users\ADMINI~1\AppData\Local\Temp\ccO7A1oC.s 			page 3


  89:g:/iot/IoT_Device_Demo/iot_link/network/lwm2m/wakaama_lwm2m/wakaama-master/core\internals.h **** #include "liblwm2m.h"
  90:g:/iot/IoT_Device_Demo/iot_link/network/lwm2m/wakaama_lwm2m/wakaama-master/core\internals.h **** 
  91:g:/iot/IoT_Device_Demo/iot_link/network/lwm2m/wakaama_lwm2m/wakaama-master/core\internals.h **** #include <stdlib.h>
  92:g:/iot/IoT_Device_Demo/iot_link/network/lwm2m/wakaama_lwm2m/wakaama-master/core\internals.h **** #include <string.h>
  93:g:/iot/IoT_Device_Demo/iot_link/network/lwm2m/wakaama_lwm2m/wakaama-master/core\internals.h **** #include <stdio.h>
  94:g:/iot/IoT_Device_Demo/iot_link/network/lwm2m/wakaama_lwm2m/wakaama-master/core\internals.h **** #include <ctype.h>
  95:g:/iot/IoT_Device_Demo/iot_link/network/lwm2m/wakaama_lwm2m/wakaama-master/core\internals.h **** #include <stdint.h>
  96:g:/iot/IoT_Device_Demo/iot_link/network/lwm2m/wakaama_lwm2m/wakaama-master/core\internals.h **** #include <stddef.h>
  97:g:/iot/IoT_Device_Demo/iot_link/network/lwm2m/wakaama_lwm2m/wakaama-master/core\internals.h **** #include <stdbool.h>
  98:g:/iot/IoT_Device_Demo/iot_link/network/lwm2m/wakaama_lwm2m/wakaama-master/core\internals.h **** 
  99:g:/iot/IoT_Device_Demo/iot_link/network/lwm2m/wakaama_lwm2m/wakaama-master/core\internals.h **** #include "er-coap-13/er-coap-13.h"
 100:g:/iot/IoT_Device_Demo/iot_link/network/lwm2m/wakaama_lwm2m/wakaama-master/core\internals.h **** #include "connection.h"
 101:g:/iot/IoT_Device_Demo/iot_link/network/lwm2m/wakaama_lwm2m/wakaama-master/core\internals.h **** 
 102:g:/iot/IoT_Device_Demo/iot_link/network/lwm2m/wakaama_lwm2m/wakaama-master/core\internals.h **** 
 103:g:/iot/IoT_Device_Demo/iot_link/network/lwm2m/wakaama_lwm2m/wakaama-master/core\internals.h **** #ifdef LWM2M_WITH_LOGS
 104:g:/iot/IoT_Device_Demo/iot_link/network/lwm2m/wakaama_lwm2m/wakaama-master/core\internals.h **** #include <inttypes.h>
 105:g:/iot/IoT_Device_Demo/iot_link/network/lwm2m/wakaama_lwm2m/wakaama-master/core\internals.h **** #define LOG(STR)    lwm2m_printf("[%d][%s:%d] " STR "\r\n", (int)lwm2m_gettime(), __func__ , __LINE
 106:g:/iot/IoT_Device_Demo/iot_link/network/lwm2m/wakaama_lwm2m/wakaama-master/core\internals.h **** #define LOG_ARG(FMT, ...) lwm2m_printf("[%d][%s:%d] " FMT "\r\n", (int)lwm2m_gettime(), __func__ , 
 107:g:/iot/IoT_Device_Demo/iot_link/network/lwm2m/wakaama_lwm2m/wakaama-master/core\internals.h **** #define LOG_URI(URI)                                                                \
 108:g:/iot/IoT_Device_Demo/iot_link/network/lwm2m/wakaama_lwm2m/wakaama-master/core\internals.h **** {                                                                                   \
 109:g:/iot/IoT_Device_Demo/iot_link/network/lwm2m/wakaama_lwm2m/wakaama-master/core\internals.h ****     if ((URI) == NULL) lwm2m_printf("[%s:%d] NULL\r\n", __func__ , __LINE__);     \
 110:g:/iot/IoT_Device_Demo/iot_link/network/lwm2m/wakaama_lwm2m/wakaama-master/core\internals.h ****     else                                                                            \
 111:g:/iot/IoT_Device_Demo/iot_link/network/lwm2m/wakaama_lwm2m/wakaama-master/core\internals.h ****     {                                                                               \
 112:g:/iot/IoT_Device_Demo/iot_link/network/lwm2m/wakaama_lwm2m/wakaama-master/core\internals.h ****         lwm2m_printf("[%s:%d] /%d", __func__ , __LINE__ , (int)(URI)->objectId);       \
 113:g:/iot/IoT_Device_Demo/iot_link/network/lwm2m/wakaama_lwm2m/wakaama-master/core\internals.h ****         if (LWM2M_URI_IS_SET_INSTANCE(URI)) lwm2m_printf("/%d",(int)(URI)->instanceId); \
 114:g:/iot/IoT_Device_Demo/iot_link/network/lwm2m/wakaama_lwm2m/wakaama-master/core\internals.h ****         if (LWM2M_URI_IS_SET_RESOURCE(URI)) lwm2m_printf("/%d", (int)(URI)->resourceId); \
 115:g:/iot/IoT_Device_Demo/iot_link/network/lwm2m/wakaama_lwm2m/wakaama-master/core\internals.h ****           lwm2m_printf("\r\n");                                                       \
 116:g:/iot/IoT_Device_Demo/iot_link/network/lwm2m/wakaama_lwm2m/wakaama-master/core\internals.h ****     }                                                                               \
 117:g:/iot/IoT_Device_Demo/iot_link/network/lwm2m/wakaama_lwm2m/wakaama-master/core\internals.h **** }
 118:g:/iot/IoT_Device_Demo/iot_link/network/lwm2m/wakaama_lwm2m/wakaama-master/core\internals.h **** #define UNUSEX(x)
 119:g:/iot/IoT_Device_Demo/iot_link/network/lwm2m/wakaama_lwm2m/wakaama-master/core\internals.h **** #define STR_STATUS(S)                                           \
 120:g:/iot/IoT_Device_Demo/iot_link/network/lwm2m/wakaama_lwm2m/wakaama-master/core\internals.h **** ((S) == STATE_DEREGISTERED ? "STATE_DEREGISTERED" :             \
 121:g:/iot/IoT_Device_Demo/iot_link/network/lwm2m/wakaama_lwm2m/wakaama-master/core\internals.h **** ((S) == STATE_REG_PENDING ? "STATE_REG_PENDING" :               \
 122:g:/iot/IoT_Device_Demo/iot_link/network/lwm2m/wakaama_lwm2m/wakaama-master/core\internals.h **** ((S) == STATE_REGISTERED ? "STATE_REGISTERED" :                 \
 123:g:/iot/IoT_Device_Demo/iot_link/network/lwm2m/wakaama_lwm2m/wakaama-master/core\internals.h **** ((S) == STATE_REG_FAILED ? "STATE_REG_FAILED" :                 \
 124:g:/iot/IoT_Device_Demo/iot_link/network/lwm2m/wakaama_lwm2m/wakaama-master/core\internals.h **** ((S) == STATE_REG_UPDATE_PENDING ? "STATE_REG_UPDATE_PENDING" : \
 125:g:/iot/IoT_Device_Demo/iot_link/network/lwm2m/wakaama_lwm2m/wakaama-master/core\internals.h **** ((S) == STATE_REG_UPDATE_NEEDED ? "STATE_REG_UPDATE_NEEDED" :   \
 126:g:/iot/IoT_Device_Demo/iot_link/network/lwm2m/wakaama_lwm2m/wakaama-master/core\internals.h **** ((S) == STATE_REG_FULL_UPDATE_NEEDED ? "STATE_REG_FULL_UPDATE_NEEDED" :   \
 127:g:/iot/IoT_Device_Demo/iot_link/network/lwm2m/wakaama_lwm2m/wakaama-master/core\internals.h **** ((S) == STATE_DEREG_PENDING ? "STATE_DEREG_PENDING" :           \
 128:g:/iot/IoT_Device_Demo/iot_link/network/lwm2m/wakaama_lwm2m/wakaama-master/core\internals.h **** ((S) == STATE_BS_HOLD_OFF ? "STATE_BS_HOLD_OFF" :               \
 129:g:/iot/IoT_Device_Demo/iot_link/network/lwm2m/wakaama_lwm2m/wakaama-master/core\internals.h **** ((S) == STATE_BS_INITIATED ? "STATE_BS_INITIATED" :             \
 130:g:/iot/IoT_Device_Demo/iot_link/network/lwm2m/wakaama_lwm2m/wakaama-master/core\internals.h **** ((S) == STATE_BS_PENDING ? "STATE_BS_PENDING" :                 \
 131:g:/iot/IoT_Device_Demo/iot_link/network/lwm2m/wakaama_lwm2m/wakaama-master/core\internals.h **** ((S) == STATE_BS_FINISHED ? "STATE_BS_FINISHED" :               \
 132:g:/iot/IoT_Device_Demo/iot_link/network/lwm2m/wakaama_lwm2m/wakaama-master/core\internals.h **** ((S) == STATE_BS_FINISHING ? "STATE_BS_FINISHING" :             \
 133:g:/iot/IoT_Device_Demo/iot_link/network/lwm2m/wakaama_lwm2m/wakaama-master/core\internals.h **** ((S) == STATE_BS_FAILING ? "STATE_BS_FAILING" :                 \
 134:g:/iot/IoT_Device_Demo/iot_link/network/lwm2m/wakaama_lwm2m/wakaama-master/core\internals.h **** ((S) == STATE_BS_FAILED ? "STATE_BS_FAILED" :                   \
 135:g:/iot/IoT_Device_Demo/iot_link/network/lwm2m/wakaama_lwm2m/wakaama-master/core\internals.h **** "Unknown")))))))))))))))
 136:g:/iot/IoT_Device_Demo/iot_link/network/lwm2m/wakaama_lwm2m/wakaama-master/core\internals.h **** #define STR_MEDIA_TYPE(M)                                \
 137:g:/iot/IoT_Device_Demo/iot_link/network/lwm2m/wakaama_lwm2m/wakaama-master/core\internals.h **** ((M) == LWM2M_CONTENT_TEXT ? "LWM2M_CONTENT_TEXT" :      \
 138:g:/iot/IoT_Device_Demo/iot_link/network/lwm2m/wakaama_lwm2m/wakaama-master/core\internals.h **** ((M) == LWM2M_CONTENT_LINK ? "LWM2M_CONTENT_LINK" :      \
 139:g:/iot/IoT_Device_Demo/iot_link/network/lwm2m/wakaama_lwm2m/wakaama-master/core\internals.h **** ((M) == LWM2M_CONTENT_OPAQUE ? "LWM2M_CONTENT_OPAQUE" :  \
 140:g:/iot/IoT_Device_Demo/iot_link/network/lwm2m/wakaama_lwm2m/wakaama-master/core\internals.h **** ((M) == LWM2M_CONTENT_TLV ? "LWM2M_CONTENT_TLV" :        \
 141:g:/iot/IoT_Device_Demo/iot_link/network/lwm2m/wakaama_lwm2m/wakaama-master/core\internals.h **** ((M) == LWM2M_CONTENT_JSON ? "LWM2M_CONTENT_JSON" :      \
 142:g:/iot/IoT_Device_Demo/iot_link/network/lwm2m/wakaama_lwm2m/wakaama-master/core\internals.h **** "Unknown")))))
 143:g:/iot/IoT_Device_Demo/iot_link/network/lwm2m/wakaama_lwm2m/wakaama-master/core\internals.h **** #define STR_STATE(S)                                \
 144:g:/iot/IoT_Device_Demo/iot_link/network/lwm2m/wakaama_lwm2m/wakaama-master/core\internals.h **** ((S) == STATE_INITIAL ? "STATE_INITIAL" :      \
 145:g:/iot/IoT_Device_Demo/iot_link/network/lwm2m/wakaama_lwm2m/wakaama-master/core\internals.h **** ((S) == STATE_BOOTSTRAP_REQUIRED ? "STATE_BOOTSTRAP_REQUIRED" :      \
ARM GAS  C:\Users\ADMINI~1\AppData\Local\Temp\ccO7A1oC.s 			page 4


 146:g:/iot/IoT_Device_Demo/iot_link/network/lwm2m/wakaama_lwm2m/wakaama-master/core\internals.h **** ((S) == STATE_BOOTSTRAPPING ? "STATE_BOOTSTRAPPING" :  \
 147:g:/iot/IoT_Device_Demo/iot_link/network/lwm2m/wakaama_lwm2m/wakaama-master/core\internals.h **** ((S) == STATE_REGISTER_REQUIRED ? "STATE_REGISTER_REQUIRED" :        \
 148:g:/iot/IoT_Device_Demo/iot_link/network/lwm2m/wakaama_lwm2m/wakaama-master/core\internals.h **** ((S) == STATE_REGISTERING ? "STATE_REGISTERING" :      \
 149:g:/iot/IoT_Device_Demo/iot_link/network/lwm2m/wakaama_lwm2m/wakaama-master/core\internals.h **** ((S) == STATE_READY ? "STATE_READY" :      \
 150:g:/iot/IoT_Device_Demo/iot_link/network/lwm2m/wakaama_lwm2m/wakaama-master/core\internals.h **** "Unknown"))))))
 151:g:/iot/IoT_Device_Demo/iot_link/network/lwm2m/wakaama_lwm2m/wakaama-master/core\internals.h **** #else
 152:g:/iot/IoT_Device_Demo/iot_link/network/lwm2m/wakaama_lwm2m/wakaama-master/core\internals.h **** #define UNUSEX(x) (x)=(x)
 153:g:/iot/IoT_Device_Demo/iot_link/network/lwm2m/wakaama_lwm2m/wakaama-master/core\internals.h **** #define LOG_ARG(FMT, ...)
 154:g:/iot/IoT_Device_Demo/iot_link/network/lwm2m/wakaama_lwm2m/wakaama-master/core\internals.h **** #define LOG(STR)
 155:g:/iot/IoT_Device_Demo/iot_link/network/lwm2m/wakaama_lwm2m/wakaama-master/core\internals.h **** #define LOG_URI(URI)
 156:g:/iot/IoT_Device_Demo/iot_link/network/lwm2m/wakaama_lwm2m/wakaama-master/core\internals.h **** #endif
 157:g:/iot/IoT_Device_Demo/iot_link/network/lwm2m/wakaama_lwm2m/wakaama-master/core\internals.h **** 
 158:g:/iot/IoT_Device_Demo/iot_link/network/lwm2m/wakaama_lwm2m/wakaama-master/core\internals.h **** #define LWM2M_DEFAULT_LIFETIME  86400
 159:g:/iot/IoT_Device_Demo/iot_link/network/lwm2m/wakaama_lwm2m/wakaama-master/core\internals.h **** 
 160:g:/iot/IoT_Device_Demo/iot_link/network/lwm2m/wakaama_lwm2m/wakaama-master/core\internals.h **** #ifdef LWM2M_SUPPORT_JSON
 161:g:/iot/IoT_Device_Demo/iot_link/network/lwm2m/wakaama_lwm2m/wakaama-master/core\internals.h **** #define REG_LWM2M_RESOURCE_TYPE     ">;rt=\"oma.lwm2m\";ct=11543,"
 162:g:/iot/IoT_Device_Demo/iot_link/network/lwm2m/wakaama_lwm2m/wakaama-master/core\internals.h **** #define REG_LWM2M_RESOURCE_TYPE_LEN 25
 163:g:/iot/IoT_Device_Demo/iot_link/network/lwm2m/wakaama_lwm2m/wakaama-master/core\internals.h **** #else
 164:g:/iot/IoT_Device_Demo/iot_link/network/lwm2m/wakaama_lwm2m/wakaama-master/core\internals.h **** #define REG_LWM2M_RESOURCE_TYPE     ">;rt=\"oma.lwm2m\","
 165:g:/iot/IoT_Device_Demo/iot_link/network/lwm2m/wakaama_lwm2m/wakaama-master/core\internals.h **** #define REG_LWM2M_RESOURCE_TYPE_LEN 17
 166:g:/iot/IoT_Device_Demo/iot_link/network/lwm2m/wakaama_lwm2m/wakaama-master/core\internals.h **** #endif
 167:g:/iot/IoT_Device_Demo/iot_link/network/lwm2m/wakaama_lwm2m/wakaama-master/core\internals.h **** #define REG_START           "<"
 168:g:/iot/IoT_Device_Demo/iot_link/network/lwm2m/wakaama_lwm2m/wakaama-master/core\internals.h **** #define REG_DEFAULT_PATH    "/"
 169:g:/iot/IoT_Device_Demo/iot_link/network/lwm2m/wakaama_lwm2m/wakaama-master/core\internals.h **** 
 170:g:/iot/IoT_Device_Demo/iot_link/network/lwm2m/wakaama_lwm2m/wakaama-master/core\internals.h **** #define REG_OBJECT_MIN_LEN  5   // "</n>,"
 171:g:/iot/IoT_Device_Demo/iot_link/network/lwm2m/wakaama_lwm2m/wakaama-master/core\internals.h **** #define REG_PATH_END        ">,"
 172:g:/iot/IoT_Device_Demo/iot_link/network/lwm2m/wakaama_lwm2m/wakaama-master/core\internals.h **** #define REG_PATH_SEPARATOR  "/"
 173:g:/iot/IoT_Device_Demo/iot_link/network/lwm2m/wakaama_lwm2m/wakaama-master/core\internals.h **** 
 174:g:/iot/IoT_Device_Demo/iot_link/network/lwm2m/wakaama_lwm2m/wakaama-master/core\internals.h **** #define REG_OBJECT_PATH             "<%s/%hu>,"
 175:g:/iot/IoT_Device_Demo/iot_link/network/lwm2m/wakaama_lwm2m/wakaama-master/core\internals.h **** #define REG_OBJECT_INSTANCE_PATH    "<%s/%hu/%hu>,"
 176:g:/iot/IoT_Device_Demo/iot_link/network/lwm2m/wakaama_lwm2m/wakaama-master/core\internals.h **** 
 177:g:/iot/IoT_Device_Demo/iot_link/network/lwm2m/wakaama_lwm2m/wakaama-master/core\internals.h **** #define URI_REGISTRATION_SEGMENT        "rd"
 178:g:/iot/IoT_Device_Demo/iot_link/network/lwm2m/wakaama_lwm2m/wakaama-master/core\internals.h **** #define URI_REGISTRATION_SEGMENT_LEN    2
 179:g:/iot/IoT_Device_Demo/iot_link/network/lwm2m/wakaama_lwm2m/wakaama-master/core\internals.h **** #define URI_BOOTSTRAP_SEGMENT           "bs"
 180:g:/iot/IoT_Device_Demo/iot_link/network/lwm2m/wakaama_lwm2m/wakaama-master/core\internals.h **** #define URI_BOOTSTRAP_SEGMENT_LEN       2
 181:g:/iot/IoT_Device_Demo/iot_link/network/lwm2m/wakaama_lwm2m/wakaama-master/core\internals.h **** 
 182:g:/iot/IoT_Device_Demo/iot_link/network/lwm2m/wakaama_lwm2m/wakaama-master/core\internals.h **** #define QUERY_STARTER       "?"
 183:g:/iot/IoT_Device_Demo/iot_link/network/lwm2m/wakaama_lwm2m/wakaama-master/core\internals.h **** #define QUERY_NAME          "ep="
 184:g:/iot/IoT_Device_Demo/iot_link/network/lwm2m/wakaama_lwm2m/wakaama-master/core\internals.h **** #define QUERY_NAME_LEN      3       // strlen("ep=")
 185:g:/iot/IoT_Device_Demo/iot_link/network/lwm2m/wakaama_lwm2m/wakaama-master/core\internals.h **** #define QUERY_SMS           "sms="
 186:g:/iot/IoT_Device_Demo/iot_link/network/lwm2m/wakaama_lwm2m/wakaama-master/core\internals.h **** #define QUERY_SMS_LEN       4
 187:g:/iot/IoT_Device_Demo/iot_link/network/lwm2m/wakaama_lwm2m/wakaama-master/core\internals.h **** #define QUERY_LIFETIME      "lt="
 188:g:/iot/IoT_Device_Demo/iot_link/network/lwm2m/wakaama_lwm2m/wakaama-master/core\internals.h **** #define QUERY_LIFETIME_LEN  3
 189:g:/iot/IoT_Device_Demo/iot_link/network/lwm2m/wakaama_lwm2m/wakaama-master/core\internals.h **** #define QUERY_VERSION       "lwm2m="
 190:g:/iot/IoT_Device_Demo/iot_link/network/lwm2m/wakaama_lwm2m/wakaama-master/core\internals.h **** #define QUERY_VERSION_LEN   6
 191:g:/iot/IoT_Device_Demo/iot_link/network/lwm2m/wakaama_lwm2m/wakaama-master/core\internals.h **** #define QUERY_BINDING       "b="
 192:g:/iot/IoT_Device_Demo/iot_link/network/lwm2m/wakaama_lwm2m/wakaama-master/core\internals.h **** #define QUERY_BINDING_LEN   2
 193:g:/iot/IoT_Device_Demo/iot_link/network/lwm2m/wakaama_lwm2m/wakaama-master/core\internals.h **** #define QUERY_DELIMITER     "&"
 194:g:/iot/IoT_Device_Demo/iot_link/network/lwm2m/wakaama_lwm2m/wakaama-master/core\internals.h **** 
 195:g:/iot/IoT_Device_Demo/iot_link/network/lwm2m/wakaama_lwm2m/wakaama-master/core\internals.h **** #define LWM2M_VERSION      "1.0"
 196:g:/iot/IoT_Device_Demo/iot_link/network/lwm2m/wakaama_lwm2m/wakaama-master/core\internals.h **** #define LWM2M_VERSION_LEN  3
 197:g:/iot/IoT_Device_Demo/iot_link/network/lwm2m/wakaama_lwm2m/wakaama-master/core\internals.h **** 
 198:g:/iot/IoT_Device_Demo/iot_link/network/lwm2m/wakaama_lwm2m/wakaama-master/core\internals.h **** #define QUERY_VERSION_FULL      QUERY_VERSION LWM2M_VERSION
 199:g:/iot/IoT_Device_Demo/iot_link/network/lwm2m/wakaama_lwm2m/wakaama-master/core\internals.h **** #define QUERY_VERSION_FULL_LEN  QUERY_VERSION_LEN+LWM2M_VERSION_LEN
 200:g:/iot/IoT_Device_Demo/iot_link/network/lwm2m/wakaama_lwm2m/wakaama-master/core\internals.h **** 
 201:g:/iot/IoT_Device_Demo/iot_link/network/lwm2m/wakaama_lwm2m/wakaama-master/core\internals.h **** #define REG_URI_START       '<'
 202:g:/iot/IoT_Device_Demo/iot_link/network/lwm2m/wakaama_lwm2m/wakaama-master/core\internals.h **** #define REG_URI_END         '>'
ARM GAS  C:\Users\ADMINI~1\AppData\Local\Temp\ccO7A1oC.s 			page 5


 203:g:/iot/IoT_Device_Demo/iot_link/network/lwm2m/wakaama_lwm2m/wakaama-master/core\internals.h **** #define REG_DELIMITER       ','
 204:g:/iot/IoT_Device_Demo/iot_link/network/lwm2m/wakaama_lwm2m/wakaama-master/core\internals.h **** #define REG_ATTR_SEPARATOR  ';'
 205:g:/iot/IoT_Device_Demo/iot_link/network/lwm2m/wakaama_lwm2m/wakaama-master/core\internals.h **** #define REG_ATTR_EQUALS     '='
 206:g:/iot/IoT_Device_Demo/iot_link/network/lwm2m/wakaama_lwm2m/wakaama-master/core\internals.h **** #define REG_ATTR_TYPE_KEY           "rt"
 207:g:/iot/IoT_Device_Demo/iot_link/network/lwm2m/wakaama_lwm2m/wakaama-master/core\internals.h **** #define REG_ATTR_TYPE_KEY_LEN       2
 208:g:/iot/IoT_Device_Demo/iot_link/network/lwm2m/wakaama_lwm2m/wakaama-master/core\internals.h **** #define REG_ATTR_TYPE_VALUE         "\"oma.lwm2m\""
 209:g:/iot/IoT_Device_Demo/iot_link/network/lwm2m/wakaama_lwm2m/wakaama-master/core\internals.h **** #define REG_ATTR_TYPE_VALUE_LEN     11
 210:g:/iot/IoT_Device_Demo/iot_link/network/lwm2m/wakaama_lwm2m/wakaama-master/core\internals.h **** #define REG_ATTR_CONTENT_KEY        "ct"
 211:g:/iot/IoT_Device_Demo/iot_link/network/lwm2m/wakaama_lwm2m/wakaama-master/core\internals.h **** #define REG_ATTR_CONTENT_KEY_LEN    2
 212:g:/iot/IoT_Device_Demo/iot_link/network/lwm2m/wakaama_lwm2m/wakaama-master/core\internals.h **** #define REG_ATTR_CONTENT_JSON       "11543"   // Temporary value
 213:g:/iot/IoT_Device_Demo/iot_link/network/lwm2m/wakaama_lwm2m/wakaama-master/core\internals.h **** #define REG_ATTR_CONTENT_JSON_LEN   5
 214:g:/iot/IoT_Device_Demo/iot_link/network/lwm2m/wakaama_lwm2m/wakaama-master/core\internals.h **** 
 215:g:/iot/IoT_Device_Demo/iot_link/network/lwm2m/wakaama_lwm2m/wakaama-master/core\internals.h **** #define ATTR_SERVER_ID_STR       "ep="
 216:g:/iot/IoT_Device_Demo/iot_link/network/lwm2m/wakaama_lwm2m/wakaama-master/core\internals.h **** #define ATTR_SERVER_ID_LEN       3
 217:g:/iot/IoT_Device_Demo/iot_link/network/lwm2m/wakaama_lwm2m/wakaama-master/core\internals.h **** #define ATTR_MIN_PERIOD_STR      "pmin="
 218:g:/iot/IoT_Device_Demo/iot_link/network/lwm2m/wakaama_lwm2m/wakaama-master/core\internals.h **** #define ATTR_MIN_PERIOD_LEN      5
 219:g:/iot/IoT_Device_Demo/iot_link/network/lwm2m/wakaama_lwm2m/wakaama-master/core\internals.h **** #define ATTR_MAX_PERIOD_STR      "pmax="
 220:g:/iot/IoT_Device_Demo/iot_link/network/lwm2m/wakaama_lwm2m/wakaama-master/core\internals.h **** #define ATTR_MAX_PERIOD_LEN      5
 221:g:/iot/IoT_Device_Demo/iot_link/network/lwm2m/wakaama_lwm2m/wakaama-master/core\internals.h **** #define ATTR_GREATER_THAN_STR    "gt="
 222:g:/iot/IoT_Device_Demo/iot_link/network/lwm2m/wakaama_lwm2m/wakaama-master/core\internals.h **** #define ATTR_GREATER_THAN_LEN    3
 223:g:/iot/IoT_Device_Demo/iot_link/network/lwm2m/wakaama_lwm2m/wakaama-master/core\internals.h **** #define ATTR_LESS_THAN_STR       "lt="
 224:g:/iot/IoT_Device_Demo/iot_link/network/lwm2m/wakaama_lwm2m/wakaama-master/core\internals.h **** #define ATTR_LESS_THAN_LEN       3
 225:g:/iot/IoT_Device_Demo/iot_link/network/lwm2m/wakaama_lwm2m/wakaama-master/core\internals.h **** #define ATTR_STEP_STR            "st="
 226:g:/iot/IoT_Device_Demo/iot_link/network/lwm2m/wakaama_lwm2m/wakaama-master/core\internals.h **** #define ATTR_STEP_LEN            3
 227:g:/iot/IoT_Device_Demo/iot_link/network/lwm2m/wakaama_lwm2m/wakaama-master/core\internals.h **** #define ATTR_DIMENSION_STR       "dim="
 228:g:/iot/IoT_Device_Demo/iot_link/network/lwm2m/wakaama_lwm2m/wakaama-master/core\internals.h **** #define ATTR_DIMENSION_LEN       4
 229:g:/iot/IoT_Device_Demo/iot_link/network/lwm2m/wakaama_lwm2m/wakaama-master/core\internals.h **** 
 230:g:/iot/IoT_Device_Demo/iot_link/network/lwm2m/wakaama_lwm2m/wakaama-master/core\internals.h **** #define URI_MAX_STRING_LEN    18      // /65535/65535/65535
 231:g:/iot/IoT_Device_Demo/iot_link/network/lwm2m/wakaama_lwm2m/wakaama-master/core\internals.h **** #define _PRV_64BIT_BUFFER_SIZE 8
 232:g:/iot/IoT_Device_Demo/iot_link/network/lwm2m/wakaama_lwm2m/wakaama-master/core\internals.h **** 
 233:g:/iot/IoT_Device_Demo/iot_link/network/lwm2m/wakaama_lwm2m/wakaama-master/core\internals.h **** #define LINK_ITEM_START             "<"
 234:g:/iot/IoT_Device_Demo/iot_link/network/lwm2m/wakaama_lwm2m/wakaama-master/core\internals.h **** #define LINK_ITEM_START_SIZE        1
 235:g:/iot/IoT_Device_Demo/iot_link/network/lwm2m/wakaama_lwm2m/wakaama-master/core\internals.h **** #define LINK_ITEM_END               ">,"
 236:g:/iot/IoT_Device_Demo/iot_link/network/lwm2m/wakaama_lwm2m/wakaama-master/core\internals.h **** #define LINK_ITEM_END_SIZE          2
 237:g:/iot/IoT_Device_Demo/iot_link/network/lwm2m/wakaama_lwm2m/wakaama-master/core\internals.h **** #define LINK_ITEM_DIM_START         ">;dim="
 238:g:/iot/IoT_Device_Demo/iot_link/network/lwm2m/wakaama_lwm2m/wakaama-master/core\internals.h **** #define LINK_ITEM_DIM_START_SIZE    6
 239:g:/iot/IoT_Device_Demo/iot_link/network/lwm2m/wakaama_lwm2m/wakaama-master/core\internals.h **** #define LINK_ITEM_ATTR_END          ","
 240:g:/iot/IoT_Device_Demo/iot_link/network/lwm2m/wakaama_lwm2m/wakaama-master/core\internals.h **** #define LINK_ITEM_ATTR_END_SIZE     1
 241:g:/iot/IoT_Device_Demo/iot_link/network/lwm2m/wakaama_lwm2m/wakaama-master/core\internals.h **** #define LINK_URI_SEPARATOR          "/"
 242:g:/iot/IoT_Device_Demo/iot_link/network/lwm2m/wakaama_lwm2m/wakaama-master/core\internals.h **** #define LINK_URI_SEPARATOR_SIZE     1
 243:g:/iot/IoT_Device_Demo/iot_link/network/lwm2m/wakaama_lwm2m/wakaama-master/core\internals.h **** #define LINK_ATTR_SEPARATOR         ";"
 244:g:/iot/IoT_Device_Demo/iot_link/network/lwm2m/wakaama_lwm2m/wakaama-master/core\internals.h **** #define LINK_ATTR_SEPARATOR_SIZE    1
 245:g:/iot/IoT_Device_Demo/iot_link/network/lwm2m/wakaama_lwm2m/wakaama-master/core\internals.h **** 
 246:g:/iot/IoT_Device_Demo/iot_link/network/lwm2m/wakaama_lwm2m/wakaama-master/core\internals.h **** #define ATTR_FLAG_NUMERIC (uint8_t)(LWM2M_ATTR_FLAG_LESS_THAN | LWM2M_ATTR_FLAG_GREATER_THAN | LWM2
 247:g:/iot/IoT_Device_Demo/iot_link/network/lwm2m/wakaama_lwm2m/wakaama-master/core\internals.h **** 
 248:g:/iot/IoT_Device_Demo/iot_link/network/lwm2m/wakaama_lwm2m/wakaama-master/core\internals.h **** #define LWM2M_URI_FLAG_DM           (uint8_t)0x00
 249:g:/iot/IoT_Device_Demo/iot_link/network/lwm2m/wakaama_lwm2m/wakaama-master/core\internals.h **** #define LWM2M_URI_FLAG_DELETE_ALL   (uint8_t)0x10
 250:g:/iot/IoT_Device_Demo/iot_link/network/lwm2m/wakaama_lwm2m/wakaama-master/core\internals.h **** #define LWM2M_URI_FLAG_REGISTRATION (uint8_t)0x20
 251:g:/iot/IoT_Device_Demo/iot_link/network/lwm2m/wakaama_lwm2m/wakaama-master/core\internals.h **** #define LWM2M_URI_FLAG_BOOTSTRAP    (uint8_t)0x40
 252:g:/iot/IoT_Device_Demo/iot_link/network/lwm2m/wakaama_lwm2m/wakaama-master/core\internals.h **** 
 253:g:/iot/IoT_Device_Demo/iot_link/network/lwm2m/wakaama_lwm2m/wakaama-master/core\internals.h **** #define LWM2M_URI_MASK_TYPE (uint8_t)0x70
 254:g:/iot/IoT_Device_Demo/iot_link/network/lwm2m/wakaama_lwm2m/wakaama-master/core\internals.h **** #define LWM2M_URI_MASK_ID   (uint8_t)0x07
 255:g:/iot/IoT_Device_Demo/iot_link/network/lwm2m/wakaama_lwm2m/wakaama-master/core\internals.h **** 
 256:g:/iot/IoT_Device_Demo/iot_link/network/lwm2m/wakaama_lwm2m/wakaama-master/core\internals.h **** typedef struct
 257:g:/iot/IoT_Device_Demo/iot_link/network/lwm2m/wakaama_lwm2m/wakaama-master/core\internals.h **** {
 258:g:/iot/IoT_Device_Demo/iot_link/network/lwm2m/wakaama_lwm2m/wakaama-master/core\internals.h ****     uint16_t clientID;
 259:g:/iot/IoT_Device_Demo/iot_link/network/lwm2m/wakaama_lwm2m/wakaama-master/core\internals.h ****     lwm2m_uri_t uri;
ARM GAS  C:\Users\ADMINI~1\AppData\Local\Temp\ccO7A1oC.s 			page 6


 260:g:/iot/IoT_Device_Demo/iot_link/network/lwm2m/wakaama_lwm2m/wakaama-master/core\internals.h ****     lwm2m_result_callback_t callback;
 261:g:/iot/IoT_Device_Demo/iot_link/network/lwm2m/wakaama_lwm2m/wakaama-master/core\internals.h ****     void * userData;
 262:g:/iot/IoT_Device_Demo/iot_link/network/lwm2m/wakaama_lwm2m/wakaama-master/core\internals.h **** } dm_data_t;
 263:g:/iot/IoT_Device_Demo/iot_link/network/lwm2m/wakaama_lwm2m/wakaama-master/core\internals.h **** 
 264:g:/iot/IoT_Device_Demo/iot_link/network/lwm2m/wakaama_lwm2m/wakaama-master/core\internals.h **** typedef enum
 265:g:/iot/IoT_Device_Demo/iot_link/network/lwm2m/wakaama_lwm2m/wakaama-master/core\internals.h **** {
 266:g:/iot/IoT_Device_Demo/iot_link/network/lwm2m/wakaama_lwm2m/wakaama-master/core\internals.h ****     URI_DEPTH_OBJECT,
 267:g:/iot/IoT_Device_Demo/iot_link/network/lwm2m/wakaama_lwm2m/wakaama-master/core\internals.h ****     URI_DEPTH_OBJECT_INSTANCE,
 268:g:/iot/IoT_Device_Demo/iot_link/network/lwm2m/wakaama_lwm2m/wakaama-master/core\internals.h ****     URI_DEPTH_RESOURCE,
 269:g:/iot/IoT_Device_Demo/iot_link/network/lwm2m/wakaama_lwm2m/wakaama-master/core\internals.h ****     URI_DEPTH_RESOURCE_INSTANCE
 270:g:/iot/IoT_Device_Demo/iot_link/network/lwm2m/wakaama_lwm2m/wakaama-master/core\internals.h **** } uri_depth_t;
 271:g:/iot/IoT_Device_Demo/iot_link/network/lwm2m/wakaama_lwm2m/wakaama-master/core\internals.h **** 
 272:g:/iot/IoT_Device_Demo/iot_link/network/lwm2m/wakaama_lwm2m/wakaama-master/core\internals.h **** #ifdef LWM2M_BOOTSTRAP_SERVER_MODE
 273:g:/iot/IoT_Device_Demo/iot_link/network/lwm2m/wakaama_lwm2m/wakaama-master/core\internals.h **** typedef struct
 274:g:/iot/IoT_Device_Demo/iot_link/network/lwm2m/wakaama_lwm2m/wakaama-master/core\internals.h **** {
 275:g:/iot/IoT_Device_Demo/iot_link/network/lwm2m/wakaama_lwm2m/wakaama-master/core\internals.h ****     bool        isUri;
 276:g:/iot/IoT_Device_Demo/iot_link/network/lwm2m/wakaama_lwm2m/wakaama-master/core\internals.h ****     lwm2m_uri_t uri;
 277:g:/iot/IoT_Device_Demo/iot_link/network/lwm2m/wakaama_lwm2m/wakaama-master/core\internals.h ****     lwm2m_bootstrap_callback_t callback;
 278:g:/iot/IoT_Device_Demo/iot_link/network/lwm2m/wakaama_lwm2m/wakaama-master/core\internals.h ****     void *      userData;
 279:g:/iot/IoT_Device_Demo/iot_link/network/lwm2m/wakaama_lwm2m/wakaama-master/core\internals.h **** } bs_data_t;
 280:g:/iot/IoT_Device_Demo/iot_link/network/lwm2m/wakaama_lwm2m/wakaama-master/core\internals.h **** #endif
 281:g:/iot/IoT_Device_Demo/iot_link/network/lwm2m/wakaama_lwm2m/wakaama-master/core\internals.h **** 
 282:g:/iot/IoT_Device_Demo/iot_link/network/lwm2m/wakaama_lwm2m/wakaama-master/core\internals.h **** // defined in uri.c
 283:g:/iot/IoT_Device_Demo/iot_link/network/lwm2m/wakaama_lwm2m/wakaama-master/core\internals.h **** lwm2m_uri_t * uri_decode(char * altPath, multi_option_t *uriPath);
 284:g:/iot/IoT_Device_Demo/iot_link/network/lwm2m/wakaama_lwm2m/wakaama-master/core\internals.h **** int uri_getNumber(uint8_t * uriString, size_t uriLength);
 285:g:/iot/IoT_Device_Demo/iot_link/network/lwm2m/wakaama_lwm2m/wakaama-master/core\internals.h **** int uri_toString(lwm2m_uri_t * uriP, uint8_t * buffer, size_t bufferLen, uri_depth_t * depthP);
 286:g:/iot/IoT_Device_Demo/iot_link/network/lwm2m/wakaama_lwm2m/wakaama-master/core\internals.h **** 
 287:g:/iot/IoT_Device_Demo/iot_link/network/lwm2m/wakaama_lwm2m/wakaama-master/core\internals.h **** // defined in objects.c
 288:g:/iot/IoT_Device_Demo/iot_link/network/lwm2m/wakaama_lwm2m/wakaama-master/core\internals.h **** uint8_t object_readData(lwm2m_context_t * contextP, lwm2m_uri_t * uriP, int * sizeP, lwm2m_data_t *
 289:g:/iot/IoT_Device_Demo/iot_link/network/lwm2m/wakaama_lwm2m/wakaama-master/core\internals.h **** uint8_t object_read(lwm2m_context_t * contextP, lwm2m_uri_t * uriP, lwm2m_media_type_t * formatP, u
 290:g:/iot/IoT_Device_Demo/iot_link/network/lwm2m/wakaama_lwm2m/wakaama-master/core\internals.h **** uint8_t object_write(lwm2m_context_t * contextP, lwm2m_uri_t * uriP, lwm2m_media_type_t format, uin
 291:g:/iot/IoT_Device_Demo/iot_link/network/lwm2m/wakaama_lwm2m/wakaama-master/core\internals.h **** uint8_t object_create(lwm2m_context_t * contextP, lwm2m_uri_t * uriP, lwm2m_media_type_t format, ui
 292:g:/iot/IoT_Device_Demo/iot_link/network/lwm2m/wakaama_lwm2m/wakaama-master/core\internals.h **** uint8_t object_execute(lwm2m_context_t * contextP, lwm2m_uri_t * uriP, uint8_t * buffer, size_t len
 293:g:/iot/IoT_Device_Demo/iot_link/network/lwm2m/wakaama_lwm2m/wakaama-master/core\internals.h **** uint8_t object_delete(lwm2m_context_t * contextP, lwm2m_uri_t * uriP);
 294:g:/iot/IoT_Device_Demo/iot_link/network/lwm2m/wakaama_lwm2m/wakaama-master/core\internals.h **** uint8_t object_discover(lwm2m_context_t * contextP, lwm2m_uri_t * uriP, lwm2m_server_t * serverP, u
 295:g:/iot/IoT_Device_Demo/iot_link/network/lwm2m/wakaama_lwm2m/wakaama-master/core\internals.h **** uint8_t object_checkReadable(lwm2m_context_t * contextP, lwm2m_uri_t * uriP);
 296:g:/iot/IoT_Device_Demo/iot_link/network/lwm2m/wakaama_lwm2m/wakaama-master/core\internals.h **** uint8_t object_checkNumeric(lwm2m_context_t * contextP, lwm2m_uri_t * uriP);
 297:g:/iot/IoT_Device_Demo/iot_link/network/lwm2m/wakaama_lwm2m/wakaama-master/core\internals.h **** bool object_isInstanceNew(lwm2m_context_t * contextP, uint16_t objectId, uint16_t instanceId);
 298:g:/iot/IoT_Device_Demo/iot_link/network/lwm2m/wakaama_lwm2m/wakaama-master/core\internals.h **** int object_getRegisterPayloadBufferLength(lwm2m_context_t * contextP);
 299:g:/iot/IoT_Device_Demo/iot_link/network/lwm2m/wakaama_lwm2m/wakaama-master/core\internals.h **** int object_getRegisterPayload(lwm2m_context_t * contextP, uint8_t * buffer, size_t length);
 300:g:/iot/IoT_Device_Demo/iot_link/network/lwm2m/wakaama_lwm2m/wakaama-master/core\internals.h **** int object_getServers(lwm2m_context_t * contextP, bool checkOnly);
 301:g:/iot/IoT_Device_Demo/iot_link/network/lwm2m/wakaama_lwm2m/wakaama-master/core\internals.h **** uint8_t object_createInstance(lwm2m_context_t * contextP, lwm2m_uri_t * uriP, lwm2m_data_t * dataP)
 302:g:/iot/IoT_Device_Demo/iot_link/network/lwm2m/wakaama_lwm2m/wakaama-master/core\internals.h **** uint8_t object_writeInstance(lwm2m_context_t * contextP, lwm2m_uri_t * uriP, lwm2m_data_t * dataP);
 303:g:/iot/IoT_Device_Demo/iot_link/network/lwm2m/wakaama_lwm2m/wakaama-master/core\internals.h **** 
 304:g:/iot/IoT_Device_Demo/iot_link/network/lwm2m/wakaama_lwm2m/wakaama-master/core\internals.h **** // defined in transaction.c
 305:g:/iot/IoT_Device_Demo/iot_link/network/lwm2m/wakaama_lwm2m/wakaama-master/core\internals.h **** lwm2m_transaction_t * transaction_new(void * sessionH, unsigned char method, char * altPath, lwm2m_
 306:g:/iot/IoT_Device_Demo/iot_link/network/lwm2m/wakaama_lwm2m/wakaama-master/core\internals.h **** int transaction_send(lwm2m_context_t * contextP, lwm2m_transaction_t * transacP);
 307:g:/iot/IoT_Device_Demo/iot_link/network/lwm2m/wakaama_lwm2m/wakaama-master/core\internals.h **** void transaction_free(lwm2m_transaction_t * transacP);
 308:g:/iot/IoT_Device_Demo/iot_link/network/lwm2m/wakaama_lwm2m/wakaama-master/core\internals.h **** void transaction_remove(lwm2m_context_t * contextP, lwm2m_transaction_t * transacP);
 309:g:/iot/IoT_Device_Demo/iot_link/network/lwm2m/wakaama_lwm2m/wakaama-master/core\internals.h **** bool transaction_handleResponse(lwm2m_context_t * contextP, void * fromSessionH, coap_packet_t * me
 310:g:/iot/IoT_Device_Demo/iot_link/network/lwm2m/wakaama_lwm2m/wakaama-master/core\internals.h **** void transaction_step(lwm2m_context_t * contextP, time_t currentTime, time_t * timeoutP);
 311:g:/iot/IoT_Device_Demo/iot_link/network/lwm2m/wakaama_lwm2m/wakaama-master/core\internals.h **** 
 312:g:/iot/IoT_Device_Demo/iot_link/network/lwm2m/wakaama_lwm2m/wakaama-master/core\internals.h **** // defined in management.c
 313:g:/iot/IoT_Device_Demo/iot_link/network/lwm2m/wakaama_lwm2m/wakaama-master/core\internals.h **** uint8_t dm_handleRequest(lwm2m_context_t * contextP, lwm2m_uri_t * uriP, lwm2m_server_t * serverP, 
 314:g:/iot/IoT_Device_Demo/iot_link/network/lwm2m/wakaama_lwm2m/wakaama-master/core\internals.h **** 
 315:g:/iot/IoT_Device_Demo/iot_link/network/lwm2m/wakaama_lwm2m/wakaama-master/core\internals.h **** // defined in observe.c
 316:g:/iot/IoT_Device_Demo/iot_link/network/lwm2m/wakaama_lwm2m/wakaama-master/core\internals.h **** uint8_t observe_handleRequest(lwm2m_context_t * contextP, lwm2m_uri_t * uriP, lwm2m_server_t * serv
ARM GAS  C:\Users\ADMINI~1\AppData\Local\Temp\ccO7A1oC.s 			page 7


 317:g:/iot/IoT_Device_Demo/iot_link/network/lwm2m/wakaama_lwm2m/wakaama-master/core\internals.h **** void observe_cancel(lwm2m_context_t * contextP, uint16_t mid, void * fromSessionH);
 318:g:/iot/IoT_Device_Demo/iot_link/network/lwm2m/wakaama_lwm2m/wakaama-master/core\internals.h **** uint8_t observe_setParameters(lwm2m_context_t * contextP, lwm2m_uri_t * uriP, lwm2m_server_t * serv
 319:g:/iot/IoT_Device_Demo/iot_link/network/lwm2m/wakaama_lwm2m/wakaama-master/core\internals.h **** void observe_step(lwm2m_context_t * contextP, time_t currentTime, time_t * timeoutP);
 320:g:/iot/IoT_Device_Demo/iot_link/network/lwm2m/wakaama_lwm2m/wakaama-master/core\internals.h **** void observe_clear(lwm2m_context_t * contextP, lwm2m_uri_t * uriP);
 321:g:/iot/IoT_Device_Demo/iot_link/network/lwm2m/wakaama_lwm2m/wakaama-master/core\internals.h **** //bool observe_handleNotify(lwm2m_context_t * contextP, void * fromSessionH, coap_packet_t * messag
 322:g:/iot/IoT_Device_Demo/iot_link/network/lwm2m/wakaama_lwm2m/wakaama-master/core\internals.h **** void observe_remove(lwm2m_observation_t * observationP);
 323:g:/iot/IoT_Device_Demo/iot_link/network/lwm2m/wakaama_lwm2m/wakaama-master/core\internals.h **** lwm2m_observed_t * observe_findByUri(lwm2m_context_t * contextP, lwm2m_uri_t * uriP);
 324:g:/iot/IoT_Device_Demo/iot_link/network/lwm2m/wakaama_lwm2m/wakaama-master/core\internals.h **** 
 325:g:/iot/IoT_Device_Demo/iot_link/network/lwm2m/wakaama_lwm2m/wakaama-master/core\internals.h **** // defined in registration.c
 326:g:/iot/IoT_Device_Demo/iot_link/network/lwm2m/wakaama_lwm2m/wakaama-master/core\internals.h **** //uint8_t registration_handleRequest(lwm2m_context_t * contextP, lwm2m_uri_t * uriP, void * fromSes
 327:g:/iot/IoT_Device_Demo/iot_link/network/lwm2m/wakaama_lwm2m/wakaama-master/core\internals.h **** void registration_deregister(lwm2m_context_t * contextP, lwm2m_server_t * serverP);
 328:g:/iot/IoT_Device_Demo/iot_link/network/lwm2m/wakaama_lwm2m/wakaama-master/core\internals.h **** void registration_freeClient(lwm2m_client_t * clientP);
 329:g:/iot/IoT_Device_Demo/iot_link/network/lwm2m/wakaama_lwm2m/wakaama-master/core\internals.h **** uint8_t registration_start(lwm2m_context_t * contextP);
 330:g:/iot/IoT_Device_Demo/iot_link/network/lwm2m/wakaama_lwm2m/wakaama-master/core\internals.h **** void registration_step(lwm2m_context_t * contextP, time_t currentTime, time_t * timeoutP);
 331:g:/iot/IoT_Device_Demo/iot_link/network/lwm2m/wakaama_lwm2m/wakaama-master/core\internals.h **** lwm2m_status_t registration_getStatus(lwm2m_context_t * contextP);
 332:g:/iot/IoT_Device_Demo/iot_link/network/lwm2m/wakaama_lwm2m/wakaama-master/core\internals.h **** void registration_reset(lwm2m_context_t * contextP, lwm2m_server_t * serverP);
 333:g:/iot/IoT_Device_Demo/iot_link/network/lwm2m/wakaama_lwm2m/wakaama-master/core\internals.h **** 
 334:g:/iot/IoT_Device_Demo/iot_link/network/lwm2m/wakaama_lwm2m/wakaama-master/core\internals.h **** // defined in packet.c
 335:g:/iot/IoT_Device_Demo/iot_link/network/lwm2m/wakaama_lwm2m/wakaama-master/core\internals.h **** uint8_t message_send(lwm2m_context_t * contextP, coap_packet_t * message, void * sessionH);
 336:g:/iot/IoT_Device_Demo/iot_link/network/lwm2m/wakaama_lwm2m/wakaama-master/core\internals.h **** 
 337:g:/iot/IoT_Device_Demo/iot_link/network/lwm2m/wakaama_lwm2m/wakaama-master/core\internals.h **** // defined in bootstrap.c
 338:g:/iot/IoT_Device_Demo/iot_link/network/lwm2m/wakaama_lwm2m/wakaama-master/core\internals.h **** void bootstrap_step(lwm2m_context_t * contextP, uint32_t currentTime, time_t* timeoutP);
 339:g:/iot/IoT_Device_Demo/iot_link/network/lwm2m/wakaama_lwm2m/wakaama-master/core\internals.h **** uint8_t bootstrap_handleCommand(lwm2m_context_t * contextP, lwm2m_uri_t * uriP, lwm2m_server_t * se
 340:g:/iot/IoT_Device_Demo/iot_link/network/lwm2m/wakaama_lwm2m/wakaama-master/core\internals.h **** uint8_t bootstrap_handleDeleteAll(lwm2m_context_t * context, void * fromSessionH);
 341:g:/iot/IoT_Device_Demo/iot_link/network/lwm2m/wakaama_lwm2m/wakaama-master/core\internals.h **** uint8_t bootstrap_handleFinish(lwm2m_context_t * context, void * fromSessionH);
 342:g:/iot/IoT_Device_Demo/iot_link/network/lwm2m/wakaama_lwm2m/wakaama-master/core\internals.h **** uint8_t bootstrap_handleRequest(lwm2m_context_t * contextP, lwm2m_uri_t * uriP, void * fromSessionH
 343:g:/iot/IoT_Device_Demo/iot_link/network/lwm2m/wakaama_lwm2m/wakaama-master/core\internals.h **** void bootstrap_start(lwm2m_context_t * contextP);
 344:g:/iot/IoT_Device_Demo/iot_link/network/lwm2m/wakaama_lwm2m/wakaama-master/core\internals.h **** lwm2m_status_t bootstrap_getStatus(lwm2m_context_t * contextP);
 345:g:/iot/IoT_Device_Demo/iot_link/network/lwm2m/wakaama_lwm2m/wakaama-master/core\internals.h **** bool bootstrap_isBsServerIpValid(const lwm2m_context_t *contextP);
 346:g:/iot/IoT_Device_Demo/iot_link/network/lwm2m/wakaama_lwm2m/wakaama-master/core\internals.h **** 
 347:g:/iot/IoT_Device_Demo/iot_link/network/lwm2m/wakaama_lwm2m/wakaama-master/core\internals.h **** 
 348:g:/iot/IoT_Device_Demo/iot_link/network/lwm2m/wakaama_lwm2m/wakaama-master/core\internals.h **** // defined in tlv.c
 349:g:/iot/IoT_Device_Demo/iot_link/network/lwm2m/wakaama_lwm2m/wakaama-master/core\internals.h **** int tlv_parse(uint8_t * buffer, size_t bufferLen, lwm2m_data_t ** dataP);
 350:g:/iot/IoT_Device_Demo/iot_link/network/lwm2m/wakaama_lwm2m/wakaama-master/core\internals.h **** int tlv_serialize(bool isResourceInstance, int size, lwm2m_data_t * dataP, uint8_t ** bufferP);
 351:g:/iot/IoT_Device_Demo/iot_link/network/lwm2m/wakaama_lwm2m/wakaama-master/core\internals.h **** 
 352:g:/iot/IoT_Device_Demo/iot_link/network/lwm2m/wakaama_lwm2m/wakaama-master/core\internals.h **** // defined in json.c
 353:g:/iot/IoT_Device_Demo/iot_link/network/lwm2m/wakaama_lwm2m/wakaama-master/core\internals.h **** #ifdef LWM2M_SUPPORT_JSON
 354:g:/iot/IoT_Device_Demo/iot_link/network/lwm2m/wakaama_lwm2m/wakaama-master/core\internals.h **** int json_parse(lwm2m_uri_t * uriP, uint8_t * buffer, size_t bufferLen, lwm2m_data_t ** dataP);
 355:g:/iot/IoT_Device_Demo/iot_link/network/lwm2m/wakaama_lwm2m/wakaama-master/core\internals.h **** int json_serialize(lwm2m_uri_t * uriP, int size, lwm2m_data_t * tlvP, uint8_t ** bufferP);
 356:g:/iot/IoT_Device_Demo/iot_link/network/lwm2m/wakaama_lwm2m/wakaama-master/core\internals.h **** #endif
 357:g:/iot/IoT_Device_Demo/iot_link/network/lwm2m/wakaama_lwm2m/wakaama-master/core\internals.h **** 
 358:g:/iot/IoT_Device_Demo/iot_link/network/lwm2m/wakaama_lwm2m/wakaama-master/core\internals.h **** // defined in discover.c
 359:g:/iot/IoT_Device_Demo/iot_link/network/lwm2m/wakaama_lwm2m/wakaama-master/core\internals.h **** int discover_serialize(lwm2m_context_t * contextP, lwm2m_uri_t * uriP, lwm2m_server_t * serverP, in
 360:g:/iot/IoT_Device_Demo/iot_link/network/lwm2m/wakaama_lwm2m/wakaama-master/core\internals.h **** 
 361:g:/iot/IoT_Device_Demo/iot_link/network/lwm2m/wakaama_lwm2m/wakaama-master/core\internals.h **** // defined in block1.c
 362:g:/iot/IoT_Device_Demo/iot_link/network/lwm2m/wakaama_lwm2m/wakaama-master/core\internals.h **** uint8_t coap_block1_handler(lwm2m_block1_data_t ** block1Data, uint16_t mid, uint8_t * buffer, size
 363:g:/iot/IoT_Device_Demo/iot_link/network/lwm2m/wakaama_lwm2m/wakaama-master/core\internals.h **** void free_block1_buffer(lwm2m_block1_data_t * block1Data);
 364:g:/iot/IoT_Device_Demo/iot_link/network/lwm2m/wakaama_lwm2m/wakaama-master/core\internals.h **** 
 365:g:/iot/IoT_Device_Demo/iot_link/network/lwm2m/wakaama_lwm2m/wakaama-master/core\internals.h **** // defined in utils.c
 366:g:/iot/IoT_Device_Demo/iot_link/network/lwm2m/wakaama_lwm2m/wakaama-master/core\internals.h **** lwm2m_data_type_t utils_depthToDatatype(uri_depth_t depth);
 367:g:/iot/IoT_Device_Demo/iot_link/network/lwm2m/wakaama_lwm2m/wakaama-master/core\internals.h **** lwm2m_binding_t utils_stringToBinding(uint8_t *buffer, size_t length);
 368:g:/iot/IoT_Device_Demo/iot_link/network/lwm2m/wakaama_lwm2m/wakaama-master/core\internals.h **** lwm2m_media_type_t utils_convertMediaType(coap_content_type_t type);
 369:g:/iot/IoT_Device_Demo/iot_link/network/lwm2m/wakaama_lwm2m/wakaama-master/core\internals.h **** int utils_isAltPathValid(const char * altPath);
 370:g:/iot/IoT_Device_Demo/iot_link/network/lwm2m/wakaama_lwm2m/wakaama-master/core\internals.h **** int utils_stringCopy(char * buffer, size_t length, const char * str);
 371:g:/iot/IoT_Device_Demo/iot_link/network/lwm2m/wakaama_lwm2m/wakaama-master/core\internals.h **** size_t utils_intToText(int64_t data, uint8_t * string, size_t length);
 372:g:/iot/IoT_Device_Demo/iot_link/network/lwm2m/wakaama_lwm2m/wakaama-master/core\internals.h **** size_t utils_floatToText(double data, uint8_t * string, size_t length);
 373:g:/iot/IoT_Device_Demo/iot_link/network/lwm2m/wakaama_lwm2m/wakaama-master/core\internals.h **** int utils_textToInt(uint8_t * buffer, int length, int64_t * dataP);
ARM GAS  C:\Users\ADMINI~1\AppData\Local\Temp\ccO7A1oC.s 			page 8


 374:g:/iot/IoT_Device_Demo/iot_link/network/lwm2m/wakaama_lwm2m/wakaama-master/core\internals.h **** int utils_textToFloat(uint8_t * buffer, int length, double * dataP);
 375:g:/iot/IoT_Device_Demo/iot_link/network/lwm2m/wakaama_lwm2m/wakaama-master/core\internals.h **** void utils_copyValue(void * dst, const void * src, size_t len);
 376:g:/iot/IoT_Device_Demo/iot_link/network/lwm2m/wakaama_lwm2m/wakaama-master/core\internals.h **** size_t utils_base64GetSize(size_t dataLen);
 377:g:/iot/IoT_Device_Demo/iot_link/network/lwm2m/wakaama_lwm2m/wakaama-master/core\internals.h **** size_t utils_base64Encode(uint8_t * dataP, size_t dataLen, uint8_t * bufferP, size_t bufferLen);
 378:g:/iot/IoT_Device_Demo/iot_link/network/lwm2m/wakaama_lwm2m/wakaama-master/core\internals.h **** #ifdef LWM2M_CLIENT_MODE
 379:g:/iot/IoT_Device_Demo/iot_link/network/lwm2m/wakaama_lwm2m/wakaama-master/core\internals.h **** lwm2m_server_t * utils_findServer(lwm2m_context_t * contextP, void * fromSessionH);
 380:g:/iot/IoT_Device_Demo/iot_link/network/lwm2m/wakaama_lwm2m/wakaama-master/core\internals.h **** lwm2m_server_t * utils_findBootstrapServer(lwm2m_context_t * contextP, void * fromSessionH);
 381:g:/iot/IoT_Device_Demo/iot_link/network/lwm2m/wakaama_lwm2m/wakaama-master/core\internals.h **** #endif
 382:g:/iot/IoT_Device_Demo/iot_link/network/lwm2m/wakaama_lwm2m/wakaama-master/core\internals.h **** static inline int dm_isUriOpaqueHandle(const lwm2m_uri_t * uriP)
 383:g:/iot/IoT_Device_Demo/iot_link/network/lwm2m/wakaama_lwm2m/wakaama-master/core\internals.h **** {
  28              		.loc 1 383 1
  29              		.cfi_startproc
  30              		@ args = 0, pretend = 0, frame = 8
  31              		@ frame_needed = 1, uses_anonymous_args = 0
  32              		@ link register save eliminated.
  33 0000 80B4     		push	{r7}
  34              	.LCFI0:
  35              		.cfi_def_cfa_offset 4
  36              		.cfi_offset 7, -4
  37 0002 83B0     		sub	sp, sp, #12
  38              	.LCFI1:
  39              		.cfi_def_cfa_offset 16
  40 0004 00AF     		add	r7, sp, #0
  41              	.LCFI2:
  42              		.cfi_def_cfa_register 7
  43 0006 7860     		str	r0, [r7, #4]
 384:g:/iot/IoT_Device_Demo/iot_link/network/lwm2m/wakaama_lwm2m/wakaama-master/core\internals.h ****     return (19 == uriP->objectId);
  44              		.loc 1 384 23
  45 0008 7B68     		ldr	r3, [r7, #4]
  46 000a 5B88     		ldrh	r3, [r3, #2]
  47              		.loc 1 384 16
  48 000c 132B     		cmp	r3, #19
  49 000e 0CBF     		ite	eq
  50 0010 0123     		moveq	r3, #1
  51 0012 0023     		movne	r3, #0
  52 0014 DBB2     		uxtb	r3, r3
 385:g:/iot/IoT_Device_Demo/iot_link/network/lwm2m/wakaama_lwm2m/wakaama-master/core\internals.h **** }
  53              		.loc 1 385 1
  54 0016 1846     		mov	r0, r3
  55 0018 0C37     		adds	r7, r7, #12
  56              	.LCFI3:
  57              		.cfi_def_cfa_offset 4
  58 001a BD46     		mov	sp, r7
  59              	.LCFI4:
  60              		.cfi_def_cfa_register 13
  61              		@ sp needed
  62 001c 5DF8047B 		ldr	r7, [sp], #4
  63              	.LCFI5:
  64              		.cfi_restore 7
  65              		.cfi_def_cfa_offset 0
  66 0020 7047     		bx	lr
  67              		.cfi_endproc
  68              	.LFE3:
  70              		.section	.text.lwm2m_data_decode_opaque,"ax",%progbits
  71              		.align	1
  72              		.global	lwm2m_data_decode_opaque
  73              		.syntax unified
ARM GAS  C:\Users\ADMINI~1\AppData\Local\Temp\ccO7A1oC.s 			page 9


  74              		.thumb
  75              		.thumb_func
  76              		.fpu fpv4-sp-d16
  78              	lwm2m_data_decode_opaque:
  79              	.LFB4:
  80              		.file 2 "g:/iot/IoT_Device_Demo/iot_link/network/lwm2m/wakaama_lwm2m/wakaama-master/core/data.c"
   1:g:/iot/IoT_Device_Demo/iot_link/network/lwm2m/wakaama_lwm2m/wakaama-master/core\data.c **** /*----------------------------------------------------------------------------
   2:g:/iot/IoT_Device_Demo/iot_link/network/lwm2m/wakaama_lwm2m/wakaama-master/core\data.c ****  * Copyright (c) <2016-2018>, <Huawei Technologies Co., Ltd>
   3:g:/iot/IoT_Device_Demo/iot_link/network/lwm2m/wakaama_lwm2m/wakaama-master/core\data.c ****  * All rights reserved.
   4:g:/iot/IoT_Device_Demo/iot_link/network/lwm2m/wakaama_lwm2m/wakaama-master/core\data.c ****  * Redistribution and use in source and binary forms, with or without modification,
   5:g:/iot/IoT_Device_Demo/iot_link/network/lwm2m/wakaama_lwm2m/wakaama-master/core\data.c ****  * are permitted provided that the following conditions are met:
   6:g:/iot/IoT_Device_Demo/iot_link/network/lwm2m/wakaama_lwm2m/wakaama-master/core\data.c ****  * 1. Redistributions of source code must retain the above copyright notice, this list of
   7:g:/iot/IoT_Device_Demo/iot_link/network/lwm2m/wakaama_lwm2m/wakaama-master/core\data.c ****  * conditions and the following disclaimer.
   8:g:/iot/IoT_Device_Demo/iot_link/network/lwm2m/wakaama_lwm2m/wakaama-master/core\data.c ****  * 2. Redistributions in binary form must reproduce the above copyright notice, this list
   9:g:/iot/IoT_Device_Demo/iot_link/network/lwm2m/wakaama_lwm2m/wakaama-master/core\data.c ****  * of conditions and the following disclaimer in the documentation and/or other materials
  10:g:/iot/IoT_Device_Demo/iot_link/network/lwm2m/wakaama_lwm2m/wakaama-master/core\data.c ****  * provided with the distribution.
  11:g:/iot/IoT_Device_Demo/iot_link/network/lwm2m/wakaama_lwm2m/wakaama-master/core\data.c ****  * 3. Neither the name of the copyright holder nor the names of its contributors may be used
  12:g:/iot/IoT_Device_Demo/iot_link/network/lwm2m/wakaama_lwm2m/wakaama-master/core\data.c ****  * to endorse or promote products derived from this software without specific prior written
  13:g:/iot/IoT_Device_Demo/iot_link/network/lwm2m/wakaama_lwm2m/wakaama-master/core\data.c ****  * permission.
  14:g:/iot/IoT_Device_Demo/iot_link/network/lwm2m/wakaama_lwm2m/wakaama-master/core\data.c ****  * THIS SOFTWARE IS PROVIDED BY THE COPYRIGHT HOLDERS AND CONTRIBUTORS
  15:g:/iot/IoT_Device_Demo/iot_link/network/lwm2m/wakaama_lwm2m/wakaama-master/core\data.c ****  * "AS IS" AND ANY EXPRESS OR IMPLIED WARRANTIES, INCLUDING, BUT NOT LIMITED TO,
  16:g:/iot/IoT_Device_Demo/iot_link/network/lwm2m/wakaama_lwm2m/wakaama-master/core\data.c ****  * THE IMPLIED WARRANTIES OF MERCHANTABILITY AND FITNESS FOR A PARTICULAR
  17:g:/iot/IoT_Device_Demo/iot_link/network/lwm2m/wakaama_lwm2m/wakaama-master/core\data.c ****  * PURPOSE ARE DISCLAIMED. IN NO EVENT SHALL THE COPYRIGHT HOLDER OR
  18:g:/iot/IoT_Device_Demo/iot_link/network/lwm2m/wakaama_lwm2m/wakaama-master/core\data.c ****  * CONTRIBUTORS BE LIABLE FOR ANY DIRECT, INDIRECT, INCIDENTAL, SPECIAL,
  19:g:/iot/IoT_Device_Demo/iot_link/network/lwm2m/wakaama_lwm2m/wakaama-master/core\data.c ****  * EXEMPLARY, OR CONSEQUENTIAL DAMAGES (INCLUDING, BUT NOT LIMITED TO,
  20:g:/iot/IoT_Device_Demo/iot_link/network/lwm2m/wakaama_lwm2m/wakaama-master/core\data.c ****  * PROCUREMENT OF SUBSTITUTE GOODS OR SERVICES; LOSS OF USE, DATA, OR PROFITS;
  21:g:/iot/IoT_Device_Demo/iot_link/network/lwm2m/wakaama_lwm2m/wakaama-master/core\data.c ****  * OR BUSINESS INTERRUPTION) HOWEVER CAUSED AND ON ANY THEORY OF LIABILITY,
  22:g:/iot/IoT_Device_Demo/iot_link/network/lwm2m/wakaama_lwm2m/wakaama-master/core\data.c ****  * WHETHER IN CONTRACT, STRICT LIABILITY, OR TORT (INCLUDING NEGLIGENCE OR
  23:g:/iot/IoT_Device_Demo/iot_link/network/lwm2m/wakaama_lwm2m/wakaama-master/core\data.c ****  * OTHERWISE) ARISING IN ANY WAY OUT OF THE USE OF THIS SOFTWARE, EVEN IF
  24:g:/iot/IoT_Device_Demo/iot_link/network/lwm2m/wakaama_lwm2m/wakaama-master/core\data.c ****  * ADVISED OF THE POSSIBILITY OF SUCH DAMAGE.
  25:g:/iot/IoT_Device_Demo/iot_link/network/lwm2m/wakaama_lwm2m/wakaama-master/core\data.c ****  *---------------------------------------------------------------------------*/
  26:g:/iot/IoT_Device_Demo/iot_link/network/lwm2m/wakaama_lwm2m/wakaama-master/core\data.c **** /*----------------------------------------------------------------------------
  27:g:/iot/IoT_Device_Demo/iot_link/network/lwm2m/wakaama_lwm2m/wakaama-master/core\data.c ****  * Notice of Export Control Law
  28:g:/iot/IoT_Device_Demo/iot_link/network/lwm2m/wakaama_lwm2m/wakaama-master/core\data.c ****  * ===============================================
  29:g:/iot/IoT_Device_Demo/iot_link/network/lwm2m/wakaama_lwm2m/wakaama-master/core\data.c ****  * Huawei LiteOS may be subject to applicable export control laws and regulations, which might
  30:g:/iot/IoT_Device_Demo/iot_link/network/lwm2m/wakaama_lwm2m/wakaama-master/core\data.c ****  * include those applicable to Huawei LiteOS of U.S. and the country in which you are located.
  31:g:/iot/IoT_Device_Demo/iot_link/network/lwm2m/wakaama_lwm2m/wakaama-master/core\data.c ****  * Import, export and usage of Huawei LiteOS in any manner by you shall be in compliance with such
  32:g:/iot/IoT_Device_Demo/iot_link/network/lwm2m/wakaama_lwm2m/wakaama-master/core\data.c ****  * applicable export control laws and regulations.
  33:g:/iot/IoT_Device_Demo/iot_link/network/lwm2m/wakaama_lwm2m/wakaama-master/core\data.c ****  *---------------------------------------------------------------------------*/
  34:g:/iot/IoT_Device_Demo/iot_link/network/lwm2m/wakaama_lwm2m/wakaama-master/core\data.c **** 
  35:g:/iot/IoT_Device_Demo/iot_link/network/lwm2m/wakaama_lwm2m/wakaama-master/core\data.c **** /*******************************************************************************
  36:g:/iot/IoT_Device_Demo/iot_link/network/lwm2m/wakaama_lwm2m/wakaama-master/core\data.c **** *
  37:g:/iot/IoT_Device_Demo/iot_link/network/lwm2m/wakaama_lwm2m/wakaama-master/core\data.c **** * Copyright (c) 2013, 2014 Intel Corporation and others.
  38:g:/iot/IoT_Device_Demo/iot_link/network/lwm2m/wakaama_lwm2m/wakaama-master/core\data.c **** * All rights reserved. This program and the accompanying materials
  39:g:/iot/IoT_Device_Demo/iot_link/network/lwm2m/wakaama_lwm2m/wakaama-master/core\data.c **** * are made available under the terms of the Eclipse Public License v1.0
  40:g:/iot/IoT_Device_Demo/iot_link/network/lwm2m/wakaama_lwm2m/wakaama-master/core\data.c **** * and Eclipse Distribution License v1.0 which accompany this distribution.
  41:g:/iot/IoT_Device_Demo/iot_link/network/lwm2m/wakaama_lwm2m/wakaama-master/core\data.c **** *
  42:g:/iot/IoT_Device_Demo/iot_link/network/lwm2m/wakaama_lwm2m/wakaama-master/core\data.c **** * The Eclipse Public License is available at
  43:g:/iot/IoT_Device_Demo/iot_link/network/lwm2m/wakaama_lwm2m/wakaama-master/core\data.c **** *    http://www.eclipse.org/legal/epl-v10.html
  44:g:/iot/IoT_Device_Demo/iot_link/network/lwm2m/wakaama_lwm2m/wakaama-master/core\data.c **** * The Eclipse Distribution License is available at
  45:g:/iot/IoT_Device_Demo/iot_link/network/lwm2m/wakaama_lwm2m/wakaama-master/core\data.c **** *    http://www.eclipse.org/org/documents/edl-v10.php.
  46:g:/iot/IoT_Device_Demo/iot_link/network/lwm2m/wakaama_lwm2m/wakaama-master/core\data.c **** *
  47:g:/iot/IoT_Device_Demo/iot_link/network/lwm2m/wakaama_lwm2m/wakaama-master/core\data.c **** * Contributors:
  48:g:/iot/IoT_Device_Demo/iot_link/network/lwm2m/wakaama_lwm2m/wakaama-master/core\data.c **** *    David Navarro, Intel Corporation - initial API and implementation
  49:g:/iot/IoT_Device_Demo/iot_link/network/lwm2m/wakaama_lwm2m/wakaama-master/core\data.c **** *    Fabien Fleutot - Please refer to git log
  50:g:/iot/IoT_Device_Demo/iot_link/network/lwm2m/wakaama_lwm2m/wakaama-master/core\data.c **** *    Bosch Software Innovations GmbH - Please refer to git log
  51:g:/iot/IoT_Device_Demo/iot_link/network/lwm2m/wakaama_lwm2m/wakaama-master/core\data.c **** *
ARM GAS  C:\Users\ADMINI~1\AppData\Local\Temp\ccO7A1oC.s 			page 10


  52:g:/iot/IoT_Device_Demo/iot_link/network/lwm2m/wakaama_lwm2m/wakaama-master/core\data.c **** *******************************************************************************/
  53:g:/iot/IoT_Device_Demo/iot_link/network/lwm2m/wakaama_lwm2m/wakaama-master/core\data.c **** 
  54:g:/iot/IoT_Device_Demo/iot_link/network/lwm2m/wakaama_lwm2m/wakaama-master/core\data.c **** #include "internals.h"
  55:g:/iot/IoT_Device_Demo/iot_link/network/lwm2m/wakaama_lwm2m/wakaama-master/core\data.c **** #include <float.h>
  56:g:/iot/IoT_Device_Demo/iot_link/network/lwm2m/wakaama_lwm2m/wakaama-master/core\data.c **** 
  57:g:/iot/IoT_Device_Demo/iot_link/network/lwm2m/wakaama_lwm2m/wakaama-master/core\data.c **** #define _PRV_STR_LENGTH 32
  58:g:/iot/IoT_Device_Demo/iot_link/network/lwm2m/wakaama_lwm2m/wakaama-master/core\data.c **** 
  59:g:/iot/IoT_Device_Demo/iot_link/network/lwm2m/wakaama_lwm2m/wakaama-master/core\data.c **** 
  60:g:/iot/IoT_Device_Demo/iot_link/network/lwm2m/wakaama_lwm2m/wakaama-master/core\data.c **** void lwm2m_data_decode_opaque(const lwm2m_data_t *dataP,
  61:g:/iot/IoT_Device_Demo/iot_link/network/lwm2m/wakaama_lwm2m/wakaama-master/core\data.c ****                               int8_t *valueP)
  62:g:/iot/IoT_Device_Demo/iot_link/network/lwm2m/wakaama_lwm2m/wakaama-master/core\data.c **** {
  81              		.loc 2 62 1
  82              		.cfi_startproc
  83              		@ args = 0, pretend = 0, frame = 8
  84              		@ frame_needed = 1, uses_anonymous_args = 0
  85 0000 80B5     		push	{r7, lr}
  86              	.LCFI6:
  87              		.cfi_def_cfa_offset 8
  88              		.cfi_offset 7, -8
  89              		.cfi_offset 14, -4
  90 0002 82B0     		sub	sp, sp, #8
  91              	.LCFI7:
  92              		.cfi_def_cfa_offset 16
  93 0004 00AF     		add	r7, sp, #0
  94              	.LCFI8:
  95              		.cfi_def_cfa_register 7
  96 0006 7860     		str	r0, [r7, #4]
  97 0008 3960     		str	r1, [r7]
  63:g:/iot/IoT_Device_Demo/iot_link/network/lwm2m/wakaama_lwm2m/wakaama-master/core\data.c ****     memcpy(valueP, dataP->value.asBuffer.buffer, dataP->value.asBuffer.length);
  98              		.loc 2 63 41
  99 000a 7B68     		ldr	r3, [r7, #4]
 100 000c D968     		ldr	r1, [r3, #12]
 101              		.loc 2 63 5
 102 000e 7B68     		ldr	r3, [r7, #4]
 103 0010 9B68     		ldr	r3, [r3, #8]
 104 0012 1A46     		mov	r2, r3
 105 0014 3868     		ldr	r0, [r7]
 106 0016 FFF7FEFF 		bl	memcpy
  64:g:/iot/IoT_Device_Demo/iot_link/network/lwm2m/wakaama_lwm2m/wakaama-master/core\data.c **** }
 107              		.loc 2 64 1
 108 001a 00BF     		nop
 109 001c 0837     		adds	r7, r7, #8
 110              	.LCFI9:
 111              		.cfi_def_cfa_offset 8
 112 001e BD46     		mov	sp, r7
 113              	.LCFI10:
 114              		.cfi_def_cfa_register 13
 115              		@ sp needed
 116 0020 80BD     		pop	{r7, pc}
 117              		.cfi_endproc
 118              	.LFE4:
 120              		.section	.text.prv_textSerialize,"ax",%progbits
 121              		.align	1
 122              		.syntax unified
 123              		.thumb
 124              		.thumb_func
 125              		.fpu fpv4-sp-d16
ARM GAS  C:\Users\ADMINI~1\AppData\Local\Temp\ccO7A1oC.s 			page 11


 127              	prv_textSerialize:
 128              	.LFB5:
  65:g:/iot/IoT_Device_Demo/iot_link/network/lwm2m/wakaama_lwm2m/wakaama-master/core\data.c **** 
  66:g:/iot/IoT_Device_Demo/iot_link/network/lwm2m/wakaama_lwm2m/wakaama-master/core\data.c **** // dataP array length is assumed to be 1.
  67:g:/iot/IoT_Device_Demo/iot_link/network/lwm2m/wakaama_lwm2m/wakaama-master/core\data.c **** static int prv_textSerialize(lwm2m_data_t *dataP,
  68:g:/iot/IoT_Device_Demo/iot_link/network/lwm2m/wakaama_lwm2m/wakaama-master/core\data.c ****                              uint8_t **bufferP)
  69:g:/iot/IoT_Device_Demo/iot_link/network/lwm2m/wakaama_lwm2m/wakaama-master/core\data.c **** {
 129              		.loc 2 69 1
 130              		.cfi_startproc
 131              		@ args = 0, pretend = 0, frame = 96
 132              		@ frame_needed = 1, uses_anonymous_args = 0
 133 0000 80B5     		push	{r7, lr}
 134              	.LCFI11:
 135              		.cfi_def_cfa_offset 8
 136              		.cfi_offset 7, -8
 137              		.cfi_offset 14, -4
 138 0002 98B0     		sub	sp, sp, #96
 139              	.LCFI12:
 140              		.cfi_def_cfa_offset 104
 141 0004 00AF     		add	r7, sp, #0
 142              	.LCFI13:
 143              		.cfi_def_cfa_register 7
 144 0006 7860     		str	r0, [r7, #4]
 145 0008 3960     		str	r1, [r7]
  70:g:/iot/IoT_Device_Demo/iot_link/network/lwm2m/wakaama_lwm2m/wakaama-master/core\data.c ****     size_t res;
  71:g:/iot/IoT_Device_Demo/iot_link/network/lwm2m/wakaama_lwm2m/wakaama-master/core\data.c **** 
  72:g:/iot/IoT_Device_Demo/iot_link/network/lwm2m/wakaama_lwm2m/wakaama-master/core\data.c ****     switch (dataP->type)
 146              		.loc 2 72 18
 147 000a 7B68     		ldr	r3, [r7, #4]
 148 000c 1B78     		ldrb	r3, [r3]	@ zero_extendqisi2
 149 000e 043B     		subs	r3, r3, #4
 150 0010 052B     		cmp	r3, #5
 151 0012 00F20381 		bhi	.L5
 152 0016 01A2     		adr	r2, .L7
 153 0018 52F823F0 		ldr	pc, [r2, r3, lsl #2]
 154              		.p2align 2
 155              	.L7:
 156 001c 35000000 		.word	.L12+1
 157 0020 C7010000 		.word	.L11+1
 158 0024 69000000 		.word	.L10+1
 159 0028 B5000000 		.word	.L9+1
 160 002c 0B010000 		.word	.L8+1
 161 0030 3D010000 		.word	.L6+1
 162              		.p2align 1
 163              	.L12:
  73:g:/iot/IoT_Device_Demo/iot_link/network/lwm2m/wakaama_lwm2m/wakaama-master/core\data.c ****     {
  74:g:/iot/IoT_Device_Demo/iot_link/network/lwm2m/wakaama_lwm2m/wakaama-master/core\data.c ****     case LWM2M_TYPE_STRING:
  75:g:/iot/IoT_Device_Demo/iot_link/network/lwm2m/wakaama_lwm2m/wakaama-master/core\data.c ****         *bufferP = (uint8_t *)lwm2m_malloc(dataP->value.asBuffer.length);
 164              		.loc 2 75 31
 165 0034 7B68     		ldr	r3, [r7, #4]
 166 0036 9B68     		ldr	r3, [r3, #8]
 167 0038 1846     		mov	r0, r3
 168 003a FFF7FEFF 		bl	lwm2m_malloc
 169 003e 0246     		mov	r2, r0
 170              		.loc 2 75 18
 171 0040 3B68     		ldr	r3, [r7]
 172 0042 1A60     		str	r2, [r3]
ARM GAS  C:\Users\ADMINI~1\AppData\Local\Temp\ccO7A1oC.s 			page 12


  76:g:/iot/IoT_Device_Demo/iot_link/network/lwm2m/wakaama_lwm2m/wakaama-master/core\data.c ****         if (*bufferP == NULL) return 0;
 173              		.loc 2 76 13
 174 0044 3B68     		ldr	r3, [r7]
 175 0046 1B68     		ldr	r3, [r3]
 176              		.loc 2 76 12
 177 0048 002B     		cmp	r3, #0
 178 004a 01D1     		bne	.L13
 179              		.loc 2 76 38 discriminator 1
 180 004c 0023     		movs	r3, #0
 181 004e E7E0     		b	.L14
 182              	.L13:
  77:g:/iot/IoT_Device_Demo/iot_link/network/lwm2m/wakaama_lwm2m/wakaama-master/core\data.c ****         memcpy(*bufferP, dataP->value.asBuffer.buffer, dataP->value.asBuffer.length);
 183              		.loc 2 77 9
 184 0050 3B68     		ldr	r3, [r7]
 185 0052 1868     		ldr	r0, [r3]
 186              		.loc 2 77 47
 187 0054 7B68     		ldr	r3, [r7, #4]
 188 0056 D968     		ldr	r1, [r3, #12]
 189              		.loc 2 77 9
 190 0058 7B68     		ldr	r3, [r7, #4]
 191 005a 9B68     		ldr	r3, [r3, #8]
 192 005c 1A46     		mov	r2, r3
 193 005e FFF7FEFF 		bl	memcpy
  78:g:/iot/IoT_Device_Demo/iot_link/network/lwm2m/wakaama_lwm2m/wakaama-master/core\data.c ****         return (int)dataP->value.asBuffer.length;
 194              		.loc 2 78 42
 195 0062 7B68     		ldr	r3, [r7, #4]
 196 0064 9B68     		ldr	r3, [r3, #8]
 197              		.loc 2 78 16
 198 0066 DBE0     		b	.L14
 199              	.L10:
 200              	.LBB2:
  79:g:/iot/IoT_Device_Demo/iot_link/network/lwm2m/wakaama_lwm2m/wakaama-master/core\data.c **** 
  80:g:/iot/IoT_Device_Demo/iot_link/network/lwm2m/wakaama_lwm2m/wakaama-master/core\data.c ****     case LWM2M_TYPE_INTEGER:
  81:g:/iot/IoT_Device_Demo/iot_link/network/lwm2m/wakaama_lwm2m/wakaama-master/core\data.c ****     {
  82:g:/iot/IoT_Device_Demo/iot_link/network/lwm2m/wakaama_lwm2m/wakaama-master/core\data.c ****         uint8_t intString[_PRV_STR_LENGTH];
  83:g:/iot/IoT_Device_Demo/iot_link/network/lwm2m/wakaama_lwm2m/wakaama-master/core\data.c **** 
  84:g:/iot/IoT_Device_Demo/iot_link/network/lwm2m/wakaama_lwm2m/wakaama-master/core\data.c ****         res = utils_intToText(dataP->value.asInteger, intString, _PRV_STR_LENGTH);
 201              		.loc 2 84 15
 202 0068 7B68     		ldr	r3, [r7, #4]
 203 006a D3E90201 		ldrd	r0, [r3, #8]
 204 006e 07F10802 		add	r2, r7, #8
 205 0072 2023     		movs	r3, #32
 206 0074 FFF7FEFF 		bl	utils_intToText
 207 0078 B865     		str	r0, [r7, #88]
  85:g:/iot/IoT_Device_Demo/iot_link/network/lwm2m/wakaama_lwm2m/wakaama-master/core\data.c ****         if (res == 0) return -1;
 208              		.loc 2 85 12
 209 007a BB6D     		ldr	r3, [r7, #88]
 210 007c 002B     		cmp	r3, #0
 211 007e 02D1     		bne	.L15
 212              		.loc 2 85 30 discriminator 1
 213 0080 4FF0FF33 		mov	r3, #-1
 214 0084 CCE0     		b	.L14
 215              	.L15:
  86:g:/iot/IoT_Device_Demo/iot_link/network/lwm2m/wakaama_lwm2m/wakaama-master/core\data.c **** 
  87:g:/iot/IoT_Device_Demo/iot_link/network/lwm2m/wakaama_lwm2m/wakaama-master/core\data.c ****         *bufferP = (uint8_t *)lwm2m_malloc(res);
 216              		.loc 2 87 31
 217 0086 B86D     		ldr	r0, [r7, #88]
ARM GAS  C:\Users\ADMINI~1\AppData\Local\Temp\ccO7A1oC.s 			page 13


 218 0088 FFF7FEFF 		bl	lwm2m_malloc
 219 008c 0246     		mov	r2, r0
 220              		.loc 2 87 18
 221 008e 3B68     		ldr	r3, [r7]
 222 0090 1A60     		str	r2, [r3]
  88:g:/iot/IoT_Device_Demo/iot_link/network/lwm2m/wakaama_lwm2m/wakaama-master/core\data.c ****         if (NULL == *bufferP) return -1;
 223              		.loc 2 88 21
 224 0092 3B68     		ldr	r3, [r7]
 225 0094 1B68     		ldr	r3, [r3]
 226              		.loc 2 88 12
 227 0096 002B     		cmp	r3, #0
 228 0098 02D1     		bne	.L17
 229              		.loc 2 88 38 discriminator 1
 230 009a 4FF0FF33 		mov	r3, #-1
 231 009e BFE0     		b	.L14
 232              	.L17:
  89:g:/iot/IoT_Device_Demo/iot_link/network/lwm2m/wakaama_lwm2m/wakaama-master/core\data.c **** 
  90:g:/iot/IoT_Device_Demo/iot_link/network/lwm2m/wakaama_lwm2m/wakaama-master/core\data.c ****         memcpy(*bufferP, intString, res);
 233              		.loc 2 90 9
 234 00a0 3B68     		ldr	r3, [r7]
 235 00a2 1B68     		ldr	r3, [r3]
 236 00a4 07F10801 		add	r1, r7, #8
 237 00a8 BA6D     		ldr	r2, [r7, #88]
 238 00aa 1846     		mov	r0, r3
 239 00ac FFF7FEFF 		bl	memcpy
  91:g:/iot/IoT_Device_Demo/iot_link/network/lwm2m/wakaama_lwm2m/wakaama-master/core\data.c **** 
  92:g:/iot/IoT_Device_Demo/iot_link/network/lwm2m/wakaama_lwm2m/wakaama-master/core\data.c ****         return (int)res;
 240              		.loc 2 92 16
 241 00b0 BB6D     		ldr	r3, [r7, #88]
 242 00b2 B5E0     		b	.L14
 243              	.L9:
 244              	.LBE2:
 245              	.LBB3:
  93:g:/iot/IoT_Device_Demo/iot_link/network/lwm2m/wakaama_lwm2m/wakaama-master/core\data.c ****     }
  94:g:/iot/IoT_Device_Demo/iot_link/network/lwm2m/wakaama_lwm2m/wakaama-master/core\data.c **** 
  95:g:/iot/IoT_Device_Demo/iot_link/network/lwm2m/wakaama_lwm2m/wakaama-master/core\data.c ****     case LWM2M_TYPE_FLOAT:
  96:g:/iot/IoT_Device_Demo/iot_link/network/lwm2m/wakaama_lwm2m/wakaama-master/core\data.c ****     {
  97:g:/iot/IoT_Device_Demo/iot_link/network/lwm2m/wakaama_lwm2m/wakaama-master/core\data.c ****         uint8_t floatString[_PRV_STR_LENGTH * 2];
  98:g:/iot/IoT_Device_Demo/iot_link/network/lwm2m/wakaama_lwm2m/wakaama-master/core\data.c **** 
  99:g:/iot/IoT_Device_Demo/iot_link/network/lwm2m/wakaama_lwm2m/wakaama-master/core\data.c ****         res = utils_floatToText(dataP->value.asFloat, floatString, _PRV_STR_LENGTH * 2);
 246              		.loc 2 99 15
 247 00b4 7B68     		ldr	r3, [r7, #4]
 248 00b6 93ED027B 		vldr.64	d7, [r3, #8]
 249 00ba 07F10803 		add	r3, r7, #8
 250 00be 4021     		movs	r1, #64
 251 00c0 1846     		mov	r0, r3
 252 00c2 B0EE470A 		vmov.f32	s0, s14
 253 00c6 F0EE670A 		vmov.f32	s1, s15
 254 00ca FFF7FEFF 		bl	utils_floatToText
 255 00ce B865     		str	r0, [r7, #88]
 100:g:/iot/IoT_Device_Demo/iot_link/network/lwm2m/wakaama_lwm2m/wakaama-master/core\data.c ****         if (res == 0) return -1;
 256              		.loc 2 100 12
 257 00d0 BB6D     		ldr	r3, [r7, #88]
 258 00d2 002B     		cmp	r3, #0
 259 00d4 02D1     		bne	.L18
 260              		.loc 2 100 30 discriminator 1
 261 00d6 4FF0FF33 		mov	r3, #-1
ARM GAS  C:\Users\ADMINI~1\AppData\Local\Temp\ccO7A1oC.s 			page 14


 262 00da A1E0     		b	.L14
 263              	.L18:
 101:g:/iot/IoT_Device_Demo/iot_link/network/lwm2m/wakaama_lwm2m/wakaama-master/core\data.c **** 
 102:g:/iot/IoT_Device_Demo/iot_link/network/lwm2m/wakaama_lwm2m/wakaama-master/core\data.c ****         *bufferP = (uint8_t *)lwm2m_malloc(res);
 264              		.loc 2 102 31
 265 00dc B86D     		ldr	r0, [r7, #88]
 266 00de FFF7FEFF 		bl	lwm2m_malloc
 267 00e2 0246     		mov	r2, r0
 268              		.loc 2 102 18
 269 00e4 3B68     		ldr	r3, [r7]
 270 00e6 1A60     		str	r2, [r3]
 103:g:/iot/IoT_Device_Demo/iot_link/network/lwm2m/wakaama_lwm2m/wakaama-master/core\data.c ****         if (NULL == *bufferP) return -1;
 271              		.loc 2 103 21
 272 00e8 3B68     		ldr	r3, [r7]
 273 00ea 1B68     		ldr	r3, [r3]
 274              		.loc 2 103 12
 275 00ec 002B     		cmp	r3, #0
 276 00ee 02D1     		bne	.L20
 277              		.loc 2 103 38 discriminator 1
 278 00f0 4FF0FF33 		mov	r3, #-1
 279 00f4 94E0     		b	.L14
 280              	.L20:
 104:g:/iot/IoT_Device_Demo/iot_link/network/lwm2m/wakaama_lwm2m/wakaama-master/core\data.c **** 
 105:g:/iot/IoT_Device_Demo/iot_link/network/lwm2m/wakaama_lwm2m/wakaama-master/core\data.c ****         memcpy(*bufferP, floatString, res);
 281              		.loc 2 105 9
 282 00f6 3B68     		ldr	r3, [r7]
 283 00f8 1B68     		ldr	r3, [r3]
 284 00fa 07F10801 		add	r1, r7, #8
 285 00fe BA6D     		ldr	r2, [r7, #88]
 286 0100 1846     		mov	r0, r3
 287 0102 FFF7FEFF 		bl	memcpy
 106:g:/iot/IoT_Device_Demo/iot_link/network/lwm2m/wakaama_lwm2m/wakaama-master/core\data.c **** 
 107:g:/iot/IoT_Device_Demo/iot_link/network/lwm2m/wakaama_lwm2m/wakaama-master/core\data.c ****         return (int)res;
 288              		.loc 2 107 16
 289 0106 BB6D     		ldr	r3, [r7, #88]
 290 0108 8AE0     		b	.L14
 291              	.L8:
 292              	.LBE3:
 108:g:/iot/IoT_Device_Demo/iot_link/network/lwm2m/wakaama_lwm2m/wakaama-master/core\data.c ****     }
 109:g:/iot/IoT_Device_Demo/iot_link/network/lwm2m/wakaama_lwm2m/wakaama-master/core\data.c **** 
 110:g:/iot/IoT_Device_Demo/iot_link/network/lwm2m/wakaama_lwm2m/wakaama-master/core\data.c ****     case LWM2M_TYPE_BOOLEAN:
 111:g:/iot/IoT_Device_Demo/iot_link/network/lwm2m/wakaama_lwm2m/wakaama-master/core\data.c ****         *bufferP = (uint8_t *)lwm2m_malloc(1);
 293              		.loc 2 111 31
 294 010a 0120     		movs	r0, #1
 295 010c FFF7FEFF 		bl	lwm2m_malloc
 296 0110 0246     		mov	r2, r0
 297              		.loc 2 111 18
 298 0112 3B68     		ldr	r3, [r7]
 299 0114 1A60     		str	r2, [r3]
 112:g:/iot/IoT_Device_Demo/iot_link/network/lwm2m/wakaama_lwm2m/wakaama-master/core\data.c ****         if (NULL == *bufferP) return -1;
 300              		.loc 2 112 21
 301 0116 3B68     		ldr	r3, [r7]
 302 0118 1B68     		ldr	r3, [r3]
 303              		.loc 2 112 12
 304 011a 002B     		cmp	r3, #0
 305 011c 02D1     		bne	.L21
 306              		.loc 2 112 38 discriminator 1
ARM GAS  C:\Users\ADMINI~1\AppData\Local\Temp\ccO7A1oC.s 			page 15


 307 011e 4FF0FF33 		mov	r3, #-1
 308 0122 7DE0     		b	.L14
 309              	.L21:
 113:g:/iot/IoT_Device_Demo/iot_link/network/lwm2m/wakaama_lwm2m/wakaama-master/core\data.c **** 
 114:g:/iot/IoT_Device_Demo/iot_link/network/lwm2m/wakaama_lwm2m/wakaama-master/core\data.c ****         *bufferP[0] = dataP->value.asBoolean ? '1' : '0';
 310              		.loc 2 114 35
 311 0124 7B68     		ldr	r3, [r7, #4]
 312 0126 1B7A     		ldrb	r3, [r3, #8]	@ zero_extendqisi2
 313              		.loc 2 114 21
 314 0128 002B     		cmp	r3, #0
 315 012a 01D0     		beq	.L22
 316              		.loc 2 114 21 is_stmt 0 discriminator 1
 317 012c 3122     		movs	r2, #49
 318 012e 00E0     		b	.L23
 319              	.L22:
 320              		.loc 2 114 21 discriminator 2
 321 0130 3022     		movs	r2, #48
 322              	.L23:
 323              		.loc 2 114 17 is_stmt 1 discriminator 4
 324 0132 3B68     		ldr	r3, [r7]
 325 0134 1B68     		ldr	r3, [r3]
 326              		.loc 2 114 21 discriminator 4
 327 0136 1A70     		strb	r2, [r3]
 115:g:/iot/IoT_Device_Demo/iot_link/network/lwm2m/wakaama_lwm2m/wakaama-master/core\data.c **** 
 116:g:/iot/IoT_Device_Demo/iot_link/network/lwm2m/wakaama_lwm2m/wakaama-master/core\data.c ****         return 1;
 328              		.loc 2 116 16 discriminator 4
 329 0138 0123     		movs	r3, #1
 330 013a 71E0     		b	.L14
 331              	.L6:
 332              	.LBB4:
 117:g:/iot/IoT_Device_Demo/iot_link/network/lwm2m/wakaama_lwm2m/wakaama-master/core\data.c **** 
 118:g:/iot/IoT_Device_Demo/iot_link/network/lwm2m/wakaama_lwm2m/wakaama-master/core\data.c ****     case LWM2M_TYPE_OBJECT_LINK:
 119:g:/iot/IoT_Device_Demo/iot_link/network/lwm2m/wakaama_lwm2m/wakaama-master/core\data.c ****     {
 120:g:/iot/IoT_Device_Demo/iot_link/network/lwm2m/wakaama_lwm2m/wakaama-master/core\data.c ****         char stringBuffer[11];
 121:g:/iot/IoT_Device_Demo/iot_link/network/lwm2m/wakaama_lwm2m/wakaama-master/core\data.c ****         size_t length;
 122:g:/iot/IoT_Device_Demo/iot_link/network/lwm2m/wakaama_lwm2m/wakaama-master/core\data.c **** 
 123:g:/iot/IoT_Device_Demo/iot_link/network/lwm2m/wakaama_lwm2m/wakaama-master/core\data.c ****         length = utils_intToText(dataP->value.asObjLink.objectId, (uint8_t *)stringBuffer, 5);
 333              		.loc 2 123 56
 334 013c 7B68     		ldr	r3, [r7, #4]
 335 013e 1B89     		ldrh	r3, [r3, #8]
 336              		.loc 2 123 18
 337 0140 98B2     		uxth	r0, r3
 338 0142 4FF00001 		mov	r1, #0
 339 0146 07F14802 		add	r2, r7, #72
 340 014a 0523     		movs	r3, #5
 341 014c FFF7FEFF 		bl	utils_intToText
 342 0150 F865     		str	r0, [r7, #92]
 124:g:/iot/IoT_Device_Demo/iot_link/network/lwm2m/wakaama_lwm2m/wakaama-master/core\data.c ****         if (length == 0) return -1;
 343              		.loc 2 124 12
 344 0152 FB6D     		ldr	r3, [r7, #92]
 345 0154 002B     		cmp	r3, #0
 346 0156 02D1     		bne	.L24
 347              		.loc 2 124 33 discriminator 1
 348 0158 4FF0FF33 		mov	r3, #-1
 349 015c 60E0     		b	.L14
 350              	.L24:
 125:g:/iot/IoT_Device_Demo/iot_link/network/lwm2m/wakaama_lwm2m/wakaama-master/core\data.c **** 
ARM GAS  C:\Users\ADMINI~1\AppData\Local\Temp\ccO7A1oC.s 			page 16


 126:g:/iot/IoT_Device_Demo/iot_link/network/lwm2m/wakaama_lwm2m/wakaama-master/core\data.c ****         stringBuffer[5] = ':';
 351              		.loc 2 126 25
 352 015e 3A23     		movs	r3, #58
 353 0160 87F84D30 		strb	r3, [r7, #77]
 127:g:/iot/IoT_Device_Demo/iot_link/network/lwm2m/wakaama_lwm2m/wakaama-master/core\data.c ****         res = length + 1;
 354              		.loc 2 127 13
 355 0164 FB6D     		ldr	r3, [r7, #92]
 356 0166 0133     		adds	r3, r3, #1
 357 0168 BB65     		str	r3, [r7, #88]
 128:g:/iot/IoT_Device_Demo/iot_link/network/lwm2m/wakaama_lwm2m/wakaama-master/core\data.c **** 
 129:g:/iot/IoT_Device_Demo/iot_link/network/lwm2m/wakaama_lwm2m/wakaama-master/core\data.c ****         length = utils_intToText(dataP->value.asObjLink.objectInstanceId, (uint8_t *)stringBuffer +
 358              		.loc 2 129 56
 359 016a 7B68     		ldr	r3, [r7, #4]
 360 016c 5B89     		ldrh	r3, [r3, #10]
 361              		.loc 2 129 18
 362 016e 98B2     		uxth	r0, r3
 363 0170 4FF00001 		mov	r1, #0
 364 0174 07F14802 		add	r2, r7, #72
 365 0178 BB6D     		ldr	r3, [r7, #88]
 366 017a 1A44     		add	r2, r2, r3
 367 017c 0523     		movs	r3, #5
 368 017e FFF7FEFF 		bl	utils_intToText
 369 0182 F865     		str	r0, [r7, #92]
 130:g:/iot/IoT_Device_Demo/iot_link/network/lwm2m/wakaama_lwm2m/wakaama-master/core\data.c ****         if (length == 0) return -1;
 370              		.loc 2 130 12
 371 0184 FB6D     		ldr	r3, [r7, #92]
 372 0186 002B     		cmp	r3, #0
 373 0188 02D1     		bne	.L26
 374              		.loc 2 130 33 discriminator 1
 375 018a 4FF0FF33 		mov	r3, #-1
 376 018e 47E0     		b	.L14
 377              	.L26:
 131:g:/iot/IoT_Device_Demo/iot_link/network/lwm2m/wakaama_lwm2m/wakaama-master/core\data.c **** 
 132:g:/iot/IoT_Device_Demo/iot_link/network/lwm2m/wakaama_lwm2m/wakaama-master/core\data.c ****         res += length;
 378              		.loc 2 132 13
 379 0190 BA6D     		ldr	r2, [r7, #88]
 380 0192 FB6D     		ldr	r3, [r7, #92]
 381 0194 1344     		add	r3, r3, r2
 382 0196 BB65     		str	r3, [r7, #88]
 133:g:/iot/IoT_Device_Demo/iot_link/network/lwm2m/wakaama_lwm2m/wakaama-master/core\data.c **** 
 134:g:/iot/IoT_Device_Demo/iot_link/network/lwm2m/wakaama_lwm2m/wakaama-master/core\data.c ****         *bufferP = (uint8_t *)lwm2m_malloc(res);
 383              		.loc 2 134 31
 384 0198 B86D     		ldr	r0, [r7, #88]
 385 019a FFF7FEFF 		bl	lwm2m_malloc
 386 019e 0246     		mov	r2, r0
 387              		.loc 2 134 18
 388 01a0 3B68     		ldr	r3, [r7]
 389 01a2 1A60     		str	r2, [r3]
 135:g:/iot/IoT_Device_Demo/iot_link/network/lwm2m/wakaama_lwm2m/wakaama-master/core\data.c ****         if (*bufferP == NULL) return -1;
 390              		.loc 2 135 13
 391 01a4 3B68     		ldr	r3, [r7]
 392 01a6 1B68     		ldr	r3, [r3]
 393              		.loc 2 135 12
 394 01a8 002B     		cmp	r3, #0
 395 01aa 02D1     		bne	.L27
 396              		.loc 2 135 38 discriminator 1
 397 01ac 4FF0FF33 		mov	r3, #-1
ARM GAS  C:\Users\ADMINI~1\AppData\Local\Temp\ccO7A1oC.s 			page 17


 398 01b0 36E0     		b	.L14
 399              	.L27:
 136:g:/iot/IoT_Device_Demo/iot_link/network/lwm2m/wakaama_lwm2m/wakaama-master/core\data.c **** 
 137:g:/iot/IoT_Device_Demo/iot_link/network/lwm2m/wakaama_lwm2m/wakaama-master/core\data.c ****         memcpy(*bufferP, stringBuffer, res);
 400              		.loc 2 137 9
 401 01b2 3B68     		ldr	r3, [r7]
 402 01b4 1B68     		ldr	r3, [r3]
 403 01b6 07F14801 		add	r1, r7, #72
 404 01ba BA6D     		ldr	r2, [r7, #88]
 405 01bc 1846     		mov	r0, r3
 406 01be FFF7FEFF 		bl	memcpy
 138:g:/iot/IoT_Device_Demo/iot_link/network/lwm2m/wakaama_lwm2m/wakaama-master/core\data.c **** 
 139:g:/iot/IoT_Device_Demo/iot_link/network/lwm2m/wakaama_lwm2m/wakaama-master/core\data.c ****         return res;
 407              		.loc 2 139 16
 408 01c2 BB6D     		ldr	r3, [r7, #88]
 409 01c4 2CE0     		b	.L14
 410              	.L11:
 411              	.LBE4:
 412              	.LBB5:
 140:g:/iot/IoT_Device_Demo/iot_link/network/lwm2m/wakaama_lwm2m/wakaama-master/core\data.c ****     }
 141:g:/iot/IoT_Device_Demo/iot_link/network/lwm2m/wakaama_lwm2m/wakaama-master/core\data.c **** 
 142:g:/iot/IoT_Device_Demo/iot_link/network/lwm2m/wakaama_lwm2m/wakaama-master/core\data.c ****     case LWM2M_TYPE_OPAQUE:
 143:g:/iot/IoT_Device_Demo/iot_link/network/lwm2m/wakaama_lwm2m/wakaama-master/core\data.c ****     {
 144:g:/iot/IoT_Device_Demo/iot_link/network/lwm2m/wakaama_lwm2m/wakaama-master/core\data.c ****         size_t length;
 145:g:/iot/IoT_Device_Demo/iot_link/network/lwm2m/wakaama_lwm2m/wakaama-master/core\data.c **** 
 146:g:/iot/IoT_Device_Demo/iot_link/network/lwm2m/wakaama_lwm2m/wakaama-master/core\data.c ****         length = utils_base64GetSize(dataP->value.asBuffer.length);
 413              		.loc 2 146 18
 414 01c6 7B68     		ldr	r3, [r7, #4]
 415 01c8 9B68     		ldr	r3, [r3, #8]
 416 01ca 1846     		mov	r0, r3
 417 01cc FFF7FEFF 		bl	utils_base64GetSize
 418 01d0 7865     		str	r0, [r7, #84]
 147:g:/iot/IoT_Device_Demo/iot_link/network/lwm2m/wakaama_lwm2m/wakaama-master/core\data.c ****         *bufferP = (uint8_t *)lwm2m_malloc(length);
 419              		.loc 2 147 31
 420 01d2 786D     		ldr	r0, [r7, #84]
 421 01d4 FFF7FEFF 		bl	lwm2m_malloc
 422 01d8 0246     		mov	r2, r0
 423              		.loc 2 147 18
 424 01da 3B68     		ldr	r3, [r7]
 425 01dc 1A60     		str	r2, [r3]
 148:g:/iot/IoT_Device_Demo/iot_link/network/lwm2m/wakaama_lwm2m/wakaama-master/core\data.c ****         if (*bufferP == NULL) return 0;
 426              		.loc 2 148 13
 427 01de 3B68     		ldr	r3, [r7]
 428 01e0 1B68     		ldr	r3, [r3]
 429              		.loc 2 148 12
 430 01e2 002B     		cmp	r3, #0
 431 01e4 01D1     		bne	.L28
 432              		.loc 2 148 38 discriminator 1
 433 01e6 0023     		movs	r3, #0
 434 01e8 1AE0     		b	.L14
 435              	.L28:
 149:g:/iot/IoT_Device_Demo/iot_link/network/lwm2m/wakaama_lwm2m/wakaama-master/core\data.c ****         length = utils_base64Encode(dataP->value.asBuffer.buffer, dataP->value.asBuffer.length, *bu
 436              		.loc 2 149 18
 437 01ea 7B68     		ldr	r3, [r7, #4]
 438 01ec D868     		ldr	r0, [r3, #12]
 439 01ee 7B68     		ldr	r3, [r7, #4]
 440 01f0 9968     		ldr	r1, [r3, #8]
ARM GAS  C:\Users\ADMINI~1\AppData\Local\Temp\ccO7A1oC.s 			page 18


 441 01f2 3B68     		ldr	r3, [r7]
 442 01f4 1A68     		ldr	r2, [r3]
 443 01f6 7B6D     		ldr	r3, [r7, #84]
 444 01f8 FFF7FEFF 		bl	utils_base64Encode
 445 01fc 7865     		str	r0, [r7, #84]
 150:g:/iot/IoT_Device_Demo/iot_link/network/lwm2m/wakaama_lwm2m/wakaama-master/core\data.c ****         if (length == 0)
 446              		.loc 2 150 12
 447 01fe 7B6D     		ldr	r3, [r7, #84]
 448 0200 002B     		cmp	r3, #0
 449 0202 09D1     		bne	.L29
 151:g:/iot/IoT_Device_Demo/iot_link/network/lwm2m/wakaama_lwm2m/wakaama-master/core\data.c ****         {
 152:g:/iot/IoT_Device_Demo/iot_link/network/lwm2m/wakaama_lwm2m/wakaama-master/core\data.c ****             lwm2m_free(*bufferP);
 450              		.loc 2 152 13
 451 0204 3B68     		ldr	r3, [r7]
 452 0206 1B68     		ldr	r3, [r3]
 453 0208 1846     		mov	r0, r3
 454 020a FFF7FEFF 		bl	lwm2m_free
 153:g:/iot/IoT_Device_Demo/iot_link/network/lwm2m/wakaama_lwm2m/wakaama-master/core\data.c ****             *bufferP = NULL;
 455              		.loc 2 153 22
 456 020e 3B68     		ldr	r3, [r7]
 457 0210 0022     		movs	r2, #0
 458 0212 1A60     		str	r2, [r3]
 154:g:/iot/IoT_Device_Demo/iot_link/network/lwm2m/wakaama_lwm2m/wakaama-master/core\data.c ****             return 0;
 459              		.loc 2 154 20
 460 0214 0023     		movs	r3, #0
 461 0216 03E0     		b	.L14
 462              	.L29:
 155:g:/iot/IoT_Device_Demo/iot_link/network/lwm2m/wakaama_lwm2m/wakaama-master/core\data.c ****         }
 156:g:/iot/IoT_Device_Demo/iot_link/network/lwm2m/wakaama_lwm2m/wakaama-master/core\data.c ****         return (int)length;
 463              		.loc 2 156 16
 464 0218 7B6D     		ldr	r3, [r7, #84]
 465 021a 01E0     		b	.L14
 466              	.L5:
 467              	.LBE5:
 157:g:/iot/IoT_Device_Demo/iot_link/network/lwm2m/wakaama_lwm2m/wakaama-master/core\data.c ****     }
 158:g:/iot/IoT_Device_Demo/iot_link/network/lwm2m/wakaama_lwm2m/wakaama-master/core\data.c **** 
 159:g:/iot/IoT_Device_Demo/iot_link/network/lwm2m/wakaama_lwm2m/wakaama-master/core\data.c ****     case LWM2M_TYPE_UNDEFINED:
 160:g:/iot/IoT_Device_Demo/iot_link/network/lwm2m/wakaama_lwm2m/wakaama-master/core\data.c ****     default:
 161:g:/iot/IoT_Device_Demo/iot_link/network/lwm2m/wakaama_lwm2m/wakaama-master/core\data.c ****         return -1;
 468              		.loc 2 161 16
 469 021c 4FF0FF33 		mov	r3, #-1
 470              	.L14:
 162:g:/iot/IoT_Device_Demo/iot_link/network/lwm2m/wakaama_lwm2m/wakaama-master/core\data.c ****     }
 163:g:/iot/IoT_Device_Demo/iot_link/network/lwm2m/wakaama_lwm2m/wakaama-master/core\data.c **** }
 471              		.loc 2 163 1 discriminator 1
 472 0220 1846     		mov	r0, r3
 473 0222 6037     		adds	r7, r7, #96
 474              	.LCFI14:
 475              		.cfi_def_cfa_offset 8
 476 0224 BD46     		mov	sp, r7
 477              	.LCFI15:
 478              		.cfi_def_cfa_register 13
 479              		@ sp needed
 480 0226 80BD     		pop	{r7, pc}
 481              		.cfi_endproc
 482              	.LFE5:
 484              		.section	.text.prv_setBuffer,"ax",%progbits
ARM GAS  C:\Users\ADMINI~1\AppData\Local\Temp\ccO7A1oC.s 			page 19


 485              		.align	1
 486              		.syntax unified
 487              		.thumb
 488              		.thumb_func
 489              		.fpu fpv4-sp-d16
 491              	prv_setBuffer:
 492              	.LFB6:
 164:g:/iot/IoT_Device_Demo/iot_link/network/lwm2m/wakaama_lwm2m/wakaama-master/core\data.c **** 
 165:g:/iot/IoT_Device_Demo/iot_link/network/lwm2m/wakaama_lwm2m/wakaama-master/core\data.c **** static int prv_setBuffer(lwm2m_data_t *dataP,
 166:g:/iot/IoT_Device_Demo/iot_link/network/lwm2m/wakaama_lwm2m/wakaama-master/core\data.c ****                          uint8_t *buffer,
 167:g:/iot/IoT_Device_Demo/iot_link/network/lwm2m/wakaama_lwm2m/wakaama-master/core\data.c ****                          size_t bufferLen)
 168:g:/iot/IoT_Device_Demo/iot_link/network/lwm2m/wakaama_lwm2m/wakaama-master/core\data.c **** {
 493              		.loc 2 168 1
 494              		.cfi_startproc
 495              		@ args = 0, pretend = 0, frame = 16
 496              		@ frame_needed = 1, uses_anonymous_args = 0
 497 0000 80B5     		push	{r7, lr}
 498              	.LCFI16:
 499              		.cfi_def_cfa_offset 8
 500              		.cfi_offset 7, -8
 501              		.cfi_offset 14, -4
 502 0002 84B0     		sub	sp, sp, #16
 503              	.LCFI17:
 504              		.cfi_def_cfa_offset 24
 505 0004 00AF     		add	r7, sp, #0
 506              	.LCFI18:
 507              		.cfi_def_cfa_register 7
 508 0006 F860     		str	r0, [r7, #12]
 509 0008 B960     		str	r1, [r7, #8]
 510 000a 7A60     		str	r2, [r7, #4]
 169:g:/iot/IoT_Device_Demo/iot_link/network/lwm2m/wakaama_lwm2m/wakaama-master/core\data.c ****     dataP->value.asBuffer.buffer = (uint8_t *)lwm2m_malloc(bufferLen);
 511              		.loc 2 169 47
 512 000c 7868     		ldr	r0, [r7, #4]
 513 000e FFF7FEFF 		bl	lwm2m_malloc
 514 0012 0246     		mov	r2, r0
 515              		.loc 2 169 34
 516 0014 FB68     		ldr	r3, [r7, #12]
 517 0016 DA60     		str	r2, [r3, #12]
 170:g:/iot/IoT_Device_Demo/iot_link/network/lwm2m/wakaama_lwm2m/wakaama-master/core\data.c ****     if (dataP->value.asBuffer.buffer == NULL)
 518              		.loc 2 170 30
 519 0018 FB68     		ldr	r3, [r7, #12]
 520 001a DB68     		ldr	r3, [r3, #12]
 521              		.loc 2 170 8
 522 001c 002B     		cmp	r3, #0
 523 001e 01D1     		bne	.L31
 171:g:/iot/IoT_Device_Demo/iot_link/network/lwm2m/wakaama_lwm2m/wakaama-master/core\data.c ****     {
 172:g:/iot/IoT_Device_Demo/iot_link/network/lwm2m/wakaama_lwm2m/wakaama-master/core\data.c ****         return 0;
 524              		.loc 2 172 16
 525 0020 0023     		movs	r3, #0
 526 0022 0AE0     		b	.L32
 527              	.L31:
 173:g:/iot/IoT_Device_Demo/iot_link/network/lwm2m/wakaama_lwm2m/wakaama-master/core\data.c ****     }
 174:g:/iot/IoT_Device_Demo/iot_link/network/lwm2m/wakaama_lwm2m/wakaama-master/core\data.c ****     dataP->value.asBuffer.length = bufferLen;
 528              		.loc 2 174 34
 529 0024 FB68     		ldr	r3, [r7, #12]
 530 0026 7A68     		ldr	r2, [r7, #4]
 531 0028 9A60     		str	r2, [r3, #8]
ARM GAS  C:\Users\ADMINI~1\AppData\Local\Temp\ccO7A1oC.s 			page 20


 175:g:/iot/IoT_Device_Demo/iot_link/network/lwm2m/wakaama_lwm2m/wakaama-master/core\data.c ****     memcpy(dataP->value.asBuffer.buffer, buffer, bufferLen);
 532              		.loc 2 175 33
 533 002a FB68     		ldr	r3, [r7, #12]
 534 002c DB68     		ldr	r3, [r3, #12]
 535              		.loc 2 175 5
 536 002e 7A68     		ldr	r2, [r7, #4]
 537 0030 B968     		ldr	r1, [r7, #8]
 538 0032 1846     		mov	r0, r3
 539 0034 FFF7FEFF 		bl	memcpy
 176:g:/iot/IoT_Device_Demo/iot_link/network/lwm2m/wakaama_lwm2m/wakaama-master/core\data.c **** 
 177:g:/iot/IoT_Device_Demo/iot_link/network/lwm2m/wakaama_lwm2m/wakaama-master/core\data.c ****     return 1;
 540              		.loc 2 177 12
 541 0038 0123     		movs	r3, #1
 542              	.L32:
 178:g:/iot/IoT_Device_Demo/iot_link/network/lwm2m/wakaama_lwm2m/wakaama-master/core\data.c **** }
 543              		.loc 2 178 1
 544 003a 1846     		mov	r0, r3
 545 003c 1037     		adds	r7, r7, #16
 546              	.LCFI19:
 547              		.cfi_def_cfa_offset 8
 548 003e BD46     		mov	sp, r7
 549              	.LCFI20:
 550              		.cfi_def_cfa_register 13
 551              		@ sp needed
 552 0040 80BD     		pop	{r7, pc}
 553              		.cfi_endproc
 554              	.LFE6:
 556              		.section	.rodata
 557              		.align	2
 558              	.LC0:
 559 0000 5B25735D 		.ascii	"[%s][%u][%s:%d] [%d][%s:%d] size: %d\015\012\015\012"
 559      5B25755D 
 559      5B25733A 
 559      25645D20 
 559      5B25645D 
 560 0028 00       		.ascii	"\000"
 561              		.section	.text.lwm2m_data_new,"ax",%progbits
 562              		.align	1
 563              		.global	lwm2m_data_new
 564              		.syntax unified
 565              		.thumb
 566              		.thumb_func
 567              		.fpu fpv4-sp-d16
 569              	lwm2m_data_new:
 570              	.LFB7:
 179:g:/iot/IoT_Device_Demo/iot_link/network/lwm2m/wakaama_lwm2m/wakaama-master/core\data.c **** 
 180:g:/iot/IoT_Device_Demo/iot_link/network/lwm2m/wakaama_lwm2m/wakaama-master/core\data.c **** lwm2m_data_t *lwm2m_data_new(int size)
 181:g:/iot/IoT_Device_Demo/iot_link/network/lwm2m/wakaama_lwm2m/wakaama-master/core\data.c **** {
 571              		.loc 2 181 1
 572              		.cfi_startproc
 573              		@ args = 0, pretend = 0, frame = 16
 574              		@ frame_needed = 1, uses_anonymous_args = 0
 575 0000 B0B5     		push	{r4, r5, r7, lr}
 576              	.LCFI21:
 577              		.cfi_def_cfa_offset 16
 578              		.cfi_offset 4, -16
 579              		.cfi_offset 5, -12
ARM GAS  C:\Users\ADMINI~1\AppData\Local\Temp\ccO7A1oC.s 			page 21


 580              		.cfi_offset 7, -8
 581              		.cfi_offset 14, -4
 582 0002 8AB0     		sub	sp, sp, #40
 583              	.LCFI22:
 584              		.cfi_def_cfa_offset 56
 585 0004 06AF     		add	r7, sp, #24
 586              	.LCFI23:
 587              		.cfi_def_cfa 7, 32
 588 0006 7860     		str	r0, [r7, #4]
 182:g:/iot/IoT_Device_Demo/iot_link/network/lwm2m/wakaama_lwm2m/wakaama-master/core\data.c ****     lwm2m_data_t *dataP;
 183:g:/iot/IoT_Device_Demo/iot_link/network/lwm2m/wakaama_lwm2m/wakaama-master/core\data.c **** 
 184:g:/iot/IoT_Device_Demo/iot_link/network/lwm2m/wakaama_lwm2m/wakaama-master/core\data.c ****     LOG_ARG("size: %d", size);
 589              		.loc 2 184 5
 590 0008 FFF7FEFF 		bl	link_log_level_get
 591 000c 0346     		mov	r3, r0
 592 000e 012B     		cmp	r3, #1
 593 0010 1BD8     		bhi	.L34
 594              		.loc 2 184 5 is_stmt 0 discriminator 1
 595 0012 0120     		movs	r0, #1
 596 0014 FFF7FEFF 		bl	link_log_level_name
 597 0018 0446     		mov	r4, r0
 598 001a FFF7FEFF 		bl	osal_sys_time
 599 001e 0246     		mov	r2, r0
 600 0020 0B46     		mov	r3, r1
 601 0022 1546     		mov	r5, r2
 602 0024 FFF7FEFF 		bl	lwm2m_gettime
 603 0028 0246     		mov	r2, r0
 604 002a 0B46     		mov	r3, r1
 605 002c 7B68     		ldr	r3, [r7, #4]
 606 002e 0493     		str	r3, [sp, #16]
 607 0030 B823     		movs	r3, #184
 608 0032 0393     		str	r3, [sp, #12]
 609 0034 124B     		ldr	r3, .L38
 610 0036 0293     		str	r3, [sp, #8]
 611 0038 0192     		str	r2, [sp, #4]
 612 003a B823     		movs	r3, #184
 613 003c 0093     		str	r3, [sp]
 614 003e 114B     		ldr	r3, .L38+4
 615 0040 2A46     		mov	r2, r5
 616 0042 2146     		mov	r1, r4
 617 0044 1048     		ldr	r0, .L38+8
 618 0046 FFF7FEFF 		bl	printf
 619              	.L34:
 185:g:/iot/IoT_Device_Demo/iot_link/network/lwm2m/wakaama_lwm2m/wakaama-master/core\data.c ****     if (size <= 0) return NULL;
 620              		.loc 2 185 8 is_stmt 1
 621 004a 7B68     		ldr	r3, [r7, #4]
 622 004c 002B     		cmp	r3, #0
 623 004e 01DC     		bgt	.L35
 624              		.loc 2 185 27 discriminator 1
 625 0050 0023     		movs	r3, #0
 626 0052 10E0     		b	.L36
 627              	.L35:
 186:g:/iot/IoT_Device_Demo/iot_link/network/lwm2m/wakaama_lwm2m/wakaama-master/core\data.c **** 
 187:g:/iot/IoT_Device_Demo/iot_link/network/lwm2m/wakaama_lwm2m/wakaama-master/core\data.c ****     dataP = (lwm2m_data_t *)lwm2m_malloc(size * sizeof(lwm2m_data_t));
 628              		.loc 2 187 29
 629 0054 7B68     		ldr	r3, [r7, #4]
 630 0056 1B01     		lsls	r3, r3, #4
ARM GAS  C:\Users\ADMINI~1\AppData\Local\Temp\ccO7A1oC.s 			page 22


 631 0058 1846     		mov	r0, r3
 632 005a FFF7FEFF 		bl	lwm2m_malloc
 633 005e F860     		str	r0, [r7, #12]
 188:g:/iot/IoT_Device_Demo/iot_link/network/lwm2m/wakaama_lwm2m/wakaama-master/core\data.c **** 
 189:g:/iot/IoT_Device_Demo/iot_link/network/lwm2m/wakaama_lwm2m/wakaama-master/core\data.c ****     if (dataP != NULL)
 634              		.loc 2 189 8
 635 0060 FB68     		ldr	r3, [r7, #12]
 636 0062 002B     		cmp	r3, #0
 637 0064 06D0     		beq	.L37
 190:g:/iot/IoT_Device_Demo/iot_link/network/lwm2m/wakaama_lwm2m/wakaama-master/core\data.c ****     {
 191:g:/iot/IoT_Device_Demo/iot_link/network/lwm2m/wakaama_lwm2m/wakaama-master/core\data.c ****         memset(dataP, 0, size * sizeof(lwm2m_data_t));
 638              		.loc 2 191 9
 639 0066 7B68     		ldr	r3, [r7, #4]
 640 0068 1B01     		lsls	r3, r3, #4
 641 006a 1A46     		mov	r2, r3
 642 006c 0021     		movs	r1, #0
 643 006e F868     		ldr	r0, [r7, #12]
 644 0070 FFF7FEFF 		bl	memset
 645              	.L37:
 192:g:/iot/IoT_Device_Demo/iot_link/network/lwm2m/wakaama_lwm2m/wakaama-master/core\data.c ****     }
 193:g:/iot/IoT_Device_Demo/iot_link/network/lwm2m/wakaama_lwm2m/wakaama-master/core\data.c **** 
 194:g:/iot/IoT_Device_Demo/iot_link/network/lwm2m/wakaama_lwm2m/wakaama-master/core\data.c ****     return dataP;
 646              		.loc 2 194 12
 647 0074 FB68     		ldr	r3, [r7, #12]
 648              	.L36:
 195:g:/iot/IoT_Device_Demo/iot_link/network/lwm2m/wakaama_lwm2m/wakaama-master/core\data.c **** }
 649              		.loc 2 195 1
 650 0076 1846     		mov	r0, r3
 651 0078 1037     		adds	r7, r7, #16
 652              	.LCFI24:
 653              		.cfi_def_cfa_offset 16
 654 007a BD46     		mov	sp, r7
 655              	.LCFI25:
 656              		.cfi_def_cfa_register 13
 657              		@ sp needed
 658 007c B0BD     		pop	{r4, r5, r7, pc}
 659              	.L39:
 660 007e 00BF     		.align	2
 661              	.L38:
 662 0080 00000000 		.word	__func__.8657
 663 0084 00000000 		.word	__FUNCTION__.8656
 664 0088 00000000 		.word	.LC0
 665              		.cfi_endproc
 666              	.LFE7:
 668              		.section	.text.lwm2m_data_free,"ax",%progbits
 669              		.align	1
 670              		.global	lwm2m_data_free
 671              		.syntax unified
 672              		.thumb
 673              		.thumb_func
 674              		.fpu fpv4-sp-d16
 676              	lwm2m_data_free:
 677              	.LFB8:
 196:g:/iot/IoT_Device_Demo/iot_link/network/lwm2m/wakaama_lwm2m/wakaama-master/core\data.c **** 
 197:g:/iot/IoT_Device_Demo/iot_link/network/lwm2m/wakaama_lwm2m/wakaama-master/core\data.c **** void lwm2m_data_free(int size,
 198:g:/iot/IoT_Device_Demo/iot_link/network/lwm2m/wakaama_lwm2m/wakaama-master/core\data.c ****                      lwm2m_data_t *dataP)
 199:g:/iot/IoT_Device_Demo/iot_link/network/lwm2m/wakaama_lwm2m/wakaama-master/core\data.c **** {
ARM GAS  C:\Users\ADMINI~1\AppData\Local\Temp\ccO7A1oC.s 			page 23


 678              		.loc 2 199 1
 679              		.cfi_startproc
 680              		@ args = 0, pretend = 0, frame = 16
 681              		@ frame_needed = 1, uses_anonymous_args = 0
 682 0000 B0B5     		push	{r4, r5, r7, lr}
 683              	.LCFI26:
 684              		.cfi_def_cfa_offset 16
 685              		.cfi_offset 4, -16
 686              		.cfi_offset 5, -12
 687              		.cfi_offset 7, -8
 688              		.cfi_offset 14, -4
 689 0002 8AB0     		sub	sp, sp, #40
 690              	.LCFI27:
 691              		.cfi_def_cfa_offset 56
 692 0004 06AF     		add	r7, sp, #24
 693              	.LCFI28:
 694              		.cfi_def_cfa 7, 32
 695 0006 7860     		str	r0, [r7, #4]
 696 0008 3960     		str	r1, [r7]
 200:g:/iot/IoT_Device_Demo/iot_link/network/lwm2m/wakaama_lwm2m/wakaama-master/core\data.c ****     int i;
 201:g:/iot/IoT_Device_Demo/iot_link/network/lwm2m/wakaama_lwm2m/wakaama-master/core\data.c **** 
 202:g:/iot/IoT_Device_Demo/iot_link/network/lwm2m/wakaama_lwm2m/wakaama-master/core\data.c ****     LOG_ARG("size: %d", size);
 697              		.loc 2 202 5
 698 000a FFF7FEFF 		bl	link_log_level_get
 699 000e 0346     		mov	r3, r0
 700 0010 012B     		cmp	r3, #1
 701 0012 1BD8     		bhi	.L41
 702              		.loc 2 202 5 is_stmt 0 discriminator 1
 703 0014 0120     		movs	r0, #1
 704 0016 FFF7FEFF 		bl	link_log_level_name
 705 001a 0446     		mov	r4, r0
 706 001c FFF7FEFF 		bl	osal_sys_time
 707 0020 0246     		mov	r2, r0
 708 0022 0B46     		mov	r3, r1
 709 0024 1546     		mov	r5, r2
 710 0026 FFF7FEFF 		bl	lwm2m_gettime
 711 002a 0246     		mov	r2, r0
 712 002c 0B46     		mov	r3, r1
 713 002e 7B68     		ldr	r3, [r7, #4]
 714 0030 0493     		str	r3, [sp, #16]
 715 0032 CA23     		movs	r3, #202
 716 0034 0393     		str	r3, [sp, #12]
 717 0036 284B     		ldr	r3, .L55
 718 0038 0293     		str	r3, [sp, #8]
 719 003a 0192     		str	r2, [sp, #4]
 720 003c CA23     		movs	r3, #202
 721 003e 0093     		str	r3, [sp]
 722 0040 264B     		ldr	r3, .L55+4
 723 0042 2A46     		mov	r2, r5
 724 0044 2146     		mov	r1, r4
 725 0046 2648     		ldr	r0, .L55+8
 726 0048 FFF7FEFF 		bl	printf
 727              	.L41:
 203:g:/iot/IoT_Device_Demo/iot_link/network/lwm2m/wakaama_lwm2m/wakaama-master/core\data.c ****     if (size == 0 || dataP == NULL) return;
 728              		.loc 2 203 8 is_stmt 1
 729 004c 7B68     		ldr	r3, [r7, #4]
 730 004e 002B     		cmp	r3, #0
ARM GAS  C:\Users\ADMINI~1\AppData\Local\Temp\ccO7A1oC.s 			page 24


 731 0050 3DD0     		beq	.L53
 732              		.loc 2 203 19 discriminator 2
 733 0052 3B68     		ldr	r3, [r7]
 734 0054 002B     		cmp	r3, #0
 735 0056 3AD0     		beq	.L53
 204:g:/iot/IoT_Device_Demo/iot_link/network/lwm2m/wakaama_lwm2m/wakaama-master/core\data.c **** 
 205:g:/iot/IoT_Device_Demo/iot_link/network/lwm2m/wakaama_lwm2m/wakaama-master/core\data.c ****     for (i = 0; i < size; i++)
 736              		.loc 2 205 12
 737 0058 0023     		movs	r3, #0
 738 005a FB60     		str	r3, [r7, #12]
 739              		.loc 2 205 5
 740 005c 2FE0     		b	.L45
 741              	.L51:
 206:g:/iot/IoT_Device_Demo/iot_link/network/lwm2m/wakaama_lwm2m/wakaama-master/core\data.c ****     {
 207:g:/iot/IoT_Device_Demo/iot_link/network/lwm2m/wakaama_lwm2m/wakaama-master/core\data.c ****         switch (dataP[i].type)
 742              		.loc 2 207 22
 743 005e FB68     		ldr	r3, [r7, #12]
 744 0060 1B01     		lsls	r3, r3, #4
 745 0062 3A68     		ldr	r2, [r7]
 746 0064 1344     		add	r3, r3, r2
 747              		.loc 2 207 25
 748 0066 1B78     		ldrb	r3, [r3]	@ zero_extendqisi2
 749              		.loc 2 207 9
 750 0068 032B     		cmp	r3, #3
 751 006a 02DC     		bgt	.L46
 752 006c 002B     		cmp	r3, #0
 753 006e 04DC     		bgt	.L47
 208:g:/iot/IoT_Device_Demo/iot_link/network/lwm2m/wakaama_lwm2m/wakaama-master/core\data.c ****         {
 209:g:/iot/IoT_Device_Demo/iot_link/network/lwm2m/wakaama_lwm2m/wakaama-master/core\data.c ****         case LWM2M_TYPE_MULTIPLE_RESOURCE:
 210:g:/iot/IoT_Device_Demo/iot_link/network/lwm2m/wakaama_lwm2m/wakaama-master/core\data.c ****         case LWM2M_TYPE_OBJECT_INSTANCE:
 211:g:/iot/IoT_Device_Demo/iot_link/network/lwm2m/wakaama_lwm2m/wakaama-master/core\data.c ****         case LWM2M_TYPE_OBJECT:
 212:g:/iot/IoT_Device_Demo/iot_link/network/lwm2m/wakaama_lwm2m/wakaama-master/core\data.c ****             lwm2m_data_free(dataP[i].value.asChildren.count, dataP[i].value.asChildren.array);
 213:g:/iot/IoT_Device_Demo/iot_link/network/lwm2m/wakaama_lwm2m/wakaama-master/core\data.c ****             break;
 214:g:/iot/IoT_Device_Demo/iot_link/network/lwm2m/wakaama_lwm2m/wakaama-master/core\data.c **** 
 215:g:/iot/IoT_Device_Demo/iot_link/network/lwm2m/wakaama_lwm2m/wakaama-master/core\data.c ****         case LWM2M_TYPE_STRING:
 216:g:/iot/IoT_Device_Demo/iot_link/network/lwm2m/wakaama_lwm2m/wakaama-master/core\data.c ****         case LWM2M_TYPE_OPAQUE:
 217:g:/iot/IoT_Device_Demo/iot_link/network/lwm2m/wakaama_lwm2m/wakaama-master/core\data.c ****             if (dataP[i].value.asBuffer.buffer != NULL)
 218:g:/iot/IoT_Device_Demo/iot_link/network/lwm2m/wakaama_lwm2m/wakaama-master/core\data.c ****             {
 219:g:/iot/IoT_Device_Demo/iot_link/network/lwm2m/wakaama_lwm2m/wakaama-master/core\data.c ****                 lwm2m_free(dataP[i].value.asBuffer.buffer);
 220:g:/iot/IoT_Device_Demo/iot_link/network/lwm2m/wakaama_lwm2m/wakaama-master/core\data.c ****             }
 221:g:/iot/IoT_Device_Demo/iot_link/network/lwm2m/wakaama_lwm2m/wakaama-master/core\data.c **** 
 222:g:/iot/IoT_Device_Demo/iot_link/network/lwm2m/wakaama_lwm2m/wakaama-master/core\data.c ****         default:
 223:g:/iot/IoT_Device_Demo/iot_link/network/lwm2m/wakaama_lwm2m/wakaama-master/core\data.c ****             // do nothing
 224:g:/iot/IoT_Device_Demo/iot_link/network/lwm2m/wakaama_lwm2m/wakaama-master/core\data.c ****             break;
 754              		.loc 2 224 13
 755 0070 21E0     		b	.L54
 756              	.L46:
 757 0072 043B     		subs	r3, r3, #4
 207:g:/iot/IoT_Device_Demo/iot_link/network/lwm2m/wakaama_lwm2m/wakaama-master/core\data.c ****         {
 758              		.loc 2 207 9
 759 0074 012B     		cmp	r3, #1
 760 0076 1ED8     		bhi	.L54
 761 0078 0EE0     		b	.L52
 762              	.L47:
 212:g:/iot/IoT_Device_Demo/iot_link/network/lwm2m/wakaama_lwm2m/wakaama-master/core\data.c ****             break;
 763              		.loc 2 212 34
 764 007a FB68     		ldr	r3, [r7, #12]
ARM GAS  C:\Users\ADMINI~1\AppData\Local\Temp\ccO7A1oC.s 			page 25


 765 007c 1B01     		lsls	r3, r3, #4
 766 007e 3A68     		ldr	r2, [r7]
 767 0080 1344     		add	r3, r3, r2
 212:g:/iot/IoT_Device_Demo/iot_link/network/lwm2m/wakaama_lwm2m/wakaama-master/core\data.c ****             break;
 768              		.loc 2 212 54
 769 0082 9B68     		ldr	r3, [r3, #8]
 212:g:/iot/IoT_Device_Demo/iot_link/network/lwm2m/wakaama_lwm2m/wakaama-master/core\data.c ****             break;
 770              		.loc 2 212 13
 771 0084 1846     		mov	r0, r3
 212:g:/iot/IoT_Device_Demo/iot_link/network/lwm2m/wakaama_lwm2m/wakaama-master/core\data.c ****             break;
 772              		.loc 2 212 67
 773 0086 FB68     		ldr	r3, [r7, #12]
 774 0088 1B01     		lsls	r3, r3, #4
 775 008a 3A68     		ldr	r2, [r7]
 776 008c 1344     		add	r3, r3, r2
 212:g:/iot/IoT_Device_Demo/iot_link/network/lwm2m/wakaama_lwm2m/wakaama-master/core\data.c ****             break;
 777              		.loc 2 212 13
 778 008e DB68     		ldr	r3, [r3, #12]
 779 0090 1946     		mov	r1, r3
 780 0092 FFF7FEFF 		bl	lwm2m_data_free
 213:g:/iot/IoT_Device_Demo/iot_link/network/lwm2m/wakaama_lwm2m/wakaama-master/core\data.c **** 
 781              		.loc 2 213 13
 782 0096 0FE0     		b	.L50
 783              	.L52:
 217:g:/iot/IoT_Device_Demo/iot_link/network/lwm2m/wakaama_lwm2m/wakaama-master/core\data.c ****             {
 784              		.loc 2 217 22
 785 0098 FB68     		ldr	r3, [r7, #12]
 786 009a 1B01     		lsls	r3, r3, #4
 787 009c 3A68     		ldr	r2, [r7]
 788 009e 1344     		add	r3, r3, r2
 217:g:/iot/IoT_Device_Demo/iot_link/network/lwm2m/wakaama_lwm2m/wakaama-master/core\data.c ****             {
 789              		.loc 2 217 40
 790 00a0 DB68     		ldr	r3, [r3, #12]
 217:g:/iot/IoT_Device_Demo/iot_link/network/lwm2m/wakaama_lwm2m/wakaama-master/core\data.c ****             {
 791              		.loc 2 217 16
 792 00a2 002B     		cmp	r3, #0
 793 00a4 07D0     		beq	.L54
 219:g:/iot/IoT_Device_Demo/iot_link/network/lwm2m/wakaama_lwm2m/wakaama-master/core\data.c ****             }
 794              		.loc 2 219 33
 795 00a6 FB68     		ldr	r3, [r7, #12]
 796 00a8 1B01     		lsls	r3, r3, #4
 797 00aa 3A68     		ldr	r2, [r7]
 798 00ac 1344     		add	r3, r3, r2
 219:g:/iot/IoT_Device_Demo/iot_link/network/lwm2m/wakaama_lwm2m/wakaama-master/core\data.c ****             }
 799              		.loc 2 219 51
 800 00ae DB68     		ldr	r3, [r3, #12]
 219:g:/iot/IoT_Device_Demo/iot_link/network/lwm2m/wakaama_lwm2m/wakaama-master/core\data.c ****             }
 801              		.loc 2 219 17
 802 00b0 1846     		mov	r0, r3
 803 00b2 FFF7FEFF 		bl	lwm2m_free
 804              	.L54:
 805              		.loc 2 224 13
 806 00b6 00BF     		nop
 807              	.L50:
 205:g:/iot/IoT_Device_Demo/iot_link/network/lwm2m/wakaama_lwm2m/wakaama-master/core\data.c ****     {
 808              		.loc 2 205 28 discriminator 2
 809 00b8 FB68     		ldr	r3, [r7, #12]
ARM GAS  C:\Users\ADMINI~1\AppData\Local\Temp\ccO7A1oC.s 			page 26


 810 00ba 0133     		adds	r3, r3, #1
 811 00bc FB60     		str	r3, [r7, #12]
 812              	.L45:
 205:g:/iot/IoT_Device_Demo/iot_link/network/lwm2m/wakaama_lwm2m/wakaama-master/core\data.c ****     {
 813              		.loc 2 205 5 discriminator 1
 814 00be FA68     		ldr	r2, [r7, #12]
 815 00c0 7B68     		ldr	r3, [r7, #4]
 816 00c2 9A42     		cmp	r2, r3
 817 00c4 CBDB     		blt	.L51
 225:g:/iot/IoT_Device_Demo/iot_link/network/lwm2m/wakaama_lwm2m/wakaama-master/core\data.c ****         }
 226:g:/iot/IoT_Device_Demo/iot_link/network/lwm2m/wakaama_lwm2m/wakaama-master/core\data.c ****     }
 227:g:/iot/IoT_Device_Demo/iot_link/network/lwm2m/wakaama_lwm2m/wakaama-master/core\data.c ****     lwm2m_free(dataP);
 818              		.loc 2 227 5
 819 00c6 3868     		ldr	r0, [r7]
 820 00c8 FFF7FEFF 		bl	lwm2m_free
 821 00cc 00E0     		b	.L40
 822              	.L53:
 203:g:/iot/IoT_Device_Demo/iot_link/network/lwm2m/wakaama_lwm2m/wakaama-master/core\data.c **** 
 823              		.loc 2 203 37
 824 00ce 00BF     		nop
 825              	.L40:
 228:g:/iot/IoT_Device_Demo/iot_link/network/lwm2m/wakaama_lwm2m/wakaama-master/core\data.c **** }
 826              		.loc 2 228 1
 827 00d0 1037     		adds	r7, r7, #16
 828              	.LCFI29:
 829              		.cfi_def_cfa_offset 16
 830 00d2 BD46     		mov	sp, r7
 831              	.LCFI30:
 832              		.cfi_def_cfa_register 13
 833              		@ sp needed
 834 00d4 B0BD     		pop	{r4, r5, r7, pc}
 835              	.L56:
 836 00d6 00BF     		.align	2
 837              	.L55:
 838 00d8 00000000 		.word	__func__.8664
 839 00dc 00000000 		.word	__FUNCTION__.8663
 840 00e0 00000000 		.word	.LC0
 841              		.cfi_endproc
 842              	.LFE8:
 844              		.section	.rodata
 845 0029 000000   		.align	2
 846              	.LC1:
 847 002c 5B25735D 		.ascii	"[%s][%u][%s:%d] [%d][%s:%d] \"%s\"\015\012\015\012\000"
 847      5B25755D 
 847      5B25733A 
 847      25645D20 
 847      5B25645D 
 848              		.section	.text.lwm2m_data_encode_string,"ax",%progbits
 849              		.align	1
 850              		.global	lwm2m_data_encode_string
 851              		.syntax unified
 852              		.thumb
 853              		.thumb_func
 854              		.fpu fpv4-sp-d16
 856              	lwm2m_data_encode_string:
 857              	.LFB9:
 229:g:/iot/IoT_Device_Demo/iot_link/network/lwm2m/wakaama_lwm2m/wakaama-master/core\data.c **** 
ARM GAS  C:\Users\ADMINI~1\AppData\Local\Temp\ccO7A1oC.s 			page 27


 230:g:/iot/IoT_Device_Demo/iot_link/network/lwm2m/wakaama_lwm2m/wakaama-master/core\data.c **** void lwm2m_data_encode_string(const char *string,
 231:g:/iot/IoT_Device_Demo/iot_link/network/lwm2m/wakaama_lwm2m/wakaama-master/core\data.c ****                               lwm2m_data_t *dataP)
 232:g:/iot/IoT_Device_Demo/iot_link/network/lwm2m/wakaama_lwm2m/wakaama-master/core\data.c **** {
 858              		.loc 2 232 1
 859              		.cfi_startproc
 860              		@ args = 0, pretend = 0, frame = 16
 861              		@ frame_needed = 1, uses_anonymous_args = 0
 862 0000 B0B5     		push	{r4, r5, r7, lr}
 863              	.LCFI31:
 864              		.cfi_def_cfa_offset 16
 865              		.cfi_offset 4, -16
 866              		.cfi_offset 5, -12
 867              		.cfi_offset 7, -8
 868              		.cfi_offset 14, -4
 869 0002 8AB0     		sub	sp, sp, #40
 870              	.LCFI32:
 871              		.cfi_def_cfa_offset 56
 872 0004 06AF     		add	r7, sp, #24
 873              	.LCFI33:
 874              		.cfi_def_cfa 7, 32
 875 0006 7860     		str	r0, [r7, #4]
 876 0008 3960     		str	r1, [r7]
 233:g:/iot/IoT_Device_Demo/iot_link/network/lwm2m/wakaama_lwm2m/wakaama-master/core\data.c ****     size_t len;
 234:g:/iot/IoT_Device_Demo/iot_link/network/lwm2m/wakaama_lwm2m/wakaama-master/core\data.c ****     int res;
 235:g:/iot/IoT_Device_Demo/iot_link/network/lwm2m/wakaama_lwm2m/wakaama-master/core\data.c **** 
 236:g:/iot/IoT_Device_Demo/iot_link/network/lwm2m/wakaama_lwm2m/wakaama-master/core\data.c ****     LOG_ARG("\"%s\"", string);
 877              		.loc 2 236 5
 878 000a FFF7FEFF 		bl	link_log_level_get
 879 000e 0346     		mov	r3, r0
 880 0010 012B     		cmp	r3, #1
 881 0012 1BD8     		bhi	.L58
 882              		.loc 2 236 5 is_stmt 0 discriminator 1
 883 0014 0120     		movs	r0, #1
 884 0016 FFF7FEFF 		bl	link_log_level_name
 885 001a 0446     		mov	r4, r0
 886 001c FFF7FEFF 		bl	osal_sys_time
 887 0020 0246     		mov	r2, r0
 888 0022 0B46     		mov	r3, r1
 889 0024 1546     		mov	r5, r2
 890 0026 FFF7FEFF 		bl	lwm2m_gettime
 891 002a 0246     		mov	r2, r0
 892 002c 0B46     		mov	r3, r1
 893 002e 7B68     		ldr	r3, [r7, #4]
 894 0030 0493     		str	r3, [sp, #16]
 895 0032 EC23     		movs	r3, #236
 896 0034 0393     		str	r3, [sp, #12]
 897 0036 1E4B     		ldr	r3, .L68
 898 0038 0293     		str	r3, [sp, #8]
 899 003a 0192     		str	r2, [sp, #4]
 900 003c EC23     		movs	r3, #236
 901 003e 0093     		str	r3, [sp]
 902 0040 1C4B     		ldr	r3, .L68+4
 903 0042 2A46     		mov	r2, r5
 904 0044 2146     		mov	r1, r4
 905 0046 1C48     		ldr	r0, .L68+8
 906 0048 FFF7FEFF 		bl	printf
 907              	.L58:
ARM GAS  C:\Users\ADMINI~1\AppData\Local\Temp\ccO7A1oC.s 			page 28


 237:g:/iot/IoT_Device_Demo/iot_link/network/lwm2m/wakaama_lwm2m/wakaama-master/core\data.c ****     if (string == NULL)
 908              		.loc 2 237 8 is_stmt 1
 909 004c 7B68     		ldr	r3, [r7, #4]
 910 004e 002B     		cmp	r3, #0
 911 0050 02D1     		bne	.L59
 238:g:/iot/IoT_Device_Demo/iot_link/network/lwm2m/wakaama_lwm2m/wakaama-master/core\data.c ****     {
 239:g:/iot/IoT_Device_Demo/iot_link/network/lwm2m/wakaama_lwm2m/wakaama-master/core\data.c ****         len = 0;
 912              		.loc 2 239 13
 913 0052 0023     		movs	r3, #0
 914 0054 FB60     		str	r3, [r7, #12]
 915 0056 0BE0     		b	.L60
 916              	.L59:
 240:g:/iot/IoT_Device_Demo/iot_link/network/lwm2m/wakaama_lwm2m/wakaama-master/core\data.c ****     }
 241:g:/iot/IoT_Device_Demo/iot_link/network/lwm2m/wakaama_lwm2m/wakaama-master/core\data.c ****     else
 242:g:/iot/IoT_Device_Demo/iot_link/network/lwm2m/wakaama_lwm2m/wakaama-master/core\data.c ****     {
 243:g:/iot/IoT_Device_Demo/iot_link/network/lwm2m/wakaama_lwm2m/wakaama-master/core\data.c ****         for (len = 0; string[len] != 0; len++);
 917              		.loc 2 243 18
 918 0058 0023     		movs	r3, #0
 919 005a FB60     		str	r3, [r7, #12]
 920              		.loc 2 243 9
 921 005c 02E0     		b	.L61
 922              	.L62:
 923              		.loc 2 243 44 discriminator 3
 924 005e FB68     		ldr	r3, [r7, #12]
 925 0060 0133     		adds	r3, r3, #1
 926 0062 FB60     		str	r3, [r7, #12]
 927              	.L61:
 928              		.loc 2 243 29 discriminator 1
 929 0064 7A68     		ldr	r2, [r7, #4]
 930 0066 FB68     		ldr	r3, [r7, #12]
 931 0068 1344     		add	r3, r3, r2
 932 006a 1B78     		ldrb	r3, [r3]	@ zero_extendqisi2
 933              		.loc 2 243 9 discriminator 1
 934 006c 002B     		cmp	r3, #0
 935 006e F6D1     		bne	.L62
 936              	.L60:
 244:g:/iot/IoT_Device_Demo/iot_link/network/lwm2m/wakaama_lwm2m/wakaama-master/core\data.c ****     }
 245:g:/iot/IoT_Device_Demo/iot_link/network/lwm2m/wakaama_lwm2m/wakaama-master/core\data.c **** 
 246:g:/iot/IoT_Device_Demo/iot_link/network/lwm2m/wakaama_lwm2m/wakaama-master/core\data.c ****     if (len == 0)
 937              		.loc 2 246 8
 938 0070 FB68     		ldr	r3, [r7, #12]
 939 0072 002B     		cmp	r3, #0
 940 0074 08D1     		bne	.L63
 247:g:/iot/IoT_Device_Demo/iot_link/network/lwm2m/wakaama_lwm2m/wakaama-master/core\data.c ****     {
 248:g:/iot/IoT_Device_Demo/iot_link/network/lwm2m/wakaama_lwm2m/wakaama-master/core\data.c ****         dataP->value.asBuffer.length = 0;
 941              		.loc 2 248 38
 942 0076 3B68     		ldr	r3, [r7]
 943 0078 0022     		movs	r2, #0
 944 007a 9A60     		str	r2, [r3, #8]
 249:g:/iot/IoT_Device_Demo/iot_link/network/lwm2m/wakaama_lwm2m/wakaama-master/core\data.c ****         dataP->value.asBuffer.buffer = NULL;
 945              		.loc 2 249 38
 946 007c 3B68     		ldr	r3, [r7]
 947 007e 0022     		movs	r2, #0
 948 0080 DA60     		str	r2, [r3, #12]
 250:g:/iot/IoT_Device_Demo/iot_link/network/lwm2m/wakaama_lwm2m/wakaama-master/core\data.c ****         res = 1;
 949              		.loc 2 250 13
 950 0082 0123     		movs	r3, #1
ARM GAS  C:\Users\ADMINI~1\AppData\Local\Temp\ccO7A1oC.s 			page 29


 951 0084 BB60     		str	r3, [r7, #8]
 952 0086 05E0     		b	.L64
 953              	.L63:
 251:g:/iot/IoT_Device_Demo/iot_link/network/lwm2m/wakaama_lwm2m/wakaama-master/core\data.c ****     }
 252:g:/iot/IoT_Device_Demo/iot_link/network/lwm2m/wakaama_lwm2m/wakaama-master/core\data.c ****     else
 253:g:/iot/IoT_Device_Demo/iot_link/network/lwm2m/wakaama_lwm2m/wakaama-master/core\data.c ****     {
 254:g:/iot/IoT_Device_Demo/iot_link/network/lwm2m/wakaama_lwm2m/wakaama-master/core\data.c ****         res = prv_setBuffer(dataP, (uint8_t *)string, len);
 954              		.loc 2 254 15
 955 0088 FA68     		ldr	r2, [r7, #12]
 956 008a 7968     		ldr	r1, [r7, #4]
 957 008c 3868     		ldr	r0, [r7]
 958 008e FFF7FEFF 		bl	prv_setBuffer
 959 0092 B860     		str	r0, [r7, #8]
 960              	.L64:
 255:g:/iot/IoT_Device_Demo/iot_link/network/lwm2m/wakaama_lwm2m/wakaama-master/core\data.c ****     }
 256:g:/iot/IoT_Device_Demo/iot_link/network/lwm2m/wakaama_lwm2m/wakaama-master/core\data.c **** 
 257:g:/iot/IoT_Device_Demo/iot_link/network/lwm2m/wakaama_lwm2m/wakaama-master/core\data.c ****     if (res == 1)
 961              		.loc 2 257 8
 962 0094 BB68     		ldr	r3, [r7, #8]
 963 0096 012B     		cmp	r3, #1
 964 0098 03D1     		bne	.L65
 258:g:/iot/IoT_Device_Demo/iot_link/network/lwm2m/wakaama_lwm2m/wakaama-master/core\data.c ****     {
 259:g:/iot/IoT_Device_Demo/iot_link/network/lwm2m/wakaama_lwm2m/wakaama-master/core\data.c ****         dataP->type = LWM2M_TYPE_STRING;
 965              		.loc 2 259 21
 966 009a 3B68     		ldr	r3, [r7]
 967 009c 0422     		movs	r2, #4
 968 009e 1A70     		strb	r2, [r3]
 260:g:/iot/IoT_Device_Demo/iot_link/network/lwm2m/wakaama_lwm2m/wakaama-master/core\data.c ****     }
 261:g:/iot/IoT_Device_Demo/iot_link/network/lwm2m/wakaama_lwm2m/wakaama-master/core\data.c ****     else
 262:g:/iot/IoT_Device_Demo/iot_link/network/lwm2m/wakaama_lwm2m/wakaama-master/core\data.c ****     {
 263:g:/iot/IoT_Device_Demo/iot_link/network/lwm2m/wakaama_lwm2m/wakaama-master/core\data.c ****         dataP->type = LWM2M_TYPE_UNDEFINED;
 264:g:/iot/IoT_Device_Demo/iot_link/network/lwm2m/wakaama_lwm2m/wakaama-master/core\data.c ****     }
 265:g:/iot/IoT_Device_Demo/iot_link/network/lwm2m/wakaama_lwm2m/wakaama-master/core\data.c **** }
 969              		.loc 2 265 1
 970 00a0 02E0     		b	.L67
 971              	.L65:
 263:g:/iot/IoT_Device_Demo/iot_link/network/lwm2m/wakaama_lwm2m/wakaama-master/core\data.c ****     }
 972              		.loc 2 263 21
 973 00a2 3B68     		ldr	r3, [r7]
 974 00a4 0022     		movs	r2, #0
 975 00a6 1A70     		strb	r2, [r3]
 976              	.L67:
 977              		.loc 2 265 1
 978 00a8 00BF     		nop
 979 00aa 1037     		adds	r7, r7, #16
 980              	.LCFI34:
 981              		.cfi_def_cfa_offset 16
 982 00ac BD46     		mov	sp, r7
 983              	.LCFI35:
 984              		.cfi_def_cfa_register 13
 985              		@ sp needed
 986 00ae B0BD     		pop	{r4, r5, r7, pc}
 987              	.L69:
 988              		.align	2
 989              	.L68:
 990 00b0 00000000 		.word	__func__.8682
 991 00b4 00000000 		.word	__FUNCTION__.8681
ARM GAS  C:\Users\ADMINI~1\AppData\Local\Temp\ccO7A1oC.s 			page 30


 992 00b8 2C000000 		.word	.LC1
 993              		.cfi_endproc
 994              	.LFE9:
 996              		.section	.rodata
 997 0051 000000   		.align	2
 998              	.LC2:
 999 0054 5B25735D 		.ascii	"[%s][%u][%s:%d] [%d][%s:%d] length: %d\015\012\015\012"
 999      5B25755D 
 999      5B25733A 
 999      25645D20 
 999      5B25645D 
 1000 007e 00       		.ascii	"\000"
 1001              		.section	.text.lwm2m_data_encode_opaque,"ax",%progbits
 1002              		.align	1
 1003              		.global	lwm2m_data_encode_opaque
 1004              		.syntax unified
 1005              		.thumb
 1006              		.thumb_func
 1007              		.fpu fpv4-sp-d16
 1009              	lwm2m_data_encode_opaque:
 1010              	.LFB10:
 266:g:/iot/IoT_Device_Demo/iot_link/network/lwm2m/wakaama_lwm2m/wakaama-master/core\data.c **** 
 267:g:/iot/IoT_Device_Demo/iot_link/network/lwm2m/wakaama_lwm2m/wakaama-master/core\data.c **** void lwm2m_data_encode_opaque(uint8_t *buffer,
 268:g:/iot/IoT_Device_Demo/iot_link/network/lwm2m/wakaama_lwm2m/wakaama-master/core\data.c ****                               size_t length,
 269:g:/iot/IoT_Device_Demo/iot_link/network/lwm2m/wakaama_lwm2m/wakaama-master/core\data.c ****                               lwm2m_data_t *dataP)
 270:g:/iot/IoT_Device_Demo/iot_link/network/lwm2m/wakaama_lwm2m/wakaama-master/core\data.c **** {
 1011              		.loc 2 270 1
 1012              		.cfi_startproc
 1013              		@ args = 0, pretend = 0, frame = 24
 1014              		@ frame_needed = 1, uses_anonymous_args = 0
 1015 0000 B0B5     		push	{r4, r5, r7, lr}
 1016              	.LCFI36:
 1017              		.cfi_def_cfa_offset 16
 1018              		.cfi_offset 4, -16
 1019              		.cfi_offset 5, -12
 1020              		.cfi_offset 7, -8
 1021              		.cfi_offset 14, -4
 1022 0002 8CB0     		sub	sp, sp, #48
 1023              	.LCFI37:
 1024              		.cfi_def_cfa_offset 64
 1025 0004 06AF     		add	r7, sp, #24
 1026              	.LCFI38:
 1027              		.cfi_def_cfa 7, 40
 1028 0006 F860     		str	r0, [r7, #12]
 1029 0008 B960     		str	r1, [r7, #8]
 1030 000a 7A60     		str	r2, [r7, #4]
 271:g:/iot/IoT_Device_Demo/iot_link/network/lwm2m/wakaama_lwm2m/wakaama-master/core\data.c ****     int res;
 272:g:/iot/IoT_Device_Demo/iot_link/network/lwm2m/wakaama_lwm2m/wakaama-master/core\data.c **** 
 273:g:/iot/IoT_Device_Demo/iot_link/network/lwm2m/wakaama_lwm2m/wakaama-master/core\data.c ****     LOG_ARG("length: %d", length);
 1031              		.loc 2 273 5
 1032 000c FFF7FEFF 		bl	link_log_level_get
 1033 0010 0346     		mov	r3, r0
 1034 0012 012B     		cmp	r3, #1
 1035 0014 1DD8     		bhi	.L71
 1036              		.loc 2 273 5 is_stmt 0 discriminator 1
 1037 0016 0120     		movs	r0, #1
 1038 0018 FFF7FEFF 		bl	link_log_level_name
ARM GAS  C:\Users\ADMINI~1\AppData\Local\Temp\ccO7A1oC.s 			page 31


 1039 001c 0446     		mov	r4, r0
 1040 001e FFF7FEFF 		bl	osal_sys_time
 1041 0022 0246     		mov	r2, r0
 1042 0024 0B46     		mov	r3, r1
 1043 0026 1546     		mov	r5, r2
 1044 0028 FFF7FEFF 		bl	lwm2m_gettime
 1045 002c 0246     		mov	r2, r0
 1046 002e 0B46     		mov	r3, r1
 1047 0030 BB68     		ldr	r3, [r7, #8]
 1048 0032 0493     		str	r3, [sp, #16]
 1049 0034 40F21113 		movw	r3, #273
 1050 0038 0393     		str	r3, [sp, #12]
 1051 003a 164B     		ldr	r3, .L77
 1052 003c 0293     		str	r3, [sp, #8]
 1053 003e 0192     		str	r2, [sp, #4]
 1054 0040 40F21113 		movw	r3, #273
 1055 0044 0093     		str	r3, [sp]
 1056 0046 144B     		ldr	r3, .L77+4
 1057 0048 2A46     		mov	r2, r5
 1058 004a 2146     		mov	r1, r4
 1059 004c 1348     		ldr	r0, .L77+8
 1060 004e FFF7FEFF 		bl	printf
 1061              	.L71:
 274:g:/iot/IoT_Device_Demo/iot_link/network/lwm2m/wakaama_lwm2m/wakaama-master/core\data.c ****     if (length == 0)
 1062              		.loc 2 274 8 is_stmt 1
 1063 0052 BB68     		ldr	r3, [r7, #8]
 1064 0054 002B     		cmp	r3, #0
 1065 0056 08D1     		bne	.L72
 275:g:/iot/IoT_Device_Demo/iot_link/network/lwm2m/wakaama_lwm2m/wakaama-master/core\data.c ****     {
 276:g:/iot/IoT_Device_Demo/iot_link/network/lwm2m/wakaama_lwm2m/wakaama-master/core\data.c ****         dataP->value.asBuffer.length = 0;
 1066              		.loc 2 276 38
 1067 0058 7B68     		ldr	r3, [r7, #4]
 1068 005a 0022     		movs	r2, #0
 1069 005c 9A60     		str	r2, [r3, #8]
 277:g:/iot/IoT_Device_Demo/iot_link/network/lwm2m/wakaama_lwm2m/wakaama-master/core\data.c ****         dataP->value.asBuffer.buffer = NULL;
 1070              		.loc 2 277 38
 1071 005e 7B68     		ldr	r3, [r7, #4]
 1072 0060 0022     		movs	r2, #0
 1073 0062 DA60     		str	r2, [r3, #12]
 278:g:/iot/IoT_Device_Demo/iot_link/network/lwm2m/wakaama_lwm2m/wakaama-master/core\data.c ****         res = 1;
 1074              		.loc 2 278 13
 1075 0064 0123     		movs	r3, #1
 1076 0066 7B61     		str	r3, [r7, #20]
 1077 0068 05E0     		b	.L73
 1078              	.L72:
 279:g:/iot/IoT_Device_Demo/iot_link/network/lwm2m/wakaama_lwm2m/wakaama-master/core\data.c ****     }
 280:g:/iot/IoT_Device_Demo/iot_link/network/lwm2m/wakaama_lwm2m/wakaama-master/core\data.c ****     else
 281:g:/iot/IoT_Device_Demo/iot_link/network/lwm2m/wakaama_lwm2m/wakaama-master/core\data.c ****     {
 282:g:/iot/IoT_Device_Demo/iot_link/network/lwm2m/wakaama_lwm2m/wakaama-master/core\data.c ****         res = prv_setBuffer(dataP, buffer, length);
 1079              		.loc 2 282 15
 1080 006a BA68     		ldr	r2, [r7, #8]
 1081 006c F968     		ldr	r1, [r7, #12]
 1082 006e 7868     		ldr	r0, [r7, #4]
 1083 0070 FFF7FEFF 		bl	prv_setBuffer
 1084 0074 7861     		str	r0, [r7, #20]
 1085              	.L73:
 283:g:/iot/IoT_Device_Demo/iot_link/network/lwm2m/wakaama_lwm2m/wakaama-master/core\data.c ****     }
ARM GAS  C:\Users\ADMINI~1\AppData\Local\Temp\ccO7A1oC.s 			page 32


 284:g:/iot/IoT_Device_Demo/iot_link/network/lwm2m/wakaama_lwm2m/wakaama-master/core\data.c **** 
 285:g:/iot/IoT_Device_Demo/iot_link/network/lwm2m/wakaama_lwm2m/wakaama-master/core\data.c ****     if (res == 1)
 1086              		.loc 2 285 8
 1087 0076 7B69     		ldr	r3, [r7, #20]
 1088 0078 012B     		cmp	r3, #1
 1089 007a 03D1     		bne	.L74
 286:g:/iot/IoT_Device_Demo/iot_link/network/lwm2m/wakaama_lwm2m/wakaama-master/core\data.c ****     {
 287:g:/iot/IoT_Device_Demo/iot_link/network/lwm2m/wakaama_lwm2m/wakaama-master/core\data.c ****         dataP->type = LWM2M_TYPE_OPAQUE;
 1090              		.loc 2 287 21
 1091 007c 7B68     		ldr	r3, [r7, #4]
 1092 007e 0522     		movs	r2, #5
 1093 0080 1A70     		strb	r2, [r3]
 288:g:/iot/IoT_Device_Demo/iot_link/network/lwm2m/wakaama_lwm2m/wakaama-master/core\data.c ****     }
 289:g:/iot/IoT_Device_Demo/iot_link/network/lwm2m/wakaama_lwm2m/wakaama-master/core\data.c ****     else
 290:g:/iot/IoT_Device_Demo/iot_link/network/lwm2m/wakaama_lwm2m/wakaama-master/core\data.c ****     {
 291:g:/iot/IoT_Device_Demo/iot_link/network/lwm2m/wakaama_lwm2m/wakaama-master/core\data.c ****         dataP->type = LWM2M_TYPE_UNDEFINED;
 292:g:/iot/IoT_Device_Demo/iot_link/network/lwm2m/wakaama_lwm2m/wakaama-master/core\data.c ****     }
 293:g:/iot/IoT_Device_Demo/iot_link/network/lwm2m/wakaama_lwm2m/wakaama-master/core\data.c **** }
 1094              		.loc 2 293 1
 1095 0082 02E0     		b	.L76
 1096              	.L74:
 291:g:/iot/IoT_Device_Demo/iot_link/network/lwm2m/wakaama_lwm2m/wakaama-master/core\data.c ****     }
 1097              		.loc 2 291 21
 1098 0084 7B68     		ldr	r3, [r7, #4]
 1099 0086 0022     		movs	r2, #0
 1100 0088 1A70     		strb	r2, [r3]
 1101              	.L76:
 1102              		.loc 2 293 1
 1103 008a 00BF     		nop
 1104 008c 1837     		adds	r7, r7, #24
 1105              	.LCFI39:
 1106              		.cfi_def_cfa_offset 16
 1107 008e BD46     		mov	sp, r7
 1108              	.LCFI40:
 1109              		.cfi_def_cfa_register 13
 1110              		@ sp needed
 1111 0090 B0BD     		pop	{r4, r5, r7, pc}
 1112              	.L78:
 1113 0092 00BF     		.align	2
 1114              	.L77:
 1115 0094 00000000 		.word	__func__.8693
 1116 0098 00000000 		.word	__FUNCTION__.8692
 1117 009c 54000000 		.word	.LC2
 1118              		.cfi_endproc
 1119              	.LFE10:
 1121              		.section	.rodata
 1122 007f 00       		.align	2
 1123              	.LC3:
 1124 0080 5B25735D 		.ascii	"[%s][%u][%s:%d] [%d][%s:%d] length: %d, string: \"%"
 1124      5B25755D 
 1124      5B25733A 
 1124      25645D20 
 1124      5B25645D 
 1125 00b2 73220D0A 		.ascii	"s\"\015\012\015\012\000"
 1125      0D0A00
 1126              		.section	.text.lwm2m_data_encode_nstring,"ax",%progbits
 1127              		.align	1
ARM GAS  C:\Users\ADMINI~1\AppData\Local\Temp\ccO7A1oC.s 			page 33


 1128              		.global	lwm2m_data_encode_nstring
 1129              		.syntax unified
 1130              		.thumb
 1131              		.thumb_func
 1132              		.fpu fpv4-sp-d16
 1134              	lwm2m_data_encode_nstring:
 1135              	.LFB11:
 294:g:/iot/IoT_Device_Demo/iot_link/network/lwm2m/wakaama_lwm2m/wakaama-master/core\data.c **** 
 295:g:/iot/IoT_Device_Demo/iot_link/network/lwm2m/wakaama_lwm2m/wakaama-master/core\data.c **** void lwm2m_data_encode_nstring(const char *string,
 296:g:/iot/IoT_Device_Demo/iot_link/network/lwm2m/wakaama_lwm2m/wakaama-master/core\data.c ****                                size_t length,
 297:g:/iot/IoT_Device_Demo/iot_link/network/lwm2m/wakaama_lwm2m/wakaama-master/core\data.c ****                                lwm2m_data_t *dataP)
 298:g:/iot/IoT_Device_Demo/iot_link/network/lwm2m/wakaama_lwm2m/wakaama-master/core\data.c **** {
 1136              		.loc 2 298 1
 1137              		.cfi_startproc
 1138              		@ args = 0, pretend = 0, frame = 16
 1139              		@ frame_needed = 1, uses_anonymous_args = 0
 1140 0000 B0B5     		push	{r4, r5, r7, lr}
 1141              	.LCFI41:
 1142              		.cfi_def_cfa_offset 16
 1143              		.cfi_offset 4, -16
 1144              		.cfi_offset 5, -12
 1145              		.cfi_offset 7, -8
 1146              		.cfi_offset 14, -4
 1147 0002 8AB0     		sub	sp, sp, #40
 1148              	.LCFI42:
 1149              		.cfi_def_cfa_offset 56
 1150 0004 06AF     		add	r7, sp, #24
 1151              	.LCFI43:
 1152              		.cfi_def_cfa 7, 32
 1153 0006 F860     		str	r0, [r7, #12]
 1154 0008 B960     		str	r1, [r7, #8]
 1155 000a 7A60     		str	r2, [r7, #4]
 299:g:/iot/IoT_Device_Demo/iot_link/network/lwm2m/wakaama_lwm2m/wakaama-master/core\data.c ****     LOG_ARG("length: %d, string: \"%s\"", length, string);
 1156              		.loc 2 299 5
 1157 000c FFF7FEFF 		bl	link_log_level_get
 1158 0010 0346     		mov	r3, r0
 1159 0012 012B     		cmp	r3, #1
 1160 0014 1FD8     		bhi	.L80
 1161              		.loc 2 299 5 is_stmt 0 discriminator 1
 1162 0016 0120     		movs	r0, #1
 1163 0018 FFF7FEFF 		bl	link_log_level_name
 1164 001c 0446     		mov	r4, r0
 1165 001e FFF7FEFF 		bl	osal_sys_time
 1166 0022 0246     		mov	r2, r0
 1167 0024 0B46     		mov	r3, r1
 1168 0026 1546     		mov	r5, r2
 1169 0028 FFF7FEFF 		bl	lwm2m_gettime
 1170 002c 0246     		mov	r2, r0
 1171 002e 0B46     		mov	r3, r1
 1172 0030 FB68     		ldr	r3, [r7, #12]
 1173 0032 0593     		str	r3, [sp, #20]
 1174 0034 BB68     		ldr	r3, [r7, #8]
 1175 0036 0493     		str	r3, [sp, #16]
 1176 0038 40F22B13 		movw	r3, #299
 1177 003c 0393     		str	r3, [sp, #12]
 1178 003e 0E4B     		ldr	r3, .L83
 1179 0040 0293     		str	r3, [sp, #8]
ARM GAS  C:\Users\ADMINI~1\AppData\Local\Temp\ccO7A1oC.s 			page 34


 1180 0042 0192     		str	r2, [sp, #4]
 1181 0044 40F22B13 		movw	r3, #299
 1182 0048 0093     		str	r3, [sp]
 1183 004a 0C4B     		ldr	r3, .L83+4
 1184 004c 2A46     		mov	r2, r5
 1185 004e 2146     		mov	r1, r4
 1186 0050 0B48     		ldr	r0, .L83+8
 1187 0052 FFF7FEFF 		bl	printf
 1188              	.L80:
 300:g:/iot/IoT_Device_Demo/iot_link/network/lwm2m/wakaama_lwm2m/wakaama-master/core\data.c ****     lwm2m_data_encode_opaque((uint8_t *)string, length, dataP);
 1189              		.loc 2 300 5 is_stmt 1
 1190 0056 7A68     		ldr	r2, [r7, #4]
 1191 0058 B968     		ldr	r1, [r7, #8]
 1192 005a F868     		ldr	r0, [r7, #12]
 1193 005c FFF7FEFF 		bl	lwm2m_data_encode_opaque
 301:g:/iot/IoT_Device_Demo/iot_link/network/lwm2m/wakaama_lwm2m/wakaama-master/core\data.c **** 
 302:g:/iot/IoT_Device_Demo/iot_link/network/lwm2m/wakaama_lwm2m/wakaama-master/core\data.c ****     if (dataP->type == LWM2M_TYPE_OPAQUE)
 1194              		.loc 2 302 14
 1195 0060 7B68     		ldr	r3, [r7, #4]
 1196 0062 1B78     		ldrb	r3, [r3]	@ zero_extendqisi2
 1197              		.loc 2 302 8
 1198 0064 052B     		cmp	r3, #5
 1199 0066 02D1     		bne	.L82
 303:g:/iot/IoT_Device_Demo/iot_link/network/lwm2m/wakaama_lwm2m/wakaama-master/core\data.c ****     {
 304:g:/iot/IoT_Device_Demo/iot_link/network/lwm2m/wakaama_lwm2m/wakaama-master/core\data.c ****         dataP->type = LWM2M_TYPE_STRING;
 1200              		.loc 2 304 21
 1201 0068 7B68     		ldr	r3, [r7, #4]
 1202 006a 0422     		movs	r2, #4
 1203 006c 1A70     		strb	r2, [r3]
 1204              	.L82:
 305:g:/iot/IoT_Device_Demo/iot_link/network/lwm2m/wakaama_lwm2m/wakaama-master/core\data.c ****     }
 306:g:/iot/IoT_Device_Demo/iot_link/network/lwm2m/wakaama_lwm2m/wakaama-master/core\data.c **** }
 1205              		.loc 2 306 1
 1206 006e 00BF     		nop
 1207 0070 1037     		adds	r7, r7, #16
 1208              	.LCFI44:
 1209              		.cfi_def_cfa_offset 16
 1210 0072 BD46     		mov	sp, r7
 1211              	.LCFI45:
 1212              		.cfi_def_cfa_register 13
 1213              		@ sp needed
 1214 0074 B0BD     		pop	{r4, r5, r7, pc}
 1215              	.L84:
 1216 0076 00BF     		.align	2
 1217              	.L83:
 1218 0078 00000000 		.word	__func__.8700
 1219 007c 00000000 		.word	__FUNCTION__.8699
 1220 0080 80000000 		.word	.LC3
 1221              		.cfi_endproc
 1222              	.LFE11:
 1224              		.section	.rodata
 1225 00b9 000000   		.align	2
 1226              	.LC4:
 1227 00bc 5B25735D 		.ascii	"[%s][%u][%s:%d] [%d][%s:%d] value: %lld\015\012\015"
 1227      5B25755D 
 1227      5B25733A 
 1227      25645D20 
ARM GAS  C:\Users\ADMINI~1\AppData\Local\Temp\ccO7A1oC.s 			page 35


 1227      5B25645D 
 1228 00e6 0A00     		.ascii	"\012\000"
 1229              		.section	.text.lwm2m_data_encode_int,"ax",%progbits
 1230              		.align	1
 1231              		.global	lwm2m_data_encode_int
 1232              		.syntax unified
 1233              		.thumb
 1234              		.thumb_func
 1235              		.fpu fpv4-sp-d16
 1237              	lwm2m_data_encode_int:
 1238              	.LFB12:
 307:g:/iot/IoT_Device_Demo/iot_link/network/lwm2m/wakaama_lwm2m/wakaama-master/core\data.c **** 
 308:g:/iot/IoT_Device_Demo/iot_link/network/lwm2m/wakaama_lwm2m/wakaama-master/core\data.c **** void lwm2m_data_encode_int(int64_t value,
 309:g:/iot/IoT_Device_Demo/iot_link/network/lwm2m/wakaama_lwm2m/wakaama-master/core\data.c ****                            lwm2m_data_t *dataP)
 310:g:/iot/IoT_Device_Demo/iot_link/network/lwm2m/wakaama_lwm2m/wakaama-master/core\data.c **** {
 1239              		.loc 2 310 1
 1240              		.cfi_startproc
 1241              		@ args = 0, pretend = 0, frame = 16
 1242              		@ frame_needed = 1, uses_anonymous_args = 0
 1243 0000 B0B5     		push	{r4, r5, r7, lr}
 1244              	.LCFI46:
 1245              		.cfi_def_cfa_offset 16
 1246              		.cfi_offset 4, -16
 1247              		.cfi_offset 5, -12
 1248              		.cfi_offset 7, -8
 1249              		.cfi_offset 14, -4
 1250 0002 8AB0     		sub	sp, sp, #40
 1251              	.LCFI47:
 1252              		.cfi_def_cfa_offset 56
 1253 0004 06AF     		add	r7, sp, #24
 1254              	.LCFI48:
 1255              		.cfi_def_cfa 7, 32
 1256 0006 C7E90201 		strd	r0, [r7, #8]
 1257 000a 7A60     		str	r2, [r7, #4]
 311:g:/iot/IoT_Device_Demo/iot_link/network/lwm2m/wakaama_lwm2m/wakaama-master/core\data.c ****     LOG_ARG("value: %" PRId64 "", value);
 1258              		.loc 2 311 5
 1259 000c FFF7FEFF 		bl	link_log_level_get
 1260 0010 0346     		mov	r3, r0
 1261 0012 012B     		cmp	r3, #1
 1262 0014 20D8     		bhi	.L86
 1263              		.loc 2 311 5 is_stmt 0 discriminator 1
 1264 0016 0120     		movs	r0, #1
 1265 0018 FFF7FEFF 		bl	link_log_level_name
 1266 001c 0446     		mov	r4, r0
 1267 001e FFF7FEFF 		bl	osal_sys_time
 1268 0022 0246     		mov	r2, r0
 1269 0024 0B46     		mov	r3, r1
 1270 0026 1546     		mov	r5, r2
 1271 0028 FFF7FEFF 		bl	lwm2m_gettime
 1272 002c 0246     		mov	r2, r0
 1273 002e 0B46     		mov	r3, r1
 1274 0030 1146     		mov	r1, r2
 1275 0032 D7E90223 		ldrd	r2, [r7, #8]
 1276 0036 CDE90423 		strd	r2, [sp, #16]
 1277 003a 40F23713 		movw	r3, #311
 1278 003e 0393     		str	r3, [sp, #12]
 1279 0040 0B4B     		ldr	r3, .L87
ARM GAS  C:\Users\ADMINI~1\AppData\Local\Temp\ccO7A1oC.s 			page 36


 1280 0042 0293     		str	r3, [sp, #8]
 1281 0044 0191     		str	r1, [sp, #4]
 1282 0046 40F23713 		movw	r3, #311
 1283 004a 0093     		str	r3, [sp]
 1284 004c 094B     		ldr	r3, .L87+4
 1285 004e 2A46     		mov	r2, r5
 1286 0050 2146     		mov	r1, r4
 1287 0052 0948     		ldr	r0, .L87+8
 1288 0054 FFF7FEFF 		bl	printf
 1289              	.L86:
 312:g:/iot/IoT_Device_Demo/iot_link/network/lwm2m/wakaama_lwm2m/wakaama-master/core\data.c ****     dataP->type = LWM2M_TYPE_INTEGER;
 1290              		.loc 2 312 17 is_stmt 1
 1291 0058 7B68     		ldr	r3, [r7, #4]
 1292 005a 0622     		movs	r2, #6
 1293 005c 1A70     		strb	r2, [r3]
 313:g:/iot/IoT_Device_Demo/iot_link/network/lwm2m/wakaama_lwm2m/wakaama-master/core\data.c ****     dataP->value.asInteger = value;
 1294              		.loc 2 313 28
 1295 005e 7968     		ldr	r1, [r7, #4]
 1296 0060 D7E90223 		ldrd	r2, [r7, #8]
 1297 0064 C1E90223 		strd	r2, [r1, #8]
 314:g:/iot/IoT_Device_Demo/iot_link/network/lwm2m/wakaama_lwm2m/wakaama-master/core\data.c **** }
 1298              		.loc 2 314 1
 1299 0068 00BF     		nop
 1300 006a 1037     		adds	r7, r7, #16
 1301              	.LCFI49:
 1302              		.cfi_def_cfa_offset 16
 1303 006c BD46     		mov	sp, r7
 1304              	.LCFI50:
 1305              		.cfi_def_cfa_register 13
 1306              		@ sp needed
 1307 006e B0BD     		pop	{r4, r5, r7, pc}
 1308              	.L88:
 1309              		.align	2
 1310              	.L87:
 1311 0070 00000000 		.word	__func__.8706
 1312 0074 00000000 		.word	__FUNCTION__.8705
 1313 0078 BC000000 		.word	.LC4
 1314              		.cfi_endproc
 1315              	.LFE12:
 1317              		.section	.rodata
 1318              		.align	2
 1319              	.LC5:
 1320 00e8 5B25735D 		.ascii	"[%s][%u][%s:%d] [%d][%s:%d] Entering\015\012\015\012"
 1320      5B25755D 
 1320      5B25733A 
 1320      25645D20 
 1320      5B25645D 
 1321 0110 00       		.ascii	"\000"
 1322 0111 000000   		.align	2
 1323              	.LC6:
 1324 0114 5B25735D 		.ascii	"[%s][%u][%s:%d] [%d][%s:%d] result: %d, value: %lld"
 1324      5B25755D 
 1324      5B25733A 
 1324      25645D20 
 1324      5B25645D 
 1325 0147 0D0A0D0A 		.ascii	"\015\012\015\012\000"
 1325      00
ARM GAS  C:\Users\ADMINI~1\AppData\Local\Temp\ccO7A1oC.s 			page 37


 1326              		.section	.text.lwm2m_data_decode_int,"ax",%progbits
 1327              		.align	1
 1328              		.global	lwm2m_data_decode_int
 1329              		.syntax unified
 1330              		.thumb
 1331              		.thumb_func
 1332              		.fpu fpv4-sp-d16
 1334              	lwm2m_data_decode_int:
 1335              	.LFB13:
 315:g:/iot/IoT_Device_Demo/iot_link/network/lwm2m/wakaama_lwm2m/wakaama-master/core\data.c **** 
 316:g:/iot/IoT_Device_Demo/iot_link/network/lwm2m/wakaama_lwm2m/wakaama-master/core\data.c **** int lwm2m_data_decode_int(const lwm2m_data_t *dataP,
 317:g:/iot/IoT_Device_Demo/iot_link/network/lwm2m/wakaama_lwm2m/wakaama-master/core\data.c ****                           int64_t *valueP)
 318:g:/iot/IoT_Device_Demo/iot_link/network/lwm2m/wakaama_lwm2m/wakaama-master/core\data.c **** {
 1336              		.loc 2 318 1
 1337              		.cfi_startproc
 1338              		@ args = 0, pretend = 0, frame = 24
 1339              		@ frame_needed = 1, uses_anonymous_args = 0
 1340 0000 B0B5     		push	{r4, r5, r7, lr}
 1341              	.LCFI51:
 1342              		.cfi_def_cfa_offset 16
 1343              		.cfi_offset 4, -16
 1344              		.cfi_offset 5, -12
 1345              		.cfi_offset 7, -8
 1346              		.cfi_offset 14, -4
 1347 0002 8EB0     		sub	sp, sp, #56
 1348              	.LCFI52:
 1349              		.cfi_def_cfa_offset 72
 1350 0004 08AF     		add	r7, sp, #32
 1351              	.LCFI53:
 1352              		.cfi_def_cfa 7, 40
 1353 0006 7860     		str	r0, [r7, #4]
 1354 0008 3960     		str	r1, [r7]
 319:g:/iot/IoT_Device_Demo/iot_link/network/lwm2m/wakaama_lwm2m/wakaama-master/core\data.c ****     int result;
 320:g:/iot/IoT_Device_Demo/iot_link/network/lwm2m/wakaama_lwm2m/wakaama-master/core\data.c **** 
 321:g:/iot/IoT_Device_Demo/iot_link/network/lwm2m/wakaama_lwm2m/wakaama-master/core\data.c ****     LOG("Entering");
 1355              		.loc 2 321 5
 1356 000a FFF7FEFF 		bl	link_log_level_get
 1357 000e 0346     		mov	r3, r0
 1358 0010 012B     		cmp	r3, #1
 1359 0012 1BD8     		bhi	.L90
 1360              		.loc 2 321 5 is_stmt 0 discriminator 1
 1361 0014 0120     		movs	r0, #1
 1362 0016 FFF7FEFF 		bl	link_log_level_name
 1363 001a 0446     		mov	r4, r0
 1364 001c FFF7FEFF 		bl	osal_sys_time
 1365 0020 0246     		mov	r2, r0
 1366 0022 0B46     		mov	r3, r1
 1367 0024 1546     		mov	r5, r2
 1368 0026 FFF7FEFF 		bl	lwm2m_gettime
 1369 002a 0246     		mov	r2, r0
 1370 002c 0B46     		mov	r3, r1
 1371 002e 40F24113 		movw	r3, #321
 1372 0032 0393     		str	r3, [sp, #12]
 1373 0034 5A4B     		ldr	r3, .L105
 1374 0036 0293     		str	r3, [sp, #8]
 1375 0038 0192     		str	r2, [sp, #4]
 1376 003a 40F24113 		movw	r3, #321
ARM GAS  C:\Users\ADMINI~1\AppData\Local\Temp\ccO7A1oC.s 			page 38


 1377 003e 0093     		str	r3, [sp]
 1378 0040 584B     		ldr	r3, .L105+4
 1379 0042 2A46     		mov	r2, r5
 1380 0044 2146     		mov	r1, r4
 1381 0046 5848     		ldr	r0, .L105+8
 1382 0048 FFF7FEFF 		bl	printf
 1383              	.L90:
 322:g:/iot/IoT_Device_Demo/iot_link/network/lwm2m/wakaama_lwm2m/wakaama-master/core\data.c ****     switch (dataP->type)
 1384              		.loc 2 322 18 is_stmt 1
 1385 004c 7B68     		ldr	r3, [r7, #4]
 1386 004e 1B78     		ldrb	r3, [r3]	@ zero_extendqisi2
 1387              		.loc 2 322 5
 1388 0050 062B     		cmp	r3, #6
 1389 0052 06D0     		beq	.L91
 1390 0054 062B     		cmp	r3, #6
 1391 0056 72DC     		bgt	.L92
 1392 0058 042B     		cmp	r3, #4
 1393 005a 0BD0     		beq	.L93
 1394 005c 052B     		cmp	r3, #5
 1395 005e 13D0     		beq	.L94
 1396 0060 6DE0     		b	.L92
 1397              	.L91:
 323:g:/iot/IoT_Device_Demo/iot_link/network/lwm2m/wakaama_lwm2m/wakaama-master/core\data.c ****     {
 324:g:/iot/IoT_Device_Demo/iot_link/network/lwm2m/wakaama_lwm2m/wakaama-master/core\data.c ****     case LWM2M_TYPE_INTEGER:
 325:g:/iot/IoT_Device_Demo/iot_link/network/lwm2m/wakaama_lwm2m/wakaama-master/core\data.c ****         *valueP = dataP->value.asInteger;
 1398              		.loc 2 325 31
 1399 0062 7B68     		ldr	r3, [r7, #4]
 1400 0064 D3E90223 		ldrd	r2, [r3, #8]
 1401              		.loc 2 325 17
 1402 0068 3968     		ldr	r1, [r7]
 1403 006a C1E90023 		strd	r2, [r1]
 326:g:/iot/IoT_Device_Demo/iot_link/network/lwm2m/wakaama_lwm2m/wakaama-master/core\data.c ****         result = 1;
 1404              		.loc 2 326 16
 1405 006e 0123     		movs	r3, #1
 1406 0070 7B61     		str	r3, [r7, #20]
 327:g:/iot/IoT_Device_Demo/iot_link/network/lwm2m/wakaama_lwm2m/wakaama-master/core\data.c ****         break;
 1407              		.loc 2 327 9
 1408 0072 66E0     		b	.L95
 1409              	.L93:
 328:g:/iot/IoT_Device_Demo/iot_link/network/lwm2m/wakaama_lwm2m/wakaama-master/core\data.c **** 
 329:g:/iot/IoT_Device_Demo/iot_link/network/lwm2m/wakaama_lwm2m/wakaama-master/core\data.c ****     case LWM2M_TYPE_STRING:
 330:g:/iot/IoT_Device_Demo/iot_link/network/lwm2m/wakaama_lwm2m/wakaama-master/core\data.c ****         result = utils_textToInt(dataP->value.asBuffer.buffer, dataP->value.asBuffer.length, valueP
 1410              		.loc 2 330 18
 1411 0074 7B68     		ldr	r3, [r7, #4]
 1412 0076 D868     		ldr	r0, [r3, #12]
 1413              		.loc 2 330 85
 1414 0078 7B68     		ldr	r3, [r7, #4]
 1415 007a 9B68     		ldr	r3, [r3, #8]
 1416              		.loc 2 330 18
 1417 007c 3A68     		ldr	r2, [r7]
 1418 007e 1946     		mov	r1, r3
 1419 0080 FFF7FEFF 		bl	utils_textToInt
 1420 0084 7861     		str	r0, [r7, #20]
 331:g:/iot/IoT_Device_Demo/iot_link/network/lwm2m/wakaama_lwm2m/wakaama-master/core\data.c ****         break;
 1421              		.loc 2 331 9
 1422 0086 5CE0     		b	.L95
 1423              	.L94:
ARM GAS  C:\Users\ADMINI~1\AppData\Local\Temp\ccO7A1oC.s 			page 39


 332:g:/iot/IoT_Device_Demo/iot_link/network/lwm2m/wakaama_lwm2m/wakaama-master/core\data.c **** 
 333:g:/iot/IoT_Device_Demo/iot_link/network/lwm2m/wakaama_lwm2m/wakaama-master/core\data.c ****     case LWM2M_TYPE_OPAQUE:
 334:g:/iot/IoT_Device_Demo/iot_link/network/lwm2m/wakaama_lwm2m/wakaama-master/core\data.c ****         switch (dataP->value.asBuffer.length)
 1424              		.loc 2 334 38
 1425 0088 7B68     		ldr	r3, [r7, #4]
 1426 008a 9B68     		ldr	r3, [r3, #8]
 1427 008c 013B     		subs	r3, r3, #1
 1428 008e 072B     		cmp	r3, #7
 1429 0090 51D8     		bhi	.L96
 1430 0092 01A2     		adr	r2, .L98
 1431 0094 52F823F0 		ldr	pc, [r2, r3, lsl #2]
 1432              		.p2align 2
 1433              	.L98:
 1434 0098 B9000000 		.word	.L101+1
 1435 009c D3000000 		.word	.L100+1
 1436 00a0 37010000 		.word	.L96+1
 1437 00a4 FB000000 		.word	.L99+1
 1438 00a8 37010000 		.word	.L96+1
 1439 00ac 37010000 		.word	.L96+1
 1440 00b0 37010000 		.word	.L96+1
 1441 00b4 21010000 		.word	.L97+1
 1442              		.p2align 1
 1443              	.L101:
 335:g:/iot/IoT_Device_Demo/iot_link/network/lwm2m/wakaama_lwm2m/wakaama-master/core\data.c ****         {
 336:g:/iot/IoT_Device_Demo/iot_link/network/lwm2m/wakaama_lwm2m/wakaama-master/core\data.c ****         case 1:
 337:g:/iot/IoT_Device_Demo/iot_link/network/lwm2m/wakaama_lwm2m/wakaama-master/core\data.c ****             *valueP = (int8_t)dataP->value.asBuffer.buffer[0];
 1444              		.loc 2 337 52
 1445 00b8 7B68     		ldr	r3, [r7, #4]
 1446 00ba DB68     		ldr	r3, [r3, #12]
 1447              		.loc 2 337 59
 1448 00bc 1B78     		ldrb	r3, [r3]	@ zero_extendqisi2
 1449              		.loc 2 337 23
 1450 00be 5BB2     		sxtb	r3, r3
 1451 00c0 5AB2     		sxtb	r2, r3
 1452 00c2 4FEAE273 		asr	r3, r2, #31
 1453              		.loc 2 337 21
 1454 00c6 3968     		ldr	r1, [r7]
 1455 00c8 C1E90023 		strd	r2, [r1]
 338:g:/iot/IoT_Device_Demo/iot_link/network/lwm2m/wakaama_lwm2m/wakaama-master/core\data.c ****             result = 1;
 1456              		.loc 2 338 20
 1457 00cc 0123     		movs	r3, #1
 1458 00ce 7B61     		str	r3, [r7, #20]
 339:g:/iot/IoT_Device_Demo/iot_link/network/lwm2m/wakaama_lwm2m/wakaama-master/core\data.c ****             break;
 1459              		.loc 2 339 13
 1460 00d0 34E0     		b	.L102
 1461              	.L100:
 1462              	.LBB6:
 340:g:/iot/IoT_Device_Demo/iot_link/network/lwm2m/wakaama_lwm2m/wakaama-master/core\data.c **** 
 341:g:/iot/IoT_Device_Demo/iot_link/network/lwm2m/wakaama_lwm2m/wakaama-master/core\data.c ****         case 2:
 342:g:/iot/IoT_Device_Demo/iot_link/network/lwm2m/wakaama_lwm2m/wakaama-master/core\data.c ****         {
 343:g:/iot/IoT_Device_Demo/iot_link/network/lwm2m/wakaama_lwm2m/wakaama-master/core\data.c ****             int16_t value;
 344:g:/iot/IoT_Device_Demo/iot_link/network/lwm2m/wakaama_lwm2m/wakaama-master/core\data.c **** 
 345:g:/iot/IoT_Device_Demo/iot_link/network/lwm2m/wakaama_lwm2m/wakaama-master/core\data.c ****             utils_copyValue(&value, dataP->value.asBuffer.buffer, dataP->value.asBuffer.length);
 1463              		.loc 2 345 58
 1464 00d2 7B68     		ldr	r3, [r7, #4]
 1465 00d4 D968     		ldr	r1, [r3, #12]
 1466              		.loc 2 345 13
ARM GAS  C:\Users\ADMINI~1\AppData\Local\Temp\ccO7A1oC.s 			page 40


 1467 00d6 7B68     		ldr	r3, [r7, #4]
 1468 00d8 9A68     		ldr	r2, [r3, #8]
 1469 00da 07F11203 		add	r3, r7, #18
 1470 00de 1846     		mov	r0, r3
 1471 00e0 FFF7FEFF 		bl	utils_copyValue
 346:g:/iot/IoT_Device_Demo/iot_link/network/lwm2m/wakaama_lwm2m/wakaama-master/core\data.c **** 
 347:g:/iot/IoT_Device_Demo/iot_link/network/lwm2m/wakaama_lwm2m/wakaama-master/core\data.c ****             *valueP = value;
 1472              		.loc 2 347 21
 1473 00e4 B7F91230 		ldrsh	r3, [r7, #18]
 1474 00e8 1AB2     		sxth	r2, r3
 1475 00ea 4FEAE273 		asr	r3, r2, #31
 1476 00ee 3968     		ldr	r1, [r7]
 1477 00f0 C1E90023 		strd	r2, [r1]
 348:g:/iot/IoT_Device_Demo/iot_link/network/lwm2m/wakaama_lwm2m/wakaama-master/core\data.c ****             result = 1;
 1478              		.loc 2 348 20
 1479 00f4 0123     		movs	r3, #1
 1480 00f6 7B61     		str	r3, [r7, #20]
 349:g:/iot/IoT_Device_Demo/iot_link/network/lwm2m/wakaama_lwm2m/wakaama-master/core\data.c ****             break;
 1481              		.loc 2 349 13
 1482 00f8 20E0     		b	.L102
 1483              	.L99:
 1484              	.LBE6:
 1485              	.LBB7:
 350:g:/iot/IoT_Device_Demo/iot_link/network/lwm2m/wakaama_lwm2m/wakaama-master/core\data.c ****         }
 351:g:/iot/IoT_Device_Demo/iot_link/network/lwm2m/wakaama_lwm2m/wakaama-master/core\data.c **** 
 352:g:/iot/IoT_Device_Demo/iot_link/network/lwm2m/wakaama_lwm2m/wakaama-master/core\data.c ****         case 4:
 353:g:/iot/IoT_Device_Demo/iot_link/network/lwm2m/wakaama_lwm2m/wakaama-master/core\data.c ****         {
 354:g:/iot/IoT_Device_Demo/iot_link/network/lwm2m/wakaama_lwm2m/wakaama-master/core\data.c ****             int32_t value;
 355:g:/iot/IoT_Device_Demo/iot_link/network/lwm2m/wakaama_lwm2m/wakaama-master/core\data.c **** 
 356:g:/iot/IoT_Device_Demo/iot_link/network/lwm2m/wakaama_lwm2m/wakaama-master/core\data.c ****             utils_copyValue(&value, dataP->value.asBuffer.buffer, dataP->value.asBuffer.length);
 1486              		.loc 2 356 58
 1487 00fa 7B68     		ldr	r3, [r7, #4]
 1488 00fc D968     		ldr	r1, [r3, #12]
 1489              		.loc 2 356 13
 1490 00fe 7B68     		ldr	r3, [r7, #4]
 1491 0100 9A68     		ldr	r2, [r3, #8]
 1492 0102 07F10C03 		add	r3, r7, #12
 1493 0106 1846     		mov	r0, r3
 1494 0108 FFF7FEFF 		bl	utils_copyValue
 357:g:/iot/IoT_Device_Demo/iot_link/network/lwm2m/wakaama_lwm2m/wakaama-master/core\data.c **** 
 358:g:/iot/IoT_Device_Demo/iot_link/network/lwm2m/wakaama_lwm2m/wakaama-master/core\data.c ****             *valueP = value;
 1495              		.loc 2 358 21
 1496 010c FB68     		ldr	r3, [r7, #12]
 1497 010e 1A46     		mov	r2, r3
 1498 0110 4FEAE273 		asr	r3, r2, #31
 1499 0114 3968     		ldr	r1, [r7]
 1500 0116 C1E90023 		strd	r2, [r1]
 359:g:/iot/IoT_Device_Demo/iot_link/network/lwm2m/wakaama_lwm2m/wakaama-master/core\data.c ****             result = 1;
 1501              		.loc 2 359 20
 1502 011a 0123     		movs	r3, #1
 1503 011c 7B61     		str	r3, [r7, #20]
 360:g:/iot/IoT_Device_Demo/iot_link/network/lwm2m/wakaama_lwm2m/wakaama-master/core\data.c ****             break;
 1504              		.loc 2 360 13
 1505 011e 0DE0     		b	.L102
 1506              	.L97:
 1507              	.LBE7:
 361:g:/iot/IoT_Device_Demo/iot_link/network/lwm2m/wakaama_lwm2m/wakaama-master/core\data.c ****         }
ARM GAS  C:\Users\ADMINI~1\AppData\Local\Temp\ccO7A1oC.s 			page 41


 362:g:/iot/IoT_Device_Demo/iot_link/network/lwm2m/wakaama_lwm2m/wakaama-master/core\data.c **** 
 363:g:/iot/IoT_Device_Demo/iot_link/network/lwm2m/wakaama_lwm2m/wakaama-master/core\data.c ****         case 8:
 364:g:/iot/IoT_Device_Demo/iot_link/network/lwm2m/wakaama_lwm2m/wakaama-master/core\data.c ****             utils_copyValue(valueP, dataP->value.asBuffer.buffer, dataP->value.asBuffer.length);
 1508              		.loc 2 364 58
 1509 0120 7B68     		ldr	r3, [r7, #4]
 1510 0122 D968     		ldr	r1, [r3, #12]
 1511              		.loc 2 364 13
 1512 0124 7B68     		ldr	r3, [r7, #4]
 1513 0126 9B68     		ldr	r3, [r3, #8]
 1514 0128 1A46     		mov	r2, r3
 1515 012a 3868     		ldr	r0, [r7]
 1516 012c FFF7FEFF 		bl	utils_copyValue
 365:g:/iot/IoT_Device_Demo/iot_link/network/lwm2m/wakaama_lwm2m/wakaama-master/core\data.c ****             result = 1;
 1517              		.loc 2 365 20
 1518 0130 0123     		movs	r3, #1
 1519 0132 7B61     		str	r3, [r7, #20]
 366:g:/iot/IoT_Device_Demo/iot_link/network/lwm2m/wakaama_lwm2m/wakaama-master/core\data.c ****             break;
 1520              		.loc 2 366 13
 1521 0134 02E0     		b	.L102
 1522              	.L96:
 367:g:/iot/IoT_Device_Demo/iot_link/network/lwm2m/wakaama_lwm2m/wakaama-master/core\data.c **** 
 368:g:/iot/IoT_Device_Demo/iot_link/network/lwm2m/wakaama_lwm2m/wakaama-master/core\data.c ****         default:
 369:g:/iot/IoT_Device_Demo/iot_link/network/lwm2m/wakaama_lwm2m/wakaama-master/core\data.c ****             result = 0;
 1523              		.loc 2 369 20
 1524 0136 0023     		movs	r3, #0
 1525 0138 7B61     		str	r3, [r7, #20]
 370:g:/iot/IoT_Device_Demo/iot_link/network/lwm2m/wakaama_lwm2m/wakaama-master/core\data.c ****         }
 371:g:/iot/IoT_Device_Demo/iot_link/network/lwm2m/wakaama_lwm2m/wakaama-master/core\data.c ****         break;
 1526              		.loc 2 371 9
 1527 013a 02E0     		b	.L95
 1528              	.L102:
 1529 013c 01E0     		b	.L95
 1530              	.L92:
 372:g:/iot/IoT_Device_Demo/iot_link/network/lwm2m/wakaama_lwm2m/wakaama-master/core\data.c **** 
 373:g:/iot/IoT_Device_Demo/iot_link/network/lwm2m/wakaama_lwm2m/wakaama-master/core\data.c ****     default:
 374:g:/iot/IoT_Device_Demo/iot_link/network/lwm2m/wakaama_lwm2m/wakaama-master/core\data.c ****         return 0;
 1531              		.loc 2 374 16
 1532 013e 0023     		movs	r3, #0
 1533 0140 29E0     		b	.L103
 1534              	.L95:
 375:g:/iot/IoT_Device_Demo/iot_link/network/lwm2m/wakaama_lwm2m/wakaama-master/core\data.c ****     }
 376:g:/iot/IoT_Device_Demo/iot_link/network/lwm2m/wakaama_lwm2m/wakaama-master/core\data.c ****     LOG_ARG("result: %d, value: %" PRId64, result, *valueP);
 1535              		.loc 2 376 5
 1536 0142 FFF7FEFF 		bl	link_log_level_get
 1537 0146 0346     		mov	r3, r0
 1538 0148 012B     		cmp	r3, #1
 1539 014a 23D8     		bhi	.L104
 1540              		.loc 2 376 5 is_stmt 0 discriminator 1
 1541 014c 0120     		movs	r0, #1
 1542 014e FFF7FEFF 		bl	link_log_level_name
 1543 0152 0446     		mov	r4, r0
 1544 0154 FFF7FEFF 		bl	osal_sys_time
 1545 0158 0246     		mov	r2, r0
 1546 015a 0B46     		mov	r3, r1
 1547 015c 1546     		mov	r5, r2
 1548 015e FFF7FEFF 		bl	lwm2m_gettime
 1549 0162 0246     		mov	r2, r0
ARM GAS  C:\Users\ADMINI~1\AppData\Local\Temp\ccO7A1oC.s 			page 42


 1550 0164 0B46     		mov	r3, r1
 1551 0166 1146     		mov	r1, r2
 1552 0168 3B68     		ldr	r3, [r7]
 1553 016a D3E90023 		ldrd	r2, [r3]
 1554 016e CDE90623 		strd	r2, [sp, #24]
 1555 0172 7B69     		ldr	r3, [r7, #20]
 1556 0174 0493     		str	r3, [sp, #16]
 1557 0176 4FF4BC73 		mov	r3, #376
 1558 017a 0393     		str	r3, [sp, #12]
 1559 017c 084B     		ldr	r3, .L105
 1560 017e 0293     		str	r3, [sp, #8]
 1561 0180 0191     		str	r1, [sp, #4]
 1562 0182 4FF4BC73 		mov	r3, #376
 1563 0186 0093     		str	r3, [sp]
 1564 0188 064B     		ldr	r3, .L105+4
 1565 018a 2A46     		mov	r2, r5
 1566 018c 2146     		mov	r1, r4
 1567 018e 0748     		ldr	r0, .L105+12
 1568 0190 FFF7FEFF 		bl	printf
 1569              	.L104:
 377:g:/iot/IoT_Device_Demo/iot_link/network/lwm2m/wakaama_lwm2m/wakaama-master/core\data.c **** 
 378:g:/iot/IoT_Device_Demo/iot_link/network/lwm2m/wakaama_lwm2m/wakaama-master/core\data.c ****     return result;
 1570              		.loc 2 378 12 is_stmt 1
 1571 0194 7B69     		ldr	r3, [r7, #20]
 1572              	.L103:
 379:g:/iot/IoT_Device_Demo/iot_link/network/lwm2m/wakaama_lwm2m/wakaama-master/core\data.c **** }
 1573              		.loc 2 379 1
 1574 0196 1846     		mov	r0, r3
 1575 0198 1837     		adds	r7, r7, #24
 1576              	.LCFI54:
 1577              		.cfi_def_cfa_offset 16
 1578 019a BD46     		mov	sp, r7
 1579              	.LCFI55:
 1580              		.cfi_def_cfa_register 13
 1581              		@ sp needed
 1582 019c B0BD     		pop	{r4, r5, r7, pc}
 1583              	.L106:
 1584 019e 00BF     		.align	2
 1585              	.L105:
 1586 01a0 00000000 		.word	__func__.8713
 1587 01a4 00000000 		.word	__FUNCTION__.8712
 1588 01a8 E8000000 		.word	.LC5
 1589 01ac 14010000 		.word	.LC6
 1590              		.cfi_endproc
 1591              	.LFE13:
 1593              		.section	.rodata
 1594              		.align	2
 1595              	.LC7:
 1596 014c 5B25735D 		.ascii	"[%s][%u][%s:%d] [%d][%s:%d] value: %f\015\012\015\012"
 1596      5B25755D 
 1596      5B25733A 
 1596      25645D20 
 1596      5B25645D 
 1597 0175 00       		.ascii	"\000"
 1598              		.section	.text.lwm2m_data_encode_float,"ax",%progbits
 1599              		.align	1
 1600              		.global	lwm2m_data_encode_float
ARM GAS  C:\Users\ADMINI~1\AppData\Local\Temp\ccO7A1oC.s 			page 43


 1601              		.syntax unified
 1602              		.thumb
 1603              		.thumb_func
 1604              		.fpu fpv4-sp-d16
 1606              	lwm2m_data_encode_float:
 1607              	.LFB14:
 380:g:/iot/IoT_Device_Demo/iot_link/network/lwm2m/wakaama_lwm2m/wakaama-master/core\data.c **** 
 381:g:/iot/IoT_Device_Demo/iot_link/network/lwm2m/wakaama_lwm2m/wakaama-master/core\data.c **** void lwm2m_data_encode_float(double value,
 382:g:/iot/IoT_Device_Demo/iot_link/network/lwm2m/wakaama_lwm2m/wakaama-master/core\data.c ****                              lwm2m_data_t *dataP)
 383:g:/iot/IoT_Device_Demo/iot_link/network/lwm2m/wakaama_lwm2m/wakaama-master/core\data.c **** {
 1608              		.loc 2 383 1
 1609              		.cfi_startproc
 1610              		@ args = 0, pretend = 0, frame = 16
 1611              		@ frame_needed = 1, uses_anonymous_args = 0
 1612 0000 B0B5     		push	{r4, r5, r7, lr}
 1613              	.LCFI56:
 1614              		.cfi_def_cfa_offset 16
 1615              		.cfi_offset 4, -16
 1616              		.cfi_offset 5, -12
 1617              		.cfi_offset 7, -8
 1618              		.cfi_offset 14, -4
 1619 0002 8AB0     		sub	sp, sp, #40
 1620              	.LCFI57:
 1621              		.cfi_def_cfa_offset 56
 1622 0004 06AF     		add	r7, sp, #24
 1623              	.LCFI58:
 1624              		.cfi_def_cfa 7, 32
 1625 0006 87ED020B 		vstr.64	d0, [r7, #8]
 1626 000a 7860     		str	r0, [r7, #4]
 384:g:/iot/IoT_Device_Demo/iot_link/network/lwm2m/wakaama_lwm2m/wakaama-master/core\data.c ****     LOG_ARG("value: %f", value);
 1627              		.loc 2 384 5
 1628 000c FFF7FEFF 		bl	link_log_level_get
 1629 0010 0346     		mov	r3, r0
 1630 0012 012B     		cmp	r3, #1
 1631 0014 20D8     		bhi	.L108
 1632              		.loc 2 384 5 is_stmt 0 discriminator 1
 1633 0016 0120     		movs	r0, #1
 1634 0018 FFF7FEFF 		bl	link_log_level_name
 1635 001c 0446     		mov	r4, r0
 1636 001e FFF7FEFF 		bl	osal_sys_time
 1637 0022 0246     		mov	r2, r0
 1638 0024 0B46     		mov	r3, r1
 1639 0026 1546     		mov	r5, r2
 1640 0028 FFF7FEFF 		bl	lwm2m_gettime
 1641 002c 0246     		mov	r2, r0
 1642 002e 0B46     		mov	r3, r1
 1643 0030 1146     		mov	r1, r2
 1644 0032 D7E90223 		ldrd	r2, [r7, #8]
 1645 0036 CDE90423 		strd	r2, [sp, #16]
 1646 003a 4FF4C073 		mov	r3, #384
 1647 003e 0393     		str	r3, [sp, #12]
 1648 0040 0B4B     		ldr	r3, .L109
 1649 0042 0293     		str	r3, [sp, #8]
 1650 0044 0191     		str	r1, [sp, #4]
 1651 0046 4FF4C073 		mov	r3, #384
 1652 004a 0093     		str	r3, [sp]
 1653 004c 094B     		ldr	r3, .L109+4
ARM GAS  C:\Users\ADMINI~1\AppData\Local\Temp\ccO7A1oC.s 			page 44


 1654 004e 2A46     		mov	r2, r5
 1655 0050 2146     		mov	r1, r4
 1656 0052 0948     		ldr	r0, .L109+8
 1657 0054 FFF7FEFF 		bl	printf
 1658              	.L108:
 385:g:/iot/IoT_Device_Demo/iot_link/network/lwm2m/wakaama_lwm2m/wakaama-master/core\data.c ****     dataP->type = LWM2M_TYPE_FLOAT;
 1659              		.loc 2 385 17 is_stmt 1
 1660 0058 7B68     		ldr	r3, [r7, #4]
 1661 005a 0722     		movs	r2, #7
 1662 005c 1A70     		strb	r2, [r3]
 386:g:/iot/IoT_Device_Demo/iot_link/network/lwm2m/wakaama_lwm2m/wakaama-master/core\data.c ****     dataP->value.asFloat = value;
 1663              		.loc 2 386 26
 1664 005e 7968     		ldr	r1, [r7, #4]
 1665 0060 D7E90223 		ldrd	r2, [r7, #8]
 1666 0064 C1E90223 		strd	r2, [r1, #8]
 387:g:/iot/IoT_Device_Demo/iot_link/network/lwm2m/wakaama_lwm2m/wakaama-master/core\data.c **** }
 1667              		.loc 2 387 1
 1668 0068 00BF     		nop
 1669 006a 1037     		adds	r7, r7, #16
 1670              	.LCFI59:
 1671              		.cfi_def_cfa_offset 16
 1672 006c BD46     		mov	sp, r7
 1673              	.LCFI60:
 1674              		.cfi_def_cfa_register 13
 1675              		@ sp needed
 1676 006e B0BD     		pop	{r4, r5, r7, pc}
 1677              	.L110:
 1678              		.align	2
 1679              	.L109:
 1680 0070 00000000 		.word	__func__.8732
 1681 0074 00000000 		.word	__FUNCTION__.8731
 1682 0078 4C010000 		.word	.LC7
 1683              		.cfi_endproc
 1684              	.LFE14:
 1686              		.global	__aeabi_l2d
 1687              		.global	__aeabi_f2d
 1688              		.section	.rodata
 1689 0176 0000     		.align	2
 1690              	.LC8:
 1691 0178 5B25735D 		.ascii	"[%s][%u][%s:%d] [%d][%s:%d] result: %d, value: %f\015"
 1691      5B25755D 
 1691      5B25733A 
 1691      25645D20 
 1691      5B25645D 
 1692 01aa 0A0D0A00 		.ascii	"\012\015\012\000"
 1693              		.section	.text.lwm2m_data_decode_float,"ax",%progbits
 1694              		.align	1
 1695              		.global	lwm2m_data_decode_float
 1696              		.syntax unified
 1697              		.thumb
 1698              		.thumb_func
 1699              		.fpu fpv4-sp-d16
 1701              	lwm2m_data_decode_float:
 1702              	.LFB15:
 388:g:/iot/IoT_Device_Demo/iot_link/network/lwm2m/wakaama_lwm2m/wakaama-master/core\data.c **** 
 389:g:/iot/IoT_Device_Demo/iot_link/network/lwm2m/wakaama_lwm2m/wakaama-master/core\data.c **** int lwm2m_data_decode_float(const lwm2m_data_t *dataP,
 390:g:/iot/IoT_Device_Demo/iot_link/network/lwm2m/wakaama_lwm2m/wakaama-master/core\data.c ****                             double *valueP)
ARM GAS  C:\Users\ADMINI~1\AppData\Local\Temp\ccO7A1oC.s 			page 45


 391:g:/iot/IoT_Device_Demo/iot_link/network/lwm2m/wakaama_lwm2m/wakaama-master/core\data.c **** {
 1703              		.loc 2 391 1
 1704              		.cfi_startproc
 1705              		@ args = 0, pretend = 0, frame = 16
 1706              		@ frame_needed = 1, uses_anonymous_args = 0
 1707 0000 B0B5     		push	{r4, r5, r7, lr}
 1708              	.LCFI61:
 1709              		.cfi_def_cfa_offset 16
 1710              		.cfi_offset 4, -16
 1711              		.cfi_offset 5, -12
 1712              		.cfi_offset 7, -8
 1713              		.cfi_offset 14, -4
 1714 0002 8CB0     		sub	sp, sp, #48
 1715              	.LCFI62:
 1716              		.cfi_def_cfa_offset 64
 1717 0004 08AF     		add	r7, sp, #32
 1718              	.LCFI63:
 1719              		.cfi_def_cfa 7, 32
 1720 0006 7860     		str	r0, [r7, #4]
 1721 0008 3960     		str	r1, [r7]
 392:g:/iot/IoT_Device_Demo/iot_link/network/lwm2m/wakaama_lwm2m/wakaama-master/core\data.c ****     int result;
 393:g:/iot/IoT_Device_Demo/iot_link/network/lwm2m/wakaama_lwm2m/wakaama-master/core\data.c **** 
 394:g:/iot/IoT_Device_Demo/iot_link/network/lwm2m/wakaama_lwm2m/wakaama-master/core\data.c ****     LOG("Entering");
 1722              		.loc 2 394 5
 1723 000a FFF7FEFF 		bl	link_log_level_get
 1724 000e 0346     		mov	r3, r0
 1725 0010 012B     		cmp	r3, #1
 1726 0012 1BD8     		bhi	.L112
 1727              		.loc 2 394 5 is_stmt 0 discriminator 1
 1728 0014 0120     		movs	r0, #1
 1729 0016 FFF7FEFF 		bl	link_log_level_name
 1730 001a 0446     		mov	r4, r0
 1731 001c FFF7FEFF 		bl	osal_sys_time
 1732 0020 0246     		mov	r2, r0
 1733 0022 0B46     		mov	r3, r1
 1734 0024 1546     		mov	r5, r2
 1735 0026 FFF7FEFF 		bl	lwm2m_gettime
 1736 002a 0246     		mov	r2, r0
 1737 002c 0B46     		mov	r3, r1
 1738 002e 4FF4C573 		mov	r3, #394
 1739 0032 0393     		str	r3, [sp, #12]
 1740 0034 4C4B     		ldr	r3, .L127
 1741 0036 0293     		str	r3, [sp, #8]
 1742 0038 0192     		str	r2, [sp, #4]
 1743 003a 4FF4C573 		mov	r3, #394
 1744 003e 0093     		str	r3, [sp]
 1745 0040 4A4B     		ldr	r3, .L127+4
 1746 0042 2A46     		mov	r2, r5
 1747 0044 2146     		mov	r1, r4
 1748 0046 4A48     		ldr	r0, .L127+8
 1749 0048 FFF7FEFF 		bl	printf
 1750              	.L112:
 395:g:/iot/IoT_Device_Demo/iot_link/network/lwm2m/wakaama_lwm2m/wakaama-master/core\data.c ****     switch (dataP->type)
 1751              		.loc 2 395 18 is_stmt 1
 1752 004c 7B68     		ldr	r3, [r7, #4]
 1753 004e 1B78     		ldrb	r3, [r3]	@ zero_extendqisi2
 1754 0050 043B     		subs	r3, r3, #4
ARM GAS  C:\Users\ADMINI~1\AppData\Local\Temp\ccO7A1oC.s 			page 46


 1755 0052 032B     		cmp	r3, #3
 1756 0054 57D8     		bhi	.L113
 1757 0056 01A2     		adr	r2, .L115
 1758 0058 52F823F0 		ldr	pc, [r2, r3, lsl #2]
 1759              		.p2align 2
 1760              	.L115:
 1761 005c 9D000000 		.word	.L118+1
 1762 0060 B1000000 		.word	.L117+1
 1763 0064 7F000000 		.word	.L116+1
 1764 0068 6D000000 		.word	.L114+1
 1765              		.p2align 1
 1766              	.L114:
 396:g:/iot/IoT_Device_Demo/iot_link/network/lwm2m/wakaama_lwm2m/wakaama-master/core\data.c ****     {
 397:g:/iot/IoT_Device_Demo/iot_link/network/lwm2m/wakaama_lwm2m/wakaama-master/core\data.c ****     case LWM2M_TYPE_FLOAT:
 398:g:/iot/IoT_Device_Demo/iot_link/network/lwm2m/wakaama_lwm2m/wakaama-master/core\data.c ****         *valueP = dataP->value.asFloat;
 1767              		.loc 2 398 31
 1768 006c 7B68     		ldr	r3, [r7, #4]
 1769 006e D3E90223 		ldrd	r2, [r3, #8]
 1770              		.loc 2 398 17
 1771 0072 3968     		ldr	r1, [r7]
 1772 0074 C1E90023 		strd	r2, [r1]
 399:g:/iot/IoT_Device_Demo/iot_link/network/lwm2m/wakaama_lwm2m/wakaama-master/core\data.c ****         result = 1;
 1773              		.loc 2 399 16
 1774 0078 0123     		movs	r3, #1
 1775 007a FB60     		str	r3, [r7, #12]
 400:g:/iot/IoT_Device_Demo/iot_link/network/lwm2m/wakaama_lwm2m/wakaama-master/core\data.c ****         break;
 1776              		.loc 2 400 9
 1777 007c 45E0     		b	.L119
 1778              	.L116:
 401:g:/iot/IoT_Device_Demo/iot_link/network/lwm2m/wakaama_lwm2m/wakaama-master/core\data.c **** 
 402:g:/iot/IoT_Device_Demo/iot_link/network/lwm2m/wakaama_lwm2m/wakaama-master/core\data.c ****     case LWM2M_TYPE_INTEGER:
 403:g:/iot/IoT_Device_Demo/iot_link/network/lwm2m/wakaama_lwm2m/wakaama-master/core\data.c ****         *valueP = (double)dataP->value.asInteger;
 1779              		.loc 2 403 39
 1780 007e 7B68     		ldr	r3, [r7, #4]
 1781 0080 D3E90223 		ldrd	r2, [r3, #8]
 1782              		.loc 2 403 19
 1783 0084 1046     		mov	r0, r2
 1784 0086 1946     		mov	r1, r3
 1785 0088 FFF7FEFF 		bl	__aeabi_l2d
 1786              	.LVL0:
 1787 008c 0246     		mov	r2, r0
 1788 008e 0B46     		mov	r3, r1
 1789              		.loc 2 403 17
 1790 0090 3968     		ldr	r1, [r7]
 1791 0092 C1E90023 		strd	r2, [r1]
 404:g:/iot/IoT_Device_Demo/iot_link/network/lwm2m/wakaama_lwm2m/wakaama-master/core\data.c ****         result = 1;
 1792              		.loc 2 404 16
 1793 0096 0123     		movs	r3, #1
 1794 0098 FB60     		str	r3, [r7, #12]
 405:g:/iot/IoT_Device_Demo/iot_link/network/lwm2m/wakaama_lwm2m/wakaama-master/core\data.c ****         break;
 1795              		.loc 2 405 9
 1796 009a 36E0     		b	.L119
 1797              	.L118:
 406:g:/iot/IoT_Device_Demo/iot_link/network/lwm2m/wakaama_lwm2m/wakaama-master/core\data.c **** 
 407:g:/iot/IoT_Device_Demo/iot_link/network/lwm2m/wakaama_lwm2m/wakaama-master/core\data.c ****     case LWM2M_TYPE_STRING:
 408:g:/iot/IoT_Device_Demo/iot_link/network/lwm2m/wakaama_lwm2m/wakaama-master/core\data.c ****         result = utils_textToFloat(dataP->value.asBuffer.buffer, dataP->value.asBuffer.length, valu
 1798              		.loc 2 408 18
ARM GAS  C:\Users\ADMINI~1\AppData\Local\Temp\ccO7A1oC.s 			page 47


 1799 009c 7B68     		ldr	r3, [r7, #4]
 1800 009e D868     		ldr	r0, [r3, #12]
 1801              		.loc 2 408 87
 1802 00a0 7B68     		ldr	r3, [r7, #4]
 1803 00a2 9B68     		ldr	r3, [r3, #8]
 1804              		.loc 2 408 18
 1805 00a4 3A68     		ldr	r2, [r7]
 1806 00a6 1946     		mov	r1, r3
 1807 00a8 FFF7FEFF 		bl	utils_textToFloat
 1808 00ac F860     		str	r0, [r7, #12]
 409:g:/iot/IoT_Device_Demo/iot_link/network/lwm2m/wakaama_lwm2m/wakaama-master/core\data.c ****         break;
 1809              		.loc 2 409 9
 1810 00ae 2CE0     		b	.L119
 1811              	.L117:
 410:g:/iot/IoT_Device_Demo/iot_link/network/lwm2m/wakaama_lwm2m/wakaama-master/core\data.c **** 
 411:g:/iot/IoT_Device_Demo/iot_link/network/lwm2m/wakaama_lwm2m/wakaama-master/core\data.c ****     case LWM2M_TYPE_OPAQUE:
 412:g:/iot/IoT_Device_Demo/iot_link/network/lwm2m/wakaama_lwm2m/wakaama-master/core\data.c ****         switch (dataP->value.asBuffer.length)
 1812              		.loc 2 412 38
 1813 00b0 7B68     		ldr	r3, [r7, #4]
 1814 00b2 9B68     		ldr	r3, [r3, #8]
 1815 00b4 042B     		cmp	r3, #4
 1816 00b6 02D0     		beq	.L120
 1817 00b8 082B     		cmp	r3, #8
 1818 00ba 15D0     		beq	.L121
 1819 00bc 1FE0     		b	.L126
 1820              	.L120:
 1821              	.LBB8:
 413:g:/iot/IoT_Device_Demo/iot_link/network/lwm2m/wakaama_lwm2m/wakaama-master/core\data.c ****         {
 414:g:/iot/IoT_Device_Demo/iot_link/network/lwm2m/wakaama_lwm2m/wakaama-master/core\data.c ****         case 4:
 415:g:/iot/IoT_Device_Demo/iot_link/network/lwm2m/wakaama_lwm2m/wakaama-master/core\data.c ****         {
 416:g:/iot/IoT_Device_Demo/iot_link/network/lwm2m/wakaama_lwm2m/wakaama-master/core\data.c ****             float temp;
 417:g:/iot/IoT_Device_Demo/iot_link/network/lwm2m/wakaama_lwm2m/wakaama-master/core\data.c **** 
 418:g:/iot/IoT_Device_Demo/iot_link/network/lwm2m/wakaama_lwm2m/wakaama-master/core\data.c ****             utils_copyValue(&temp, dataP->value.asBuffer.buffer, dataP->value.asBuffer.length);
 1822              		.loc 2 418 57 discriminator 1
 1823 00be 7B68     		ldr	r3, [r7, #4]
 1824 00c0 D968     		ldr	r1, [r3, #12]
 1825              		.loc 2 418 13 discriminator 1
 1826 00c2 7B68     		ldr	r3, [r7, #4]
 1827 00c4 9A68     		ldr	r2, [r3, #8]
 1828 00c6 07F10803 		add	r3, r7, #8
 1829 00ca 1846     		mov	r0, r3
 1830 00cc FFF7FEFF 		bl	utils_copyValue
 419:g:/iot/IoT_Device_Demo/iot_link/network/lwm2m/wakaama_lwm2m/wakaama-master/core\data.c **** 
 420:g:/iot/IoT_Device_Demo/iot_link/network/lwm2m/wakaama_lwm2m/wakaama-master/core\data.c ****             *valueP = temp;
 1831              		.loc 2 420 21 discriminator 1
 1832 00d0 BB68     		ldr	r3, [r7, #8]	@ float
 1833 00d2 1846     		mov	r0, r3	@ float
 1834 00d4 FFF7FEFF 		bl	__aeabi_f2d
 1835              	.LVL1:
 1836 00d8 0246     		mov	r2, r0
 1837 00da 0B46     		mov	r3, r1
 1838 00dc 3968     		ldr	r1, [r7]
 1839 00de C1E90023 		strd	r2, [r1]
 421:g:/iot/IoT_Device_Demo/iot_link/network/lwm2m/wakaama_lwm2m/wakaama-master/core\data.c ****             result = 1;
 1840              		.loc 2 421 20 discriminator 1
 1841 00e2 0123     		movs	r3, #1
 1842 00e4 FB60     		str	r3, [r7, #12]
ARM GAS  C:\Users\ADMINI~1\AppData\Local\Temp\ccO7A1oC.s 			page 48


 1843              	.LBE8:
 422:g:/iot/IoT_Device_Demo/iot_link/network/lwm2m/wakaama_lwm2m/wakaama-master/core\data.c ****         }
 423:g:/iot/IoT_Device_Demo/iot_link/network/lwm2m/wakaama_lwm2m/wakaama-master/core\data.c ****         break;
 1844              		.loc 2 423 9 discriminator 1
 1845 00e6 0DE0     		b	.L123
 1846              	.L121:
 424:g:/iot/IoT_Device_Demo/iot_link/network/lwm2m/wakaama_lwm2m/wakaama-master/core\data.c **** 
 425:g:/iot/IoT_Device_Demo/iot_link/network/lwm2m/wakaama_lwm2m/wakaama-master/core\data.c ****         case 8:
 426:g:/iot/IoT_Device_Demo/iot_link/network/lwm2m/wakaama_lwm2m/wakaama-master/core\data.c ****             utils_copyValue(valueP, dataP->value.asBuffer.buffer, dataP->value.asBuffer.length);
 1847              		.loc 2 426 58
 1848 00e8 7B68     		ldr	r3, [r7, #4]
 1849 00ea D968     		ldr	r1, [r3, #12]
 1850              		.loc 2 426 13
 1851 00ec 7B68     		ldr	r3, [r7, #4]
 1852 00ee 9B68     		ldr	r3, [r3, #8]
 1853 00f0 1A46     		mov	r2, r3
 1854 00f2 3868     		ldr	r0, [r7]
 1855 00f4 FFF7FEFF 		bl	utils_copyValue
 427:g:/iot/IoT_Device_Demo/iot_link/network/lwm2m/wakaama_lwm2m/wakaama-master/core\data.c ****             result = 1;
 1856              		.loc 2 427 20
 1857 00f8 0123     		movs	r3, #1
 1858 00fa FB60     		str	r3, [r7, #12]
 428:g:/iot/IoT_Device_Demo/iot_link/network/lwm2m/wakaama_lwm2m/wakaama-master/core\data.c ****             break;
 1859              		.loc 2 428 13
 1860 00fc 02E0     		b	.L123
 1861              	.L126:
 429:g:/iot/IoT_Device_Demo/iot_link/network/lwm2m/wakaama_lwm2m/wakaama-master/core\data.c **** 
 430:g:/iot/IoT_Device_Demo/iot_link/network/lwm2m/wakaama_lwm2m/wakaama-master/core\data.c ****         default:
 431:g:/iot/IoT_Device_Demo/iot_link/network/lwm2m/wakaama_lwm2m/wakaama-master/core\data.c ****             result = 0;
 1862              		.loc 2 431 20
 1863 00fe 0023     		movs	r3, #0
 1864 0100 FB60     		str	r3, [r7, #12]
 432:g:/iot/IoT_Device_Demo/iot_link/network/lwm2m/wakaama_lwm2m/wakaama-master/core\data.c ****         }
 433:g:/iot/IoT_Device_Demo/iot_link/network/lwm2m/wakaama_lwm2m/wakaama-master/core\data.c ****         break;
 1865              		.loc 2 433 9
 1866 0102 02E0     		b	.L119
 1867              	.L123:
 1868 0104 01E0     		b	.L119
 1869              	.L113:
 434:g:/iot/IoT_Device_Demo/iot_link/network/lwm2m/wakaama_lwm2m/wakaama-master/core\data.c **** 
 435:g:/iot/IoT_Device_Demo/iot_link/network/lwm2m/wakaama_lwm2m/wakaama-master/core\data.c ****     default:
 436:g:/iot/IoT_Device_Demo/iot_link/network/lwm2m/wakaama_lwm2m/wakaama-master/core\data.c ****         result = 0;
 1870              		.loc 2 436 16
 1871 0106 0023     		movs	r3, #0
 1872 0108 FB60     		str	r3, [r7, #12]
 1873              	.L119:
 437:g:/iot/IoT_Device_Demo/iot_link/network/lwm2m/wakaama_lwm2m/wakaama-master/core\data.c ****     }
 438:g:/iot/IoT_Device_Demo/iot_link/network/lwm2m/wakaama_lwm2m/wakaama-master/core\data.c **** 
 439:g:/iot/IoT_Device_Demo/iot_link/network/lwm2m/wakaama_lwm2m/wakaama-master/core\data.c ****     LOG_ARG("result: %d, value: %f", result, *valueP);
 1874              		.loc 2 439 5
 1875 010a FFF7FEFF 		bl	link_log_level_get
 1876 010e 0346     		mov	r3, r0
 1877 0110 012B     		cmp	r3, #1
 1878 0112 23D8     		bhi	.L124
 1879              		.loc 2 439 5 is_stmt 0 discriminator 1
 1880 0114 0120     		movs	r0, #1
 1881 0116 FFF7FEFF 		bl	link_log_level_name
ARM GAS  C:\Users\ADMINI~1\AppData\Local\Temp\ccO7A1oC.s 			page 49


 1882 011a 0446     		mov	r4, r0
 1883 011c FFF7FEFF 		bl	osal_sys_time
 1884 0120 0246     		mov	r2, r0
 1885 0122 0B46     		mov	r3, r1
 1886 0124 1546     		mov	r5, r2
 1887 0126 FFF7FEFF 		bl	lwm2m_gettime
 1888 012a 0246     		mov	r2, r0
 1889 012c 0B46     		mov	r3, r1
 1890 012e 1146     		mov	r1, r2
 1891 0130 3B68     		ldr	r3, [r7]
 1892 0132 D3E90023 		ldrd	r2, [r3]
 1893 0136 CDE90623 		strd	r2, [sp, #24]
 1894 013a FB68     		ldr	r3, [r7, #12]
 1895 013c 0493     		str	r3, [sp, #16]
 1896 013e 40F2B713 		movw	r3, #439
 1897 0142 0393     		str	r3, [sp, #12]
 1898 0144 084B     		ldr	r3, .L127
 1899 0146 0293     		str	r3, [sp, #8]
 1900 0148 0191     		str	r1, [sp, #4]
 1901 014a 40F2B713 		movw	r3, #439
 1902 014e 0093     		str	r3, [sp]
 1903 0150 064B     		ldr	r3, .L127+4
 1904 0152 2A46     		mov	r2, r5
 1905 0154 2146     		mov	r1, r4
 1906 0156 0748     		ldr	r0, .L127+12
 1907 0158 FFF7FEFF 		bl	printf
 1908              	.L124:
 440:g:/iot/IoT_Device_Demo/iot_link/network/lwm2m/wakaama_lwm2m/wakaama-master/core\data.c **** 
 441:g:/iot/IoT_Device_Demo/iot_link/network/lwm2m/wakaama_lwm2m/wakaama-master/core\data.c ****     return result;
 1909              		.loc 2 441 12 is_stmt 1
 1910 015c FB68     		ldr	r3, [r7, #12]
 442:g:/iot/IoT_Device_Demo/iot_link/network/lwm2m/wakaama_lwm2m/wakaama-master/core\data.c **** }
 1911              		.loc 2 442 1
 1912 015e 1846     		mov	r0, r3
 1913 0160 1037     		adds	r7, r7, #16
 1914              	.LCFI64:
 1915              		.cfi_def_cfa_offset 16
 1916 0162 BD46     		mov	sp, r7
 1917              	.LCFI65:
 1918              		.cfi_def_cfa_register 13
 1919              		@ sp needed
 1920 0164 B0BD     		pop	{r4, r5, r7, pc}
 1921              	.L128:
 1922 0166 00BF     		.align	2
 1923              	.L127:
 1924 0168 00000000 		.word	__func__.8739
 1925 016c 00000000 		.word	__FUNCTION__.8738
 1926 0170 E8000000 		.word	.LC5
 1927 0174 78010000 		.word	.LC8
 1928              		.cfi_endproc
 1929              	.LFE15:
 1931              		.section	.rodata
 1932 01ae 0000     		.align	2
 1933              	.LC9:
 1934 01b0 74727565 		.ascii	"true\000"
 1934      00
 1935 01b5 000000   		.align	2
ARM GAS  C:\Users\ADMINI~1\AppData\Local\Temp\ccO7A1oC.s 			page 50


 1936              	.LC10:
 1937 01b8 66616C73 		.ascii	"false\000"
 1937      6500
 1938 01be 0000     		.align	2
 1939              	.LC11:
 1940 01c0 5B25735D 		.ascii	"[%s][%u][%s:%d] [%d][%s:%d] value: %s\015\012\015\012"
 1940      5B25755D 
 1940      5B25733A 
 1940      25645D20 
 1940      5B25645D 
 1941 01e9 00       		.ascii	"\000"
 1942              		.section	.text.lwm2m_data_encode_bool,"ax",%progbits
 1943              		.align	1
 1944              		.global	lwm2m_data_encode_bool
 1945              		.syntax unified
 1946              		.thumb
 1947              		.thumb_func
 1948              		.fpu fpv4-sp-d16
 1950              	lwm2m_data_encode_bool:
 1951              	.LFB16:
 443:g:/iot/IoT_Device_Demo/iot_link/network/lwm2m/wakaama_lwm2m/wakaama-master/core\data.c **** 
 444:g:/iot/IoT_Device_Demo/iot_link/network/lwm2m/wakaama_lwm2m/wakaama-master/core\data.c **** void lwm2m_data_encode_bool(bool value,
 445:g:/iot/IoT_Device_Demo/iot_link/network/lwm2m/wakaama_lwm2m/wakaama-master/core\data.c ****                             lwm2m_data_t *dataP)
 446:g:/iot/IoT_Device_Demo/iot_link/network/lwm2m/wakaama_lwm2m/wakaama-master/core\data.c **** {
 1952              		.loc 2 446 1
 1953              		.cfi_startproc
 1954              		@ args = 0, pretend = 0, frame = 8
 1955              		@ frame_needed = 1, uses_anonymous_args = 0
 1956 0000 B0B5     		push	{r4, r5, r7, lr}
 1957              	.LCFI66:
 1958              		.cfi_def_cfa_offset 16
 1959              		.cfi_offset 4, -16
 1960              		.cfi_offset 5, -12
 1961              		.cfi_offset 7, -8
 1962              		.cfi_offset 14, -4
 1963 0002 88B0     		sub	sp, sp, #32
 1964              	.LCFI67:
 1965              		.cfi_def_cfa_offset 48
 1966 0004 06AF     		add	r7, sp, #24
 1967              	.LCFI68:
 1968              		.cfi_def_cfa 7, 24
 1969 0006 0346     		mov	r3, r0
 1970 0008 3960     		str	r1, [r7]
 1971 000a FB71     		strb	r3, [r7, #7]
 447:g:/iot/IoT_Device_Demo/iot_link/network/lwm2m/wakaama_lwm2m/wakaama-master/core\data.c ****     LOG_ARG("value: %s", value ? "true" : "false");
 1972              		.loc 2 447 5
 1973 000c FFF7FEFF 		bl	link_log_level_get
 1974 0010 0346     		mov	r3, r0
 1975 0012 012B     		cmp	r3, #1
 1976 0014 22D8     		bhi	.L130
 1977              		.loc 2 447 5 is_stmt 0 discriminator 1
 1978 0016 0120     		movs	r0, #1
 1979 0018 FFF7FEFF 		bl	link_log_level_name
 1980 001c 0446     		mov	r4, r0
 1981 001e FFF7FEFF 		bl	osal_sys_time
 1982 0022 0246     		mov	r2, r0
 1983 0024 0B46     		mov	r3, r1
ARM GAS  C:\Users\ADMINI~1\AppData\Local\Temp\ccO7A1oC.s 			page 51


 1984 0026 1546     		mov	r5, r2
 1985 0028 FFF7FEFF 		bl	lwm2m_gettime
 1986 002c 0246     		mov	r2, r0
 1987 002e 0B46     		mov	r3, r1
 1988 0030 FB79     		ldrb	r3, [r7, #7]	@ zero_extendqisi2
 1989 0032 002B     		cmp	r3, #0
 1990 0034 01D0     		beq	.L131
 1991              		.loc 2 447 5 discriminator 2
 1992 0036 0E4B     		ldr	r3, .L133
 1993 0038 00E0     		b	.L132
 1994              	.L131:
 1995              		.loc 2 447 5 discriminator 3
 1996 003a 0E4B     		ldr	r3, .L133+4
 1997              	.L132:
 1998              		.loc 2 447 5 discriminator 5
 1999 003c 0493     		str	r3, [sp, #16]
 2000 003e 40F2BF13 		movw	r3, #447
 2001 0042 0393     		str	r3, [sp, #12]
 2002 0044 0C4B     		ldr	r3, .L133+8
 2003 0046 0293     		str	r3, [sp, #8]
 2004 0048 0192     		str	r2, [sp, #4]
 2005 004a 40F2BF13 		movw	r3, #447
 2006 004e 0093     		str	r3, [sp]
 2007 0050 0A4B     		ldr	r3, .L133+12
 2008 0052 2A46     		mov	r2, r5
 2009 0054 2146     		mov	r1, r4
 2010 0056 0A48     		ldr	r0, .L133+16
 2011 0058 FFF7FEFF 		bl	printf
 2012              	.L130:
 448:g:/iot/IoT_Device_Demo/iot_link/network/lwm2m/wakaama_lwm2m/wakaama-master/core\data.c ****     dataP->type = LWM2M_TYPE_BOOLEAN;
 2013              		.loc 2 448 17 is_stmt 1
 2014 005c 3B68     		ldr	r3, [r7]
 2015 005e 0822     		movs	r2, #8
 2016 0060 1A70     		strb	r2, [r3]
 449:g:/iot/IoT_Device_Demo/iot_link/network/lwm2m/wakaama_lwm2m/wakaama-master/core\data.c ****     dataP->value.asBoolean = value;
 2017              		.loc 2 449 28
 2018 0062 3B68     		ldr	r3, [r7]
 2019 0064 FA79     		ldrb	r2, [r7, #7]
 2020 0066 1A72     		strb	r2, [r3, #8]
 450:g:/iot/IoT_Device_Demo/iot_link/network/lwm2m/wakaama_lwm2m/wakaama-master/core\data.c **** }
 2021              		.loc 2 450 1
 2022 0068 00BF     		nop
 2023 006a 0837     		adds	r7, r7, #8
 2024              	.LCFI69:
 2025              		.cfi_def_cfa_offset 16
 2026 006c BD46     		mov	sp, r7
 2027              	.LCFI70:
 2028              		.cfi_def_cfa_register 13
 2029              		@ sp needed
 2030 006e B0BD     		pop	{r4, r5, r7, pc}
 2031              	.L134:
 2032              		.align	2
 2033              	.L133:
 2034 0070 B0010000 		.word	.LC9
 2035 0074 B8010000 		.word	.LC10
 2036 0078 00000000 		.word	__func__.8756
 2037 007c 00000000 		.word	__FUNCTION__.8755
ARM GAS  C:\Users\ADMINI~1\AppData\Local\Temp\ccO7A1oC.s 			page 52


 2038 0080 C0010000 		.word	.LC11
 2039              		.cfi_endproc
 2040              	.LFE16:
 2042              		.section	.rodata
 2043 01ea 0000     		.align	2
 2044              	.LC12:
 2045 01ec 5B25735D 		.ascii	"[%s][%u][%s:%d] [%d][%s:%d] result: %d, value: %s\015"
 2045      5B25755D 
 2045      5B25733A 
 2045      25645D20 
 2045      5B25645D 
 2046 021e 0A0D0A00 		.ascii	"\012\015\012\000"
 2047              		.section	.text.lwm2m_data_decode_bool,"ax",%progbits
 2048              		.align	1
 2049              		.global	lwm2m_data_decode_bool
 2050              		.syntax unified
 2051              		.thumb
 2052              		.thumb_func
 2053              		.fpu fpv4-sp-d16
 2055              	lwm2m_data_decode_bool:
 2056              	.LFB17:
 451:g:/iot/IoT_Device_Demo/iot_link/network/lwm2m/wakaama_lwm2m/wakaama-master/core\data.c **** 
 452:g:/iot/IoT_Device_Demo/iot_link/network/lwm2m/wakaama_lwm2m/wakaama-master/core\data.c **** int lwm2m_data_decode_bool(const lwm2m_data_t *dataP,
 453:g:/iot/IoT_Device_Demo/iot_link/network/lwm2m/wakaama_lwm2m/wakaama-master/core\data.c ****                            bool *valueP)
 454:g:/iot/IoT_Device_Demo/iot_link/network/lwm2m/wakaama_lwm2m/wakaama-master/core\data.c **** {
 2057              		.loc 2 454 1
 2058              		.cfi_startproc
 2059              		@ args = 0, pretend = 0, frame = 16
 2060              		@ frame_needed = 1, uses_anonymous_args = 0
 2061 0000 B0B5     		push	{r4, r5, r7, lr}
 2062              	.LCFI71:
 2063              		.cfi_def_cfa_offset 16
 2064              		.cfi_offset 4, -16
 2065              		.cfi_offset 5, -12
 2066              		.cfi_offset 7, -8
 2067              		.cfi_offset 14, -4
 2068 0002 8AB0     		sub	sp, sp, #40
 2069              	.LCFI72:
 2070              		.cfi_def_cfa_offset 56
 2071 0004 06AF     		add	r7, sp, #24
 2072              	.LCFI73:
 2073              		.cfi_def_cfa 7, 32
 2074 0006 7860     		str	r0, [r7, #4]
 2075 0008 3960     		str	r1, [r7]
 455:g:/iot/IoT_Device_Demo/iot_link/network/lwm2m/wakaama_lwm2m/wakaama-master/core\data.c ****     int result;
 456:g:/iot/IoT_Device_Demo/iot_link/network/lwm2m/wakaama_lwm2m/wakaama-master/core\data.c **** 
 457:g:/iot/IoT_Device_Demo/iot_link/network/lwm2m/wakaama_lwm2m/wakaama-master/core\data.c ****     LOG("Entering");
 2076              		.loc 2 457 5
 2077 000a FFF7FEFF 		bl	link_log_level_get
 2078 000e 0346     		mov	r3, r0
 2079 0010 012B     		cmp	r3, #1
 2080 0012 1BD8     		bhi	.L136
 2081              		.loc 2 457 5 is_stmt 0 discriminator 1
 2082 0014 0120     		movs	r0, #1
 2083 0016 FFF7FEFF 		bl	link_log_level_name
 2084 001a 0446     		mov	r4, r0
 2085 001c FFF7FEFF 		bl	osal_sys_time
ARM GAS  C:\Users\ADMINI~1\AppData\Local\Temp\ccO7A1oC.s 			page 53


 2086 0020 0246     		mov	r2, r0
 2087 0022 0B46     		mov	r3, r1
 2088 0024 1546     		mov	r5, r2
 2089 0026 FFF7FEFF 		bl	lwm2m_gettime
 2090 002a 0246     		mov	r2, r0
 2091 002c 0B46     		mov	r3, r1
 2092 002e 40F2C913 		movw	r3, #457
 2093 0032 0393     		str	r3, [sp, #12]
 2094 0034 464B     		ldr	r3, .L158
 2095 0036 0293     		str	r3, [sp, #8]
 2096 0038 0192     		str	r2, [sp, #4]
 2097 003a 40F2C913 		movw	r3, #457
 2098 003e 0093     		str	r3, [sp]
 2099 0040 444B     		ldr	r3, .L158+4
 2100 0042 2A46     		mov	r2, r5
 2101 0044 2146     		mov	r1, r4
 2102 0046 4448     		ldr	r0, .L158+8
 2103 0048 FFF7FEFF 		bl	printf
 2104              	.L136:
 458:g:/iot/IoT_Device_Demo/iot_link/network/lwm2m/wakaama_lwm2m/wakaama-master/core\data.c ****     switch (dataP->type)
 2105              		.loc 2 458 18 is_stmt 1
 2106 004c 7B68     		ldr	r3, [r7, #4]
 2107 004e 1B78     		ldrb	r3, [r3]	@ zero_extendqisi2
 2108              		.loc 2 458 5
 2109 0050 082B     		cmp	r3, #8
 2110 0052 06D0     		beq	.L137
 2111 0054 082B     		cmp	r3, #8
 2112 0056 47DC     		bgt	.L138
 2113 0058 042B     		cmp	r3, #4
 2114 005a 09D0     		beq	.L139
 2115 005c 052B     		cmp	r3, #5
 2116 005e 25D0     		beq	.L140
 2117 0060 42E0     		b	.L138
 2118              	.L137:
 459:g:/iot/IoT_Device_Demo/iot_link/network/lwm2m/wakaama_lwm2m/wakaama-master/core\data.c ****     {
 460:g:/iot/IoT_Device_Demo/iot_link/network/lwm2m/wakaama_lwm2m/wakaama-master/core\data.c ****     case LWM2M_TYPE_BOOLEAN:
 461:g:/iot/IoT_Device_Demo/iot_link/network/lwm2m/wakaama_lwm2m/wakaama-master/core\data.c ****         *valueP = dataP->value.asBoolean;
 2119              		.loc 2 461 31
 2120 0062 7B68     		ldr	r3, [r7, #4]
 2121 0064 1A7A     		ldrb	r2, [r3, #8]	@ zero_extendqisi2
 2122              		.loc 2 461 17
 2123 0066 3B68     		ldr	r3, [r7]
 2124 0068 1A70     		strb	r2, [r3]
 462:g:/iot/IoT_Device_Demo/iot_link/network/lwm2m/wakaama_lwm2m/wakaama-master/core\data.c ****         result = 1;
 2125              		.loc 2 462 16
 2126 006a 0123     		movs	r3, #1
 2127 006c FB60     		str	r3, [r7, #12]
 463:g:/iot/IoT_Device_Demo/iot_link/network/lwm2m/wakaama_lwm2m/wakaama-master/core\data.c ****         break;
 2128              		.loc 2 463 9
 2129 006e 3EE0     		b	.L141
 2130              	.L139:
 464:g:/iot/IoT_Device_Demo/iot_link/network/lwm2m/wakaama_lwm2m/wakaama-master/core\data.c **** 
 465:g:/iot/IoT_Device_Demo/iot_link/network/lwm2m/wakaama_lwm2m/wakaama-master/core\data.c ****     case LWM2M_TYPE_STRING:
 466:g:/iot/IoT_Device_Demo/iot_link/network/lwm2m/wakaama_lwm2m/wakaama-master/core\data.c ****         if (dataP->value.asBuffer.length != 1) return 0;
 2131              		.loc 2 466 34
 2132 0070 7B68     		ldr	r3, [r7, #4]
 2133 0072 9B68     		ldr	r3, [r3, #8]
ARM GAS  C:\Users\ADMINI~1\AppData\Local\Temp\ccO7A1oC.s 			page 54


 2134              		.loc 2 466 12
 2135 0074 012B     		cmp	r3, #1
 2136 0076 01D0     		beq	.L142
 2137              		.loc 2 466 55 discriminator 1
 2138 0078 0023     		movs	r3, #0
 2139 007a 64E0     		b	.L143
 2140              	.L142:
 467:g:/iot/IoT_Device_Demo/iot_link/network/lwm2m/wakaama_lwm2m/wakaama-master/core\data.c **** 
 468:g:/iot/IoT_Device_Demo/iot_link/network/lwm2m/wakaama_lwm2m/wakaama-master/core\data.c ****         switch (dataP->value.asBuffer.buffer[0])
 2141              		.loc 2 468 38
 2142 007c 7B68     		ldr	r3, [r7, #4]
 2143 007e DB68     		ldr	r3, [r3, #12]
 2144              		.loc 2 468 45
 2145 0080 1B78     		ldrb	r3, [r3]	@ zero_extendqisi2
 2146 0082 302B     		cmp	r3, #48
 2147 0084 02D0     		beq	.L144
 2148 0086 312B     		cmp	r3, #49
 2149 0088 06D0     		beq	.L145
 2150 008a 0BE0     		b	.L156
 2151              	.L144:
 469:g:/iot/IoT_Device_Demo/iot_link/network/lwm2m/wakaama_lwm2m/wakaama-master/core\data.c ****         {
 470:g:/iot/IoT_Device_Demo/iot_link/network/lwm2m/wakaama_lwm2m/wakaama-master/core\data.c ****         case '0':
 471:g:/iot/IoT_Device_Demo/iot_link/network/lwm2m/wakaama_lwm2m/wakaama-master/core\data.c ****             *valueP = false;
 2152              		.loc 2 471 21
 2153 008c 3B68     		ldr	r3, [r7]
 2154 008e 0022     		movs	r2, #0
 2155 0090 1A70     		strb	r2, [r3]
 472:g:/iot/IoT_Device_Demo/iot_link/network/lwm2m/wakaama_lwm2m/wakaama-master/core\data.c ****             result = 1;
 2156              		.loc 2 472 20
 2157 0092 0123     		movs	r3, #1
 2158 0094 FB60     		str	r3, [r7, #12]
 473:g:/iot/IoT_Device_Demo/iot_link/network/lwm2m/wakaama_lwm2m/wakaama-master/core\data.c ****             break;
 2159              		.loc 2 473 13
 2160 0096 08E0     		b	.L147
 2161              	.L145:
 474:g:/iot/IoT_Device_Demo/iot_link/network/lwm2m/wakaama_lwm2m/wakaama-master/core\data.c ****         case '1':
 475:g:/iot/IoT_Device_Demo/iot_link/network/lwm2m/wakaama_lwm2m/wakaama-master/core\data.c ****             *valueP = true;
 2162              		.loc 2 475 21
 2163 0098 3B68     		ldr	r3, [r7]
 2164 009a 0122     		movs	r2, #1
 2165 009c 1A70     		strb	r2, [r3]
 476:g:/iot/IoT_Device_Demo/iot_link/network/lwm2m/wakaama_lwm2m/wakaama-master/core\data.c ****             result = 1;
 2166              		.loc 2 476 20
 2167 009e 0123     		movs	r3, #1
 2168 00a0 FB60     		str	r3, [r7, #12]
 477:g:/iot/IoT_Device_Demo/iot_link/network/lwm2m/wakaama_lwm2m/wakaama-master/core\data.c ****             break;
 2169              		.loc 2 477 13
 2170 00a2 02E0     		b	.L147
 2171              	.L156:
 478:g:/iot/IoT_Device_Demo/iot_link/network/lwm2m/wakaama_lwm2m/wakaama-master/core\data.c ****         default:
 479:g:/iot/IoT_Device_Demo/iot_link/network/lwm2m/wakaama_lwm2m/wakaama-master/core\data.c ****             result = 0;
 2172              		.loc 2 479 20
 2173 00a4 0023     		movs	r3, #0
 2174 00a6 FB60     		str	r3, [r7, #12]
 480:g:/iot/IoT_Device_Demo/iot_link/network/lwm2m/wakaama_lwm2m/wakaama-master/core\data.c ****             break;
 2175              		.loc 2 480 13
 2176 00a8 00BF     		nop
ARM GAS  C:\Users\ADMINI~1\AppData\Local\Temp\ccO7A1oC.s 			page 55


 2177              	.L147:
 481:g:/iot/IoT_Device_Demo/iot_link/network/lwm2m/wakaama_lwm2m/wakaama-master/core\data.c ****         }
 482:g:/iot/IoT_Device_Demo/iot_link/network/lwm2m/wakaama_lwm2m/wakaama-master/core\data.c ****         break;
 2178              		.loc 2 482 9
 2179 00aa 20E0     		b	.L141
 2180              	.L140:
 483:g:/iot/IoT_Device_Demo/iot_link/network/lwm2m/wakaama_lwm2m/wakaama-master/core\data.c **** 
 484:g:/iot/IoT_Device_Demo/iot_link/network/lwm2m/wakaama_lwm2m/wakaama-master/core\data.c ****     case LWM2M_TYPE_OPAQUE:
 485:g:/iot/IoT_Device_Demo/iot_link/network/lwm2m/wakaama_lwm2m/wakaama-master/core\data.c ****         if (dataP->value.asBuffer.length != 1) return 0;
 2181              		.loc 2 485 34
 2182 00ac 7B68     		ldr	r3, [r7, #4]
 2183 00ae 9B68     		ldr	r3, [r3, #8]
 2184              		.loc 2 485 12
 2185 00b0 012B     		cmp	r3, #1
 2186 00b2 01D0     		beq	.L148
 2187              		.loc 2 485 55 discriminator 1
 2188 00b4 0023     		movs	r3, #0
 2189 00b6 46E0     		b	.L143
 2190              	.L148:
 486:g:/iot/IoT_Device_Demo/iot_link/network/lwm2m/wakaama_lwm2m/wakaama-master/core\data.c **** 
 487:g:/iot/IoT_Device_Demo/iot_link/network/lwm2m/wakaama_lwm2m/wakaama-master/core\data.c ****         switch (dataP->value.asBuffer.buffer[0])
 2191              		.loc 2 487 38
 2192 00b8 7B68     		ldr	r3, [r7, #4]
 2193 00ba DB68     		ldr	r3, [r3, #12]
 2194              		.loc 2 487 45
 2195 00bc 1B78     		ldrb	r3, [r3]	@ zero_extendqisi2
 2196 00be 002B     		cmp	r3, #0
 2197 00c0 02D0     		beq	.L149
 2198 00c2 012B     		cmp	r3, #1
 2199 00c4 06D0     		beq	.L150
 2200 00c6 0BE0     		b	.L157
 2201              	.L149:
 488:g:/iot/IoT_Device_Demo/iot_link/network/lwm2m/wakaama_lwm2m/wakaama-master/core\data.c ****         {
 489:g:/iot/IoT_Device_Demo/iot_link/network/lwm2m/wakaama_lwm2m/wakaama-master/core\data.c ****         case 0:
 490:g:/iot/IoT_Device_Demo/iot_link/network/lwm2m/wakaama_lwm2m/wakaama-master/core\data.c ****             *valueP = false;
 2202              		.loc 2 490 21
 2203 00c8 3B68     		ldr	r3, [r7]
 2204 00ca 0022     		movs	r2, #0
 2205 00cc 1A70     		strb	r2, [r3]
 491:g:/iot/IoT_Device_Demo/iot_link/network/lwm2m/wakaama_lwm2m/wakaama-master/core\data.c ****             result = 1;
 2206              		.loc 2 491 20
 2207 00ce 0123     		movs	r3, #1
 2208 00d0 FB60     		str	r3, [r7, #12]
 492:g:/iot/IoT_Device_Demo/iot_link/network/lwm2m/wakaama_lwm2m/wakaama-master/core\data.c ****             break;
 2209              		.loc 2 492 13
 2210 00d2 08E0     		b	.L152
 2211              	.L150:
 493:g:/iot/IoT_Device_Demo/iot_link/network/lwm2m/wakaama_lwm2m/wakaama-master/core\data.c ****         case 1:
 494:g:/iot/IoT_Device_Demo/iot_link/network/lwm2m/wakaama_lwm2m/wakaama-master/core\data.c ****             *valueP = true;
 2212              		.loc 2 494 21
 2213 00d4 3B68     		ldr	r3, [r7]
 2214 00d6 0122     		movs	r2, #1
 2215 00d8 1A70     		strb	r2, [r3]
 495:g:/iot/IoT_Device_Demo/iot_link/network/lwm2m/wakaama_lwm2m/wakaama-master/core\data.c ****             result = 1;
 2216              		.loc 2 495 20
 2217 00da 0123     		movs	r3, #1
 2218 00dc FB60     		str	r3, [r7, #12]
ARM GAS  C:\Users\ADMINI~1\AppData\Local\Temp\ccO7A1oC.s 			page 56


 496:g:/iot/IoT_Device_Demo/iot_link/network/lwm2m/wakaama_lwm2m/wakaama-master/core\data.c ****             break;
 2219              		.loc 2 496 13
 2220 00de 02E0     		b	.L152
 2221              	.L157:
 497:g:/iot/IoT_Device_Demo/iot_link/network/lwm2m/wakaama_lwm2m/wakaama-master/core\data.c ****         default:
 498:g:/iot/IoT_Device_Demo/iot_link/network/lwm2m/wakaama_lwm2m/wakaama-master/core\data.c ****             result = 0;
 2222              		.loc 2 498 20
 2223 00e0 0023     		movs	r3, #0
 2224 00e2 FB60     		str	r3, [r7, #12]
 499:g:/iot/IoT_Device_Demo/iot_link/network/lwm2m/wakaama_lwm2m/wakaama-master/core\data.c ****             break;
 2225              		.loc 2 499 13
 2226 00e4 00BF     		nop
 2227              	.L152:
 500:g:/iot/IoT_Device_Demo/iot_link/network/lwm2m/wakaama_lwm2m/wakaama-master/core\data.c ****         }
 501:g:/iot/IoT_Device_Demo/iot_link/network/lwm2m/wakaama_lwm2m/wakaama-master/core\data.c ****         break;
 2228              		.loc 2 501 9
 2229 00e6 02E0     		b	.L141
 2230              	.L138:
 502:g:/iot/IoT_Device_Demo/iot_link/network/lwm2m/wakaama_lwm2m/wakaama-master/core\data.c **** 
 503:g:/iot/IoT_Device_Demo/iot_link/network/lwm2m/wakaama_lwm2m/wakaama-master/core\data.c ****     default:
 504:g:/iot/IoT_Device_Demo/iot_link/network/lwm2m/wakaama_lwm2m/wakaama-master/core\data.c ****         result = 0;
 2231              		.loc 2 504 16
 2232 00e8 0023     		movs	r3, #0
 2233 00ea FB60     		str	r3, [r7, #12]
 505:g:/iot/IoT_Device_Demo/iot_link/network/lwm2m/wakaama_lwm2m/wakaama-master/core\data.c ****         break;
 2234              		.loc 2 505 9
 2235 00ec 00BF     		nop
 2236              	.L141:
 506:g:/iot/IoT_Device_Demo/iot_link/network/lwm2m/wakaama_lwm2m/wakaama-master/core\data.c ****     }
 507:g:/iot/IoT_Device_Demo/iot_link/network/lwm2m/wakaama_lwm2m/wakaama-master/core\data.c **** 
 508:g:/iot/IoT_Device_Demo/iot_link/network/lwm2m/wakaama_lwm2m/wakaama-master/core\data.c ****     LOG_ARG("result: %d, value: %s", result, *valueP ? "true" : "false");
 2237              		.loc 2 508 5
 2238 00ee FFF7FEFF 		bl	link_log_level_get
 2239 00f2 0346     		mov	r3, r0
 2240 00f4 012B     		cmp	r3, #1
 2241 00f6 25D8     		bhi	.L153
 2242              		.loc 2 508 5 is_stmt 0 discriminator 1
 2243 00f8 0120     		movs	r0, #1
 2244 00fa FFF7FEFF 		bl	link_log_level_name
 2245 00fe 0446     		mov	r4, r0
 2246 0100 FFF7FEFF 		bl	osal_sys_time
 2247 0104 0246     		mov	r2, r0
 2248 0106 0B46     		mov	r3, r1
 2249 0108 1546     		mov	r5, r2
 2250 010a FFF7FEFF 		bl	lwm2m_gettime
 2251 010e 0246     		mov	r2, r0
 2252 0110 0B46     		mov	r3, r1
 2253 0112 3B68     		ldr	r3, [r7]
 2254 0114 1B78     		ldrb	r3, [r3]	@ zero_extendqisi2
 2255 0116 002B     		cmp	r3, #0
 2256 0118 01D0     		beq	.L154
 2257              		.loc 2 508 5 discriminator 2
 2258 011a 104B     		ldr	r3, .L158+12
 2259 011c 00E0     		b	.L155
 2260              	.L154:
 2261              		.loc 2 508 5 discriminator 3
 2262 011e 104B     		ldr	r3, .L158+16
ARM GAS  C:\Users\ADMINI~1\AppData\Local\Temp\ccO7A1oC.s 			page 57


 2263              	.L155:
 2264              		.loc 2 508 5 discriminator 5
 2265 0120 0593     		str	r3, [sp, #20]
 2266 0122 FB68     		ldr	r3, [r7, #12]
 2267 0124 0493     		str	r3, [sp, #16]
 2268 0126 4FF4FE73 		mov	r3, #508
 2269 012a 0393     		str	r3, [sp, #12]
 2270 012c 084B     		ldr	r3, .L158
 2271 012e 0293     		str	r3, [sp, #8]
 2272 0130 0192     		str	r2, [sp, #4]
 2273 0132 4FF4FE73 		mov	r3, #508
 2274 0136 0093     		str	r3, [sp]
 2275 0138 064B     		ldr	r3, .L158+4
 2276 013a 2A46     		mov	r2, r5
 2277 013c 2146     		mov	r1, r4
 2278 013e 0948     		ldr	r0, .L158+20
 2279 0140 FFF7FEFF 		bl	printf
 2280              	.L153:
 509:g:/iot/IoT_Device_Demo/iot_link/network/lwm2m/wakaama_lwm2m/wakaama-master/core\data.c **** 
 510:g:/iot/IoT_Device_Demo/iot_link/network/lwm2m/wakaama_lwm2m/wakaama-master/core\data.c ****     return result;
 2281              		.loc 2 510 12 is_stmt 1
 2282 0144 FB68     		ldr	r3, [r7, #12]
 2283              	.L143:
 511:g:/iot/IoT_Device_Demo/iot_link/network/lwm2m/wakaama_lwm2m/wakaama-master/core\data.c **** }
 2284              		.loc 2 511 1
 2285 0146 1846     		mov	r0, r3
 2286 0148 1037     		adds	r7, r7, #16
 2287              	.LCFI74:
 2288              		.cfi_def_cfa_offset 16
 2289 014a BD46     		mov	sp, r7
 2290              	.LCFI75:
 2291              		.cfi_def_cfa_register 13
 2292              		@ sp needed
 2293 014c B0BD     		pop	{r4, r5, r7, pc}
 2294              	.L159:
 2295 014e 00BF     		.align	2
 2296              	.L158:
 2297 0150 00000000 		.word	__func__.8763
 2298 0154 00000000 		.word	__FUNCTION__.8762
 2299 0158 E8000000 		.word	.LC5
 2300 015c B0010000 		.word	.LC9
 2301 0160 B8010000 		.word	.LC10
 2302 0164 EC010000 		.word	.LC12
 2303              		.cfi_endproc
 2304              	.LFE17:
 2306              		.section	.rodata
 2307 0222 0000     		.align	2
 2308              	.LC13:
 2309 0224 5B25735D 		.ascii	"[%s][%u][%s:%d] [%d][%s:%d] value: %d/%d\015\012\015"
 2309      5B25755D 
 2309      5B25733A 
 2309      25645D20 
 2309      5B25645D 
 2310 024f 0A00     		.ascii	"\012\000"
 2311              		.section	.text.lwm2m_data_encode_objlink,"ax",%progbits
 2312              		.align	1
 2313              		.global	lwm2m_data_encode_objlink
ARM GAS  C:\Users\ADMINI~1\AppData\Local\Temp\ccO7A1oC.s 			page 58


 2314              		.syntax unified
 2315              		.thumb
 2316              		.thumb_func
 2317              		.fpu fpv4-sp-d16
 2319              	lwm2m_data_encode_objlink:
 2320              	.LFB18:
 512:g:/iot/IoT_Device_Demo/iot_link/network/lwm2m/wakaama_lwm2m/wakaama-master/core\data.c **** 
 513:g:/iot/IoT_Device_Demo/iot_link/network/lwm2m/wakaama_lwm2m/wakaama-master/core\data.c **** void lwm2m_data_encode_objlink(uint16_t objectId,
 514:g:/iot/IoT_Device_Demo/iot_link/network/lwm2m/wakaama_lwm2m/wakaama-master/core\data.c ****                                uint16_t objectInstanceId,
 515:g:/iot/IoT_Device_Demo/iot_link/network/lwm2m/wakaama_lwm2m/wakaama-master/core\data.c ****                                lwm2m_data_t *dataP)
 516:g:/iot/IoT_Device_Demo/iot_link/network/lwm2m/wakaama_lwm2m/wakaama-master/core\data.c **** {
 2321              		.loc 2 516 1
 2322              		.cfi_startproc
 2323              		@ args = 0, pretend = 0, frame = 8
 2324              		@ frame_needed = 1, uses_anonymous_args = 0
 2325 0000 B0B5     		push	{r4, r5, r7, lr}
 2326              	.LCFI76:
 2327              		.cfi_def_cfa_offset 16
 2328              		.cfi_offset 4, -16
 2329              		.cfi_offset 5, -12
 2330              		.cfi_offset 7, -8
 2331              		.cfi_offset 14, -4
 2332 0002 88B0     		sub	sp, sp, #32
 2333              	.LCFI77:
 2334              		.cfi_def_cfa_offset 48
 2335 0004 06AF     		add	r7, sp, #24
 2336              	.LCFI78:
 2337              		.cfi_def_cfa 7, 24
 2338 0006 0346     		mov	r3, r0
 2339 0008 3A60     		str	r2, [r7]
 2340 000a FB80     		strh	r3, [r7, #6]	@ movhi
 2341 000c 0B46     		mov	r3, r1	@ movhi
 2342 000e BB80     		strh	r3, [r7, #4]	@ movhi
 517:g:/iot/IoT_Device_Demo/iot_link/network/lwm2m/wakaama_lwm2m/wakaama-master/core\data.c ****     LOG_ARG("value: %d/%d", objectId, objectInstanceId);
 2343              		.loc 2 517 5
 2344 0010 FFF7FEFF 		bl	link_log_level_get
 2345 0014 0346     		mov	r3, r0
 2346 0016 012B     		cmp	r3, #1
 2347 0018 20D8     		bhi	.L161
 2348              		.loc 2 517 5 is_stmt 0 discriminator 1
 2349 001a 0120     		movs	r0, #1
 2350 001c FFF7FEFF 		bl	link_log_level_name
 2351 0020 0446     		mov	r4, r0
 2352 0022 FFF7FEFF 		bl	osal_sys_time
 2353 0026 0246     		mov	r2, r0
 2354 0028 0B46     		mov	r3, r1
 2355 002a 1546     		mov	r5, r2
 2356 002c FFF7FEFF 		bl	lwm2m_gettime
 2357 0030 0246     		mov	r2, r0
 2358 0032 0B46     		mov	r3, r1
 2359 0034 1146     		mov	r1, r2
 2360 0036 FB88     		ldrh	r3, [r7, #6]
 2361 0038 BA88     		ldrh	r2, [r7, #4]
 2362 003a 0592     		str	r2, [sp, #20]
 2363 003c 0493     		str	r3, [sp, #16]
 2364 003e 40F20523 		movw	r3, #517
 2365 0042 0393     		str	r3, [sp, #12]
ARM GAS  C:\Users\ADMINI~1\AppData\Local\Temp\ccO7A1oC.s 			page 59


 2366 0044 0C4B     		ldr	r3, .L162
 2367 0046 0293     		str	r3, [sp, #8]
 2368 0048 0191     		str	r1, [sp, #4]
 2369 004a 40F20523 		movw	r3, #517
 2370 004e 0093     		str	r3, [sp]
 2371 0050 0A4B     		ldr	r3, .L162+4
 2372 0052 2A46     		mov	r2, r5
 2373 0054 2146     		mov	r1, r4
 2374 0056 0A48     		ldr	r0, .L162+8
 2375 0058 FFF7FEFF 		bl	printf
 2376              	.L161:
 518:g:/iot/IoT_Device_Demo/iot_link/network/lwm2m/wakaama_lwm2m/wakaama-master/core\data.c ****     dataP->type = LWM2M_TYPE_OBJECT_LINK;
 2377              		.loc 2 518 17 is_stmt 1
 2378 005c 3B68     		ldr	r3, [r7]
 2379 005e 0922     		movs	r2, #9
 2380 0060 1A70     		strb	r2, [r3]
 519:g:/iot/IoT_Device_Demo/iot_link/network/lwm2m/wakaama_lwm2m/wakaama-master/core\data.c ****     dataP->value.asObjLink.objectId = objectId;
 2381              		.loc 2 519 37
 2382 0062 3B68     		ldr	r3, [r7]
 2383 0064 FA88     		ldrh	r2, [r7, #6]	@ movhi
 2384 0066 1A81     		strh	r2, [r3, #8]	@ movhi
 520:g:/iot/IoT_Device_Demo/iot_link/network/lwm2m/wakaama_lwm2m/wakaama-master/core\data.c ****     dataP->value.asObjLink.objectInstanceId = objectInstanceId;
 2385              		.loc 2 520 45
 2386 0068 3B68     		ldr	r3, [r7]
 2387 006a BA88     		ldrh	r2, [r7, #4]	@ movhi
 2388 006c 5A81     		strh	r2, [r3, #10]	@ movhi
 521:g:/iot/IoT_Device_Demo/iot_link/network/lwm2m/wakaama_lwm2m/wakaama-master/core\data.c **** }
 2389              		.loc 2 521 1
 2390 006e 00BF     		nop
 2391 0070 0837     		adds	r7, r7, #8
 2392              	.LCFI79:
 2393              		.cfi_def_cfa_offset 16
 2394 0072 BD46     		mov	sp, r7
 2395              	.LCFI80:
 2396              		.cfi_def_cfa_register 13
 2397              		@ sp needed
 2398 0074 B0BD     		pop	{r4, r5, r7, pc}
 2399              	.L163:
 2400 0076 00BF     		.align	2
 2401              	.L162:
 2402 0078 00000000 		.word	__func__.8783
 2403 007c 00000000 		.word	__FUNCTION__.8782
 2404 0080 24020000 		.word	.LC13
 2405              		.cfi_endproc
 2406              	.LFE18:
 2408              		.section	.rodata
 2409 0251 000000   		.align	2
 2410              	.LC14:
 2411 0254 5B25735D 		.ascii	"[%s][%u][%s:%d] [%d][%s:%d] count: %d\015\012\015\012"
 2411      5B25755D 
 2411      5B25733A 
 2411      25645D20 
 2411      5B25645D 
 2412 027d 00       		.ascii	"\000"
 2413              		.section	.text.lwm2m_data_include,"ax",%progbits
 2414              		.align	1
 2415              		.global	lwm2m_data_include
ARM GAS  C:\Users\ADMINI~1\AppData\Local\Temp\ccO7A1oC.s 			page 60


 2416              		.syntax unified
 2417              		.thumb
 2418              		.thumb_func
 2419              		.fpu fpv4-sp-d16
 2421              	lwm2m_data_include:
 2422              	.LFB19:
 522:g:/iot/IoT_Device_Demo/iot_link/network/lwm2m/wakaama_lwm2m/wakaama-master/core\data.c **** 
 523:g:/iot/IoT_Device_Demo/iot_link/network/lwm2m/wakaama_lwm2m/wakaama-master/core\data.c **** void lwm2m_data_include(lwm2m_data_t *subDataP,
 524:g:/iot/IoT_Device_Demo/iot_link/network/lwm2m/wakaama_lwm2m/wakaama-master/core\data.c ****                         size_t count,
 525:g:/iot/IoT_Device_Demo/iot_link/network/lwm2m/wakaama_lwm2m/wakaama-master/core\data.c ****                         lwm2m_data_t *dataP)
 526:g:/iot/IoT_Device_Demo/iot_link/network/lwm2m/wakaama_lwm2m/wakaama-master/core\data.c **** {
 2423              		.loc 2 526 1
 2424              		.cfi_startproc
 2425              		@ args = 0, pretend = 0, frame = 16
 2426              		@ frame_needed = 1, uses_anonymous_args = 0
 2427 0000 B0B5     		push	{r4, r5, r7, lr}
 2428              	.LCFI81:
 2429              		.cfi_def_cfa_offset 16
 2430              		.cfi_offset 4, -16
 2431              		.cfi_offset 5, -12
 2432              		.cfi_offset 7, -8
 2433              		.cfi_offset 14, -4
 2434 0002 8AB0     		sub	sp, sp, #40
 2435              	.LCFI82:
 2436              		.cfi_def_cfa_offset 56
 2437 0004 06AF     		add	r7, sp, #24
 2438              	.LCFI83:
 2439              		.cfi_def_cfa 7, 32
 2440 0006 F860     		str	r0, [r7, #12]
 2441 0008 B960     		str	r1, [r7, #8]
 2442 000a 7A60     		str	r2, [r7, #4]
 527:g:/iot/IoT_Device_Demo/iot_link/network/lwm2m/wakaama_lwm2m/wakaama-master/core\data.c ****     LOG_ARG("count: %d", count);
 2443              		.loc 2 527 5
 2444 000c FFF7FEFF 		bl	link_log_level_get
 2445 0010 0346     		mov	r3, r0
 2446 0012 012B     		cmp	r3, #1
 2447 0014 1DD8     		bhi	.L165
 2448              		.loc 2 527 5 is_stmt 0 discriminator 1
 2449 0016 0120     		movs	r0, #1
 2450 0018 FFF7FEFF 		bl	link_log_level_name
 2451 001c 0446     		mov	r4, r0
 2452 001e FFF7FEFF 		bl	osal_sys_time
 2453 0022 0246     		mov	r2, r0
 2454 0024 0B46     		mov	r3, r1
 2455 0026 1546     		mov	r5, r2
 2456 0028 FFF7FEFF 		bl	lwm2m_gettime
 2457 002c 0246     		mov	r2, r0
 2458 002e 0B46     		mov	r3, r1
 2459 0030 BB68     		ldr	r3, [r7, #8]
 2460 0032 0493     		str	r3, [sp, #16]
 2461 0034 40F20F23 		movw	r3, #527
 2462 0038 0393     		str	r3, [sp, #12]
 2463 003a 184B     		ldr	r3, .L174
 2464 003c 0293     		str	r3, [sp, #8]
 2465 003e 0192     		str	r2, [sp, #4]
 2466 0040 40F20F23 		movw	r3, #527
 2467 0044 0093     		str	r3, [sp]
ARM GAS  C:\Users\ADMINI~1\AppData\Local\Temp\ccO7A1oC.s 			page 61


 2468 0046 164B     		ldr	r3, .L174+4
 2469 0048 2A46     		mov	r2, r5
 2470 004a 2146     		mov	r1, r4
 2471 004c 1548     		ldr	r0, .L174+8
 2472 004e FFF7FEFF 		bl	printf
 2473              	.L165:
 528:g:/iot/IoT_Device_Demo/iot_link/network/lwm2m/wakaama_lwm2m/wakaama-master/core\data.c ****     if (subDataP == NULL || count == 0) return;
 2474              		.loc 2 528 8 is_stmt 1
 2475 0052 FB68     		ldr	r3, [r7, #12]
 2476 0054 002B     		cmp	r3, #0
 2477 0056 1AD0     		beq	.L172
 2478              		.loc 2 528 26 discriminator 2
 2479 0058 BB68     		ldr	r3, [r7, #8]
 2480 005a 002B     		cmp	r3, #0
 2481 005c 17D0     		beq	.L172
 529:g:/iot/IoT_Device_Demo/iot_link/network/lwm2m/wakaama_lwm2m/wakaama-master/core\data.c **** 
 530:g:/iot/IoT_Device_Demo/iot_link/network/lwm2m/wakaama_lwm2m/wakaama-master/core\data.c ****     switch (subDataP[0].type)
 2482              		.loc 2 530 24
 2483 005e FB68     		ldr	r3, [r7, #12]
 2484 0060 1B78     		ldrb	r3, [r3]	@ zero_extendqisi2
 2485              		.loc 2 530 5
 2486 0062 022B     		cmp	r3, #2
 2487 0064 08D0     		beq	.L169
 2488 0066 022B     		cmp	r3, #2
 2489 0068 13DB     		blt	.L173
 2490 006a 033B     		subs	r3, r3, #3
 2491 006c 062B     		cmp	r3, #6
 2492 006e 10D8     		bhi	.L173
 531:g:/iot/IoT_Device_Demo/iot_link/network/lwm2m/wakaama_lwm2m/wakaama-master/core\data.c ****     {
 532:g:/iot/IoT_Device_Demo/iot_link/network/lwm2m/wakaama_lwm2m/wakaama-master/core\data.c ****     case LWM2M_TYPE_STRING:
 533:g:/iot/IoT_Device_Demo/iot_link/network/lwm2m/wakaama_lwm2m/wakaama-master/core\data.c ****     case LWM2M_TYPE_OPAQUE:
 534:g:/iot/IoT_Device_Demo/iot_link/network/lwm2m/wakaama_lwm2m/wakaama-master/core\data.c ****     case LWM2M_TYPE_INTEGER:
 535:g:/iot/IoT_Device_Demo/iot_link/network/lwm2m/wakaama_lwm2m/wakaama-master/core\data.c ****     case LWM2M_TYPE_FLOAT:
 536:g:/iot/IoT_Device_Demo/iot_link/network/lwm2m/wakaama_lwm2m/wakaama-master/core\data.c ****     case LWM2M_TYPE_BOOLEAN:
 537:g:/iot/IoT_Device_Demo/iot_link/network/lwm2m/wakaama_lwm2m/wakaama-master/core\data.c ****     case LWM2M_TYPE_OBJECT_LINK:
 538:g:/iot/IoT_Device_Demo/iot_link/network/lwm2m/wakaama_lwm2m/wakaama-master/core\data.c ****     case LWM2M_TYPE_MULTIPLE_RESOURCE:
 539:g:/iot/IoT_Device_Demo/iot_link/network/lwm2m/wakaama_lwm2m/wakaama-master/core\data.c ****         dataP->type = LWM2M_TYPE_OBJECT_INSTANCE;
 2493              		.loc 2 539 21
 2494 0070 7B68     		ldr	r3, [r7, #4]
 2495 0072 0222     		movs	r2, #2
 2496 0074 1A70     		strb	r2, [r3]
 540:g:/iot/IoT_Device_Demo/iot_link/network/lwm2m/wakaama_lwm2m/wakaama-master/core\data.c ****         break;
 2497              		.loc 2 540 9
 2498 0076 03E0     		b	.L171
 2499              	.L169:
 541:g:/iot/IoT_Device_Demo/iot_link/network/lwm2m/wakaama_lwm2m/wakaama-master/core\data.c ****     case LWM2M_TYPE_OBJECT_INSTANCE:
 542:g:/iot/IoT_Device_Demo/iot_link/network/lwm2m/wakaama_lwm2m/wakaama-master/core\data.c ****         dataP->type = LWM2M_TYPE_OBJECT;
 2500              		.loc 2 542 21
 2501 0078 7B68     		ldr	r3, [r7, #4]
 2502 007a 0122     		movs	r2, #1
 2503 007c 1A70     		strb	r2, [r3]
 543:g:/iot/IoT_Device_Demo/iot_link/network/lwm2m/wakaama_lwm2m/wakaama-master/core\data.c ****         break;
 2504              		.loc 2 543 9
 2505 007e 00BF     		nop
 2506              	.L171:
 544:g:/iot/IoT_Device_Demo/iot_link/network/lwm2m/wakaama_lwm2m/wakaama-master/core\data.c ****     default:
 545:g:/iot/IoT_Device_Demo/iot_link/network/lwm2m/wakaama_lwm2m/wakaama-master/core\data.c ****         return;
ARM GAS  C:\Users\ADMINI~1\AppData\Local\Temp\ccO7A1oC.s 			page 62


 546:g:/iot/IoT_Device_Demo/iot_link/network/lwm2m/wakaama_lwm2m/wakaama-master/core\data.c ****     }
 547:g:/iot/IoT_Device_Demo/iot_link/network/lwm2m/wakaama_lwm2m/wakaama-master/core\data.c ****     dataP->value.asChildren.count = count;
 2507              		.loc 2 547 35
 2508 0080 7B68     		ldr	r3, [r7, #4]
 2509 0082 BA68     		ldr	r2, [r7, #8]
 2510 0084 9A60     		str	r2, [r3, #8]
 548:g:/iot/IoT_Device_Demo/iot_link/network/lwm2m/wakaama_lwm2m/wakaama-master/core\data.c ****     dataP->value.asChildren.array = subDataP;
 2511              		.loc 2 548 35
 2512 0086 7B68     		ldr	r3, [r7, #4]
 2513 0088 FA68     		ldr	r2, [r7, #12]
 2514 008a DA60     		str	r2, [r3, #12]
 2515 008c 02E0     		b	.L164
 2516              	.L172:
 528:g:/iot/IoT_Device_Demo/iot_link/network/lwm2m/wakaama_lwm2m/wakaama-master/core\data.c **** 
 2517              		.loc 2 528 41
 2518 008e 00BF     		nop
 2519 0090 00E0     		b	.L164
 2520              	.L173:
 545:g:/iot/IoT_Device_Demo/iot_link/network/lwm2m/wakaama_lwm2m/wakaama-master/core\data.c ****     }
 2521              		.loc 2 545 9
 2522 0092 00BF     		nop
 2523              	.L164:
 549:g:/iot/IoT_Device_Demo/iot_link/network/lwm2m/wakaama_lwm2m/wakaama-master/core\data.c **** }
 2524              		.loc 2 549 1
 2525 0094 1037     		adds	r7, r7, #16
 2526              	.LCFI84:
 2527              		.cfi_def_cfa_offset 16
 2528 0096 BD46     		mov	sp, r7
 2529              	.LCFI85:
 2530              		.cfi_def_cfa_register 13
 2531              		@ sp needed
 2532 0098 B0BD     		pop	{r4, r5, r7, pc}
 2533              	.L175:
 2534 009a 00BF     		.align	2
 2535              	.L174:
 2536 009c 00000000 		.word	__func__.8790
 2537 00a0 00000000 		.word	__FUNCTION__.8789
 2538 00a4 54020000 		.word	.LC14
 2539              		.cfi_endproc
 2540              	.LFE19:
 2542              		.section	.text.lwm2m_data_encode_instances,"ax",%progbits
 2543              		.align	1
 2544              		.global	lwm2m_data_encode_instances
 2545              		.syntax unified
 2546              		.thumb
 2547              		.thumb_func
 2548              		.fpu fpv4-sp-d16
 2550              	lwm2m_data_encode_instances:
 2551              	.LFB20:
 550:g:/iot/IoT_Device_Demo/iot_link/network/lwm2m/wakaama_lwm2m/wakaama-master/core\data.c **** 
 551:g:/iot/IoT_Device_Demo/iot_link/network/lwm2m/wakaama_lwm2m/wakaama-master/core\data.c **** void lwm2m_data_encode_instances(lwm2m_data_t *subDataP,
 552:g:/iot/IoT_Device_Demo/iot_link/network/lwm2m/wakaama_lwm2m/wakaama-master/core\data.c ****                                  size_t count,
 553:g:/iot/IoT_Device_Demo/iot_link/network/lwm2m/wakaama_lwm2m/wakaama-master/core\data.c ****                                  lwm2m_data_t *dataP)
 554:g:/iot/IoT_Device_Demo/iot_link/network/lwm2m/wakaama_lwm2m/wakaama-master/core\data.c **** {
 2552              		.loc 2 554 1
 2553              		.cfi_startproc
 2554              		@ args = 0, pretend = 0, frame = 16
ARM GAS  C:\Users\ADMINI~1\AppData\Local\Temp\ccO7A1oC.s 			page 63


 2555              		@ frame_needed = 1, uses_anonymous_args = 0
 2556 0000 B0B5     		push	{r4, r5, r7, lr}
 2557              	.LCFI86:
 2558              		.cfi_def_cfa_offset 16
 2559              		.cfi_offset 4, -16
 2560              		.cfi_offset 5, -12
 2561              		.cfi_offset 7, -8
 2562              		.cfi_offset 14, -4
 2563 0002 8AB0     		sub	sp, sp, #40
 2564              	.LCFI87:
 2565              		.cfi_def_cfa_offset 56
 2566 0004 06AF     		add	r7, sp, #24
 2567              	.LCFI88:
 2568              		.cfi_def_cfa 7, 32
 2569 0006 F860     		str	r0, [r7, #12]
 2570 0008 B960     		str	r1, [r7, #8]
 2571 000a 7A60     		str	r2, [r7, #4]
 555:g:/iot/IoT_Device_Demo/iot_link/network/lwm2m/wakaama_lwm2m/wakaama-master/core\data.c ****     LOG_ARG("count: %d", count);
 2572              		.loc 2 555 5
 2573 000c FFF7FEFF 		bl	link_log_level_get
 2574 0010 0346     		mov	r3, r0
 2575 0012 012B     		cmp	r3, #1
 2576 0014 1DD8     		bhi	.L177
 2577              		.loc 2 555 5 is_stmt 0 discriminator 1
 2578 0016 0120     		movs	r0, #1
 2579 0018 FFF7FEFF 		bl	link_log_level_name
 2580 001c 0446     		mov	r4, r0
 2581 001e FFF7FEFF 		bl	osal_sys_time
 2582 0022 0246     		mov	r2, r0
 2583 0024 0B46     		mov	r3, r1
 2584 0026 1546     		mov	r5, r2
 2585 0028 FFF7FEFF 		bl	lwm2m_gettime
 2586 002c 0246     		mov	r2, r0
 2587 002e 0B46     		mov	r3, r1
 2588 0030 BB68     		ldr	r3, [r7, #8]
 2589 0032 0493     		str	r3, [sp, #16]
 2590 0034 40F22B23 		movw	r3, #555
 2591 0038 0393     		str	r3, [sp, #12]
 2592 003a 0C4B     		ldr	r3, .L178
 2593 003c 0293     		str	r3, [sp, #8]
 2594 003e 0192     		str	r2, [sp, #4]
 2595 0040 40F22B23 		movw	r3, #555
 2596 0044 0093     		str	r3, [sp]
 2597 0046 0A4B     		ldr	r3, .L178+4
 2598 0048 2A46     		mov	r2, r5
 2599 004a 2146     		mov	r1, r4
 2600 004c 0948     		ldr	r0, .L178+8
 2601 004e FFF7FEFF 		bl	printf
 2602              	.L177:
 556:g:/iot/IoT_Device_Demo/iot_link/network/lwm2m/wakaama_lwm2m/wakaama-master/core\data.c ****     lwm2m_data_include(subDataP, count, dataP);
 2603              		.loc 2 556 5 is_stmt 1
 2604 0052 7A68     		ldr	r2, [r7, #4]
 2605 0054 B968     		ldr	r1, [r7, #8]
 2606 0056 F868     		ldr	r0, [r7, #12]
 2607 0058 FFF7FEFF 		bl	lwm2m_data_include
 557:g:/iot/IoT_Device_Demo/iot_link/network/lwm2m/wakaama_lwm2m/wakaama-master/core\data.c ****     dataP->type = LWM2M_TYPE_MULTIPLE_RESOURCE;
 2608              		.loc 2 557 17
ARM GAS  C:\Users\ADMINI~1\AppData\Local\Temp\ccO7A1oC.s 			page 64


 2609 005c 7B68     		ldr	r3, [r7, #4]
 2610 005e 0322     		movs	r2, #3
 2611 0060 1A70     		strb	r2, [r3]
 558:g:/iot/IoT_Device_Demo/iot_link/network/lwm2m/wakaama_lwm2m/wakaama-master/core\data.c **** }
 2612              		.loc 2 558 1
 2613 0062 00BF     		nop
 2614 0064 1037     		adds	r7, r7, #16
 2615              	.LCFI89:
 2616              		.cfi_def_cfa_offset 16
 2617 0066 BD46     		mov	sp, r7
 2618              	.LCFI90:
 2619              		.cfi_def_cfa_register 13
 2620              		@ sp needed
 2621 0068 B0BD     		pop	{r4, r5, r7, pc}
 2622              	.L179:
 2623 006a 00BF     		.align	2
 2624              	.L178:
 2625 006c 00000000 		.word	__func__.8807
 2626 0070 00000000 		.word	__FUNCTION__.8806
 2627 0074 54020000 		.word	.LC14
 2628              		.cfi_endproc
 2629              	.LFE20:
 2631              		.section	.rodata
 2632 027e 0000     		.align	2
 2633              	.LC15:
 2634 0280 4C574D32 		.ascii	"LWM2M_CONTENT_JSON\000"
 2634      4D5F434F 
 2634      4E54454E 
 2634      545F4A53 
 2634      4F4E00
 2635 0293 00       		.align	2
 2636              	.LC16:
 2637 0294 556E6B6E 		.ascii	"Unknown\000"
 2637      6F776E00 
 2638              		.align	2
 2639              	.LC17:
 2640 029c 4C574D32 		.ascii	"LWM2M_CONTENT_TLV\000"
 2640      4D5F434F 
 2640      4E54454E 
 2640      545F544C 
 2640      5600
 2641 02ae 0000     		.align	2
 2642              	.LC18:
 2643 02b0 4C574D32 		.ascii	"LWM2M_CONTENT_OPAQUE\000"
 2643      4D5F434F 
 2643      4E54454E 
 2643      545F4F50 
 2643      41515545 
 2644 02c5 000000   		.align	2
 2645              	.LC19:
 2646 02c8 4C574D32 		.ascii	"LWM2M_CONTENT_LINK\000"
 2646      4D5F434F 
 2646      4E54454E 
 2646      545F4C49 
 2646      4E4B00
 2647 02db 00       		.align	2
 2648              	.LC20:
ARM GAS  C:\Users\ADMINI~1\AppData\Local\Temp\ccO7A1oC.s 			page 65


 2649 02dc 4C574D32 		.ascii	"LWM2M_CONTENT_TEXT\000"
 2649      4D5F434F 
 2649      4E54454E 
 2649      545F5445 
 2649      585400
 2650 02ef 00       		.align	2
 2651              	.LC21:
 2652 02f0 5B25735D 		.ascii	"[%s][%u][%s:%d] [%d][%s:%d] format: %s, bufferLen: "
 2652      5B25755D 
 2652      5B25733A 
 2652      25645D20 
 2652      5B25645D 
 2653 0323 25640D0A 		.ascii	"%d\015\012\015\012\000"
 2653      0D0A00
 2654 032a 0000     		.align	2
 2655              	.LC22:
 2656 032c 5B25735D 		.ascii	"[%s][%u][%s:%d] [%s:%d] NULL\015\012\015\012\000"
 2656      5B25755D 
 2656      5B25733A 
 2656      25645D20 
 2656      5B25733A 
 2657 034d 000000   		.align	2
 2658              	.LC23:
 2659 0350 5B25735D 		.ascii	"[%s][%u][%s:%d] [%s:%d] /%d\015\012\000"
 2659      5B25755D 
 2659      5B25733A 
 2659      25645D20 
 2659      5B25733A 
 2660 036e 0000     		.align	2
 2661              	.LC24:
 2662 0370 5B25735D 		.ascii	"[%s][%u][%s:%d] /%d\015\012\000"
 2662      5B25755D 
 2662      5B25733A 
 2662      25645D20 
 2662      2F25640D 
 2663 0386 0000     		.align	2
 2664              	.LC25:
 2665 0388 5B25735D 		.ascii	"[%s][%u][%s:%d] \015\012\015\012\000"
 2665      5B25755D 
 2665      5B25733A 
 2665      25645D20 
 2665      0D0A0D0A 
 2666              		.section	.text.lwm2m_data_parse,"ax",%progbits
 2667              		.align	1
 2668              		.global	lwm2m_data_parse
 2669              		.syntax unified
 2670              		.thumb
 2671              		.thumb_func
 2672              		.fpu fpv4-sp-d16
 2674              	lwm2m_data_parse:
 2675              	.LFB21:
 559:g:/iot/IoT_Device_Demo/iot_link/network/lwm2m/wakaama_lwm2m/wakaama-master/core\data.c **** 
 560:g:/iot/IoT_Device_Demo/iot_link/network/lwm2m/wakaama_lwm2m/wakaama-master/core\data.c **** int lwm2m_data_parse(lwm2m_uri_t *uriP,
 561:g:/iot/IoT_Device_Demo/iot_link/network/lwm2m/wakaama_lwm2m/wakaama-master/core\data.c ****                      uint8_t *buffer,
 562:g:/iot/IoT_Device_Demo/iot_link/network/lwm2m/wakaama_lwm2m/wakaama-master/core\data.c ****                      size_t bufferLen,
 563:g:/iot/IoT_Device_Demo/iot_link/network/lwm2m/wakaama_lwm2m/wakaama-master/core\data.c ****                      lwm2m_media_type_t format,
 564:g:/iot/IoT_Device_Demo/iot_link/network/lwm2m/wakaama_lwm2m/wakaama-master/core\data.c ****                      lwm2m_data_t **dataP)
ARM GAS  C:\Users\ADMINI~1\AppData\Local\Temp\ccO7A1oC.s 			page 66


 565:g:/iot/IoT_Device_Demo/iot_link/network/lwm2m/wakaama_lwm2m/wakaama-master/core\data.c **** {
 2676              		.loc 2 565 1
 2677              		.cfi_startproc
 2678              		@ args = 4, pretend = 0, frame = 24
 2679              		@ frame_needed = 1, uses_anonymous_args = 0
 2680 0000 B0B5     		push	{r4, r5, r7, lr}
 2681              	.LCFI91:
 2682              		.cfi_def_cfa_offset 16
 2683              		.cfi_offset 4, -16
 2684              		.cfi_offset 5, -12
 2685              		.cfi_offset 7, -8
 2686              		.cfi_offset 14, -4
 2687 0002 8CB0     		sub	sp, sp, #48
 2688              	.LCFI92:
 2689              		.cfi_def_cfa_offset 64
 2690 0004 06AF     		add	r7, sp, #24
 2691              	.LCFI93:
 2692              		.cfi_def_cfa 7, 40
 2693 0006 F860     		str	r0, [r7, #12]
 2694 0008 B960     		str	r1, [r7, #8]
 2695 000a 7A60     		str	r2, [r7, #4]
 2696 000c 7B80     		strh	r3, [r7, #2]	@ movhi
 566:g:/iot/IoT_Device_Demo/iot_link/network/lwm2m/wakaama_lwm2m/wakaama-master/core\data.c ****     int res;
 567:g:/iot/IoT_Device_Demo/iot_link/network/lwm2m/wakaama_lwm2m/wakaama-master/core\data.c **** 
 568:g:/iot/IoT_Device_Demo/iot_link/network/lwm2m/wakaama_lwm2m/wakaama-master/core\data.c ****     LOG_ARG("format: %s, bufferLen: %d", STR_MEDIA_TYPE(format), bufferLen);
 2697              		.loc 2 568 5
 2698 000e FFF7FEFF 		bl	link_log_level_get
 2699 0012 0346     		mov	r3, r0
 2700 0014 012B     		cmp	r3, #1
 2701 0016 3DD8     		bhi	.L181
 2702              		.loc 2 568 5 is_stmt 0 discriminator 1
 2703 0018 0120     		movs	r0, #1
 2704 001a FFF7FEFF 		bl	link_log_level_name
 2705 001e 0446     		mov	r4, r0
 2706 0020 FFF7FEFF 		bl	osal_sys_time
 2707 0024 0246     		mov	r2, r0
 2708 0026 0B46     		mov	r3, r1
 2709 0028 1546     		mov	r5, r2
 2710 002a FFF7FEFF 		bl	lwm2m_gettime
 2711 002e 0246     		mov	r2, r0
 2712 0030 0B46     		mov	r3, r1
 2713 0032 1146     		mov	r1, r2
 2714 0034 7B88     		ldrh	r3, [r7, #2]
 2715 0036 002B     		cmp	r3, #0
 2716 0038 19D0     		beq	.L182
 2717              		.loc 2 568 5 discriminator 2
 2718 003a 7B88     		ldrh	r3, [r7, #2]
 2719 003c 282B     		cmp	r3, #40
 2720 003e 14D0     		beq	.L183
 2721              		.loc 2 568 5 discriminator 4
 2722 0040 7B88     		ldrh	r3, [r7, #2]
 2723 0042 2A2B     		cmp	r3, #42
 2724 0044 0FD0     		beq	.L184
 2725              		.loc 2 568 5 discriminator 6
 2726 0046 7B88     		ldrh	r3, [r7, #2]
 2727 0048 42F61652 		movw	r2, #11542
 2728 004c 9342     		cmp	r3, r2
ARM GAS  C:\Users\ADMINI~1\AppData\Local\Temp\ccO7A1oC.s 			page 67


 2729 004e 08D0     		beq	.L185
 2730              		.loc 2 568 5 discriminator 8
 2731 0050 7B88     		ldrh	r3, [r7, #2]
 2732 0052 42F61752 		movw	r2, #11543
 2733 0056 9342     		cmp	r3, r2
 2734 0058 01D1     		bne	.L186
 2735              		.loc 2 568 5 discriminator 10
 2736 005a 954B     		ldr	r3, .L208
 2737 005c 08E0     		b	.L191
 2738              	.L186:
 2739              		.loc 2 568 5 discriminator 11
 2740 005e 954B     		ldr	r3, .L208+4
 2741 0060 06E0     		b	.L191
 2742              	.L185:
 2743              		.loc 2 568 5 discriminator 9
 2744 0062 954B     		ldr	r3, .L208+8
 2745 0064 04E0     		b	.L191
 2746              	.L184:
 2747              		.loc 2 568 5 discriminator 7
 2748 0066 954B     		ldr	r3, .L208+12
 2749 0068 02E0     		b	.L191
 2750              	.L183:
 2751              		.loc 2 568 5 discriminator 5
 2752 006a 954B     		ldr	r3, .L208+16
 2753 006c 00E0     		b	.L191
 2754              	.L182:
 2755              		.loc 2 568 5 discriminator 3
 2756 006e 954B     		ldr	r3, .L208+20
 2757              	.L191:
 2758              		.loc 2 568 5 discriminator 21
 2759 0070 7A68     		ldr	r2, [r7, #4]
 2760 0072 0592     		str	r2, [sp, #20]
 2761 0074 0493     		str	r3, [sp, #16]
 2762 0076 4FF40E73 		mov	r3, #568
 2763 007a 0393     		str	r3, [sp, #12]
 2764 007c 924B     		ldr	r3, .L208+24
 2765 007e 0293     		str	r3, [sp, #8]
 2766 0080 0191     		str	r1, [sp, #4]
 2767 0082 4FF40E73 		mov	r3, #568
 2768 0086 0093     		str	r3, [sp]
 2769 0088 904B     		ldr	r3, .L208+28
 2770 008a 2A46     		mov	r2, r5
 2771 008c 2146     		mov	r1, r4
 2772 008e 9048     		ldr	r0, .L208+32
 2773 0090 FFF7FEFF 		bl	printf
 2774              	.L181:
 569:g:/iot/IoT_Device_Demo/iot_link/network/lwm2m/wakaama_lwm2m/wakaama-master/core\data.c ****     LOG_URI(uriP);
 2775              		.loc 2 569 5 is_stmt 1
 2776 0094 FB68     		ldr	r3, [r7, #12]
 2777 0096 002B     		cmp	r3, #0
 2778 0098 1BD1     		bne	.L192
 2779              		.loc 2 569 5 is_stmt 0 discriminator 1
 2780 009a FFF7FEFF 		bl	link_log_level_get
 2781 009e 0346     		mov	r3, r0
 2782 00a0 012B     		cmp	r3, #1
 2783 00a2 00F28480 		bhi	.L193
 2784              		.loc 2 569 5 discriminator 3
ARM GAS  C:\Users\ADMINI~1\AppData\Local\Temp\ccO7A1oC.s 			page 68


 2785 00a6 0120     		movs	r0, #1
 2786 00a8 FFF7FEFF 		bl	link_log_level_name
 2787 00ac 0446     		mov	r4, r0
 2788 00ae FFF7FEFF 		bl	osal_sys_time
 2789 00b2 0246     		mov	r2, r0
 2790 00b4 0B46     		mov	r3, r1
 2791 00b6 40F23923 		movw	r3, #569
 2792 00ba 0293     		str	r3, [sp, #8]
 2793 00bc 824B     		ldr	r3, .L208+24
 2794 00be 0193     		str	r3, [sp, #4]
 2795 00c0 40F23923 		movw	r3, #569
 2796 00c4 0093     		str	r3, [sp]
 2797 00c6 814B     		ldr	r3, .L208+28
 2798 00c8 2146     		mov	r1, r4
 2799 00ca 8248     		ldr	r0, .L208+36
 2800 00cc FFF7FEFF 		bl	printf
 2801 00d0 6DE0     		b	.L193
 2802              	.L192:
 2803              		.loc 2 569 5 discriminator 2
 2804 00d2 FFF7FEFF 		bl	link_log_level_get
 2805 00d6 0346     		mov	r3, r0
 2806 00d8 012B     		cmp	r3, #1
 2807 00da 17D8     		bhi	.L194
 2808              		.loc 2 569 5 discriminator 4
 2809 00dc 0120     		movs	r0, #1
 2810 00de FFF7FEFF 		bl	link_log_level_name
 2811 00e2 0446     		mov	r4, r0
 2812 00e4 FFF7FEFF 		bl	osal_sys_time
 2813 00e8 0246     		mov	r2, r0
 2814 00ea 0B46     		mov	r3, r1
 2815 00ec FB68     		ldr	r3, [r7, #12]
 2816 00ee 5B88     		ldrh	r3, [r3, #2]
 2817 00f0 0393     		str	r3, [sp, #12]
 2818 00f2 40F23923 		movw	r3, #569
 2819 00f6 0293     		str	r3, [sp, #8]
 2820 00f8 734B     		ldr	r3, .L208+24
 2821 00fa 0193     		str	r3, [sp, #4]
 2822 00fc 40F23923 		movw	r3, #569
 2823 0100 0093     		str	r3, [sp]
 2824 0102 724B     		ldr	r3, .L208+28
 2825 0104 2146     		mov	r1, r4
 2826 0106 7448     		ldr	r0, .L208+40
 2827 0108 FFF7FEFF 		bl	printf
 2828              	.L194:
 2829              		.loc 2 569 5 discriminator 6
 2830 010c FB68     		ldr	r3, [r7, #12]
 2831 010e 1B78     		ldrb	r3, [r3]	@ zero_extendqisi2
 2832 0110 03F00203 		and	r3, r3, #2
 2833 0114 002B     		cmp	r3, #0
 2834 0116 17D0     		beq	.L195
 2835              		.loc 2 569 5 discriminator 7
 2836 0118 FFF7FEFF 		bl	link_log_level_get
 2837 011c 0346     		mov	r3, r0
 2838 011e 012B     		cmp	r3, #1
 2839 0120 12D8     		bhi	.L195
 2840              		.loc 2 569 5 discriminator 9
 2841 0122 0120     		movs	r0, #1
ARM GAS  C:\Users\ADMINI~1\AppData\Local\Temp\ccO7A1oC.s 			page 69


 2842 0124 FFF7FEFF 		bl	link_log_level_name
 2843 0128 0446     		mov	r4, r0
 2844 012a FFF7FEFF 		bl	osal_sys_time
 2845 012e 0246     		mov	r2, r0
 2846 0130 0B46     		mov	r3, r1
 2847 0132 FB68     		ldr	r3, [r7, #12]
 2848 0134 9B88     		ldrh	r3, [r3, #4]
 2849 0136 0193     		str	r3, [sp, #4]
 2850 0138 40F23923 		movw	r3, #569
 2851 013c 0093     		str	r3, [sp]
 2852 013e 634B     		ldr	r3, .L208+28
 2853 0140 2146     		mov	r1, r4
 2854 0142 6648     		ldr	r0, .L208+44
 2855 0144 FFF7FEFF 		bl	printf
 2856              	.L195:
 2857              		.loc 2 569 5 discriminator 11
 2858 0148 FB68     		ldr	r3, [r7, #12]
 2859 014a 1B78     		ldrb	r3, [r3]	@ zero_extendqisi2
 2860 014c 03F00103 		and	r3, r3, #1
 2861 0150 002B     		cmp	r3, #0
 2862 0152 17D0     		beq	.L196
 2863              		.loc 2 569 5 discriminator 12
 2864 0154 FFF7FEFF 		bl	link_log_level_get
 2865 0158 0346     		mov	r3, r0
 2866 015a 012B     		cmp	r3, #1
 2867 015c 12D8     		bhi	.L196
 2868              		.loc 2 569 5 discriminator 14
 2869 015e 0120     		movs	r0, #1
 2870 0160 FFF7FEFF 		bl	link_log_level_name
 2871 0164 0446     		mov	r4, r0
 2872 0166 FFF7FEFF 		bl	osal_sys_time
 2873 016a 0246     		mov	r2, r0
 2874 016c 0B46     		mov	r3, r1
 2875 016e FB68     		ldr	r3, [r7, #12]
 2876 0170 DB88     		ldrh	r3, [r3, #6]
 2877 0172 0193     		str	r3, [sp, #4]
 2878 0174 40F23923 		movw	r3, #569
 2879 0178 0093     		str	r3, [sp]
 2880 017a 544B     		ldr	r3, .L208+28
 2881 017c 2146     		mov	r1, r4
 2882 017e 5748     		ldr	r0, .L208+44
 2883 0180 FFF7FEFF 		bl	printf
 2884              	.L196:
 2885              		.loc 2 569 5 discriminator 16
 2886 0184 FFF7FEFF 		bl	link_log_level_get
 2887 0188 0346     		mov	r3, r0
 2888 018a 012B     		cmp	r3, #1
 2889 018c 0FD8     		bhi	.L193
 2890              		.loc 2 569 5 discriminator 17
 2891 018e 0120     		movs	r0, #1
 2892 0190 FFF7FEFF 		bl	link_log_level_name
 2893 0194 0446     		mov	r4, r0
 2894 0196 FFF7FEFF 		bl	osal_sys_time
 2895 019a 0246     		mov	r2, r0
 2896 019c 0B46     		mov	r3, r1
 2897 019e 40F23923 		movw	r3, #569
 2898 01a2 0093     		str	r3, [sp]
ARM GAS  C:\Users\ADMINI~1\AppData\Local\Temp\ccO7A1oC.s 			page 70


 2899 01a4 494B     		ldr	r3, .L208+28
 2900 01a6 2146     		mov	r1, r4
 2901 01a8 4D48     		ldr	r0, .L208+48
 2902 01aa FFF7FEFF 		bl	printf
 2903              	.L193:
 570:g:/iot/IoT_Device_Demo/iot_link/network/lwm2m/wakaama_lwm2m/wakaama-master/core\data.c ****     switch (format)
 2904              		.loc 2 570 5 is_stmt 1
 2905 01ae 7B88     		ldrh	r3, [r7, #2]
 2906 01b0 42F61652 		movw	r2, #11542
 2907 01b4 9342     		cmp	r3, r2
 2908 01b6 6ED0     		beq	.L197
 2909 01b8 42F61652 		movw	r2, #11542
 2910 01bc 9342     		cmp	r3, r2
 2911 01be 71DC     		bgt	.L198
 2912 01c0 002B     		cmp	r3, #0
 2913 01c2 02D0     		beq	.L199
 2914 01c4 2A2B     		cmp	r3, #42
 2915 01c6 33D0     		beq	.L200
 2916 01c8 6CE0     		b	.L198
 2917              	.L199:
 571:g:/iot/IoT_Device_Demo/iot_link/network/lwm2m/wakaama_lwm2m/wakaama-master/core\data.c ****     {
 572:g:/iot/IoT_Device_Demo/iot_link/network/lwm2m/wakaama_lwm2m/wakaama-master/core\data.c ****     case LWM2M_CONTENT_TEXT:
 573:g:/iot/IoT_Device_Demo/iot_link/network/lwm2m/wakaama_lwm2m/wakaama-master/core\data.c ****         if (!LWM2M_URI_IS_SET_RESOURCE(uriP)) return 0;
 2918              		.loc 2 573 14
 2919 01ca FB68     		ldr	r3, [r7, #12]
 2920 01cc 1B78     		ldrb	r3, [r3]	@ zero_extendqisi2
 2921 01ce 03F00103 		and	r3, r3, #1
 2922              		.loc 2 573 12
 2923 01d2 002B     		cmp	r3, #0
 2924 01d4 01D1     		bne	.L201
 2925              		.loc 2 573 54 discriminator 1
 2926 01d6 0023     		movs	r3, #0
 2927 01d8 65E0     		b	.L202
 2928              	.L201:
 574:g:/iot/IoT_Device_Demo/iot_link/network/lwm2m/wakaama_lwm2m/wakaama-master/core\data.c ****         *dataP = lwm2m_data_new(1);
 2929              		.loc 2 574 18
 2930 01da 0120     		movs	r0, #1
 2931 01dc FFF7FEFF 		bl	lwm2m_data_new
 2932 01e0 0246     		mov	r2, r0
 2933              		.loc 2 574 16
 2934 01e2 BB6A     		ldr	r3, [r7, #40]
 2935 01e4 1A60     		str	r2, [r3]
 575:g:/iot/IoT_Device_Demo/iot_link/network/lwm2m/wakaama_lwm2m/wakaama-master/core\data.c ****         if (*dataP == NULL) return 0;
 2936              		.loc 2 575 13
 2937 01e6 BB6A     		ldr	r3, [r7, #40]
 2938 01e8 1B68     		ldr	r3, [r3]
 2939              		.loc 2 575 12
 2940 01ea 002B     		cmp	r3, #0
 2941 01ec 01D1     		bne	.L203
 2942              		.loc 2 575 36 discriminator 1
 2943 01ee 0023     		movs	r3, #0
 2944 01f0 59E0     		b	.L202
 2945              	.L203:
 576:g:/iot/IoT_Device_Demo/iot_link/network/lwm2m/wakaama_lwm2m/wakaama-master/core\data.c ****         (*dataP)->id = uriP->resourceId;
 2946              		.loc 2 576 10
 2947 01f2 BB6A     		ldr	r3, [r7, #40]
 2948 01f4 1B68     		ldr	r3, [r3]
ARM GAS  C:\Users\ADMINI~1\AppData\Local\Temp\ccO7A1oC.s 			page 71


 2949              		.loc 2 576 28
 2950 01f6 FA68     		ldr	r2, [r7, #12]
 2951 01f8 D288     		ldrh	r2, [r2, #6]
 2952              		.loc 2 576 22
 2953 01fa 5A80     		strh	r2, [r3, #2]	@ movhi
 577:g:/iot/IoT_Device_Demo/iot_link/network/lwm2m/wakaama_lwm2m/wakaama-master/core\data.c ****         (*dataP)->type = LWM2M_TYPE_STRING;
 2954              		.loc 2 577 10
 2955 01fc BB6A     		ldr	r3, [r7, #40]
 2956 01fe 1B68     		ldr	r3, [r3]
 2957              		.loc 2 577 24
 2958 0200 0422     		movs	r2, #4
 2959 0202 1A70     		strb	r2, [r3]
 578:g:/iot/IoT_Device_Demo/iot_link/network/lwm2m/wakaama_lwm2m/wakaama-master/core\data.c ****         res = prv_setBuffer(*dataP, buffer, bufferLen);
 2960              		.loc 2 578 15
 2961 0204 BB6A     		ldr	r3, [r7, #40]
 2962 0206 1B68     		ldr	r3, [r3]
 2963 0208 7A68     		ldr	r2, [r7, #4]
 2964 020a B968     		ldr	r1, [r7, #8]
 2965 020c 1846     		mov	r0, r3
 2966 020e FFF7FEFF 		bl	prv_setBuffer
 2967 0212 7861     		str	r0, [r7, #20]
 579:g:/iot/IoT_Device_Demo/iot_link/network/lwm2m/wakaama_lwm2m/wakaama-master/core\data.c ****         if (res == 0)
 2968              		.loc 2 579 12
 2969 0214 7B69     		ldr	r3, [r7, #20]
 2970 0216 002B     		cmp	r3, #0
 2971 0218 08D1     		bne	.L204
