ARM GAS  C:\Users\ADMINI~1\AppData\Local\Temp\ccoKNcyf.s 			page 1


   1              		.cpu cortex-m4
   2              		.eabi_attribute 27, 1
   3              		.eabi_attribute 28, 1
   4              		.eabi_attribute 20, 1
   5              		.eabi_attribute 21, 1
   6              		.eabi_attribute 23, 3
   7              		.eabi_attribute 24, 1
   8              		.eabi_attribute 25, 1
   9              		.eabi_attribute 26, 1
  10              		.eabi_attribute 30, 6
  11              		.eabi_attribute 34, 1
  12              		.eabi_attribute 18, 4
  13              		.file	"liblwm2m.c"
  14              		.text
  15              	.Ltext0:
  16              		.cfi_sections	.debug_frame
  17              		.section	.rodata
  18              		.align	2
  19              	.LC0:
  20 0000 5B25735D 		.ascii	"[%s][%u][%s:%d] [%d][%s:%d] Entering\015\012\015\012"
  20      5B25755D 
  20      5B25733A 
  20      25645D20 
  20      5B25645D 
  21 0028 00       		.ascii	"\000"
  22              		.section	.text.lwm2m_init,"ax",%progbits
  23              		.align	1
  24              		.global	lwm2m_init
  25              		.arch armv7e-m
  26              		.syntax unified
  27              		.thumb
  28              		.thumb_func
  29              		.fpu fpv4-sp-d16
  31              	lwm2m_init:
  32              	.LFB4:
  33              		.file 1 "g:/iot/IoT_Device_Demo/iot_link/network/lwm2m/wakaama_lwm2m/wakaama-master/core/liblwm2m.
   1:g:/iot/IoT_Device_Demo/iot_link/network/lwm2m/wakaama_lwm2m/wakaama-master/core\liblwm2m.c **** /*----------------------------------------------------------------------------
   2:g:/iot/IoT_Device_Demo/iot_link/network/lwm2m/wakaama_lwm2m/wakaama-master/core\liblwm2m.c ****  * Copyright (c) <2016-2018>, <Huawei Technologies Co., Ltd>
   3:g:/iot/IoT_Device_Demo/iot_link/network/lwm2m/wakaama_lwm2m/wakaama-master/core\liblwm2m.c ****  * All rights reserved.
   4:g:/iot/IoT_Device_Demo/iot_link/network/lwm2m/wakaama_lwm2m/wakaama-master/core\liblwm2m.c ****  * Redistribution and use in source and binary forms, with or without modification,
   5:g:/iot/IoT_Device_Demo/iot_link/network/lwm2m/wakaama_lwm2m/wakaama-master/core\liblwm2m.c ****  * are permitted provided that the following conditions are met:
   6:g:/iot/IoT_Device_Demo/iot_link/network/lwm2m/wakaama_lwm2m/wakaama-master/core\liblwm2m.c ****  * 1. Redistributions of source code must retain the above copyright notice, this list of
   7:g:/iot/IoT_Device_Demo/iot_link/network/lwm2m/wakaama_lwm2m/wakaama-master/core\liblwm2m.c ****  * conditions and the following disclaimer.
   8:g:/iot/IoT_Device_Demo/iot_link/network/lwm2m/wakaama_lwm2m/wakaama-master/core\liblwm2m.c ****  * 2. Redistributions in binary form must reproduce the above copyright notice, this list
   9:g:/iot/IoT_Device_Demo/iot_link/network/lwm2m/wakaama_lwm2m/wakaama-master/core\liblwm2m.c ****  * of conditions and the following disclaimer in the documentation and/or other materials
  10:g:/iot/IoT_Device_Demo/iot_link/network/lwm2m/wakaama_lwm2m/wakaama-master/core\liblwm2m.c ****  * provided with the distribution.
  11:g:/iot/IoT_Device_Demo/iot_link/network/lwm2m/wakaama_lwm2m/wakaama-master/core\liblwm2m.c ****  * 3. Neither the name of the copyright holder nor the names of its contributors may be used
  12:g:/iot/IoT_Device_Demo/iot_link/network/lwm2m/wakaama_lwm2m/wakaama-master/core\liblwm2m.c ****  * to endorse or promote products derived from this software without specific prior written
  13:g:/iot/IoT_Device_Demo/iot_link/network/lwm2m/wakaama_lwm2m/wakaama-master/core\liblwm2m.c ****  * permission.
  14:g:/iot/IoT_Device_Demo/iot_link/network/lwm2m/wakaama_lwm2m/wakaama-master/core\liblwm2m.c ****  * THIS SOFTWARE IS PROVIDED BY THE COPYRIGHT HOLDERS AND CONTRIBUTORS
  15:g:/iot/IoT_Device_Demo/iot_link/network/lwm2m/wakaama_lwm2m/wakaama-master/core\liblwm2m.c ****  * "AS IS" AND ANY EXPRESS OR IMPLIED WARRANTIES, INCLUDING, BUT NOT LIMITED TO,
  16:g:/iot/IoT_Device_Demo/iot_link/network/lwm2m/wakaama_lwm2m/wakaama-master/core\liblwm2m.c ****  * THE IMPLIED WARRANTIES OF MERCHANTABILITY AND FITNESS FOR A PARTICULAR
  17:g:/iot/IoT_Device_Demo/iot_link/network/lwm2m/wakaama_lwm2m/wakaama-master/core\liblwm2m.c ****  * PURPOSE ARE DISCLAIMED. IN NO EVENT SHALL THE COPYRIGHT HOLDER OR
  18:g:/iot/IoT_Device_Demo/iot_link/network/lwm2m/wakaama_lwm2m/wakaama-master/core\liblwm2m.c ****  * CONTRIBUTORS BE LIABLE FOR ANY DIRECT, INDIRECT, INCIDENTAL, SPECIAL,
  19:g:/iot/IoT_Device_Demo/iot_link/network/lwm2m/wakaama_lwm2m/wakaama-master/core\liblwm2m.c ****  * EXEMPLARY, OR CONSEQUENTIAL DAMAGES (INCLUDING, BUT NOT LIMITED TO,
  20:g:/iot/IoT_Device_Demo/iot_link/network/lwm2m/wakaama_lwm2m/wakaama-master/core\liblwm2m.c ****  * PROCUREMENT OF SUBSTITUTE GOODS OR SERVICES; LOSS OF USE, DATA, OR PROFITS;
  21:g:/iot/IoT_Device_Demo/iot_link/network/lwm2m/wakaama_lwm2m/wakaama-master/core\liblwm2m.c ****  * OR BUSINESS INTERRUPTION) HOWEVER CAUSED AND ON ANY THEORY OF LIABILITY,
ARM GAS  C:\Users\ADMINI~1\AppData\Local\Temp\ccoKNcyf.s 			page 2


  22:g:/iot/IoT_Device_Demo/iot_link/network/lwm2m/wakaama_lwm2m/wakaama-master/core\liblwm2m.c ****  * WHETHER IN CONTRACT, STRICT LIABILITY, OR TORT (INCLUDING NEGLIGENCE OR
  23:g:/iot/IoT_Device_Demo/iot_link/network/lwm2m/wakaama_lwm2m/wakaama-master/core\liblwm2m.c ****  * OTHERWISE) ARISING IN ANY WAY OUT OF THE USE OF THIS SOFTWARE, EVEN IF
  24:g:/iot/IoT_Device_Demo/iot_link/network/lwm2m/wakaama_lwm2m/wakaama-master/core\liblwm2m.c ****  * ADVISED OF THE POSSIBILITY OF SUCH DAMAGE.
  25:g:/iot/IoT_Device_Demo/iot_link/network/lwm2m/wakaama_lwm2m/wakaama-master/core\liblwm2m.c ****  *---------------------------------------------------------------------------*/
  26:g:/iot/IoT_Device_Demo/iot_link/network/lwm2m/wakaama_lwm2m/wakaama-master/core\liblwm2m.c **** /*----------------------------------------------------------------------------
  27:g:/iot/IoT_Device_Demo/iot_link/network/lwm2m/wakaama_lwm2m/wakaama-master/core\liblwm2m.c ****  * Notice of Export Control Law
  28:g:/iot/IoT_Device_Demo/iot_link/network/lwm2m/wakaama_lwm2m/wakaama-master/core\liblwm2m.c ****  * ===============================================
  29:g:/iot/IoT_Device_Demo/iot_link/network/lwm2m/wakaama_lwm2m/wakaama-master/core\liblwm2m.c ****  * Huawei LiteOS may be subject to applicable export control laws and regulations, which might
  30:g:/iot/IoT_Device_Demo/iot_link/network/lwm2m/wakaama_lwm2m/wakaama-master/core\liblwm2m.c ****  * include those applicable to Huawei LiteOS of U.S. and the country in which you are located.
  31:g:/iot/IoT_Device_Demo/iot_link/network/lwm2m/wakaama_lwm2m/wakaama-master/core\liblwm2m.c ****  * Import, export and usage of Huawei LiteOS in any manner by you shall be in compliance with such
  32:g:/iot/IoT_Device_Demo/iot_link/network/lwm2m/wakaama_lwm2m/wakaama-master/core\liblwm2m.c ****  * applicable export control laws and regulations.
  33:g:/iot/IoT_Device_Demo/iot_link/network/lwm2m/wakaama_lwm2m/wakaama-master/core\liblwm2m.c ****  *---------------------------------------------------------------------------*/
  34:g:/iot/IoT_Device_Demo/iot_link/network/lwm2m/wakaama_lwm2m/wakaama-master/core\liblwm2m.c **** 
  35:g:/iot/IoT_Device_Demo/iot_link/network/lwm2m/wakaama_lwm2m/wakaama-master/core\liblwm2m.c **** /*******************************************************************************
  36:g:/iot/IoT_Device_Demo/iot_link/network/lwm2m/wakaama_lwm2m/wakaama-master/core\liblwm2m.c ****  *
  37:g:/iot/IoT_Device_Demo/iot_link/network/lwm2m/wakaama_lwm2m/wakaama-master/core\liblwm2m.c ****  * Copyright (c) 2013, 2014 Intel Corporation and others.
  38:g:/iot/IoT_Device_Demo/iot_link/network/lwm2m/wakaama_lwm2m/wakaama-master/core\liblwm2m.c ****  * All rights reserved. This program and the accompanying materials
  39:g:/iot/IoT_Device_Demo/iot_link/network/lwm2m/wakaama_lwm2m/wakaama-master/core\liblwm2m.c ****  * are made available under the terms of the Eclipse Public License v1.0
  40:g:/iot/IoT_Device_Demo/iot_link/network/lwm2m/wakaama_lwm2m/wakaama-master/core\liblwm2m.c ****  * and Eclipse Distribution License v1.0 which accompany this distribution.
  41:g:/iot/IoT_Device_Demo/iot_link/network/lwm2m/wakaama_lwm2m/wakaama-master/core\liblwm2m.c ****  *
  42:g:/iot/IoT_Device_Demo/iot_link/network/lwm2m/wakaama_lwm2m/wakaama-master/core\liblwm2m.c ****  * The Eclipse Public License is available at
  43:g:/iot/IoT_Device_Demo/iot_link/network/lwm2m/wakaama_lwm2m/wakaama-master/core\liblwm2m.c ****  *    http://www.eclipse.org/legal/epl-v10.html
  44:g:/iot/IoT_Device_Demo/iot_link/network/lwm2m/wakaama_lwm2m/wakaama-master/core\liblwm2m.c ****  * The Eclipse Distribution License is available at
  45:g:/iot/IoT_Device_Demo/iot_link/network/lwm2m/wakaama_lwm2m/wakaama-master/core\liblwm2m.c ****  *    http://www.eclipse.org/org/documents/edl-v10.php.
  46:g:/iot/IoT_Device_Demo/iot_link/network/lwm2m/wakaama_lwm2m/wakaama-master/core\liblwm2m.c ****  *
  47:g:/iot/IoT_Device_Demo/iot_link/network/lwm2m/wakaama_lwm2m/wakaama-master/core\liblwm2m.c ****  * Contributors:
  48:g:/iot/IoT_Device_Demo/iot_link/network/lwm2m/wakaama_lwm2m/wakaama-master/core\liblwm2m.c ****  *    David Navarro, Intel Corporation - initial API and implementation
  49:g:/iot/IoT_Device_Demo/iot_link/network/lwm2m/wakaama_lwm2m/wakaama-master/core\liblwm2m.c ****  *    Fabien Fleutot - Please refer to git log
  50:g:/iot/IoT_Device_Demo/iot_link/network/lwm2m/wakaama_lwm2m/wakaama-master/core\liblwm2m.c ****  *    Simon Bernard - Please refer to git log
  51:g:/iot/IoT_Device_Demo/iot_link/network/lwm2m/wakaama_lwm2m/wakaama-master/core\liblwm2m.c ****  *    Toby Jaffey - Please refer to git log
  52:g:/iot/IoT_Device_Demo/iot_link/network/lwm2m/wakaama_lwm2m/wakaama-master/core\liblwm2m.c ****  *    Pascal Rieux - Please refer to git log
  53:g:/iot/IoT_Device_Demo/iot_link/network/lwm2m/wakaama_lwm2m/wakaama-master/core\liblwm2m.c ****  *
  54:g:/iot/IoT_Device_Demo/iot_link/network/lwm2m/wakaama_lwm2m/wakaama-master/core\liblwm2m.c ****  *******************************************************************************/
  55:g:/iot/IoT_Device_Demo/iot_link/network/lwm2m/wakaama_lwm2m/wakaama-master/core\liblwm2m.c **** 
  56:g:/iot/IoT_Device_Demo/iot_link/network/lwm2m/wakaama_lwm2m/wakaama-master/core\liblwm2m.c **** /*
  57:g:/iot/IoT_Device_Demo/iot_link/network/lwm2m/wakaama_lwm2m/wakaama-master/core\liblwm2m.c ****  Copyright (c) 2013, 2014 Intel Corporation
  58:g:/iot/IoT_Device_Demo/iot_link/network/lwm2m/wakaama_lwm2m/wakaama-master/core\liblwm2m.c **** 
  59:g:/iot/IoT_Device_Demo/iot_link/network/lwm2m/wakaama_lwm2m/wakaama-master/core\liblwm2m.c ****  Redistribution and use in source and binary forms, with or without modification,
  60:g:/iot/IoT_Device_Demo/iot_link/network/lwm2m/wakaama_lwm2m/wakaama-master/core\liblwm2m.c ****  are permitted provided that the following conditions are met:
  61:g:/iot/IoT_Device_Demo/iot_link/network/lwm2m/wakaama_lwm2m/wakaama-master/core\liblwm2m.c **** 
  62:g:/iot/IoT_Device_Demo/iot_link/network/lwm2m/wakaama_lwm2m/wakaama-master/core\liblwm2m.c ****      * Redistributions of source code must retain the above copyright notice,
  63:g:/iot/IoT_Device_Demo/iot_link/network/lwm2m/wakaama_lwm2m/wakaama-master/core\liblwm2m.c ****        this list of conditions and the following disclaimer.
  64:g:/iot/IoT_Device_Demo/iot_link/network/lwm2m/wakaama_lwm2m/wakaama-master/core\liblwm2m.c ****      * Redistributions in binary form must reproduce the above copyright notice,
  65:g:/iot/IoT_Device_Demo/iot_link/network/lwm2m/wakaama_lwm2m/wakaama-master/core\liblwm2m.c ****        this list of conditions and the following disclaimer in the documentation
  66:g:/iot/IoT_Device_Demo/iot_link/network/lwm2m/wakaama_lwm2m/wakaama-master/core\liblwm2m.c ****        and/or other materials provided with the distribution.
  67:g:/iot/IoT_Device_Demo/iot_link/network/lwm2m/wakaama_lwm2m/wakaama-master/core\liblwm2m.c ****      * Neither the name of Intel Corporation nor the names of its contributors
  68:g:/iot/IoT_Device_Demo/iot_link/network/lwm2m/wakaama_lwm2m/wakaama-master/core\liblwm2m.c ****        may be used to endorse or promote products derived from this software
  69:g:/iot/IoT_Device_Demo/iot_link/network/lwm2m/wakaama_lwm2m/wakaama-master/core\liblwm2m.c ****        without specific prior written permission.
  70:g:/iot/IoT_Device_Demo/iot_link/network/lwm2m/wakaama_lwm2m/wakaama-master/core\liblwm2m.c **** 
  71:g:/iot/IoT_Device_Demo/iot_link/network/lwm2m/wakaama_lwm2m/wakaama-master/core\liblwm2m.c ****  THIS SOFTWARE IS PROVIDED BY THE COPYRIGHT HOLDERS AND CONTRIBUTORS "AS IS" AND
  72:g:/iot/IoT_Device_Demo/iot_link/network/lwm2m/wakaama_lwm2m/wakaama-master/core\liblwm2m.c ****  ANY EXPRESS OR IMPLIED WARRANTIES, INCLUDING, BUT NOT LIMITED TO, THE IMPLIED
  73:g:/iot/IoT_Device_Demo/iot_link/network/lwm2m/wakaama_lwm2m/wakaama-master/core\liblwm2m.c ****  WARRANTIES OF MERCHANTABILITY AND FITNESS FOR A PARTICULAR PURPOSE ARE DISCLAIMED.
  74:g:/iot/IoT_Device_Demo/iot_link/network/lwm2m/wakaama_lwm2m/wakaama-master/core\liblwm2m.c ****  IN NO EVENT SHALL THE COPYRIGHT OWNER OR CONTRIBUTORS BE LIABLE FOR ANY DIRECT,
  75:g:/iot/IoT_Device_Demo/iot_link/network/lwm2m/wakaama_lwm2m/wakaama-master/core\liblwm2m.c ****  INDIRECT, INCIDENTAL, SPECIAL, EXEMPLARY, OR CONSEQUENTIAL DAMAGES (INCLUDING,
  76:g:/iot/IoT_Device_Demo/iot_link/network/lwm2m/wakaama_lwm2m/wakaama-master/core\liblwm2m.c ****  BUT NOT LIMITED TO, PROCUREMENT OF SUBSTITUTE GOODS OR SERVICES; LOSS OF USE,
  77:g:/iot/IoT_Device_Demo/iot_link/network/lwm2m/wakaama_lwm2m/wakaama-master/core\liblwm2m.c ****  DATA, OR PROFITS; OR BUSINESS INTERRUPTION) HOWEVER CAUSED AND ON ANY THEORY OF
  78:g:/iot/IoT_Device_Demo/iot_link/network/lwm2m/wakaama_lwm2m/wakaama-master/core\liblwm2m.c ****  LIABILITY, WHETHER IN CONTRACT, STRICT LIABILITY, OR TORT (INCLUDING NEGLIGENCE OR
ARM GAS  C:\Users\ADMINI~1\AppData\Local\Temp\ccoKNcyf.s 			page 3


  79:g:/iot/IoT_Device_Demo/iot_link/network/lwm2m/wakaama_lwm2m/wakaama-master/core\liblwm2m.c ****  OTHERWISE) ARISING IN ANY WAY OUT OF THE USE OF THIS SOFTWARE, EVEN IF ADVISED OF
  80:g:/iot/IoT_Device_Demo/iot_link/network/lwm2m/wakaama_lwm2m/wakaama-master/core\liblwm2m.c ****  THE POSSIBILITY OF SUCH DAMAGE.
  81:g:/iot/IoT_Device_Demo/iot_link/network/lwm2m/wakaama_lwm2m/wakaama-master/core\liblwm2m.c **** 
  82:g:/iot/IoT_Device_Demo/iot_link/network/lwm2m/wakaama_lwm2m/wakaama-master/core\liblwm2m.c ****  David Navarro <david.navarro@intel.com>
  83:g:/iot/IoT_Device_Demo/iot_link/network/lwm2m/wakaama_lwm2m/wakaama-master/core\liblwm2m.c **** 
  84:g:/iot/IoT_Device_Demo/iot_link/network/lwm2m/wakaama_lwm2m/wakaama-master/core\liblwm2m.c **** */
  85:g:/iot/IoT_Device_Demo/iot_link/network/lwm2m/wakaama_lwm2m/wakaama-master/core\liblwm2m.c **** 
  86:g:/iot/IoT_Device_Demo/iot_link/network/lwm2m/wakaama_lwm2m/wakaama-master/core\liblwm2m.c **** #include "internals.h"
  87:g:/iot/IoT_Device_Demo/iot_link/network/lwm2m/wakaama_lwm2m/wakaama-master/core\liblwm2m.c **** #include <stdlib.h>
  88:g:/iot/IoT_Device_Demo/iot_link/network/lwm2m/wakaama_lwm2m/wakaama-master/core\liblwm2m.c **** #include <string.h>
  89:g:/iot/IoT_Device_Demo/iot_link/network/lwm2m/wakaama_lwm2m/wakaama-master/core\liblwm2m.c **** 
  90:g:/iot/IoT_Device_Demo/iot_link/network/lwm2m/wakaama_lwm2m/wakaama-master/core\liblwm2m.c **** #include <stdio.h>
  91:g:/iot/IoT_Device_Demo/iot_link/network/lwm2m/wakaama_lwm2m/wakaama-master/core\liblwm2m.c **** #include <osal.h>
  92:g:/iot/IoT_Device_Demo/iot_link/network/lwm2m/wakaama_lwm2m/wakaama-master/core\liblwm2m.c **** 
  93:g:/iot/IoT_Device_Demo/iot_link/network/lwm2m/wakaama_lwm2m/wakaama-master/core\liblwm2m.c **** 
  94:g:/iot/IoT_Device_Demo/iot_link/network/lwm2m/wakaama_lwm2m/wakaama-master/core\liblwm2m.c **** lwm2m_context_t *lwm2m_init(void *userData)
  95:g:/iot/IoT_Device_Demo/iot_link/network/lwm2m/wakaama_lwm2m/wakaama-master/core\liblwm2m.c **** {
  34              		.loc 1 95 1
  35              		.cfi_startproc
  36              		@ args = 0, pretend = 0, frame = 16
  37              		@ frame_needed = 1, uses_anonymous_args = 0
  38 0000 B0B5     		push	{r4, r5, r7, lr}
  39              	.LCFI0:
  40              		.cfi_def_cfa_offset 16
  41              		.cfi_offset 4, -16
  42              		.cfi_offset 5, -12
  43              		.cfi_offset 7, -8
  44              		.cfi_offset 14, -4
  45 0002 88B0     		sub	sp, sp, #32
  46              	.LCFI1:
  47              		.cfi_def_cfa_offset 48
  48 0004 04AF     		add	r7, sp, #16
  49              	.LCFI2:
  50              		.cfi_def_cfa 7, 32
  51 0006 7860     		str	r0, [r7, #4]
  96:g:/iot/IoT_Device_Demo/iot_link/network/lwm2m/wakaama_lwm2m/wakaama-master/core\liblwm2m.c ****     lwm2m_context_t *contextP;
  97:g:/iot/IoT_Device_Demo/iot_link/network/lwm2m/wakaama_lwm2m/wakaama-master/core\liblwm2m.c **** 
  98:g:/iot/IoT_Device_Demo/iot_link/network/lwm2m/wakaama_lwm2m/wakaama-master/core\liblwm2m.c ****     LOG("Entering");
  52              		.loc 1 98 5
  53 0008 FFF7FEFF 		bl	link_log_level_get
  54 000c 0346     		mov	r3, r0
  55 000e 012B     		cmp	r3, #1
  56 0010 19D8     		bhi	.L2
  57              		.loc 1 98 5 is_stmt 0 discriminator 1
  58 0012 0120     		movs	r0, #1
  59 0014 FFF7FEFF 		bl	link_log_level_name
  60 0018 0446     		mov	r4, r0
  61 001a FFF7FEFF 		bl	osal_sys_time
  62 001e 0246     		mov	r2, r0
  63 0020 0B46     		mov	r3, r1
  64 0022 1546     		mov	r5, r2
  65 0024 FFF7FEFF 		bl	lwm2m_gettime
  66 0028 0246     		mov	r2, r0
  67 002a 0B46     		mov	r3, r1
  68 002c 6223     		movs	r3, #98
  69 002e 0393     		str	r3, [sp, #12]
  70 0030 124B     		ldr	r3, .L5
ARM GAS  C:\Users\ADMINI~1\AppData\Local\Temp\ccoKNcyf.s 			page 4


  71 0032 0293     		str	r3, [sp, #8]
  72 0034 0192     		str	r2, [sp, #4]
  73 0036 6223     		movs	r3, #98
  74 0038 0093     		str	r3, [sp]
  75 003a 114B     		ldr	r3, .L5+4
  76 003c 2A46     		mov	r2, r5
  77 003e 2146     		mov	r1, r4
  78 0040 1048     		ldr	r0, .L5+8
  79 0042 FFF7FEFF 		bl	printf
  80              	.L2:
  99:g:/iot/IoT_Device_Demo/iot_link/network/lwm2m/wakaama_lwm2m/wakaama-master/core\liblwm2m.c ****     contextP = (lwm2m_context_t *)lwm2m_malloc(sizeof(lwm2m_context_t));
  81              		.loc 1 99 35 is_stmt 1
  82 0046 3820     		movs	r0, #56
  83 0048 FFF7FEFF 		bl	lwm2m_malloc
  84 004c F860     		str	r0, [r7, #12]
 100:g:/iot/IoT_Device_Demo/iot_link/network/lwm2m/wakaama_lwm2m/wakaama-master/core\liblwm2m.c ****     if (NULL != contextP)
  85              		.loc 1 100 8
  86 004e FB68     		ldr	r3, [r7, #12]
  87 0050 002B     		cmp	r3, #0
  88 0052 0DD0     		beq	.L3
 101:g:/iot/IoT_Device_Demo/iot_link/network/lwm2m/wakaama_lwm2m/wakaama-master/core\liblwm2m.c ****     {
 102:g:/iot/IoT_Device_Demo/iot_link/network/lwm2m/wakaama_lwm2m/wakaama-master/core\liblwm2m.c ****         memset(contextP, 0, sizeof(lwm2m_context_t));
  89              		.loc 1 102 9
  90 0054 3822     		movs	r2, #56
  91 0056 0021     		movs	r1, #0
  92 0058 F868     		ldr	r0, [r7, #12]
  93 005a FFF7FEFF 		bl	memset
 103:g:/iot/IoT_Device_Demo/iot_link/network/lwm2m/wakaama_lwm2m/wakaama-master/core\liblwm2m.c ****         contextP->userData = userData;
  94              		.loc 1 103 28
  95 005e FB68     		ldr	r3, [r7, #12]
  96 0060 7A68     		ldr	r2, [r7, #4]
  97 0062 5A63     		str	r2, [r3, #52]
 104:g:/iot/IoT_Device_Demo/iot_link/network/lwm2m/wakaama_lwm2m/wakaama-master/core\liblwm2m.c ****         lwm2m_rand((void *)&contextP->nextMID, sizeof(contextP->nextMID));
  98              		.loc 1 104 28
  99 0064 FB68     		ldr	r3, [r7, #12]
 100 0066 2C33     		adds	r3, r3, #44
 101              		.loc 1 104 9
 102 0068 0221     		movs	r1, #2
 103 006a 1846     		mov	r0, r3
 104 006c FFF7FEFF 		bl	lwm2m_rand
 105              	.L3:
 105:g:/iot/IoT_Device_Demo/iot_link/network/lwm2m/wakaama_lwm2m/wakaama-master/core\liblwm2m.c ****     }
 106:g:/iot/IoT_Device_Demo/iot_link/network/lwm2m/wakaama_lwm2m/wakaama-master/core\liblwm2m.c **** 
 107:g:/iot/IoT_Device_Demo/iot_link/network/lwm2m/wakaama_lwm2m/wakaama-master/core\liblwm2m.c ****     return contextP;
 106              		.loc 1 107 12
 107 0070 FB68     		ldr	r3, [r7, #12]
 108:g:/iot/IoT_Device_Demo/iot_link/network/lwm2m/wakaama_lwm2m/wakaama-master/core\liblwm2m.c **** }
 108              		.loc 1 108 1
 109 0072 1846     		mov	r0, r3
 110 0074 1037     		adds	r7, r7, #16
 111              	.LCFI3:
 112              		.cfi_def_cfa_offset 16
 113 0076 BD46     		mov	sp, r7
 114              	.LCFI4:
 115              		.cfi_def_cfa_register 13
 116              		@ sp needed
 117 0078 B0BD     		pop	{r4, r5, r7, pc}
ARM GAS  C:\Users\ADMINI~1\AppData\Local\Temp\ccoKNcyf.s 			page 5


 118              	.L6:
 119 007a 00BF     		.align	2
 120              	.L5:
 121 007c 00000000 		.word	__func__.8630
 122 0080 00000000 		.word	__FUNCTION__.8629
 123 0084 00000000 		.word	.LC0
 124              		.cfi_endproc
 125              	.LFE4:
 127              		.section	.bss.event_handler,"aw",%nobits
 128              		.align	2
 131              	event_handler:
 132 0000 00000000 		.space	4
 133              		.section	.text.lwm2m_register_event_handler,"ax",%progbits
 134              		.align	1
 135              		.global	lwm2m_register_event_handler
 136              		.syntax unified
 137              		.thumb
 138              		.thumb_func
 139              		.fpu fpv4-sp-d16
 141              	lwm2m_register_event_handler:
 142              	.LFB5:
 109:g:/iot/IoT_Device_Demo/iot_link/network/lwm2m/wakaama_lwm2m/wakaama-master/core\liblwm2m.c **** 
 110:g:/iot/IoT_Device_Demo/iot_link/network/lwm2m/wakaama_lwm2m/wakaama-master/core\liblwm2m.c **** #ifdef LWM2M_CLIENT_MODE
 111:g:/iot/IoT_Device_Demo/iot_link/network/lwm2m/wakaama_lwm2m/wakaama-master/core\liblwm2m.c **** 
 112:g:/iot/IoT_Device_Demo/iot_link/network/lwm2m/wakaama_lwm2m/wakaama-master/core\liblwm2m.c **** 
 113:g:/iot/IoT_Device_Demo/iot_link/network/lwm2m/wakaama_lwm2m/wakaama-master/core\liblwm2m.c **** static lwm2m_event_handler_t event_handler = NULL;
 114:g:/iot/IoT_Device_Demo/iot_link/network/lwm2m/wakaama_lwm2m/wakaama-master/core\liblwm2m.c **** void lwm2m_register_event_handler(lwm2m_event_handler_t callback)
 115:g:/iot/IoT_Device_Demo/iot_link/network/lwm2m/wakaama_lwm2m/wakaama-master/core\liblwm2m.c **** {
 143              		.loc 1 115 1
 144              		.cfi_startproc
 145              		@ args = 0, pretend = 0, frame = 8
 146              		@ frame_needed = 1, uses_anonymous_args = 0
 147              		@ link register save eliminated.
 148 0000 80B4     		push	{r7}
 149              	.LCFI5:
 150              		.cfi_def_cfa_offset 4
 151              		.cfi_offset 7, -4
 152 0002 83B0     		sub	sp, sp, #12
 153              	.LCFI6:
 154              		.cfi_def_cfa_offset 16
 155 0004 00AF     		add	r7, sp, #0
 156              	.LCFI7:
 157              		.cfi_def_cfa_register 7
 158 0006 7860     		str	r0, [r7, #4]
 116:g:/iot/IoT_Device_Demo/iot_link/network/lwm2m/wakaama_lwm2m/wakaama-master/core\liblwm2m.c ****     event_handler = callback;
 159              		.loc 1 116 19
 160 0008 044A     		ldr	r2, .L8
 161 000a 7B68     		ldr	r3, [r7, #4]
 162 000c 1360     		str	r3, [r2]
 117:g:/iot/IoT_Device_Demo/iot_link/network/lwm2m/wakaama_lwm2m/wakaama-master/core\liblwm2m.c **** }
 163              		.loc 1 117 1
 164 000e 00BF     		nop
 165 0010 0C37     		adds	r7, r7, #12
 166              	.LCFI8:
 167              		.cfi_def_cfa_offset 4
 168 0012 BD46     		mov	sp, r7
 169              	.LCFI9:
ARM GAS  C:\Users\ADMINI~1\AppData\Local\Temp\ccoKNcyf.s 			page 6


 170              		.cfi_def_cfa_register 13
 171              		@ sp needed
 172 0014 5DF8047B 		ldr	r7, [sp], #4
 173              	.LCFI10:
 174              		.cfi_restore 7
 175              		.cfi_def_cfa_offset 0
 176 0018 7047     		bx	lr
 177              	.L9:
 178 001a 00BF     		.align	2
 179              	.L8:
 180 001c 00000000 		.word	event_handler
 181              		.cfi_endproc
 182              	.LFE5:
 184              		.section	.text.lwm2m_notify_even,"ax",%progbits
 185              		.align	1
 186              		.global	lwm2m_notify_even
 187              		.syntax unified
 188              		.thumb
 189              		.thumb_func
 190              		.fpu fpv4-sp-d16
 192              	lwm2m_notify_even:
 193              	.LFB6:
 118:g:/iot/IoT_Device_Demo/iot_link/network/lwm2m/wakaama_lwm2m/wakaama-master/core\liblwm2m.c **** 
 119:g:/iot/IoT_Device_Demo/iot_link/network/lwm2m/wakaama_lwm2m/wakaama-master/core\liblwm2m.c **** void lwm2m_notify_even(module_type_t type, int code, const char *arg, int arg_len)
 120:g:/iot/IoT_Device_Demo/iot_link/network/lwm2m/wakaama_lwm2m/wakaama-master/core\liblwm2m.c **** {
 194              		.loc 1 120 1
 195              		.cfi_startproc
 196              		@ args = 0, pretend = 0, frame = 16
 197              		@ frame_needed = 1, uses_anonymous_args = 0
 198 0000 90B5     		push	{r4, r7, lr}
 199              	.LCFI11:
 200              		.cfi_def_cfa_offset 12
 201              		.cfi_offset 4, -12
 202              		.cfi_offset 7, -8
 203              		.cfi_offset 14, -4
 204 0002 85B0     		sub	sp, sp, #20
 205              	.LCFI12:
 206              		.cfi_def_cfa_offset 32
 207 0004 00AF     		add	r7, sp, #0
 208              	.LCFI13:
 209              		.cfi_def_cfa_register 7
 210 0006 B960     		str	r1, [r7, #8]
 211 0008 7A60     		str	r2, [r7, #4]
 212 000a 3B60     		str	r3, [r7]
 213 000c 0346     		mov	r3, r0
 214 000e FB73     		strb	r3, [r7, #15]
 121:g:/iot/IoT_Device_Demo/iot_link/network/lwm2m/wakaama_lwm2m/wakaama-master/core\liblwm2m.c ****     if(event_handler != NULL)
 215              		.loc 1 121 22
 216 0010 074B     		ldr	r3, .L13
 217 0012 1B68     		ldr	r3, [r3]
 218              		.loc 1 121 7
 219 0014 002B     		cmp	r3, #0
 220 0016 06D0     		beq	.L12
 122:g:/iot/IoT_Device_Demo/iot_link/network/lwm2m/wakaama_lwm2m/wakaama-master/core\liblwm2m.c ****     {
 123:g:/iot/IoT_Device_Demo/iot_link/network/lwm2m/wakaama_lwm2m/wakaama-master/core\liblwm2m.c ****         event_handler(type, code, arg, arg_len);
 221              		.loc 1 123 9
 222 0018 054B     		ldr	r3, .L13
ARM GAS  C:\Users\ADMINI~1\AppData\Local\Temp\ccoKNcyf.s 			page 7


 223 001a 1C68     		ldr	r4, [r3]
 224 001c F87B     		ldrb	r0, [r7, #15]	@ zero_extendqisi2
 225 001e 3B68     		ldr	r3, [r7]
 226 0020 7A68     		ldr	r2, [r7, #4]
 227 0022 B968     		ldr	r1, [r7, #8]
 228 0024 A047     		blx	r4
 229              	.LVL0:
 230              	.L12:
 124:g:/iot/IoT_Device_Demo/iot_link/network/lwm2m/wakaama_lwm2m/wakaama-master/core\liblwm2m.c ****     }
 125:g:/iot/IoT_Device_Demo/iot_link/network/lwm2m/wakaama_lwm2m/wakaama-master/core\liblwm2m.c **** }
 231              		.loc 1 125 1
 232 0026 00BF     		nop
 233 0028 1437     		adds	r7, r7, #20
 234              	.LCFI14:
 235              		.cfi_def_cfa_offset 12
 236 002a BD46     		mov	sp, r7
 237              	.LCFI15:
 238              		.cfi_def_cfa_register 13
 239              		@ sp needed
 240 002c 90BD     		pop	{r4, r7, pc}
 241              	.L14:
 242 002e 00BF     		.align	2
 243              	.L13:
 244 0030 00000000 		.word	event_handler
 245              		.cfi_endproc
 246              	.LFE6:
 248              		.section	.text.lwm2m_deregister,"ax",%progbits
 249              		.align	1
 250              		.global	lwm2m_deregister
 251              		.syntax unified
 252              		.thumb
 253              		.thumb_func
 254              		.fpu fpv4-sp-d16
 256              	lwm2m_deregister:
 257              	.LFB7:
 126:g:/iot/IoT_Device_Demo/iot_link/network/lwm2m/wakaama_lwm2m/wakaama-master/core\liblwm2m.c **** 
 127:g:/iot/IoT_Device_Demo/iot_link/network/lwm2m/wakaama_lwm2m/wakaama-master/core\liblwm2m.c **** void lwm2m_deregister(lwm2m_context_t *context)
 128:g:/iot/IoT_Device_Demo/iot_link/network/lwm2m/wakaama_lwm2m/wakaama-master/core\liblwm2m.c **** {
 258              		.loc 1 128 1
 259              		.cfi_startproc
 260              		@ args = 0, pretend = 0, frame = 16
 261              		@ frame_needed = 1, uses_anonymous_args = 0
 262 0000 B0B5     		push	{r4, r5, r7, lr}
 263              	.LCFI16:
 264              		.cfi_def_cfa_offset 16
 265              		.cfi_offset 4, -16
 266              		.cfi_offset 5, -12
 267              		.cfi_offset 7, -8
 268              		.cfi_offset 14, -4
 269 0002 88B0     		sub	sp, sp, #32
 270              	.LCFI17:
 271              		.cfi_def_cfa_offset 48
 272 0004 04AF     		add	r7, sp, #16
 273              	.LCFI18:
 274              		.cfi_def_cfa 7, 32
 275 0006 7860     		str	r0, [r7, #4]
 129:g:/iot/IoT_Device_Demo/iot_link/network/lwm2m/wakaama_lwm2m/wakaama-master/core\liblwm2m.c ****     lwm2m_server_t *server = context->serverList;
ARM GAS  C:\Users\ADMINI~1\AppData\Local\Temp\ccoKNcyf.s 			page 8


 276              		.loc 1 129 21
 277 0008 7B68     		ldr	r3, [r7, #4]
 278 000a 5B69     		ldr	r3, [r3, #20]
 279 000c FB60     		str	r3, [r7, #12]
 130:g:/iot/IoT_Device_Demo/iot_link/network/lwm2m/wakaama_lwm2m/wakaama-master/core\liblwm2m.c **** 
 131:g:/iot/IoT_Device_Demo/iot_link/network/lwm2m/wakaama_lwm2m/wakaama-master/core\liblwm2m.c ****     LOG("Entering");
 280              		.loc 1 131 5
 281 000e FFF7FEFF 		bl	link_log_level_get
 282 0012 0346     		mov	r3, r0
 283 0014 012B     		cmp	r3, #1
 284 0016 21D8     		bhi	.L17
 285              		.loc 1 131 5 is_stmt 0 discriminator 1
 286 0018 0120     		movs	r0, #1
 287 001a FFF7FEFF 		bl	link_log_level_name
 288 001e 0446     		mov	r4, r0
 289 0020 FFF7FEFF 		bl	osal_sys_time
 290 0024 0246     		mov	r2, r0
 291 0026 0B46     		mov	r3, r1
 292 0028 1546     		mov	r5, r2
 293 002a FFF7FEFF 		bl	lwm2m_gettime
 294 002e 0246     		mov	r2, r0
 295 0030 0B46     		mov	r3, r1
 296 0032 8323     		movs	r3, #131
 297 0034 0393     		str	r3, [sp, #12]
 298 0036 0D4B     		ldr	r3, .L19
 299 0038 0293     		str	r3, [sp, #8]
 300 003a 0192     		str	r2, [sp, #4]
 301 003c 8323     		movs	r3, #131
 302 003e 0093     		str	r3, [sp]
 303 0040 0B4B     		ldr	r3, .L19+4
 304 0042 2A46     		mov	r2, r5
 305 0044 2146     		mov	r1, r4
 306 0046 0B48     		ldr	r0, .L19+8
 307 0048 FFF7FEFF 		bl	printf
 132:g:/iot/IoT_Device_Demo/iot_link/network/lwm2m/wakaama_lwm2m/wakaama-master/core\liblwm2m.c ****     while (NULL != server)
 308              		.loc 1 132 11 is_stmt 1 discriminator 1
 309 004c 06E0     		b	.L17
 310              	.L18:
 133:g:/iot/IoT_Device_Demo/iot_link/network/lwm2m/wakaama_lwm2m/wakaama-master/core\liblwm2m.c ****     {
 134:g:/iot/IoT_Device_Demo/iot_link/network/lwm2m/wakaama_lwm2m/wakaama-master/core\liblwm2m.c ****         registration_deregister(context, server);
 311              		.loc 1 134 9
 312 004e F968     		ldr	r1, [r7, #12]
 313 0050 7868     		ldr	r0, [r7, #4]
 314 0052 FFF7FEFF 		bl	registration_deregister
 135:g:/iot/IoT_Device_Demo/iot_link/network/lwm2m/wakaama_lwm2m/wakaama-master/core\liblwm2m.c ****         server = server->next;
 315              		.loc 1 135 16
 316 0056 FB68     		ldr	r3, [r7, #12]
 317 0058 1B68     		ldr	r3, [r3]
 318 005a FB60     		str	r3, [r7, #12]
 319              	.L17:
 132:g:/iot/IoT_Device_Demo/iot_link/network/lwm2m/wakaama_lwm2m/wakaama-master/core\liblwm2m.c ****     while (NULL != server)
 320              		.loc 1 132 11
 321 005c FB68     		ldr	r3, [r7, #12]
 322 005e 002B     		cmp	r3, #0
 323 0060 F5D1     		bne	.L18
 136:g:/iot/IoT_Device_Demo/iot_link/network/lwm2m/wakaama_lwm2m/wakaama-master/core\liblwm2m.c ****     }
 137:g:/iot/IoT_Device_Demo/iot_link/network/lwm2m/wakaama_lwm2m/wakaama-master/core\liblwm2m.c **** }
ARM GAS  C:\Users\ADMINI~1\AppData\Local\Temp\ccoKNcyf.s 			page 9


 324              		.loc 1 137 1
 325 0062 00BF     		nop
 326 0064 00BF     		nop
 327 0066 1037     		adds	r7, r7, #16
 328              	.LCFI19:
 329              		.cfi_def_cfa_offset 16
 330 0068 BD46     		mov	sp, r7
 331              	.LCFI20:
 332              		.cfi_def_cfa_register 13
 333              		@ sp needed
 334 006a B0BD     		pop	{r4, r5, r7, pc}
 335              	.L20:
 336              		.align	2
 337              	.L19:
 338 006c 00000000 		.word	__func__.8646
 339 0070 00000000 		.word	__FUNCTION__.8645
 340 0074 00000000 		.word	.LC0
 341              		.cfi_endproc
 342              	.LFE7:
 344              		.section	.text.prv_deleteServer,"ax",%progbits
 345              		.align	1
 346              		.syntax unified
 347              		.thumb
 348              		.thumb_func
 349              		.fpu fpv4-sp-d16
 351              	prv_deleteServer:
 352              	.LFB8:
 138:g:/iot/IoT_Device_Demo/iot_link/network/lwm2m/wakaama_lwm2m/wakaama-master/core\liblwm2m.c **** 
 139:g:/iot/IoT_Device_Demo/iot_link/network/lwm2m/wakaama_lwm2m/wakaama-master/core\liblwm2m.c **** static void prv_deleteServer(lwm2m_server_t *serverP, void *userData)
 140:g:/iot/IoT_Device_Demo/iot_link/network/lwm2m/wakaama_lwm2m/wakaama-master/core\liblwm2m.c **** {
 353              		.loc 1 140 1
 354              		.cfi_startproc
 355              		@ args = 0, pretend = 0, frame = 8
 356              		@ frame_needed = 1, uses_anonymous_args = 0
 357 0000 80B5     		push	{r7, lr}
 358              	.LCFI21:
 359              		.cfi_def_cfa_offset 8
 360              		.cfi_offset 7, -8
 361              		.cfi_offset 14, -4
 362 0002 82B0     		sub	sp, sp, #8
 363              	.LCFI22:
 364              		.cfi_def_cfa_offset 16
 365 0004 00AF     		add	r7, sp, #0
 366              	.LCFI23:
 367              		.cfi_def_cfa_register 7
 368 0006 7860     		str	r0, [r7, #4]
 369 0008 3960     		str	r1, [r7]
 141:g:/iot/IoT_Device_Demo/iot_link/network/lwm2m/wakaama_lwm2m/wakaama-master/core\liblwm2m.c ****     // TODO parse transaction and observation to remove the ones related to this server
 142:g:/iot/IoT_Device_Demo/iot_link/network/lwm2m/wakaama_lwm2m/wakaama-master/core\liblwm2m.c ****     if (serverP->sessionH != NULL)
 370              		.loc 1 142 16
 371 000a 7B68     		ldr	r3, [r7, #4]
 372 000c DB69     		ldr	r3, [r3, #28]
 373              		.loc 1 142 8
 374 000e 002B     		cmp	r3, #0
 375 0010 05D0     		beq	.L22
 143:g:/iot/IoT_Device_Demo/iot_link/network/lwm2m/wakaama_lwm2m/wakaama-master/core\liblwm2m.c ****     {
 144:g:/iot/IoT_Device_Demo/iot_link/network/lwm2m/wakaama_lwm2m/wakaama-master/core\liblwm2m.c ****         lwm2m_close_connection(serverP->sessionH, userData);
ARM GAS  C:\Users\ADMINI~1\AppData\Local\Temp\ccoKNcyf.s 			page 10


 376              		.loc 1 144 9
 377 0012 7B68     		ldr	r3, [r7, #4]
 378 0014 DB69     		ldr	r3, [r3, #28]
 379 0016 3968     		ldr	r1, [r7]
 380 0018 1846     		mov	r0, r3
 381 001a FFF7FEFF 		bl	lwm2m_close_connection
 382              	.L22:
 145:g:/iot/IoT_Device_Demo/iot_link/network/lwm2m/wakaama_lwm2m/wakaama-master/core\liblwm2m.c ****     }
 146:g:/iot/IoT_Device_Demo/iot_link/network/lwm2m/wakaama_lwm2m/wakaama-master/core\liblwm2m.c ****     if (NULL != serverP->location)
 383              		.loc 1 146 24
 384 001e 7B68     		ldr	r3, [r7, #4]
 385 0020 5B6A     		ldr	r3, [r3, #36]
 386              		.loc 1 146 8
 387 0022 002B     		cmp	r3, #0
 388 0024 04D0     		beq	.L23
 147:g:/iot/IoT_Device_Demo/iot_link/network/lwm2m/wakaama_lwm2m/wakaama-master/core\liblwm2m.c ****     {
 148:g:/iot/IoT_Device_Demo/iot_link/network/lwm2m/wakaama_lwm2m/wakaama-master/core\liblwm2m.c ****         lwm2m_free(serverP->location);
 389              		.loc 1 148 27
 390 0026 7B68     		ldr	r3, [r7, #4]
 391 0028 5B6A     		ldr	r3, [r3, #36]
 392              		.loc 1 148 9
 393 002a 1846     		mov	r0, r3
 394 002c FFF7FEFF 		bl	lwm2m_free
 395              	.L23:
 149:g:/iot/IoT_Device_Demo/iot_link/network/lwm2m/wakaama_lwm2m/wakaama-master/core\liblwm2m.c ****     }
 150:g:/iot/IoT_Device_Demo/iot_link/network/lwm2m/wakaama_lwm2m/wakaama-master/core\liblwm2m.c ****     free_block1_buffer(serverP->block1Data);
 396              		.loc 1 150 5
 397 0030 7B68     		ldr	r3, [r7, #4]
 398 0032 DB6A     		ldr	r3, [r3, #44]
 399 0034 1846     		mov	r0, r3
 400 0036 FFF7FEFF 		bl	free_block1_buffer
 151:g:/iot/IoT_Device_Demo/iot_link/network/lwm2m/wakaama_lwm2m/wakaama-master/core\liblwm2m.c ****     lwm2m_free(serverP);
 401              		.loc 1 151 5
 402 003a 7868     		ldr	r0, [r7, #4]
 403 003c FFF7FEFF 		bl	lwm2m_free
 152:g:/iot/IoT_Device_Demo/iot_link/network/lwm2m/wakaama_lwm2m/wakaama-master/core\liblwm2m.c **** }
 404              		.loc 1 152 1
 405 0040 00BF     		nop
 406 0042 0837     		adds	r7, r7, #8
 407              	.LCFI24:
 408              		.cfi_def_cfa_offset 8
 409 0044 BD46     		mov	sp, r7
 410              	.LCFI25:
 411              		.cfi_def_cfa_register 13
 412              		@ sp needed
 413 0046 80BD     		pop	{r7, pc}
 414              		.cfi_endproc
 415              	.LFE8:
 417              		.section	.text.prv_deleteServerList,"ax",%progbits
 418              		.align	1
 419              		.syntax unified
 420              		.thumb
 421              		.thumb_func
 422              		.fpu fpv4-sp-d16
 424              	prv_deleteServerList:
 425              	.LFB9:
 153:g:/iot/IoT_Device_Demo/iot_link/network/lwm2m/wakaama_lwm2m/wakaama-master/core\liblwm2m.c **** 
ARM GAS  C:\Users\ADMINI~1\AppData\Local\Temp\ccoKNcyf.s 			page 11


 154:g:/iot/IoT_Device_Demo/iot_link/network/lwm2m/wakaama_lwm2m/wakaama-master/core\liblwm2m.c **** static void prv_deleteServerList(lwm2m_context_t *context)
 155:g:/iot/IoT_Device_Demo/iot_link/network/lwm2m/wakaama_lwm2m/wakaama-master/core\liblwm2m.c **** {
 426              		.loc 1 155 1
 427              		.cfi_startproc
 428              		@ args = 0, pretend = 0, frame = 16
 429              		@ frame_needed = 1, uses_anonymous_args = 0
 430 0000 80B5     		push	{r7, lr}
 431              	.LCFI26:
 432              		.cfi_def_cfa_offset 8
 433              		.cfi_offset 7, -8
 434              		.cfi_offset 14, -4
 435 0002 84B0     		sub	sp, sp, #16
 436              	.LCFI27:
 437              		.cfi_def_cfa_offset 24
 438 0004 00AF     		add	r7, sp, #0
 439              	.LCFI28:
 440              		.cfi_def_cfa_register 7
 441 0006 7860     		str	r0, [r7, #4]
 156:g:/iot/IoT_Device_Demo/iot_link/network/lwm2m/wakaama_lwm2m/wakaama-master/core\liblwm2m.c ****     while (NULL != context->serverList)
 442              		.loc 1 156 11
 443 0008 0CE0     		b	.L25
 444              	.L26:
 445              	.LBB2:
 157:g:/iot/IoT_Device_Demo/iot_link/network/lwm2m/wakaama_lwm2m/wakaama-master/core\liblwm2m.c ****     {
 158:g:/iot/IoT_Device_Demo/iot_link/network/lwm2m/wakaama_lwm2m/wakaama-master/core\liblwm2m.c ****         lwm2m_server_t *server;
 159:g:/iot/IoT_Device_Demo/iot_link/network/lwm2m/wakaama_lwm2m/wakaama-master/core\liblwm2m.c ****         server = context->serverList;
 446              		.loc 1 159 16
 447 000a 7B68     		ldr	r3, [r7, #4]
 448 000c 5B69     		ldr	r3, [r3, #20]
 449 000e FB60     		str	r3, [r7, #12]
 160:g:/iot/IoT_Device_Demo/iot_link/network/lwm2m/wakaama_lwm2m/wakaama-master/core\liblwm2m.c ****         context->serverList = server->next;
 450              		.loc 1 160 37
 451 0010 FB68     		ldr	r3, [r7, #12]
 452 0012 1A68     		ldr	r2, [r3]
 453              		.loc 1 160 29
 454 0014 7B68     		ldr	r3, [r7, #4]
 455 0016 5A61     		str	r2, [r3, #20]
 161:g:/iot/IoT_Device_Demo/iot_link/network/lwm2m/wakaama_lwm2m/wakaama-master/core\liblwm2m.c ****         prv_deleteServer(server, context->userData);
 456              		.loc 1 161 9
 457 0018 7B68     		ldr	r3, [r7, #4]
 458 001a 5B6B     		ldr	r3, [r3, #52]
 459 001c 1946     		mov	r1, r3
 460 001e F868     		ldr	r0, [r7, #12]
 461 0020 FFF7FEFF 		bl	prv_deleteServer
 462              	.L25:
 463              	.LBE2:
 156:g:/iot/IoT_Device_Demo/iot_link/network/lwm2m/wakaama_lwm2m/wakaama-master/core\liblwm2m.c ****     {
 464              		.loc 1 156 27
 465 0024 7B68     		ldr	r3, [r7, #4]
 466 0026 5B69     		ldr	r3, [r3, #20]
 156:g:/iot/IoT_Device_Demo/iot_link/network/lwm2m/wakaama_lwm2m/wakaama-master/core\liblwm2m.c ****     {
 467              		.loc 1 156 11
 468 0028 002B     		cmp	r3, #0
 469 002a EED1     		bne	.L26
 162:g:/iot/IoT_Device_Demo/iot_link/network/lwm2m/wakaama_lwm2m/wakaama-master/core\liblwm2m.c ****     }
 163:g:/iot/IoT_Device_Demo/iot_link/network/lwm2m/wakaama_lwm2m/wakaama-master/core\liblwm2m.c **** }
 470              		.loc 1 163 1
ARM GAS  C:\Users\ADMINI~1\AppData\Local\Temp\ccoKNcyf.s 			page 12


 471 002c 00BF     		nop
 472 002e 00BF     		nop
 473 0030 1037     		adds	r7, r7, #16
 474              	.LCFI29:
 475              		.cfi_def_cfa_offset 8
 476 0032 BD46     		mov	sp, r7
 477              	.LCFI30:
 478              		.cfi_def_cfa_register 13
 479              		@ sp needed
 480 0034 80BD     		pop	{r7, pc}
 481              		.cfi_endproc
 482              	.LFE9:
 484              		.section	.text.prv_deleteObservedList,"ax",%progbits
 485              		.align	1
 486              		.syntax unified
 487              		.thumb
 488              		.thumb_func
 489              		.fpu fpv4-sp-d16
 491              	prv_deleteObservedList:
 492              	.LFB10:
 164:g:/iot/IoT_Device_Demo/iot_link/network/lwm2m/wakaama_lwm2m/wakaama-master/core\liblwm2m.c **** 
 165:g:/iot/IoT_Device_Demo/iot_link/network/lwm2m/wakaama_lwm2m/wakaama-master/core\liblwm2m.c **** #ifdef LWM2M_BOOTSTRAP
 166:g:/iot/IoT_Device_Demo/iot_link/network/lwm2m/wakaama_lwm2m/wakaama-master/core\liblwm2m.c **** static void prv_deleteBootstrapServer(lwm2m_server_t *serverP, void *userData)
 167:g:/iot/IoT_Device_Demo/iot_link/network/lwm2m/wakaama_lwm2m/wakaama-master/core\liblwm2m.c **** {
 168:g:/iot/IoT_Device_Demo/iot_link/network/lwm2m/wakaama_lwm2m/wakaama-master/core\liblwm2m.c ****     // TODO should we free location as in prv_deleteServer ?
 169:g:/iot/IoT_Device_Demo/iot_link/network/lwm2m/wakaama_lwm2m/wakaama-master/core\liblwm2m.c ****     // TODO should we parse transaction and observation to remove the ones related to this server ?
 170:g:/iot/IoT_Device_Demo/iot_link/network/lwm2m/wakaama_lwm2m/wakaama-master/core\liblwm2m.c ****     if (serverP->sessionH != NULL)
 171:g:/iot/IoT_Device_Demo/iot_link/network/lwm2m/wakaama_lwm2m/wakaama-master/core\liblwm2m.c ****     {
 172:g:/iot/IoT_Device_Demo/iot_link/network/lwm2m/wakaama_lwm2m/wakaama-master/core\liblwm2m.c ****         lwm2m_close_connection(serverP->sessionH, userData);
 173:g:/iot/IoT_Device_Demo/iot_link/network/lwm2m/wakaama_lwm2m/wakaama-master/core\liblwm2m.c ****     }
 174:g:/iot/IoT_Device_Demo/iot_link/network/lwm2m/wakaama_lwm2m/wakaama-master/core\liblwm2m.c ****     free_block1_buffer(serverP->block1Data);
 175:g:/iot/IoT_Device_Demo/iot_link/network/lwm2m/wakaama_lwm2m/wakaama-master/core\liblwm2m.c ****     lwm2m_free(serverP);
 176:g:/iot/IoT_Device_Demo/iot_link/network/lwm2m/wakaama_lwm2m/wakaama-master/core\liblwm2m.c **** }
 177:g:/iot/IoT_Device_Demo/iot_link/network/lwm2m/wakaama_lwm2m/wakaama-master/core\liblwm2m.c **** 
 178:g:/iot/IoT_Device_Demo/iot_link/network/lwm2m/wakaama_lwm2m/wakaama-master/core\liblwm2m.c **** static void prv_deleteBootstrapServerList(lwm2m_context_t *context)
 179:g:/iot/IoT_Device_Demo/iot_link/network/lwm2m/wakaama_lwm2m/wakaama-master/core\liblwm2m.c **** {
 180:g:/iot/IoT_Device_Demo/iot_link/network/lwm2m/wakaama_lwm2m/wakaama-master/core\liblwm2m.c ****     while (NULL != context->bootstrapServerList)
 181:g:/iot/IoT_Device_Demo/iot_link/network/lwm2m/wakaama_lwm2m/wakaama-master/core\liblwm2m.c ****     {
 182:g:/iot/IoT_Device_Demo/iot_link/network/lwm2m/wakaama_lwm2m/wakaama-master/core\liblwm2m.c ****         lwm2m_server_t *server;
 183:g:/iot/IoT_Device_Demo/iot_link/network/lwm2m/wakaama_lwm2m/wakaama-master/core\liblwm2m.c ****         server = context->bootstrapServerList;
 184:g:/iot/IoT_Device_Demo/iot_link/network/lwm2m/wakaama_lwm2m/wakaama-master/core\liblwm2m.c ****         context->bootstrapServerList = server->next;
 185:g:/iot/IoT_Device_Demo/iot_link/network/lwm2m/wakaama_lwm2m/wakaama-master/core\liblwm2m.c ****         lwm2m_stop_striger_server_initiated_bs(server->sessionH);
 186:g:/iot/IoT_Device_Demo/iot_link/network/lwm2m/wakaama_lwm2m/wakaama-master/core\liblwm2m.c ****         prv_deleteBootstrapServer(server, context->userData);
 187:g:/iot/IoT_Device_Demo/iot_link/network/lwm2m/wakaama_lwm2m/wakaama-master/core\liblwm2m.c ****     }
 188:g:/iot/IoT_Device_Demo/iot_link/network/lwm2m/wakaama_lwm2m/wakaama-master/core\liblwm2m.c **** }
 189:g:/iot/IoT_Device_Demo/iot_link/network/lwm2m/wakaama_lwm2m/wakaama-master/core\liblwm2m.c **** #endif
 190:g:/iot/IoT_Device_Demo/iot_link/network/lwm2m/wakaama_lwm2m/wakaama-master/core\liblwm2m.c **** 
 191:g:/iot/IoT_Device_Demo/iot_link/network/lwm2m/wakaama_lwm2m/wakaama-master/core\liblwm2m.c **** static void prv_deleteObservedList(lwm2m_context_t *contextP)
 192:g:/iot/IoT_Device_Demo/iot_link/network/lwm2m/wakaama_lwm2m/wakaama-master/core\liblwm2m.c **** {
 493              		.loc 1 192 1
 494              		.cfi_startproc
 495              		@ args = 0, pretend = 0, frame = 16
 496              		@ frame_needed = 1, uses_anonymous_args = 0
 497 0000 80B5     		push	{r7, lr}
 498              	.LCFI31:
 499              		.cfi_def_cfa_offset 8
 500              		.cfi_offset 7, -8
ARM GAS  C:\Users\ADMINI~1\AppData\Local\Temp\ccoKNcyf.s 			page 13


 501              		.cfi_offset 14, -4
 502 0002 84B0     		sub	sp, sp, #16
 503              	.LCFI32:
 504              		.cfi_def_cfa_offset 24
 505 0004 00AF     		add	r7, sp, #0
 506              	.LCFI33:
 507              		.cfi_def_cfa_register 7
 508 0006 7860     		str	r0, [r7, #4]
 193:g:/iot/IoT_Device_Demo/iot_link/network/lwm2m/wakaama_lwm2m/wakaama-master/core\liblwm2m.c ****     osal_mutex_lock(contextP->observe_mutex);
 509              		.loc 1 193 5
 510 0008 7B68     		ldr	r3, [r7, #4]
 511 000a 1B6A     		ldr	r3, [r3, #32]
 512 000c 1846     		mov	r0, r3
 513 000e FFF7FEFF 		bl	osal_mutex_lock
 194:g:/iot/IoT_Device_Demo/iot_link/network/lwm2m/wakaama_lwm2m/wakaama-master/core\liblwm2m.c ****     while (NULL != contextP->observedList)
 514              		.loc 1 194 11
 515 0012 29E0     		b	.L28
 516              	.L32:
 517              	.LBB3:
 195:g:/iot/IoT_Device_Demo/iot_link/network/lwm2m/wakaama_lwm2m/wakaama-master/core\liblwm2m.c ****     {
 196:g:/iot/IoT_Device_Demo/iot_link/network/lwm2m/wakaama_lwm2m/wakaama-master/core\liblwm2m.c ****         lwm2m_observed_t *targetP;
 197:g:/iot/IoT_Device_Demo/iot_link/network/lwm2m/wakaama_lwm2m/wakaama-master/core\liblwm2m.c ****         lwm2m_watcher_t *watcherP;
 198:g:/iot/IoT_Device_Demo/iot_link/network/lwm2m/wakaama_lwm2m/wakaama-master/core\liblwm2m.c **** 
 199:g:/iot/IoT_Device_Demo/iot_link/network/lwm2m/wakaama_lwm2m/wakaama-master/core\liblwm2m.c ****         targetP = contextP->observedList;
 518              		.loc 1 199 17
 519 0014 7B68     		ldr	r3, [r7, #4]
 520 0016 DB69     		ldr	r3, [r3, #28]
 521 0018 BB60     		str	r3, [r7, #8]
 200:g:/iot/IoT_Device_Demo/iot_link/network/lwm2m/wakaama_lwm2m/wakaama-master/core\liblwm2m.c ****         contextP->observedList = contextP->observedList->next;
 522              		.loc 1 200 42
 523 001a 7B68     		ldr	r3, [r7, #4]
 524 001c DB69     		ldr	r3, [r3, #28]
 525              		.loc 1 200 56
 526 001e 1A68     		ldr	r2, [r3]
 527              		.loc 1 200 32
 528 0020 7B68     		ldr	r3, [r7, #4]
 529 0022 DA61     		str	r2, [r3, #28]
 201:g:/iot/IoT_Device_Demo/iot_link/network/lwm2m/wakaama_lwm2m/wakaama-master/core\liblwm2m.c **** 
 202:g:/iot/IoT_Device_Demo/iot_link/network/lwm2m/wakaama_lwm2m/wakaama-master/core\liblwm2m.c ****         lwm2m_notify_even(MODULE_URI, OBSERVE_UNSUBSCRIBE, (char *) & (targetP->uri), sizeof(target
 530              		.loc 1 202 69
 531 0024 BB68     		ldr	r3, [r7, #8]
 532 0026 1A1D     		adds	r2, r3, #4
 533              		.loc 1 202 9
 534 0028 0823     		movs	r3, #8
 535 002a 0021     		movs	r1, #0
 536 002c 0220     		movs	r0, #2
 537 002e FFF7FEFF 		bl	lwm2m_notify_even
 203:g:/iot/IoT_Device_Demo/iot_link/network/lwm2m/wakaama_lwm2m/wakaama-master/core\liblwm2m.c **** 
 204:g:/iot/IoT_Device_Demo/iot_link/network/lwm2m/wakaama_lwm2m/wakaama-master/core\liblwm2m.c ****         for (watcherP = targetP->watcherList ; watcherP != NULL ; watcherP = watcherP->next)
 538              		.loc 1 204 23
 539 0032 BB68     		ldr	r3, [r7, #8]
 540 0034 DB68     		ldr	r3, [r3, #12]
 541 0036 FB60     		str	r3, [r7, #12]
 542              		.loc 1 204 9
 543 0038 0BE0     		b	.L29
 544              	.L31:
 205:g:/iot/IoT_Device_Demo/iot_link/network/lwm2m/wakaama_lwm2m/wakaama-master/core\liblwm2m.c ****         {
ARM GAS  C:\Users\ADMINI~1\AppData\Local\Temp\ccoKNcyf.s 			page 14


 206:g:/iot/IoT_Device_Demo/iot_link/network/lwm2m/wakaama_lwm2m/wakaama-master/core\liblwm2m.c ****             if (watcherP->parameters != NULL) lwm2m_free(watcherP->parameters);
 545              		.loc 1 206 25
 546 003a FB68     		ldr	r3, [r7, #12]
 547 003c DB68     		ldr	r3, [r3, #12]
 548              		.loc 1 206 16
 549 003e 002B     		cmp	r3, #0
 550 0040 04D0     		beq	.L30
 551              		.loc 1 206 66 discriminator 1
 552 0042 FB68     		ldr	r3, [r7, #12]
 553 0044 DB68     		ldr	r3, [r3, #12]
 554              		.loc 1 206 47 discriminator 1
 555 0046 1846     		mov	r0, r3
 556 0048 FFF7FEFF 		bl	lwm2m_free
 557              	.L30:
 204:g:/iot/IoT_Device_Demo/iot_link/network/lwm2m/wakaama_lwm2m/wakaama-master/core\liblwm2m.c ****         {
 558              		.loc 1 204 76 discriminator 2
 559 004c FB68     		ldr	r3, [r7, #12]
 560 004e 1B68     		ldr	r3, [r3]
 561 0050 FB60     		str	r3, [r7, #12]
 562              	.L29:
 204:g:/iot/IoT_Device_Demo/iot_link/network/lwm2m/wakaama_lwm2m/wakaama-master/core\liblwm2m.c ****         {
 563              		.loc 1 204 9 discriminator 1
 564 0052 FB68     		ldr	r3, [r7, #12]
 565 0054 002B     		cmp	r3, #0
 566 0056 F0D1     		bne	.L31
 207:g:/iot/IoT_Device_Demo/iot_link/network/lwm2m/wakaama_lwm2m/wakaama-master/core\liblwm2m.c ****         }
 208:g:/iot/IoT_Device_Demo/iot_link/network/lwm2m/wakaama_lwm2m/wakaama-master/core\liblwm2m.c ****         LWM2M_LIST_FREE(targetP->watcherList);
 567              		.loc 1 208 9
 568 0058 BB68     		ldr	r3, [r7, #8]
 569 005a DB68     		ldr	r3, [r3, #12]
 570 005c 1846     		mov	r0, r3
 571 005e FFF7FEFF 		bl	lwm2m_list_free
 209:g:/iot/IoT_Device_Demo/iot_link/network/lwm2m/wakaama_lwm2m/wakaama-master/core\liblwm2m.c **** 
 210:g:/iot/IoT_Device_Demo/iot_link/network/lwm2m/wakaama_lwm2m/wakaama-master/core\liblwm2m.c ****         lwm2m_free(targetP);
 572              		.loc 1 210 9
 573 0062 B868     		ldr	r0, [r7, #8]
 574 0064 FFF7FEFF 		bl	lwm2m_free
 575              	.L28:
 576              	.LBE3:
 194:g:/iot/IoT_Device_Demo/iot_link/network/lwm2m/wakaama_lwm2m/wakaama-master/core\liblwm2m.c ****     {
 577              		.loc 1 194 28
 578 0068 7B68     		ldr	r3, [r7, #4]
 579 006a DB69     		ldr	r3, [r3, #28]
 194:g:/iot/IoT_Device_Demo/iot_link/network/lwm2m/wakaama_lwm2m/wakaama-master/core\liblwm2m.c ****     {
 580              		.loc 1 194 11
 581 006c 002B     		cmp	r3, #0
 582 006e D1D1     		bne	.L32
 211:g:/iot/IoT_Device_Demo/iot_link/network/lwm2m/wakaama_lwm2m/wakaama-master/core\liblwm2m.c ****     }
 212:g:/iot/IoT_Device_Demo/iot_link/network/lwm2m/wakaama_lwm2m/wakaama-master/core\liblwm2m.c ****     (void) osal_mutex_unlock(contextP->observe_mutex);
 583              		.loc 1 212 12
 584 0070 7B68     		ldr	r3, [r7, #4]
 585 0072 1B6A     		ldr	r3, [r3, #32]
 586 0074 1846     		mov	r0, r3
 587 0076 FFF7FEFF 		bl	osal_mutex_unlock
 213:g:/iot/IoT_Device_Demo/iot_link/network/lwm2m/wakaama_lwm2m/wakaama-master/core\liblwm2m.c **** }
 588              		.loc 1 213 1
 589 007a 00BF     		nop
ARM GAS  C:\Users\ADMINI~1\AppData\Local\Temp\ccoKNcyf.s 			page 15


 590 007c 1037     		adds	r7, r7, #16
 591              	.LCFI34:
 592              		.cfi_def_cfa_offset 8
 593 007e BD46     		mov	sp, r7
 594              	.LCFI35:
 595              		.cfi_def_cfa_register 13
 596              		@ sp needed
 597 0080 80BD     		pop	{r7, pc}
 598              		.cfi_endproc
 599              	.LFE10:
 601              		.section	.text.prv_deleteTransactionList,"ax",%progbits
 602              		.align	1
 603              		.global	prv_deleteTransactionList
 604              		.syntax unified
 605              		.thumb
 606              		.thumb_func
 607              		.fpu fpv4-sp-d16
 609              	prv_deleteTransactionList:
 610              	.LFB11:
 214:g:/iot/IoT_Device_Demo/iot_link/network/lwm2m/wakaama_lwm2m/wakaama-master/core\liblwm2m.c **** #endif
 215:g:/iot/IoT_Device_Demo/iot_link/network/lwm2m/wakaama_lwm2m/wakaama-master/core\liblwm2m.c **** 
 216:g:/iot/IoT_Device_Demo/iot_link/network/lwm2m/wakaama_lwm2m/wakaama-master/core\liblwm2m.c **** void prv_deleteTransactionList(lwm2m_context_t *context)
 217:g:/iot/IoT_Device_Demo/iot_link/network/lwm2m/wakaama_lwm2m/wakaama-master/core\liblwm2m.c **** {
 611              		.loc 1 217 1
 612              		.cfi_startproc
 613              		@ args = 0, pretend = 0, frame = 16
 614              		@ frame_needed = 1, uses_anonymous_args = 0
 615 0000 80B5     		push	{r7, lr}
 616              	.LCFI36:
 617              		.cfi_def_cfa_offset 8
 618              		.cfi_offset 7, -8
 619              		.cfi_offset 14, -4
 620 0002 84B0     		sub	sp, sp, #16
 621              	.LCFI37:
 622              		.cfi_def_cfa_offset 24
 623 0004 00AF     		add	r7, sp, #0
 624              	.LCFI38:
 625              		.cfi_def_cfa_register 7
 626 0006 7860     		str	r0, [r7, #4]
 218:g:/iot/IoT_Device_Demo/iot_link/network/lwm2m/wakaama_lwm2m/wakaama-master/core\liblwm2m.c ****     while (NULL != context->transactionList)
 627              		.loc 1 218 11
 628 0008 13E0     		b	.L34
 629              	.L36:
 630              	.LBB4:
 219:g:/iot/IoT_Device_Demo/iot_link/network/lwm2m/wakaama_lwm2m/wakaama-master/core\liblwm2m.c ****     {
 220:g:/iot/IoT_Device_Demo/iot_link/network/lwm2m/wakaama_lwm2m/wakaama-master/core\liblwm2m.c ****         lwm2m_transaction_t *transaction;
 221:g:/iot/IoT_Device_Demo/iot_link/network/lwm2m/wakaama_lwm2m/wakaama-master/core\liblwm2m.c **** 
 222:g:/iot/IoT_Device_Demo/iot_link/network/lwm2m/wakaama_lwm2m/wakaama-master/core\liblwm2m.c ****         transaction = context->transactionList;
 631              		.loc 1 222 21
 632 000a 7B68     		ldr	r3, [r7, #4]
 633 000c 1B6B     		ldr	r3, [r3, #48]
 634 000e FB60     		str	r3, [r7, #12]
 223:g:/iot/IoT_Device_Demo/iot_link/network/lwm2m/wakaama_lwm2m/wakaama-master/core\liblwm2m.c ****         context->transactionList = context->transactionList->next;
 635              		.loc 1 223 43
 636 0010 7B68     		ldr	r3, [r7, #4]
 637 0012 1B6B     		ldr	r3, [r3, #48]
 638              		.loc 1 223 60
ARM GAS  C:\Users\ADMINI~1\AppData\Local\Temp\ccoKNcyf.s 			page 16


 639 0014 1A68     		ldr	r2, [r3]
 640              		.loc 1 223 34
 641 0016 7B68     		ldr	r3, [r7, #4]
 642 0018 1A63     		str	r2, [r3, #48]
 224:g:/iot/IoT_Device_Demo/iot_link/network/lwm2m/wakaama_lwm2m/wakaama-master/core\liblwm2m.c ****         if (transaction->callback != NULL)
 643              		.loc 1 224 24
 644 001a FB68     		ldr	r3, [r7, #12]
 645 001c 1B6C     		ldr	r3, [r3, #64]
 646              		.loc 1 224 12
 647 001e 002B     		cmp	r3, #0
 648 0020 04D0     		beq	.L35
 225:g:/iot/IoT_Device_Demo/iot_link/network/lwm2m/wakaama_lwm2m/wakaama-master/core\liblwm2m.c ****         {
 226:g:/iot/IoT_Device_Demo/iot_link/network/lwm2m/wakaama_lwm2m/wakaama-master/core\liblwm2m.c ****             transaction->callback(transaction, NULL);
 649              		.loc 1 226 24
 650 0022 FB68     		ldr	r3, [r7, #12]
 651 0024 1B6C     		ldr	r3, [r3, #64]
 652              		.loc 1 226 13
 653 0026 0021     		movs	r1, #0
 654 0028 F868     		ldr	r0, [r7, #12]
 655 002a 9847     		blx	r3
 656              	.LVL1:
 657              	.L35:
 227:g:/iot/IoT_Device_Demo/iot_link/network/lwm2m/wakaama_lwm2m/wakaama-master/core\liblwm2m.c ****         }
 228:g:/iot/IoT_Device_Demo/iot_link/network/lwm2m/wakaama_lwm2m/wakaama-master/core\liblwm2m.c ****         transaction_free(transaction);
 658              		.loc 1 228 9
 659 002c F868     		ldr	r0, [r7, #12]
 660 002e FFF7FEFF 		bl	transaction_free
 661              	.L34:
 662              	.LBE4:
 218:g:/iot/IoT_Device_Demo/iot_link/network/lwm2m/wakaama_lwm2m/wakaama-master/core\liblwm2m.c ****     {
 663              		.loc 1 218 27
 664 0032 7B68     		ldr	r3, [r7, #4]
 665 0034 1B6B     		ldr	r3, [r3, #48]
 218:g:/iot/IoT_Device_Demo/iot_link/network/lwm2m/wakaama_lwm2m/wakaama-master/core\liblwm2m.c ****     {
 666              		.loc 1 218 11
 667 0036 002B     		cmp	r3, #0
 668 0038 E7D1     		bne	.L36
 229:g:/iot/IoT_Device_Demo/iot_link/network/lwm2m/wakaama_lwm2m/wakaama-master/core\liblwm2m.c ****     }
 230:g:/iot/IoT_Device_Demo/iot_link/network/lwm2m/wakaama_lwm2m/wakaama-master/core\liblwm2m.c **** }
 669              		.loc 1 230 1
 670 003a 00BF     		nop
 671 003c 00BF     		nop
 672 003e 1037     		adds	r7, r7, #16
 673              	.LCFI39:
 674              		.cfi_def_cfa_offset 8
 675 0040 BD46     		mov	sp, r7
 676              	.LCFI40:
 677              		.cfi_def_cfa_register 13
 678              		@ sp needed
 679 0042 80BD     		pop	{r7, pc}
 680              		.cfi_endproc
 681              	.LFE11:
 683              		.section	.text.lwm2m_close,"ax",%progbits
 684              		.align	1
 685              		.global	lwm2m_close
 686              		.syntax unified
 687              		.thumb
ARM GAS  C:\Users\ADMINI~1\AppData\Local\Temp\ccoKNcyf.s 			page 17


 688              		.thumb_func
 689              		.fpu fpv4-sp-d16
 691              	lwm2m_close:
 692              	.LFB12:
 231:g:/iot/IoT_Device_Demo/iot_link/network/lwm2m/wakaama_lwm2m/wakaama-master/core\liblwm2m.c **** 
 232:g:/iot/IoT_Device_Demo/iot_link/network/lwm2m/wakaama_lwm2m/wakaama-master/core\liblwm2m.c **** void lwm2m_close(lwm2m_context_t *contextP)
 233:g:/iot/IoT_Device_Demo/iot_link/network/lwm2m/wakaama_lwm2m/wakaama-master/core\liblwm2m.c **** {
 693              		.loc 1 233 1
 694              		.cfi_startproc
 695              		@ args = 0, pretend = 0, frame = 8
 696              		@ frame_needed = 1, uses_anonymous_args = 0
 697 0000 B0B5     		push	{r4, r5, r7, lr}
 698              	.LCFI41:
 699              		.cfi_def_cfa_offset 16
 700              		.cfi_offset 4, -16
 701              		.cfi_offset 5, -12
 702              		.cfi_offset 7, -8
 703              		.cfi_offset 14, -4
 704 0002 86B0     		sub	sp, sp, #24
 705              	.LCFI42:
 706              		.cfi_def_cfa_offset 40
 707 0004 04AF     		add	r7, sp, #16
 708              	.LCFI43:
 709              		.cfi_def_cfa 7, 24
 710 0006 7860     		str	r0, [r7, #4]
 234:g:/iot/IoT_Device_Demo/iot_link/network/lwm2m/wakaama_lwm2m/wakaama-master/core\liblwm2m.c **** #ifdef LWM2M_CLIENT_MODE
 235:g:/iot/IoT_Device_Demo/iot_link/network/lwm2m/wakaama_lwm2m/wakaama-master/core\liblwm2m.c **** 
 236:g:/iot/IoT_Device_Demo/iot_link/network/lwm2m/wakaama_lwm2m/wakaama-master/core\liblwm2m.c ****     LOG("Entering");
 711              		.loc 1 236 5
 712 0008 FFF7FEFF 		bl	link_log_level_get
 713 000c 0346     		mov	r3, r0
 714 000e 012B     		cmp	r3, #1
 715 0010 19D8     		bhi	.L38
 716              		.loc 1 236 5 is_stmt 0 discriminator 1
 717 0012 0120     		movs	r0, #1
 718 0014 FFF7FEFF 		bl	link_log_level_name
 719 0018 0446     		mov	r4, r0
 720 001a FFF7FEFF 		bl	osal_sys_time
 721 001e 0246     		mov	r2, r0
 722 0020 0B46     		mov	r3, r1
 723 0022 1546     		mov	r5, r2
 724 0024 FFF7FEFF 		bl	lwm2m_gettime
 725 0028 0246     		mov	r2, r0
 726 002a 0B46     		mov	r3, r1
 727 002c EC23     		movs	r3, #236
 728 002e 0393     		str	r3, [sp, #12]
 729 0030 1A4B     		ldr	r3, .L41
 730 0032 0293     		str	r3, [sp, #8]
 731 0034 0192     		str	r2, [sp, #4]
 732 0036 EC23     		movs	r3, #236
 733 0038 0093     		str	r3, [sp]
 734 003a 194B     		ldr	r3, .L41+4
 735 003c 2A46     		mov	r2, r5
 736 003e 2146     		mov	r1, r4
 737 0040 1848     		ldr	r0, .L41+8
 738 0042 FFF7FEFF 		bl	printf
 739              	.L38:
ARM GAS  C:\Users\ADMINI~1\AppData\Local\Temp\ccoKNcyf.s 			page 18


 237:g:/iot/IoT_Device_Demo/iot_link/network/lwm2m/wakaama_lwm2m/wakaama-master/core\liblwm2m.c ****     lwm2m_deregister(contextP);
 740              		.loc 1 237 5 is_stmt 1
 741 0046 7868     		ldr	r0, [r7, #4]
 742 0048 FFF7FEFF 		bl	lwm2m_deregister
 238:g:/iot/IoT_Device_Demo/iot_link/network/lwm2m/wakaama_lwm2m/wakaama-master/core\liblwm2m.c ****     prv_deleteServerList(contextP);
 743              		.loc 1 238 5
 744 004c 7868     		ldr	r0, [r7, #4]
 745 004e FFF7FEFF 		bl	prv_deleteServerList
 239:g:/iot/IoT_Device_Demo/iot_link/network/lwm2m/wakaama_lwm2m/wakaama-master/core\liblwm2m.c **** #ifdef LWM2M_BOOTSTRAP
 240:g:/iot/IoT_Device_Demo/iot_link/network/lwm2m/wakaama_lwm2m/wakaama-master/core\liblwm2m.c ****     prv_deleteBootstrapServerList(contextP);
 241:g:/iot/IoT_Device_Demo/iot_link/network/lwm2m/wakaama_lwm2m/wakaama-master/core\liblwm2m.c **** #endif
 242:g:/iot/IoT_Device_Demo/iot_link/network/lwm2m/wakaama_lwm2m/wakaama-master/core\liblwm2m.c ****     prv_deleteObservedList(contextP);
 746              		.loc 1 242 5
 747 0052 7868     		ldr	r0, [r7, #4]
 748 0054 FFF7FEFF 		bl	prv_deleteObservedList
 243:g:/iot/IoT_Device_Demo/iot_link/network/lwm2m/wakaama_lwm2m/wakaama-master/core\liblwm2m.c ****     lwm2m_free(contextP->endpointName);
 749              		.loc 1 243 24
 750 0058 7B68     		ldr	r3, [r7, #4]
 751 005a 5B68     		ldr	r3, [r3, #4]
 752              		.loc 1 243 5
 753 005c 1846     		mov	r0, r3
 754 005e FFF7FEFF 		bl	lwm2m_free
 244:g:/iot/IoT_Device_Demo/iot_link/network/lwm2m/wakaama_lwm2m/wakaama-master/core\liblwm2m.c ****     //lwm2m_free(contextP->bs_server_uri);
 245:g:/iot/IoT_Device_Demo/iot_link/network/lwm2m/wakaama_lwm2m/wakaama-master/core\liblwm2m.c ****     if (contextP->msisdn != NULL)
 755              		.loc 1 245 17
 756 0062 7B68     		ldr	r3, [r7, #4]
 757 0064 9B68     		ldr	r3, [r3, #8]
 758              		.loc 1 245 8
 759 0066 002B     		cmp	r3, #0
 760 0068 04D0     		beq	.L39
 246:g:/iot/IoT_Device_Demo/iot_link/network/lwm2m/wakaama_lwm2m/wakaama-master/core\liblwm2m.c ****     {
 247:g:/iot/IoT_Device_Demo/iot_link/network/lwm2m/wakaama_lwm2m/wakaama-master/core\liblwm2m.c ****         lwm2m_free(contextP->msisdn);
 761              		.loc 1 247 28
 762 006a 7B68     		ldr	r3, [r7, #4]
 763 006c 9B68     		ldr	r3, [r3, #8]
 764              		.loc 1 247 9
 765 006e 1846     		mov	r0, r3
 766 0070 FFF7FEFF 		bl	lwm2m_free
 767              	.L39:
 248:g:/iot/IoT_Device_Demo/iot_link/network/lwm2m/wakaama_lwm2m/wakaama-master/core\liblwm2m.c ****     }
 249:g:/iot/IoT_Device_Demo/iot_link/network/lwm2m/wakaama_lwm2m/wakaama-master/core\liblwm2m.c ****     if (contextP->altPath != NULL)
 768              		.loc 1 249 17
 769 0074 7B68     		ldr	r3, [r7, #4]
 770 0076 DB68     		ldr	r3, [r3, #12]
 771              		.loc 1 249 8
 772 0078 002B     		cmp	r3, #0
 773 007a 04D0     		beq	.L40
 250:g:/iot/IoT_Device_Demo/iot_link/network/lwm2m/wakaama_lwm2m/wakaama-master/core\liblwm2m.c ****     {
 251:g:/iot/IoT_Device_Demo/iot_link/network/lwm2m/wakaama_lwm2m/wakaama-master/core\liblwm2m.c ****         lwm2m_free(contextP->altPath);
 774              		.loc 1 251 28
 775 007c 7B68     		ldr	r3, [r7, #4]
 776 007e DB68     		ldr	r3, [r3, #12]
 777              		.loc 1 251 9
 778 0080 1846     		mov	r0, r3
 779 0082 FFF7FEFF 		bl	lwm2m_free
 780              	.L40:
 252:g:/iot/IoT_Device_Demo/iot_link/network/lwm2m/wakaama_lwm2m/wakaama-master/core\liblwm2m.c ****     }
ARM GAS  C:\Users\ADMINI~1\AppData\Local\Temp\ccoKNcyf.s 			page 19


 253:g:/iot/IoT_Device_Demo/iot_link/network/lwm2m/wakaama_lwm2m/wakaama-master/core\liblwm2m.c **** 
 254:g:/iot/IoT_Device_Demo/iot_link/network/lwm2m/wakaama_lwm2m/wakaama-master/core\liblwm2m.c **** #endif
 255:g:/iot/IoT_Device_Demo/iot_link/network/lwm2m/wakaama_lwm2m/wakaama-master/core\liblwm2m.c **** 
 256:g:/iot/IoT_Device_Demo/iot_link/network/lwm2m/wakaama_lwm2m/wakaama-master/core\liblwm2m.c **** #ifdef LWM2M_SERVER_MODE
 257:g:/iot/IoT_Device_Demo/iot_link/network/lwm2m/wakaama_lwm2m/wakaama-master/core\liblwm2m.c ****     while (NULL != contextP->clientList)
 258:g:/iot/IoT_Device_Demo/iot_link/network/lwm2m/wakaama_lwm2m/wakaama-master/core\liblwm2m.c ****     {
 259:g:/iot/IoT_Device_Demo/iot_link/network/lwm2m/wakaama_lwm2m/wakaama-master/core\liblwm2m.c ****         lwm2m_client_t *clientP;
 260:g:/iot/IoT_Device_Demo/iot_link/network/lwm2m/wakaama_lwm2m/wakaama-master/core\liblwm2m.c **** 
 261:g:/iot/IoT_Device_Demo/iot_link/network/lwm2m/wakaama_lwm2m/wakaama-master/core\liblwm2m.c ****         clientP = contextP->clientList;
 262:g:/iot/IoT_Device_Demo/iot_link/network/lwm2m/wakaama_lwm2m/wakaama-master/core\liblwm2m.c ****         contextP->clientList = contextP->clientList->next;
 263:g:/iot/IoT_Device_Demo/iot_link/network/lwm2m/wakaama_lwm2m/wakaama-master/core\liblwm2m.c **** 
 264:g:/iot/IoT_Device_Demo/iot_link/network/lwm2m/wakaama_lwm2m/wakaama-master/core\liblwm2m.c ****         registration_freeClient(clientP);
 265:g:/iot/IoT_Device_Demo/iot_link/network/lwm2m/wakaama_lwm2m/wakaama-master/core\liblwm2m.c ****     }
 266:g:/iot/IoT_Device_Demo/iot_link/network/lwm2m/wakaama_lwm2m/wakaama-master/core\liblwm2m.c **** #endif
 267:g:/iot/IoT_Device_Demo/iot_link/network/lwm2m/wakaama_lwm2m/wakaama-master/core\liblwm2m.c **** 
 268:g:/iot/IoT_Device_Demo/iot_link/network/lwm2m/wakaama_lwm2m/wakaama-master/core\liblwm2m.c ****     prv_deleteTransactionList(contextP);
 781              		.loc 1 268 5
 782 0086 7868     		ldr	r0, [r7, #4]
 783 0088 FFF7FEFF 		bl	prv_deleteTransactionList
 269:g:/iot/IoT_Device_Demo/iot_link/network/lwm2m/wakaama_lwm2m/wakaama-master/core\liblwm2m.c ****     lwm2m_free(contextP);
 784              		.loc 1 269 5
 785 008c 7868     		ldr	r0, [r7, #4]
 786 008e FFF7FEFF 		bl	lwm2m_free
 270:g:/iot/IoT_Device_Demo/iot_link/network/lwm2m/wakaama_lwm2m/wakaama-master/core\liblwm2m.c **** }
 787              		.loc 1 270 1
 788 0092 00BF     		nop
 789 0094 0837     		adds	r7, r7, #8
 790              	.LCFI44:
 791              		.cfi_def_cfa_offset 16
 792 0096 BD46     		mov	sp, r7
 793              	.LCFI45:
 794              		.cfi_def_cfa_register 13
 795              		@ sp needed
 796 0098 B0BD     		pop	{r4, r5, r7, pc}
 797              	.L42:
 798 009a 00BF     		.align	2
 799              	.L41:
 800 009c 00000000 		.word	__func__.8683
 801 00a0 00000000 		.word	__FUNCTION__.8682
 802 00a4 00000000 		.word	.LC0
 803              		.cfi_endproc
 804              	.LFE12:
 806              		.section	.text.prv_isBoostrpEnable,"ax",%progbits
 807              		.align	1
 808              		.syntax unified
 809              		.thumb
 810              		.thumb_func
 811              		.fpu fpv4-sp-d16
 813              	prv_isBoostrpEnable:
 814              	.LFB13:
 271:g:/iot/IoT_Device_Demo/iot_link/network/lwm2m/wakaama_lwm2m/wakaama-master/core\liblwm2m.c **** 
 272:g:/iot/IoT_Device_Demo/iot_link/network/lwm2m/wakaama_lwm2m/wakaama-master/core\liblwm2m.c **** 
 273:g:/iot/IoT_Device_Demo/iot_link/network/lwm2m/wakaama_lwm2m/wakaama-master/core\liblwm2m.c **** static bool prv_isBoostrpEnable(const lwm2m_context_t *contextP)
 274:g:/iot/IoT_Device_Demo/iot_link/network/lwm2m/wakaama_lwm2m/wakaama-master/core\liblwm2m.c **** {
 815              		.loc 1 274 1
 816              		.cfi_startproc
 817              		@ args = 0, pretend = 0, frame = 8
ARM GAS  C:\Users\ADMINI~1\AppData\Local\Temp\ccoKNcyf.s 			page 20


 818              		@ frame_needed = 1, uses_anonymous_args = 0
 819              		@ link register save eliminated.
 820 0000 80B4     		push	{r7}
 821              	.LCFI46:
 822              		.cfi_def_cfa_offset 4
 823              		.cfi_offset 7, -4
 824 0002 83B0     		sub	sp, sp, #12
 825              	.LCFI47:
 826              		.cfi_def_cfa_offset 16
 827 0004 00AF     		add	r7, sp, #0
 828              	.LCFI48:
 829              		.cfi_def_cfa_register 7
 830 0006 7860     		str	r0, [r7, #4]
 275:g:/iot/IoT_Device_Demo/iot_link/network/lwm2m/wakaama_lwm2m/wakaama-master/core\liblwm2m.c **** #ifdef LWM2M_BOOTSTRAP
 276:g:/iot/IoT_Device_Demo/iot_link/network/lwm2m/wakaama_lwm2m/wakaama-master/core\liblwm2m.c ****     return contextP->bsCtrl.bsType != BOOTSTRAP_FACTORY;
 277:g:/iot/IoT_Device_Demo/iot_link/network/lwm2m/wakaama_lwm2m/wakaama-master/core\liblwm2m.c **** #else
 278:g:/iot/IoT_Device_Demo/iot_link/network/lwm2m/wakaama_lwm2m/wakaama-master/core\liblwm2m.c ****     return false;
 831              		.loc 1 278 12
 832 0008 0023     		movs	r3, #0
 279:g:/iot/IoT_Device_Demo/iot_link/network/lwm2m/wakaama_lwm2m/wakaama-master/core\liblwm2m.c **** #endif
 280:g:/iot/IoT_Device_Demo/iot_link/network/lwm2m/wakaama_lwm2m/wakaama-master/core\liblwm2m.c **** }
 833              		.loc 1 280 1
 834 000a 1846     		mov	r0, r3
 835 000c 0C37     		adds	r7, r7, #12
 836              	.LCFI49:
 837              		.cfi_def_cfa_offset 4
 838 000e BD46     		mov	sp, r7
 839              	.LCFI50:
 840              		.cfi_def_cfa_register 13
 841              		@ sp needed
 842 0010 5DF8047B 		ldr	r7, [sp], #4
 843              	.LCFI51:
 844              		.cfi_restore 7
 845              		.cfi_def_cfa_offset 0
 846 0014 7047     		bx	lr
 847              		.cfi_endproc
 848              	.LFE13:
 850              		.section	.text.lwm2m_isBsCtrlInServerInitiatedBs,"ax",%progbits
 851              		.align	1
 852              		.global	lwm2m_isBsCtrlInServerInitiatedBs
 853              		.syntax unified
 854              		.thumb
 855              		.thumb_func
 856              		.fpu fpv4-sp-d16
 858              	lwm2m_isBsCtrlInServerInitiatedBs:
 859              	.LFB14:
 281:g:/iot/IoT_Device_Demo/iot_link/network/lwm2m/wakaama_lwm2m/wakaama-master/core\liblwm2m.c **** 
 282:g:/iot/IoT_Device_Demo/iot_link/network/lwm2m/wakaama_lwm2m/wakaama-master/core\liblwm2m.c **** /* BsCtrl bootstrap control is used to control the register(factory bootstrap(FBS)), client initiat
 283:g:/iot/IoT_Device_Demo/iot_link/network/lwm2m/wakaama_lwm2m/wakaama-master/core\liblwm2m.c **** and server initiated bootstrap(CIBS).it try max time to register and the change to bootstrap(CIBS a
 284:g:/iot/IoT_Device_Demo/iot_link/network/lwm2m/wakaama_lwm2m/wakaama-master/core\liblwm2m.c **** the state is STATE_REGISTER_REQUIRED, STATE_BOOTSTRAP_REQUIRED and STATE_NON. CIBS is only state is
 285:g:/iot/IoT_Device_Demo/iot_link/network/lwm2m/wakaama_lwm2m/wakaama-master/core\liblwm2m.c **** ,cnt is 0 and bs type is BOOTSTRAP_SEQUENCE. cnt is used to calculte the delay for the next retry.
 286:g:/iot/IoT_Device_Demo/iot_link/network/lwm2m/wakaama_lwm2m/wakaama-master/core\liblwm2m.c **** Delay(cnt) = Base + Interval * cnt; Base and Interval are configured by different macros.
 287:g:/iot/IoT_Device_Demo/iot_link/network/lwm2m/wakaama_lwm2m/wakaama-master/core\liblwm2m.c **** */
 288:g:/iot/IoT_Device_Demo/iot_link/network/lwm2m/wakaama_lwm2m/wakaama-master/core\liblwm2m.c **** bool lwm2m_isBsCtrlInServerInitiatedBs(const lwm2m_context_t *contextP)
 289:g:/iot/IoT_Device_Demo/iot_link/network/lwm2m/wakaama_lwm2m/wakaama-master/core\liblwm2m.c **** {
 860              		.loc 1 289 1
 861              		.cfi_startproc
ARM GAS  C:\Users\ADMINI~1\AppData\Local\Temp\ccoKNcyf.s 			page 21


 862              		@ args = 0, pretend = 0, frame = 8
 863              		@ frame_needed = 1, uses_anonymous_args = 0
 864              		@ link register save eliminated.
 865 0000 80B4     		push	{r7}
 866              	.LCFI52:
 867              		.cfi_def_cfa_offset 4
 868              		.cfi_offset 7, -4
 869 0002 83B0     		sub	sp, sp, #12
 870              	.LCFI53:
 871              		.cfi_def_cfa_offset 16
 872 0004 00AF     		add	r7, sp, #0
 873              	.LCFI54:
 874              		.cfi_def_cfa_register 7
 875 0006 7860     		str	r0, [r7, #4]
 290:g:/iot/IoT_Device_Demo/iot_link/network/lwm2m/wakaama_lwm2m/wakaama-master/core\liblwm2m.c ****     return (contextP->bsCtrl.bsType == BOOTSTRAP_SEQUENCE) && (contextP->bsCtrl.cnt == 0);
 876              		.loc 1 290 29
 877 0008 7B68     		ldr	r3, [r7, #4]
 878 000a 93F82430 		ldrb	r3, [r3, #36]	@ zero_extendqisi2
 879              		.loc 1 290 60
 880 000e 022B     		cmp	r3, #2
 881 0010 05D1     		bne	.L46
 882              		.loc 1 290 80 discriminator 1
 883 0012 7B68     		ldr	r3, [r7, #4]
 884 0014 9B6A     		ldr	r3, [r3, #40]
 885              		.loc 1 290 60 discriminator 1
 886 0016 002B     		cmp	r3, #0
 887 0018 01D1     		bne	.L46
 888              		.loc 1 290 60 is_stmt 0 discriminator 3
 889 001a 0123     		movs	r3, #1
 890 001c 00E0     		b	.L47
 891              	.L46:
 892              		.loc 1 290 60 discriminator 4
 893 001e 0023     		movs	r3, #0
 894              	.L47:
 895              		.loc 1 290 60 discriminator 6
 896 0020 03F00103 		and	r3, r3, #1
 897 0024 DBB2     		uxtb	r3, r3
 291:g:/iot/IoT_Device_Demo/iot_link/network/lwm2m/wakaama_lwm2m/wakaama-master/core\liblwm2m.c **** }
 898              		.loc 1 291 1 is_stmt 1 discriminator 6
 899 0026 1846     		mov	r0, r3
 900 0028 0C37     		adds	r7, r7, #12
 901              	.LCFI55:
 902              		.cfi_def_cfa_offset 4
 903 002a BD46     		mov	sp, r7
 904              	.LCFI56:
 905              		.cfi_def_cfa_register 13
 906              		@ sp needed
 907 002c 5DF8047B 		ldr	r7, [sp], #4
 908              	.LCFI57:
 909              		.cfi_restore 7
 910              		.cfi_def_cfa_offset 0
 911 0030 7047     		bx	lr
 912              		.cfi_endproc
 913              	.LFE14:
 915              		.section	.text.lwm2m_initBsCtrlStat,"ax",%progbits
 916              		.align	1
 917              		.global	lwm2m_initBsCtrlStat
ARM GAS  C:\Users\ADMINI~1\AppData\Local\Temp\ccoKNcyf.s 			page 22


 918              		.syntax unified
 919              		.thumb
 920              		.thumb_func
 921              		.fpu fpv4-sp-d16
 923              	lwm2m_initBsCtrlStat:
 924              	.LFB15:
 292:g:/iot/IoT_Device_Demo/iot_link/network/lwm2m/wakaama_lwm2m/wakaama-master/core\liblwm2m.c **** 
 293:g:/iot/IoT_Device_Demo/iot_link/network/lwm2m/wakaama_lwm2m/wakaama-master/core\liblwm2m.c **** void lwm2m_initBsCtrlStat(lwm2m_context_t *contextP, lwm2m_bootstrap_type_e bs_type)
 294:g:/iot/IoT_Device_Demo/iot_link/network/lwm2m/wakaama_lwm2m/wakaama-master/core\liblwm2m.c **** {
 925              		.loc 1 294 1
 926              		.cfi_startproc
 927              		@ args = 0, pretend = 0, frame = 8
 928              		@ frame_needed = 1, uses_anonymous_args = 0
 929 0000 80B5     		push	{r7, lr}
 930              	.LCFI58:
 931              		.cfi_def_cfa_offset 8
 932              		.cfi_offset 7, -8
 933              		.cfi_offset 14, -4
 934 0002 82B0     		sub	sp, sp, #8
 935              	.LCFI59:
 936              		.cfi_def_cfa_offset 16
 937 0004 00AF     		add	r7, sp, #0
 938              	.LCFI60:
 939              		.cfi_def_cfa_register 7
 940 0006 7860     		str	r0, [r7, #4]
 941 0008 0B46     		mov	r3, r1
 942 000a FB70     		strb	r3, [r7, #3]
 295:g:/iot/IoT_Device_Demo/iot_link/network/lwm2m/wakaama_lwm2m/wakaama-master/core\liblwm2m.c ****     memset(&contextP->bsCtrl, 0, sizeof(contextP->bsCtrl));
 943              		.loc 1 295 12
 944 000c 7B68     		ldr	r3, [r7, #4]
 945 000e 2433     		adds	r3, r3, #36
 946              		.loc 1 295 5
 947 0010 0822     		movs	r2, #8
 948 0012 0021     		movs	r1, #0
 949 0014 1846     		mov	r0, r3
 950 0016 FFF7FEFF 		bl	memset
 296:g:/iot/IoT_Device_Demo/iot_link/network/lwm2m/wakaama_lwm2m/wakaama-master/core\liblwm2m.c ****     contextP->bsCtrl.bsType = bs_type;
 951              		.loc 1 296 29
 952 001a 7B68     		ldr	r3, [r7, #4]
 953 001c FA78     		ldrb	r2, [r7, #3]
 954 001e 83F82420 		strb	r2, [r3, #36]
 297:g:/iot/IoT_Device_Demo/iot_link/network/lwm2m/wakaama_lwm2m/wakaama-master/core\liblwm2m.c ****     contextP->bsCtrl.state = STATE_INITIAL;
 955              		.loc 1 297 28
 956 0022 7B68     		ldr	r3, [r7, #4]
 957 0024 0022     		movs	r2, #0
 958 0026 83F82520 		strb	r2, [r3, #37]
 298:g:/iot/IoT_Device_Demo/iot_link/network/lwm2m/wakaama_lwm2m/wakaama-master/core\liblwm2m.c **** }
 959              		.loc 1 298 1
 960 002a 00BF     		nop
 961 002c 0837     		adds	r7, r7, #8
 962              	.LCFI61:
 963              		.cfi_def_cfa_offset 8
 964 002e BD46     		mov	sp, r7
 965              	.LCFI62:
 966              		.cfi_def_cfa_register 13
 967              		@ sp needed
 968 0030 80BD     		pop	{r7, pc}
ARM GAS  C:\Users\ADMINI~1\AppData\Local\Temp\ccoKNcyf.s 			page 23


 969              		.cfi_endproc
 970              	.LFE15:
 972              		.section	.text.lwm2m_setBsCtrlStatWithoutCheck,"ax",%progbits
 973              		.align	1
 974              		.syntax unified
 975              		.thumb
 976              		.thumb_func
 977              		.fpu fpv4-sp-d16
 979              	lwm2m_setBsCtrlStatWithoutCheck:
 980              	.LFB16:
 299:g:/iot/IoT_Device_Demo/iot_link/network/lwm2m/wakaama_lwm2m/wakaama-master/core\liblwm2m.c **** 
 300:g:/iot/IoT_Device_Demo/iot_link/network/lwm2m/wakaama_lwm2m/wakaama-master/core\liblwm2m.c **** static void lwm2m_setBsCtrlStatWithoutCheck(lwm2m_context_t *contextP, lwm2m_client_state_t state)
 301:g:/iot/IoT_Device_Demo/iot_link/network/lwm2m/wakaama_lwm2m/wakaama-master/core\liblwm2m.c **** {
 981              		.loc 1 301 1
 982              		.cfi_startproc
 983              		@ args = 0, pretend = 0, frame = 16
 984              		@ frame_needed = 1, uses_anonymous_args = 0
 985              		@ link register save eliminated.
 986 0000 80B4     		push	{r7}
 987              	.LCFI63:
 988              		.cfi_def_cfa_offset 4
 989              		.cfi_offset 7, -4
 990 0002 85B0     		sub	sp, sp, #20
 991              	.LCFI64:
 992              		.cfi_def_cfa_offset 24
 993 0004 00AF     		add	r7, sp, #0
 994              	.LCFI65:
 995              		.cfi_def_cfa_register 7
 996 0006 7860     		str	r0, [r7, #4]
 997 0008 0B46     		mov	r3, r1
 998 000a FB70     		strb	r3, [r7, #3]
 302:g:/iot/IoT_Device_Demo/iot_link/network/lwm2m/wakaama_lwm2m/wakaama-master/core\liblwm2m.c ****     if (contextP->bsCtrl.state != state)
 999              		.loc 1 302 25
 1000 000c 7B68     		ldr	r3, [r7, #4]
 1001 000e 93F82530 		ldrb	r3, [r3, #37]	@ zero_extendqisi2
 1002              		.loc 1 302 8
 1003 0012 FA78     		ldrb	r2, [r7, #3]	@ zero_extendqisi2
 1004 0014 9A42     		cmp	r2, r3
 1005 0016 07D0     		beq	.L51
 303:g:/iot/IoT_Device_Demo/iot_link/network/lwm2m/wakaama_lwm2m/wakaama-master/core\liblwm2m.c ****     {
 304:g:/iot/IoT_Device_Demo/iot_link/network/lwm2m/wakaama_lwm2m/wakaama-master/core\liblwm2m.c ****         contextP->bsCtrl.state = state;
 1006              		.loc 1 304 32
 1007 0018 7B68     		ldr	r3, [r7, #4]
 1008 001a FA78     		ldrb	r2, [r7, #3]
 1009 001c 83F82520 		strb	r2, [r3, #37]
 305:g:/iot/IoT_Device_Demo/iot_link/network/lwm2m/wakaama_lwm2m/wakaama-master/core\liblwm2m.c ****         contextP->bsCtrl.cnt = 0;
 1010              		.loc 1 305 30
 1011 0020 7B68     		ldr	r3, [r7, #4]
 1012 0022 0022     		movs	r2, #0
 1013 0024 9A62     		str	r2, [r3, #40]
 306:g:/iot/IoT_Device_Demo/iot_link/network/lwm2m/wakaama_lwm2m/wakaama-master/core\liblwm2m.c ****         return;
 1014              		.loc 1 306 9
 1015 0026 24E0     		b	.L50
 1016              	.L51:
 1017              	.LBB5:
 307:g:/iot/IoT_Device_Demo/iot_link/network/lwm2m/wakaama_lwm2m/wakaama-master/core\liblwm2m.c ****     }
 308:g:/iot/IoT_Device_Demo/iot_link/network/lwm2m/wakaama_lwm2m/wakaama-master/core\liblwm2m.c ****     {
ARM GAS  C:\Users\ADMINI~1\AppData\Local\Temp\ccoKNcyf.s 			page 24


 309:g:/iot/IoT_Device_Demo/iot_link/network/lwm2m/wakaama_lwm2m/wakaama-master/core\liblwm2m.c ****         uint32_t maxValue = ((STATE_REGISTER_REQUIRED == state)
 1018              		.loc 1 309 18
 1019 0028 0323     		movs	r3, #3
 1020 002a FB60     		str	r3, [r7, #12]
 310:g:/iot/IoT_Device_Demo/iot_link/network/lwm2m/wakaama_lwm2m/wakaama-master/core\liblwm2m.c ****                             ? MAX_FACTORY_BS_RETRY_CNT : MAX_CLIENT_INITIATED_BS_RETRY_CNT);
 311:g:/iot/IoT_Device_Demo/iot_link/network/lwm2m/wakaama_lwm2m/wakaama-master/core\liblwm2m.c **** 
 312:g:/iot/IoT_Device_Demo/iot_link/network/lwm2m/wakaama_lwm2m/wakaama-master/core\liblwm2m.c ****         if ((STATE_BOOTSTRAP_REQUIRED == state) && (BOOTSTRAP_SEQUENCE == contextP->bsCtrl.bsType))
 1021              		.loc 1 312 12
 1022 002c FB78     		ldrb	r3, [r7, #3]	@ zero_extendqisi2
 1023 002e 012B     		cmp	r3, #1
 1024 0030 07D1     		bne	.L53
 1025              		.loc 1 312 91 discriminator 1
 1026 0032 7B68     		ldr	r3, [r7, #4]
 1027 0034 93F82430 		ldrb	r3, [r3, #36]	@ zero_extendqisi2
 1028              		.loc 1 312 49 discriminator 1
 1029 0038 022B     		cmp	r3, #2
 1030 003a 02D1     		bne	.L53
 313:g:/iot/IoT_Device_Demo/iot_link/network/lwm2m/wakaama_lwm2m/wakaama-master/core\liblwm2m.c ****         {
 314:g:/iot/IoT_Device_Demo/iot_link/network/lwm2m/wakaama_lwm2m/wakaama-master/core\liblwm2m.c ****             maxValue++;
 1031              		.loc 1 314 21
 1032 003c FB68     		ldr	r3, [r7, #12]
 1033 003e 0133     		adds	r3, r3, #1
 1034 0040 FB60     		str	r3, [r7, #12]
 1035              	.L53:
 315:g:/iot/IoT_Device_Demo/iot_link/network/lwm2m/wakaama_lwm2m/wakaama-master/core\liblwm2m.c ****         }
 316:g:/iot/IoT_Device_Demo/iot_link/network/lwm2m/wakaama_lwm2m/wakaama-master/core\liblwm2m.c ****         if(++(contextP->bsCtrl.cnt) >= maxValue)
 1036              		.loc 1 316 31
 1037 0042 7B68     		ldr	r3, [r7, #4]
 1038 0044 9B6A     		ldr	r3, [r3, #40]
 1039              		.loc 1 316 12
 1040 0046 5A1C     		adds	r2, r3, #1
 1041              		.loc 1 316 11
 1042 0048 7B68     		ldr	r3, [r7, #4]
 1043 004a 9A62     		str	r2, [r3, #40]
 1044              		.loc 1 316 31
 1045 004c 7B68     		ldr	r3, [r7, #4]
 1046 004e 9B6A     		ldr	r3, [r3, #40]
 1047              		.loc 1 316 11
 1048 0050 FA68     		ldr	r2, [r7, #12]
 1049 0052 9A42     		cmp	r2, r3
 1050 0054 0DD8     		bhi	.L50
 317:g:/iot/IoT_Device_Demo/iot_link/network/lwm2m/wakaama_lwm2m/wakaama-master/core\liblwm2m.c ****         {
 318:g:/iot/IoT_Device_Demo/iot_link/network/lwm2m/wakaama_lwm2m/wakaama-master/core\liblwm2m.c ****             contextP->bsCtrl.state = ((STATE_REGISTER_REQUIRED == contextP->bsCtrl.state)
 1051              		.loc 1 318 83
 1052 0056 7B68     		ldr	r3, [r7, #4]
 1053 0058 93F82530 		ldrb	r3, [r3, #37]	@ zero_extendqisi2
 319:g:/iot/IoT_Device_Demo/iot_link/network/lwm2m/wakaama_lwm2m/wakaama-master/core\liblwm2m.c ****                                      ? STATE_BOOTSTRAP_REQUIRED :STATE_REGISTER_REQUIRED);
 1054              		.loc 1 319 65
 1055 005c 032B     		cmp	r3, #3
 1056 005e 01D1     		bne	.L54
 1057              		.loc 1 319 65 is_stmt 0 discriminator 1
 1058 0060 0122     		movs	r2, #1
 1059 0062 00E0     		b	.L55
 1060              	.L54:
 1061              		.loc 1 319 65 discriminator 2
 1062 0064 0322     		movs	r2, #3
 1063              	.L55:
ARM GAS  C:\Users\ADMINI~1\AppData\Local\Temp\ccoKNcyf.s 			page 25


 318:g:/iot/IoT_Device_Demo/iot_link/network/lwm2m/wakaama_lwm2m/wakaama-master/core\liblwm2m.c ****                                      ? STATE_BOOTSTRAP_REQUIRED :STATE_REGISTER_REQUIRED);
 1064              		.loc 1 318 36 is_stmt 1
 1065 0066 7B68     		ldr	r3, [r7, #4]
 1066 0068 83F82520 		strb	r2, [r3, #37]
 320:g:/iot/IoT_Device_Demo/iot_link/network/lwm2m/wakaama_lwm2m/wakaama-master/core\liblwm2m.c ****             contextP->bsCtrl.cnt = 0;
 1067              		.loc 1 320 34
 1068 006c 7B68     		ldr	r3, [r7, #4]
 1069 006e 0022     		movs	r2, #0
 1070 0070 9A62     		str	r2, [r3, #40]
 1071              	.L50:
 1072              	.LBE5:
 321:g:/iot/IoT_Device_Demo/iot_link/network/lwm2m/wakaama_lwm2m/wakaama-master/core\liblwm2m.c ****         }
 322:g:/iot/IoT_Device_Demo/iot_link/network/lwm2m/wakaama_lwm2m/wakaama-master/core\liblwm2m.c ****     }
 323:g:/iot/IoT_Device_Demo/iot_link/network/lwm2m/wakaama_lwm2m/wakaama-master/core\liblwm2m.c **** 
 324:g:/iot/IoT_Device_Demo/iot_link/network/lwm2m/wakaama_lwm2m/wakaama-master/core\liblwm2m.c **** }
 1073              		.loc 1 324 1
 1074 0072 1437     		adds	r7, r7, #20
 1075              	.LCFI66:
 1076              		.cfi_def_cfa_offset 4
 1077 0074 BD46     		mov	sp, r7
 1078              	.LCFI67:
 1079              		.cfi_def_cfa_register 13
 1080              		@ sp needed
 1081 0076 5DF8047B 		ldr	r7, [sp], #4
 1082              	.LCFI68:
 1083              		.cfi_restore 7
 1084              		.cfi_def_cfa_offset 0
 1085 007a 7047     		bx	lr
 1086              		.cfi_endproc
 1087              	.LFE16:
 1089              		.section	.rodata
 1090 0029 000000   		.align	2
 1091              	.LC1:
 1092 002c 5B25735D 		.ascii	"[%s][%u][%s:%d] [%d][%s:%d] bsctrlstat (%d,%d) to ("
 1092      5B25755D 
 1092      5B25733A 
 1092      25645D20 
 1092      5B25645D 
 1093 005f 25642C25 		.ascii	"%d,%d)\015\012\015\012\000"
 1093      64290D0A 
 1093      0D0A00
 1094              		.section	.text.lwm2m_setBsCtrlStat,"ax",%progbits
 1095              		.align	1
 1096              		.global	lwm2m_setBsCtrlStat
 1097              		.syntax unified
 1098              		.thumb
 1099              		.thumb_func
 1100              		.fpu fpv4-sp-d16
 1102              	lwm2m_setBsCtrlStat:
 1103              	.LFB17:
 325:g:/iot/IoT_Device_Demo/iot_link/network/lwm2m/wakaama_lwm2m/wakaama-master/core\liblwm2m.c **** 
 326:g:/iot/IoT_Device_Demo/iot_link/network/lwm2m/wakaama_lwm2m/wakaama-master/core\liblwm2m.c **** void lwm2m_setBsCtrlStat(lwm2m_context_t *contextP, lwm2m_client_state_t state)
 327:g:/iot/IoT_Device_Demo/iot_link/network/lwm2m/wakaama_lwm2m/wakaama-master/core\liblwm2m.c **** {
 1104              		.loc 1 327 1
 1105              		.cfi_startproc
 1106              		@ args = 0, pretend = 0, frame = 16
 1107              		@ frame_needed = 1, uses_anonymous_args = 0
ARM GAS  C:\Users\ADMINI~1\AppData\Local\Temp\ccoKNcyf.s 			page 26


 1108 0000 F0B5     		push	{r4, r5, r6, r7, lr}
 1109              	.LCFI69:
 1110              		.cfi_def_cfa_offset 20
 1111              		.cfi_offset 4, -20
 1112              		.cfi_offset 5, -16
 1113              		.cfi_offset 6, -12
 1114              		.cfi_offset 7, -8
 1115              		.cfi_offset 14, -4
 1116 0002 8DB0     		sub	sp, sp, #52
 1117              	.LCFI70:
 1118              		.cfi_def_cfa_offset 72
 1119 0004 08AF     		add	r7, sp, #32
 1120              	.LCFI71:
 1121              		.cfi_def_cfa 7, 40
 1122 0006 7860     		str	r0, [r7, #4]
 1123 0008 0B46     		mov	r3, r1
 1124 000a FB70     		strb	r3, [r7, #3]
 328:g:/iot/IoT_Device_Demo/iot_link/network/lwm2m/wakaama_lwm2m/wakaama-master/core\liblwm2m.c ****     lwm2m_client_state_t oldState = contextP->bsCtrl.state;
 1125              		.loc 1 328 26
 1126 000c 7B68     		ldr	r3, [r7, #4]
 1127 000e 93F82530 		ldrb	r3, [r3, #37]
 1128 0012 FB73     		strb	r3, [r7, #15]
 329:g:/iot/IoT_Device_Demo/iot_link/network/lwm2m/wakaama_lwm2m/wakaama-master/core\liblwm2m.c ****     uint32_t oldCnt = contextP->bsCtrl.cnt;
 1129              		.loc 1 329 14
 1130 0014 7B68     		ldr	r3, [r7, #4]
 1131 0016 9B6A     		ldr	r3, [r3, #40]
 1132 0018 BB60     		str	r3, [r7, #8]
 330:g:/iot/IoT_Device_Demo/iot_link/network/lwm2m/wakaama_lwm2m/wakaama-master/core\liblwm2m.c **** 
 331:g:/iot/IoT_Device_Demo/iot_link/network/lwm2m/wakaama_lwm2m/wakaama-master/core\liblwm2m.c ****     lwm2m_setBsCtrlStatWithoutCheck(contextP, state);
 1133              		.loc 1 331 5
 1134 001a FB78     		ldrb	r3, [r7, #3]	@ zero_extendqisi2
 1135 001c 1946     		mov	r1, r3
 1136 001e 7868     		ldr	r0, [r7, #4]
 1137 0020 FFF7FEFF 		bl	lwm2m_setBsCtrlStatWithoutCheck
 332:g:/iot/IoT_Device_Demo/iot_link/network/lwm2m/wakaama_lwm2m/wakaama-master/core\liblwm2m.c **** 
 333:g:/iot/IoT_Device_Demo/iot_link/network/lwm2m/wakaama_lwm2m/wakaama-master/core\liblwm2m.c ****     if (STATE_REGISTER_REQUIRED == contextP->bsCtrl.state)
 1138              		.loc 1 333 52
 1139 0024 7B68     		ldr	r3, [r7, #4]
 1140 0026 93F82530 		ldrb	r3, [r3, #37]	@ zero_extendqisi2
 1141              		.loc 1 333 8
 1142 002a 032B     		cmp	r3, #3
 1143 002c 0AD1     		bne	.L57
 334:g:/iot/IoT_Device_Demo/iot_link/network/lwm2m/wakaama_lwm2m/wakaama-master/core\liblwm2m.c ****     {
 335:g:/iot/IoT_Device_Demo/iot_link/network/lwm2m/wakaama_lwm2m/wakaama-master/core\liblwm2m.c ****         if (contextP->serverList == NULL)
 1144              		.loc 1 335 21
 1145 002e 7B68     		ldr	r3, [r7, #4]
 1146 0030 5B69     		ldr	r3, [r3, #20]
 1147              		.loc 1 335 12
 1148 0032 002B     		cmp	r3, #0
 1149 0034 06D1     		bne	.L57
 336:g:/iot/IoT_Device_Demo/iot_link/network/lwm2m/wakaama_lwm2m/wakaama-master/core\liblwm2m.c ****         {
 337:g:/iot/IoT_Device_Demo/iot_link/network/lwm2m/wakaama_lwm2m/wakaama-master/core\liblwm2m.c ****             contextP->bsCtrl.state = STATE_BOOTSTRAP_REQUIRED;
 1150              		.loc 1 337 36
 1151 0036 7B68     		ldr	r3, [r7, #4]
 1152 0038 0122     		movs	r2, #1
 1153 003a 83F82520 		strb	r2, [r3, #37]
 338:g:/iot/IoT_Device_Demo/iot_link/network/lwm2m/wakaama_lwm2m/wakaama-master/core\liblwm2m.c ****             contextP->bsCtrl.cnt = 0;
ARM GAS  C:\Users\ADMINI~1\AppData\Local\Temp\ccoKNcyf.s 			page 27


 1154              		.loc 1 338 34
 1155 003e 7B68     		ldr	r3, [r7, #4]
 1156 0040 0022     		movs	r2, #0
 1157 0042 9A62     		str	r2, [r3, #40]
 1158              	.L57:
 339:g:/iot/IoT_Device_Demo/iot_link/network/lwm2m/wakaama_lwm2m/wakaama-master/core\liblwm2m.c ****         }
 340:g:/iot/IoT_Device_Demo/iot_link/network/lwm2m/wakaama_lwm2m/wakaama-master/core\liblwm2m.c ****     }
 341:g:/iot/IoT_Device_Demo/iot_link/network/lwm2m/wakaama_lwm2m/wakaama-master/core\liblwm2m.c **** 
 342:g:/iot/IoT_Device_Demo/iot_link/network/lwm2m/wakaama_lwm2m/wakaama-master/core\liblwm2m.c ****     if (STATE_BOOTSTRAP_REQUIRED == contextP->bsCtrl.state)
 1159              		.loc 1 342 53
 1160 0044 7B68     		ldr	r3, [r7, #4]
 1161 0046 93F82530 		ldrb	r3, [r3, #37]	@ zero_extendqisi2
 1162              		.loc 1 342 8
 1163 004a 012B     		cmp	r3, #1
 1164 004c 36D1     		bne	.L64
 343:g:/iot/IoT_Device_Demo/iot_link/network/lwm2m/wakaama_lwm2m/wakaama-master/core\liblwm2m.c ****     {
 344:g:/iot/IoT_Device_Demo/iot_link/network/lwm2m/wakaama_lwm2m/wakaama-master/core\liblwm2m.c ****         if ((!prv_isBoostrpEnable(contextP))
 1165              		.loc 1 344 15
 1166 004e 7868     		ldr	r0, [r7, #4]
 1167 0050 FFF7FEFF 		bl	prv_isBoostrpEnable
 1168 0054 0346     		mov	r3, r0
 1169              		.loc 1 344 14
 1170 0056 83F00103 		eor	r3, r3, #1
 1171 005a DBB2     		uxtb	r3, r3
 1172              		.loc 1 344 12
 1173 005c 002B     		cmp	r3, #0
 1174 005e 03D1     		bne	.L59
 345:g:/iot/IoT_Device_Demo/iot_link/network/lwm2m/wakaama_lwm2m/wakaama-master/core\liblwm2m.c ****             || (contextP->bootstrapServerList == NULL))
 1175              		.loc 1 345 25
 1176 0060 7B68     		ldr	r3, [r7, #4]
 1177 0062 1B69     		ldr	r3, [r3, #16]
 1178              		.loc 1 345 13
 1179 0064 002B     		cmp	r3, #0
 1180 0066 07D1     		bne	.L60
 1181              	.L59:
 346:g:/iot/IoT_Device_Demo/iot_link/network/lwm2m/wakaama_lwm2m/wakaama-master/core\liblwm2m.c ****         {
 347:g:/iot/IoT_Device_Demo/iot_link/network/lwm2m/wakaama_lwm2m/wakaama-master/core\liblwm2m.c ****             contextP->bsCtrl.state = STATE_REGISTER_REQUIRED;
 1182              		.loc 1 347 36
 1183 0068 7B68     		ldr	r3, [r7, #4]
 1184 006a 0322     		movs	r2, #3
 1185 006c 83F82520 		strb	r2, [r3, #37]
 348:g:/iot/IoT_Device_Demo/iot_link/network/lwm2m/wakaama_lwm2m/wakaama-master/core\liblwm2m.c ****             contextP->bsCtrl.cnt = 0;
 1186              		.loc 1 348 34
 1187 0070 7B68     		ldr	r3, [r7, #4]
 1188 0072 0022     		movs	r2, #0
 1189 0074 9A62     		str	r2, [r3, #40]
 349:g:/iot/IoT_Device_Demo/iot_link/network/lwm2m/wakaama_lwm2m/wakaama-master/core\liblwm2m.c ****             goto END;
 1190              		.loc 1 349 13
 1191 0076 22E0     		b	.L58
 1192              	.L60:
 350:g:/iot/IoT_Device_Demo/iot_link/network/lwm2m/wakaama_lwm2m/wakaama-master/core\liblwm2m.c ****         }
 351:g:/iot/IoT_Device_Demo/iot_link/network/lwm2m/wakaama_lwm2m/wakaama-master/core\liblwm2m.c **** 
 352:g:/iot/IoT_Device_Demo/iot_link/network/lwm2m/wakaama_lwm2m/wakaama-master/core\liblwm2m.c ****         // bootstrapServerList not empty, int CIBS but bs ip not valid.
 353:g:/iot/IoT_Device_Demo/iot_link/network/lwm2m/wakaama_lwm2m/wakaama-master/core\liblwm2m.c ****         if((!lwm2m_isBsCtrlInServerInitiatedBs(contextP))
 1193              		.loc 1 353 14
 1194 0078 7868     		ldr	r0, [r7, #4]
 1195 007a FFF7FEFF 		bl	lwm2m_isBsCtrlInServerInitiatedBs
ARM GAS  C:\Users\ADMINI~1\AppData\Local\Temp\ccoKNcyf.s 			page 28


 1196 007e 0346     		mov	r3, r0
 1197              		.loc 1 353 13
 1198 0080 83F00103 		eor	r3, r3, #1
 1199 0084 DBB2     		uxtb	r3, r3
 1200              		.loc 1 353 11
 1201 0086 002B     		cmp	r3, #0
 1202 0088 18D0     		beq	.L64
 354:g:/iot/IoT_Device_Demo/iot_link/network/lwm2m/wakaama_lwm2m/wakaama-master/core\liblwm2m.c ****             #if defined(LWM2M_BOOTSTRAP)
 355:g:/iot/IoT_Device_Demo/iot_link/network/lwm2m/wakaama_lwm2m/wakaama-master/core\liblwm2m.c ****                && (!bootstrap_isBsServerIpValid(contextP))
 356:g:/iot/IoT_Device_Demo/iot_link/network/lwm2m/wakaama_lwm2m/wakaama-master/core\liblwm2m.c ****             #endif
 357:g:/iot/IoT_Device_Demo/iot_link/network/lwm2m/wakaama_lwm2m/wakaama-master/core\liblwm2m.c ****             )
 358:g:/iot/IoT_Device_Demo/iot_link/network/lwm2m/wakaama_lwm2m/wakaama-master/core\liblwm2m.c ****         {
 359:g:/iot/IoT_Device_Demo/iot_link/network/lwm2m/wakaama_lwm2m/wakaama-master/core\liblwm2m.c ****             //FBS
 360:g:/iot/IoT_Device_Demo/iot_link/network/lwm2m/wakaama_lwm2m/wakaama-master/core\liblwm2m.c ****             if (contextP->serverList)
 1203              		.loc 1 360 25
 1204 008a 7B68     		ldr	r3, [r7, #4]
 1205 008c 5B69     		ldr	r3, [r3, #20]
 1206              		.loc 1 360 16
 1207 008e 002B     		cmp	r3, #0
 1208 0090 07D0     		beq	.L61
 361:g:/iot/IoT_Device_Demo/iot_link/network/lwm2m/wakaama_lwm2m/wakaama-master/core\liblwm2m.c ****             {
 362:g:/iot/IoT_Device_Demo/iot_link/network/lwm2m/wakaama_lwm2m/wakaama-master/core\liblwm2m.c ****                 contextP->bsCtrl.state = STATE_REGISTER_REQUIRED;
 1209              		.loc 1 362 40
 1210 0092 7B68     		ldr	r3, [r7, #4]
 1211 0094 0322     		movs	r2, #3
 1212 0096 83F82520 		strb	r2, [r3, #37]
 363:g:/iot/IoT_Device_Demo/iot_link/network/lwm2m/wakaama_lwm2m/wakaama-master/core\liblwm2m.c ****                 contextP->bsCtrl.cnt = 0;
 1213              		.loc 1 363 38
 1214 009a 7B68     		ldr	r3, [r7, #4]
 1215 009c 0022     		movs	r2, #0
 1216 009e 9A62     		str	r2, [r3, #40]
 1217 00a0 0DE0     		b	.L58
 1218              	.L61:
 364:g:/iot/IoT_Device_Demo/iot_link/network/lwm2m/wakaama_lwm2m/wakaama-master/core\liblwm2m.c ****             }
 365:g:/iot/IoT_Device_Demo/iot_link/network/lwm2m/wakaama_lwm2m/wakaama-master/core\liblwm2m.c ****             // only in SIBS
 366:g:/iot/IoT_Device_Demo/iot_link/network/lwm2m/wakaama_lwm2m/wakaama-master/core\liblwm2m.c ****             else if ((contextP->serverList == NULL) && (contextP->bsCtrl.bsType == BOOTSTRAP_SEQUEN
 1219              		.loc 1 366 31
 1220 00a2 7B68     		ldr	r3, [r7, #4]
 1221 00a4 5B69     		ldr	r3, [r3, #20]
 1222              		.loc 1 366 21
 1223 00a6 002B     		cmp	r3, #0
 1224 00a8 08D1     		bne	.L64
 1225              		.loc 1 366 73 discriminator 1
 1226 00aa 7B68     		ldr	r3, [r7, #4]
 1227 00ac 93F82430 		ldrb	r3, [r3, #36]	@ zero_extendqisi2
 1228              		.loc 1 366 53 discriminator 1
 1229 00b0 022B     		cmp	r3, #2
 1230 00b2 03D1     		bne	.L64
 367:g:/iot/IoT_Device_Demo/iot_link/network/lwm2m/wakaama_lwm2m/wakaama-master/core\liblwm2m.c ****             {
 368:g:/iot/IoT_Device_Demo/iot_link/network/lwm2m/wakaama_lwm2m/wakaama-master/core\liblwm2m.c ****                 contextP->bsCtrl.cnt = 0;
 1231              		.loc 1 368 38
 1232 00b4 7B68     		ldr	r3, [r7, #4]
 1233 00b6 0022     		movs	r2, #0
 1234 00b8 9A62     		str	r2, [r3, #40]
 1235 00ba 00E0     		b	.L58
 1236              	.L64:
 369:g:/iot/IoT_Device_Demo/iot_link/network/lwm2m/wakaama_lwm2m/wakaama-master/core\liblwm2m.c ****             }
ARM GAS  C:\Users\ADMINI~1\AppData\Local\Temp\ccoKNcyf.s 			page 29


 370:g:/iot/IoT_Device_Demo/iot_link/network/lwm2m/wakaama_lwm2m/wakaama-master/core\liblwm2m.c ****             else
 371:g:/iot/IoT_Device_Demo/iot_link/network/lwm2m/wakaama_lwm2m/wakaama-master/core\liblwm2m.c ****             {
 372:g:/iot/IoT_Device_Demo/iot_link/network/lwm2m/wakaama_lwm2m/wakaama-master/core\liblwm2m.c ****             }
 373:g:/iot/IoT_Device_Demo/iot_link/network/lwm2m/wakaama_lwm2m/wakaama-master/core\liblwm2m.c ****         }
 374:g:/iot/IoT_Device_Demo/iot_link/network/lwm2m/wakaama_lwm2m/wakaama-master/core\liblwm2m.c ****     }
 375:g:/iot/IoT_Device_Demo/iot_link/network/lwm2m/wakaama_lwm2m/wakaama-master/core\liblwm2m.c **** END:
 1237              		.loc 1 375 1
 1238 00bc 00BF     		nop
 1239              	.L58:
 376:g:/iot/IoT_Device_Demo/iot_link/network/lwm2m/wakaama_lwm2m/wakaama-master/core\liblwm2m.c ****     if ((oldState != contextP->bsCtrl.state)
 1240              		.loc 1 376 38
 1241 00be 7B68     		ldr	r3, [r7, #4]
 1242 00c0 93F82530 		ldrb	r3, [r3, #37]	@ zero_extendqisi2
 1243              		.loc 1 376 8
 1244 00c4 FA7B     		ldrb	r2, [r7, #15]	@ zero_extendqisi2
 1245 00c6 9A42     		cmp	r2, r3
 1246 00c8 04D1     		bne	.L62
 377:g:/iot/IoT_Device_Demo/iot_link/network/lwm2m/wakaama_lwm2m/wakaama-master/core\liblwm2m.c ****         || (oldCnt != contextP->bsCtrl.cnt))
 1247              		.loc 1 377 39
 1248 00ca 7B68     		ldr	r3, [r7, #4]
 1249 00cc 9B6A     		ldr	r3, [r3, #40]
 1250              		.loc 1 377 9
 1251 00ce BA68     		ldr	r2, [r7, #8]
 1252 00d0 9A42     		cmp	r2, r3
 1253 00d2 2DD0     		beq	.L65
 1254              	.L62:
 378:g:/iot/IoT_Device_Demo/iot_link/network/lwm2m/wakaama_lwm2m/wakaama-master/core\liblwm2m.c ****     {
 379:g:/iot/IoT_Device_Demo/iot_link/network/lwm2m/wakaama_lwm2m/wakaama-master/core\liblwm2m.c ****         LOG_ARG("bsctrlstat (%d,%d) to (%d,%d)",(int)oldState, (int)oldCnt,
 1255              		.loc 1 379 9
 1256 00d4 FFF7FEFF 		bl	link_log_level_get
 1257 00d8 0346     		mov	r3, r0
 1258 00da 012B     		cmp	r3, #1
 1259 00dc 28D8     		bhi	.L65
 1260              		.loc 1 379 9 is_stmt 0 discriminator 1
 1261 00de 0120     		movs	r0, #1
 1262 00e0 FFF7FEFF 		bl	link_log_level_name
 1263 00e4 0446     		mov	r4, r0
 1264 00e6 FFF7FEFF 		bl	osal_sys_time
 1265 00ea 0246     		mov	r2, r0
 1266 00ec 0B46     		mov	r3, r1
 1267 00ee 1646     		mov	r6, r2
 1268 00f0 FFF7FEFF 		bl	lwm2m_gettime
 1269 00f4 0246     		mov	r2, r0
 1270 00f6 0B46     		mov	r3, r1
 1271 00f8 1046     		mov	r0, r2
 1272 00fa FB7B     		ldrb	r3, [r7, #15]	@ zero_extendqisi2
 1273 00fc BA68     		ldr	r2, [r7, #8]
 1274 00fe 7968     		ldr	r1, [r7, #4]
 1275 0100 91F82510 		ldrb	r1, [r1, #37]	@ zero_extendqisi2
 1276 0104 0D46     		mov	r5, r1
 1277 0106 7968     		ldr	r1, [r7, #4]
 1278 0108 896A     		ldr	r1, [r1, #40]
 1279 010a 0791     		str	r1, [sp, #28]
 1280 010c 0695     		str	r5, [sp, #24]
 1281 010e 0592     		str	r2, [sp, #20]
 1282 0110 0493     		str	r3, [sp, #16]
 1283 0112 40F27B13 		movw	r3, #379
ARM GAS  C:\Users\ADMINI~1\AppData\Local\Temp\ccoKNcyf.s 			page 30


 1284 0116 0393     		str	r3, [sp, #12]
 1285 0118 074B     		ldr	r3, .L66
 1286 011a 0293     		str	r3, [sp, #8]
 1287 011c 0190     		str	r0, [sp, #4]
 1288 011e 40F27B13 		movw	r3, #379
 1289 0122 0093     		str	r3, [sp]
 1290 0124 054B     		ldr	r3, .L66+4
 1291 0126 3246     		mov	r2, r6
 1292 0128 2146     		mov	r1, r4
 1293 012a 0548     		ldr	r0, .L66+8
 1294 012c FFF7FEFF 		bl	printf
 1295              	.L65:
 380:g:/iot/IoT_Device_Demo/iot_link/network/lwm2m/wakaama_lwm2m/wakaama-master/core\liblwm2m.c ****                     (int)contextP->bsCtrl.state,(int)contextP->bsCtrl.cnt);
 381:g:/iot/IoT_Device_Demo/iot_link/network/lwm2m/wakaama_lwm2m/wakaama-master/core\liblwm2m.c ****     }
 382:g:/iot/IoT_Device_Demo/iot_link/network/lwm2m/wakaama_lwm2m/wakaama-master/core\liblwm2m.c **** 
 383:g:/iot/IoT_Device_Demo/iot_link/network/lwm2m/wakaama_lwm2m/wakaama-master/core\liblwm2m.c **** }
 1296              		.loc 1 383 1 is_stmt 1
 1297 0130 00BF     		nop
 1298 0132 1437     		adds	r7, r7, #20
 1299              	.LCFI72:
 1300              		.cfi_def_cfa_offset 20
 1301 0134 BD46     		mov	sp, r7
 1302              	.LCFI73:
 1303              		.cfi_def_cfa_register 13
 1304              		@ sp needed
 1305 0136 F0BD     		pop	{r4, r5, r6, r7, pc}
 1306              	.L67:
 1307              		.align	2
 1308              	.L66:
 1309 0138 00000000 		.word	__func__.8707
 1310 013c 00000000 		.word	__FUNCTION__.8706
 1311 0140 2C000000 		.word	.LC1
 1312              		.cfi_endproc
 1313              	.LFE17:
 1315              		.section	.text.lwm2m_delayBsRetry,"ax",%progbits
 1316              		.align	1
 1317              		.syntax unified
 1318              		.thumb
 1319              		.thumb_func
 1320              		.fpu fpv4-sp-d16
 1322              	lwm2m_delayBsRetry:
 1323              	.LFB18:
 384:g:/iot/IoT_Device_Demo/iot_link/network/lwm2m/wakaama_lwm2m/wakaama-master/core\liblwm2m.c **** 
 385:g:/iot/IoT_Device_Demo/iot_link/network/lwm2m/wakaama_lwm2m/wakaama-master/core\liblwm2m.c **** static void lwm2m_delayBsRetry(lwm2m_context_t *contextP)
 386:g:/iot/IoT_Device_Demo/iot_link/network/lwm2m/wakaama_lwm2m/wakaama-master/core\liblwm2m.c **** {
 1324              		.loc 1 386 1
 1325              		.cfi_startproc
 1326              		@ args = 0, pretend = 0, frame = 24
 1327              		@ frame_needed = 1, uses_anonymous_args = 0
 1328 0000 80B5     		push	{r7, lr}
 1329              	.LCFI74:
 1330              		.cfi_def_cfa_offset 8
 1331              		.cfi_offset 7, -8
 1332              		.cfi_offset 14, -4
 1333 0002 86B0     		sub	sp, sp, #24
 1334              	.LCFI75:
 1335              		.cfi_def_cfa_offset 32
ARM GAS  C:\Users\ADMINI~1\AppData\Local\Temp\ccoKNcyf.s 			page 31


 1336 0004 00AF     		add	r7, sp, #0
 1337              	.LCFI76:
 1338              		.cfi_def_cfa_register 7
 1339 0006 7860     		str	r0, [r7, #4]
 387:g:/iot/IoT_Device_Demo/iot_link/network/lwm2m/wakaama_lwm2m/wakaama-master/core\liblwm2m.c ****     uint32_t delayBase;
 388:g:/iot/IoT_Device_Demo/iot_link/network/lwm2m/wakaama_lwm2m/wakaama-master/core\liblwm2m.c ****     uint32_t delayInterval;
 389:g:/iot/IoT_Device_Demo/iot_link/network/lwm2m/wakaama_lwm2m/wakaama-master/core\liblwm2m.c ****     uint32_t cnt = contextP->bsCtrl.cnt;
 1340              		.loc 1 389 14
 1341 0008 7B68     		ldr	r3, [r7, #4]
 1342 000a 9B6A     		ldr	r3, [r3, #40]
 1343 000c FB60     		str	r3, [r7, #12]
 390:g:/iot/IoT_Device_Demo/iot_link/network/lwm2m/wakaama_lwm2m/wakaama-master/core\liblwm2m.c ****     uint32_t expireTime;
 391:g:/iot/IoT_Device_Demo/iot_link/network/lwm2m/wakaama_lwm2m/wakaama-master/core\liblwm2m.c **** 
 392:g:/iot/IoT_Device_Demo/iot_link/network/lwm2m/wakaama_lwm2m/wakaama-master/core\liblwm2m.c ****     if (contextP->bsCtrl.state == STATE_REGISTER_REQUIRED)
 1344              		.loc 1 392 25
 1345 000e 7B68     		ldr	r3, [r7, #4]
 1346 0010 93F82530 		ldrb	r3, [r3, #37]	@ zero_extendqisi2
 1347              		.loc 1 392 8
 1348 0014 032B     		cmp	r3, #3
 1349 0016 04D1     		bne	.L69
 393:g:/iot/IoT_Device_Demo/iot_link/network/lwm2m/wakaama_lwm2m/wakaama-master/core\liblwm2m.c ****     {
 394:g:/iot/IoT_Device_Demo/iot_link/network/lwm2m/wakaama_lwm2m/wakaama-master/core\liblwm2m.c ****         delayBase = FACTORY_BS_DELAY_BASE;
 1350              		.loc 1 394 19
 1351 0018 0023     		movs	r3, #0
 1352 001a 7B61     		str	r3, [r7, #20]
 395:g:/iot/IoT_Device_Demo/iot_link/network/lwm2m/wakaama_lwm2m/wakaama-master/core\liblwm2m.c ****         delayInterval = FACTORY_BS_DELAY_INTERVAL;
 1353              		.loc 1 395 23
 1354 001c 0A23     		movs	r3, #10
 1355 001e 3B61     		str	r3, [r7, #16]
 1356 0020 0EE0     		b	.L70
 1357              	.L69:
 396:g:/iot/IoT_Device_Demo/iot_link/network/lwm2m/wakaama_lwm2m/wakaama-master/core\liblwm2m.c ****     }
 397:g:/iot/IoT_Device_Demo/iot_link/network/lwm2m/wakaama_lwm2m/wakaama-master/core\liblwm2m.c ****     else
 398:g:/iot/IoT_Device_Demo/iot_link/network/lwm2m/wakaama_lwm2m/wakaama-master/core\liblwm2m.c ****     {
 399:g:/iot/IoT_Device_Demo/iot_link/network/lwm2m/wakaama_lwm2m/wakaama-master/core\liblwm2m.c ****         delayBase = CLIENT_INITIATED_BS_DELAY_BASE;
 1358              		.loc 1 399 19
 1359 0022 0023     		movs	r3, #0
 1360 0024 7B61     		str	r3, [r7, #20]
 400:g:/iot/IoT_Device_Demo/iot_link/network/lwm2m/wakaama_lwm2m/wakaama-master/core\liblwm2m.c ****         delayInterval = CLIENT_INITIATED_BS_DELAY_INTERVAL;
 1361              		.loc 1 400 23
 1362 0026 0A23     		movs	r3, #10
 1363 0028 3B61     		str	r3, [r7, #16]
 401:g:/iot/IoT_Device_Demo/iot_link/network/lwm2m/wakaama_lwm2m/wakaama-master/core\liblwm2m.c ****         if ((contextP->bsCtrl.bsType == BOOTSTRAP_SEQUENCE) && (cnt > 0))
 1364              		.loc 1 401 30
 1365 002a 7B68     		ldr	r3, [r7, #4]
 1366 002c 93F82430 		ldrb	r3, [r3, #36]	@ zero_extendqisi2
 1367              		.loc 1 401 12
 1368 0030 022B     		cmp	r3, #2
 1369 0032 05D1     		bne	.L70
 1370              		.loc 1 401 61 discriminator 1
 1371 0034 FB68     		ldr	r3, [r7, #12]
 1372 0036 002B     		cmp	r3, #0
 1373 0038 02D0     		beq	.L70
 402:g:/iot/IoT_Device_Demo/iot_link/network/lwm2m/wakaama_lwm2m/wakaama-master/core\liblwm2m.c ****         {
 403:g:/iot/IoT_Device_Demo/iot_link/network/lwm2m/wakaama_lwm2m/wakaama-master/core\liblwm2m.c ****             cnt--;
 1374              		.loc 1 403 16
 1375 003a FB68     		ldr	r3, [r7, #12]
ARM GAS  C:\Users\ADMINI~1\AppData\Local\Temp\ccoKNcyf.s 			page 32


 1376 003c 013B     		subs	r3, r3, #1
 1377 003e FB60     		str	r3, [r7, #12]
 1378              	.L70:
 404:g:/iot/IoT_Device_Demo/iot_link/network/lwm2m/wakaama_lwm2m/wakaama-master/core\liblwm2m.c ****         }
 405:g:/iot/IoT_Device_Demo/iot_link/network/lwm2m/wakaama_lwm2m/wakaama-master/core\liblwm2m.c ****     }
 406:g:/iot/IoT_Device_Demo/iot_link/network/lwm2m/wakaama_lwm2m/wakaama-master/core\liblwm2m.c **** 
 407:g:/iot/IoT_Device_Demo/iot_link/network/lwm2m/wakaama_lwm2m/wakaama-master/core\liblwm2m.c ****     expireTime = delayBase + delayInterval * cnt;
 1379              		.loc 1 407 44
 1380 0040 3B69     		ldr	r3, [r7, #16]
 1381 0042 FA68     		ldr	r2, [r7, #12]
 1382 0044 02FB03F3 		mul	r3, r2, r3
 1383              		.loc 1 407 16
 1384 0048 7A69     		ldr	r2, [r7, #20]
 1385 004a 1344     		add	r3, r3, r2
 1386 004c BB60     		str	r3, [r7, #8]
 408:g:/iot/IoT_Device_Demo/iot_link/network/lwm2m/wakaama_lwm2m/wakaama-master/core\liblwm2m.c ****     if (expireTime > 0)
 1387              		.loc 1 408 8
 1388 004e BB68     		ldr	r3, [r7, #8]
 1389 0050 002B     		cmp	r3, #0
 1390 0052 02D0     		beq	.L72
 409:g:/iot/IoT_Device_Demo/iot_link/network/lwm2m/wakaama_lwm2m/wakaama-master/core\liblwm2m.c ****     {
 410:g:/iot/IoT_Device_Demo/iot_link/network/lwm2m/wakaama_lwm2m/wakaama-master/core\liblwm2m.c ****         lwm2m_delay(expireTime);
 1391              		.loc 1 410 9
 1392 0054 B868     		ldr	r0, [r7, #8]
 1393 0056 FFF7FEFF 		bl	lwm2m_delay
 1394              	.L72:
 411:g:/iot/IoT_Device_Demo/iot_link/network/lwm2m/wakaama_lwm2m/wakaama-master/core\liblwm2m.c ****     }
 412:g:/iot/IoT_Device_Demo/iot_link/network/lwm2m/wakaama_lwm2m/wakaama-master/core\liblwm2m.c **** }
 1395              		.loc 1 412 1
 1396 005a 00BF     		nop
 1397 005c 1837     		adds	r7, r7, #24
 1398              	.LCFI77:
 1399              		.cfi_def_cfa_offset 8
 1400 005e BD46     		mov	sp, r7
 1401              	.LCFI78:
 1402              		.cfi_def_cfa_register 13
 1403              		@ sp needed
 1404 0060 80BD     		pop	{r7, pc}
 1405              		.cfi_endproc
 1406              	.LFE18:
 1408              		.section	.text.lwm2m_getBsCtrlStat,"ax",%progbits
 1409              		.align	1
 1410              		.global	lwm2m_getBsCtrlStat
 1411              		.syntax unified
 1412              		.thumb
 1413              		.thumb_func
 1414              		.fpu fpv4-sp-d16
 1416              	lwm2m_getBsCtrlStat:
 1417              	.LFB19:
 413:g:/iot/IoT_Device_Demo/iot_link/network/lwm2m/wakaama_lwm2m/wakaama-master/core\liblwm2m.c **** 
 414:g:/iot/IoT_Device_Demo/iot_link/network/lwm2m/wakaama_lwm2m/wakaama-master/core\liblwm2m.c **** lwm2m_client_state_t lwm2m_getBsCtrlStat(const lwm2m_context_t *contextP)
 415:g:/iot/IoT_Device_Demo/iot_link/network/lwm2m/wakaama_lwm2m/wakaama-master/core\liblwm2m.c **** {
 1418              		.loc 1 415 1
 1419              		.cfi_startproc
 1420              		@ args = 0, pretend = 0, frame = 8
 1421              		@ frame_needed = 1, uses_anonymous_args = 0
 1422              		@ link register save eliminated.
ARM GAS  C:\Users\ADMINI~1\AppData\Local\Temp\ccoKNcyf.s 			page 33


 1423 0000 80B4     		push	{r7}
 1424              	.LCFI79:
 1425              		.cfi_def_cfa_offset 4
 1426              		.cfi_offset 7, -4
 1427 0002 83B0     		sub	sp, sp, #12
 1428              	.LCFI80:
 1429              		.cfi_def_cfa_offset 16
 1430 0004 00AF     		add	r7, sp, #0
 1431              	.LCFI81:
 1432              		.cfi_def_cfa_register 7
 1433 0006 7860     		str	r0, [r7, #4]
 416:g:/iot/IoT_Device_Demo/iot_link/network/lwm2m/wakaama_lwm2m/wakaama-master/core\liblwm2m.c ****     return contextP->bsCtrl.state;
 1434              		.loc 1 416 28
 1435 0008 7B68     		ldr	r3, [r7, #4]
 1436 000a 93F82530 		ldrb	r3, [r3, #37]	@ zero_extendqisi2
 417:g:/iot/IoT_Device_Demo/iot_link/network/lwm2m/wakaama_lwm2m/wakaama-master/core\liblwm2m.c **** }
 1437              		.loc 1 417 1
 1438 000e 1846     		mov	r0, r3
 1439 0010 0C37     		adds	r7, r7, #12
 1440              	.LCFI82:
 1441              		.cfi_def_cfa_offset 4
 1442 0012 BD46     		mov	sp, r7
 1443              	.LCFI83:
 1444              		.cfi_def_cfa_register 13
 1445              		@ sp needed
 1446 0014 5DF8047B 		ldr	r7, [sp], #4
 1447              	.LCFI84:
 1448              		.cfi_restore 7
 1449              		.cfi_def_cfa_offset 0
 1450 0018 7047     		bx	lr
 1451              		.cfi_endproc
 1452              	.LFE19:
 1454              		.section	.text.prv_refreshServerList,"ax",%progbits
 1455              		.align	1
 1456              		.syntax unified
 1457              		.thumb
 1458              		.thumb_func
 1459              		.fpu fpv4-sp-d16
 1461              	prv_refreshServerList:
 1462              	.LFB20:
 418:g:/iot/IoT_Device_Demo/iot_link/network/lwm2m/wakaama_lwm2m/wakaama-master/core\liblwm2m.c **** 
 419:g:/iot/IoT_Device_Demo/iot_link/network/lwm2m/wakaama_lwm2m/wakaama-master/core\liblwm2m.c **** 
 420:g:/iot/IoT_Device_Demo/iot_link/network/lwm2m/wakaama_lwm2m/wakaama-master/core\liblwm2m.c **** #ifdef LWM2M_CLIENT_MODE
 421:g:/iot/IoT_Device_Demo/iot_link/network/lwm2m/wakaama_lwm2m/wakaama-master/core\liblwm2m.c **** static int prv_refreshServerList(lwm2m_context_t *contextP)
 422:g:/iot/IoT_Device_Demo/iot_link/network/lwm2m/wakaama_lwm2m/wakaama-master/core\liblwm2m.c **** {
 1463              		.loc 1 422 1
 1464              		.cfi_startproc
 1465              		@ args = 0, pretend = 0, frame = 16
 1466              		@ frame_needed = 1, uses_anonymous_args = 0
 1467 0000 80B5     		push	{r7, lr}
 1468              	.LCFI85:
 1469              		.cfi_def_cfa_offset 8
 1470              		.cfi_offset 7, -8
 1471              		.cfi_offset 14, -4
 1472 0002 84B0     		sub	sp, sp, #16
 1473              	.LCFI86:
 1474              		.cfi_def_cfa_offset 24
ARM GAS  C:\Users\ADMINI~1\AppData\Local\Temp\ccoKNcyf.s 			page 34


 1475 0004 00AF     		add	r7, sp, #0
 1476              	.LCFI87:
 1477              		.cfi_def_cfa_register 7
 1478 0006 7860     		str	r0, [r7, #4]
 423:g:/iot/IoT_Device_Demo/iot_link/network/lwm2m/wakaama_lwm2m/wakaama-master/core\liblwm2m.c ****     lwm2m_server_t *targetP;
 424:g:/iot/IoT_Device_Demo/iot_link/network/lwm2m/wakaama_lwm2m/wakaama-master/core\liblwm2m.c ****     lwm2m_server_t *nextP;
 425:g:/iot/IoT_Device_Demo/iot_link/network/lwm2m/wakaama_lwm2m/wakaama-master/core\liblwm2m.c **** 
 426:g:/iot/IoT_Device_Demo/iot_link/network/lwm2m/wakaama_lwm2m/wakaama-master/core\liblwm2m.c ****     // Remove all servers marked as dirty
 427:g:/iot/IoT_Device_Demo/iot_link/network/lwm2m/wakaama_lwm2m/wakaama-master/core\liblwm2m.c ****     targetP = contextP->bootstrapServerList;
 1479              		.loc 1 427 13
 1480 0008 7B68     		ldr	r3, [r7, #4]
 1481 000a 1B69     		ldr	r3, [r3, #16]
 1482 000c FB60     		str	r3, [r7, #12]
 428:g:/iot/IoT_Device_Demo/iot_link/network/lwm2m/wakaama_lwm2m/wakaama-master/core\liblwm2m.c ****     contextP->bootstrapServerList = NULL;
 1483              		.loc 1 428 35
 1484 000e 7B68     		ldr	r3, [r7, #4]
 1485 0010 0022     		movs	r2, #0
 1486 0012 1A61     		str	r2, [r3, #16]
 429:g:/iot/IoT_Device_Demo/iot_link/network/lwm2m/wakaama_lwm2m/wakaama-master/core\liblwm2m.c ****     while (targetP != NULL)
 1487              		.loc 1 429 11
 1488 0014 23E0     		b	.L76
 1489              	.L79:
 430:g:/iot/IoT_Device_Demo/iot_link/network/lwm2m/wakaama_lwm2m/wakaama-master/core\liblwm2m.c ****     {
 431:g:/iot/IoT_Device_Demo/iot_link/network/lwm2m/wakaama_lwm2m/wakaama-master/core\liblwm2m.c ****         nextP = targetP->next;
 1490              		.loc 1 431 15
 1491 0016 FB68     		ldr	r3, [r7, #12]
 1492 0018 1B68     		ldr	r3, [r3]
 1493 001a BB60     		str	r3, [r7, #8]
 432:g:/iot/IoT_Device_Demo/iot_link/network/lwm2m/wakaama_lwm2m/wakaama-master/core\liblwm2m.c ****         targetP->next = NULL;
 1494              		.loc 1 432 23
 1495 001c FB68     		ldr	r3, [r7, #12]
 1496 001e 0022     		movs	r2, #0
 1497 0020 1A60     		str	r2, [r3]
 433:g:/iot/IoT_Device_Demo/iot_link/network/lwm2m/wakaama_lwm2m/wakaama-master/core\liblwm2m.c ****         if (!targetP->dirty)
 1498              		.loc 1 433 21
 1499 0022 FB68     		ldr	r3, [r7, #12]
 1500 0024 93F82830 		ldrb	r3, [r3, #40]	@ zero_extendqisi2
 1501              		.loc 1 433 13
 1502 0028 83F00103 		eor	r3, r3, #1
 1503 002c DBB2     		uxtb	r3, r3
 1504              		.loc 1 433 12
 1505 002e 002B     		cmp	r3, #0
 1506 0030 0DD0     		beq	.L77
 434:g:/iot/IoT_Device_Demo/iot_link/network/lwm2m/wakaama_lwm2m/wakaama-master/core\liblwm2m.c ****         {
 435:g:/iot/IoT_Device_Demo/iot_link/network/lwm2m/wakaama_lwm2m/wakaama-master/core\liblwm2m.c ****             targetP->status = STATE_DEREGISTERED;
 1507              		.loc 1 435 29
 1508 0032 FB68     		ldr	r3, [r7, #12]
 1509 0034 0022     		movs	r2, #0
 1510 0036 83F82020 		strb	r2, [r3, #32]
 436:g:/iot/IoT_Device_Demo/iot_link/network/lwm2m/wakaama_lwm2m/wakaama-master/core\liblwm2m.c ****             contextP->bootstrapServerList = (lwm2m_server_t *)LWM2M_LIST_ADD(contextP->bootstrapSer
 1511              		.loc 1 436 63
 1512 003a 7B68     		ldr	r3, [r7, #4]
 1513 003c 1B69     		ldr	r3, [r3, #16]
 1514 003e F968     		ldr	r1, [r7, #12]
 1515 0040 1846     		mov	r0, r3
 1516 0042 FFF7FEFF 		bl	lwm2m_list_add
 1517 0046 0246     		mov	r2, r0
ARM GAS  C:\Users\ADMINI~1\AppData\Local\Temp\ccoKNcyf.s 			page 35


 1518              		.loc 1 436 43
 1519 0048 7B68     		ldr	r3, [r7, #4]
 1520 004a 1A61     		str	r2, [r3, #16]
 1521 004c 05E0     		b	.L78
 1522              	.L77:
 437:g:/iot/IoT_Device_Demo/iot_link/network/lwm2m/wakaama_lwm2m/wakaama-master/core\liblwm2m.c ****         }
 438:g:/iot/IoT_Device_Demo/iot_link/network/lwm2m/wakaama_lwm2m/wakaama-master/core\liblwm2m.c ****         else
 439:g:/iot/IoT_Device_Demo/iot_link/network/lwm2m/wakaama_lwm2m/wakaama-master/core\liblwm2m.c ****         {
 440:g:/iot/IoT_Device_Demo/iot_link/network/lwm2m/wakaama_lwm2m/wakaama-master/core\liblwm2m.c ****             prv_deleteServer(targetP, contextP->userData);
 1523              		.loc 1 440 13
 1524 004e 7B68     		ldr	r3, [r7, #4]
 1525 0050 5B6B     		ldr	r3, [r3, #52]
 1526 0052 1946     		mov	r1, r3
 1527 0054 F868     		ldr	r0, [r7, #12]
 1528 0056 FFF7FEFF 		bl	prv_deleteServer
 1529              	.L78:
 441:g:/iot/IoT_Device_Demo/iot_link/network/lwm2m/wakaama_lwm2m/wakaama-master/core\liblwm2m.c ****         }
 442:g:/iot/IoT_Device_Demo/iot_link/network/lwm2m/wakaama_lwm2m/wakaama-master/core\liblwm2m.c ****         targetP = nextP;
 1530              		.loc 1 442 17
 1531 005a BB68     		ldr	r3, [r7, #8]
 1532 005c FB60     		str	r3, [r7, #12]
 1533              	.L76:
 429:g:/iot/IoT_Device_Demo/iot_link/network/lwm2m/wakaama_lwm2m/wakaama-master/core\liblwm2m.c ****     {
 1534              		.loc 1 429 11
 1535 005e FB68     		ldr	r3, [r7, #12]
 1536 0060 002B     		cmp	r3, #0
 1537 0062 D8D1     		bne	.L79
 443:g:/iot/IoT_Device_Demo/iot_link/network/lwm2m/wakaama_lwm2m/wakaama-master/core\liblwm2m.c ****     }
 444:g:/iot/IoT_Device_Demo/iot_link/network/lwm2m/wakaama_lwm2m/wakaama-master/core\liblwm2m.c ****     targetP = contextP->serverList;
 1538              		.loc 1 444 13
 1539 0064 7B68     		ldr	r3, [r7, #4]
 1540 0066 5B69     		ldr	r3, [r3, #20]
 1541 0068 FB60     		str	r3, [r7, #12]
 445:g:/iot/IoT_Device_Demo/iot_link/network/lwm2m/wakaama_lwm2m/wakaama-master/core\liblwm2m.c ****     contextP->serverList = NULL;
 1542              		.loc 1 445 26
 1543 006a 7B68     		ldr	r3, [r7, #4]
 1544 006c 0022     		movs	r2, #0
 1545 006e 5A61     		str	r2, [r3, #20]
 446:g:/iot/IoT_Device_Demo/iot_link/network/lwm2m/wakaama_lwm2m/wakaama-master/core\liblwm2m.c ****     while (targetP != NULL)
 1546              		.loc 1 446 11
 1547 0070 1FE0     		b	.L80
 1548              	.L83:
 447:g:/iot/IoT_Device_Demo/iot_link/network/lwm2m/wakaama_lwm2m/wakaama-master/core\liblwm2m.c ****     {
 448:g:/iot/IoT_Device_Demo/iot_link/network/lwm2m/wakaama_lwm2m/wakaama-master/core\liblwm2m.c ****         nextP = targetP->next;
 1549              		.loc 1 448 15
 1550 0072 FB68     		ldr	r3, [r7, #12]
 1551 0074 1B68     		ldr	r3, [r3]
 1552 0076 BB60     		str	r3, [r7, #8]
 449:g:/iot/IoT_Device_Demo/iot_link/network/lwm2m/wakaama_lwm2m/wakaama-master/core\liblwm2m.c ****         targetP->next = NULL;
 1553              		.loc 1 449 23
 1554 0078 FB68     		ldr	r3, [r7, #12]
 1555 007a 0022     		movs	r2, #0
 1556 007c 1A60     		str	r2, [r3]
 450:g:/iot/IoT_Device_Demo/iot_link/network/lwm2m/wakaama_lwm2m/wakaama-master/core\liblwm2m.c ****         if (!targetP->dirty)
 1557              		.loc 1 450 21
 1558 007e FB68     		ldr	r3, [r7, #12]
 1559 0080 93F82830 		ldrb	r3, [r3, #40]	@ zero_extendqisi2
ARM GAS  C:\Users\ADMINI~1\AppData\Local\Temp\ccoKNcyf.s 			page 36


 1560              		.loc 1 450 13
 1561 0084 83F00103 		eor	r3, r3, #1
 1562 0088 DBB2     		uxtb	r3, r3
 1563              		.loc 1 450 12
 1564 008a 002B     		cmp	r3, #0
 1565 008c 09D0     		beq	.L81
 451:g:/iot/IoT_Device_Demo/iot_link/network/lwm2m/wakaama_lwm2m/wakaama-master/core\liblwm2m.c ****         {
 452:g:/iot/IoT_Device_Demo/iot_link/network/lwm2m/wakaama_lwm2m/wakaama-master/core\liblwm2m.c ****             // TODO: Should we revert the status to STATE_DEREGISTERED ?
 453:g:/iot/IoT_Device_Demo/iot_link/network/lwm2m/wakaama_lwm2m/wakaama-master/core\liblwm2m.c ****             contextP->serverList = (lwm2m_server_t *)LWM2M_LIST_ADD(contextP->serverList, targetP);
 1566              		.loc 1 453 54
 1567 008e 7B68     		ldr	r3, [r7, #4]
 1568 0090 5B69     		ldr	r3, [r3, #20]
 1569 0092 F968     		ldr	r1, [r7, #12]
 1570 0094 1846     		mov	r0, r3
 1571 0096 FFF7FEFF 		bl	lwm2m_list_add
 1572 009a 0246     		mov	r2, r0
 1573              		.loc 1 453 34
 1574 009c 7B68     		ldr	r3, [r7, #4]
 1575 009e 5A61     		str	r2, [r3, #20]
 1576 00a0 05E0     		b	.L82
 1577              	.L81:
 454:g:/iot/IoT_Device_Demo/iot_link/network/lwm2m/wakaama_lwm2m/wakaama-master/core\liblwm2m.c ****         }
 455:g:/iot/IoT_Device_Demo/iot_link/network/lwm2m/wakaama_lwm2m/wakaama-master/core\liblwm2m.c ****         else
 456:g:/iot/IoT_Device_Demo/iot_link/network/lwm2m/wakaama_lwm2m/wakaama-master/core\liblwm2m.c ****         {
 457:g:/iot/IoT_Device_Demo/iot_link/network/lwm2m/wakaama_lwm2m/wakaama-master/core\liblwm2m.c ****             prv_deleteServer(targetP, contextP->userData);
 1578              		.loc 1 457 13
 1579 00a2 7B68     		ldr	r3, [r7, #4]
 1580 00a4 5B6B     		ldr	r3, [r3, #52]
 1581 00a6 1946     		mov	r1, r3
 1582 00a8 F868     		ldr	r0, [r7, #12]
 1583 00aa FFF7FEFF 		bl	prv_deleteServer
 1584              	.L82:
 458:g:/iot/IoT_Device_Demo/iot_link/network/lwm2m/wakaama_lwm2m/wakaama-master/core\liblwm2m.c ****         }
 459:g:/iot/IoT_Device_Demo/iot_link/network/lwm2m/wakaama_lwm2m/wakaama-master/core\liblwm2m.c ****         targetP = nextP;
 1585              		.loc 1 459 17
 1586 00ae BB68     		ldr	r3, [r7, #8]
 1587 00b0 FB60     		str	r3, [r7, #12]
 1588              	.L80:
 446:g:/iot/IoT_Device_Demo/iot_link/network/lwm2m/wakaama_lwm2m/wakaama-master/core\liblwm2m.c ****     {
 1589              		.loc 1 446 11
 1590 00b2 FB68     		ldr	r3, [r7, #12]
 1591 00b4 002B     		cmp	r3, #0
 1592 00b6 DCD1     		bne	.L83
 460:g:/iot/IoT_Device_Demo/iot_link/network/lwm2m/wakaama_lwm2m/wakaama-master/core\liblwm2m.c ****     }
 461:g:/iot/IoT_Device_Demo/iot_link/network/lwm2m/wakaama_lwm2m/wakaama-master/core\liblwm2m.c **** 
 462:g:/iot/IoT_Device_Demo/iot_link/network/lwm2m/wakaama_lwm2m/wakaama-master/core\liblwm2m.c ****     return object_getServers(contextP, false);
 1593              		.loc 1 462 12
 1594 00b8 0021     		movs	r1, #0
 1595 00ba 7868     		ldr	r0, [r7, #4]
 1596 00bc FFF7FEFF 		bl	object_getServers
 1597 00c0 0346     		mov	r3, r0
 463:g:/iot/IoT_Device_Demo/iot_link/network/lwm2m/wakaama_lwm2m/wakaama-master/core\liblwm2m.c **** }
 1598              		.loc 1 463 1
 1599 00c2 1846     		mov	r0, r3
 1600 00c4 1037     		adds	r7, r7, #16
 1601              	.LCFI88:
 1602              		.cfi_def_cfa_offset 8
ARM GAS  C:\Users\ADMINI~1\AppData\Local\Temp\ccoKNcyf.s 			page 37


 1603 00c6 BD46     		mov	sp, r7
 1604              	.LCFI89:
 1605              		.cfi_def_cfa_register 13
 1606              		@ sp needed
 1607 00c8 80BD     		pop	{r7, pc}
 1608              		.cfi_endproc
 1609              	.LFE20:
 1611              		.section	.text.lwm2m_configure,"ax",%progbits
 1612              		.align	1
 1613              		.global	lwm2m_configure
 1614              		.syntax unified
 1615              		.thumb
 1616              		.thumb_func
 1617              		.fpu fpv4-sp-d16
 1619              	lwm2m_configure:
 1620              	.LFB21:
 464:g:/iot/IoT_Device_Demo/iot_link/network/lwm2m/wakaama_lwm2m/wakaama-master/core\liblwm2m.c **** //result = lwm2m_configure(lwm2mH, name, NULL, NULL, OBJ_COUNT, objArray)
 465:g:/iot/IoT_Device_Demo/iot_link/network/lwm2m/wakaama_lwm2m/wakaama-master/core\liblwm2m.c **** int lwm2m_configure(lwm2m_context_t *contextP,
 466:g:/iot/IoT_Device_Demo/iot_link/network/lwm2m/wakaama_lwm2m/wakaama-master/core\liblwm2m.c ****                     const char *endpointName,
 467:g:/iot/IoT_Device_Demo/iot_link/network/lwm2m/wakaama_lwm2m/wakaama-master/core\liblwm2m.c ****                     const char *msisdn,
 468:g:/iot/IoT_Device_Demo/iot_link/network/lwm2m/wakaama_lwm2m/wakaama-master/core\liblwm2m.c ****                     const char *altPath,
 469:g:/iot/IoT_Device_Demo/iot_link/network/lwm2m/wakaama_lwm2m/wakaama-master/core\liblwm2m.c ****                     uint16_t numObject,
 470:g:/iot/IoT_Device_Demo/iot_link/network/lwm2m/wakaama_lwm2m/wakaama-master/core\liblwm2m.c ****                     lwm2m_object_t *objectList[])
 471:g:/iot/IoT_Device_Demo/iot_link/network/lwm2m/wakaama_lwm2m/wakaama-master/core\liblwm2m.c **** {
 1621              		.loc 1 471 1
 1622              		.cfi_startproc
 1623              		@ args = 8, pretend = 0, frame = 24
 1624              		@ frame_needed = 1, uses_anonymous_args = 0
 1625 0000 80B5     		push	{r7, lr}
 1626              	.LCFI90:
 1627              		.cfi_def_cfa_offset 8
 1628              		.cfi_offset 7, -8
 1629              		.cfi_offset 14, -4
 1630 0002 86B0     		sub	sp, sp, #24
 1631              	.LCFI91:
 1632              		.cfi_def_cfa_offset 32
 1633 0004 00AF     		add	r7, sp, #0
 1634              	.LCFI92:
 1635              		.cfi_def_cfa_register 7
 1636 0006 F860     		str	r0, [r7, #12]
 1637 0008 B960     		str	r1, [r7, #8]
 1638 000a 7A60     		str	r2, [r7, #4]
 1639 000c 3B60     		str	r3, [r7]
 472:g:/iot/IoT_Device_Demo/iot_link/network/lwm2m/wakaama_lwm2m/wakaama-master/core\liblwm2m.c ****     int i;
 473:g:/iot/IoT_Device_Demo/iot_link/network/lwm2m/wakaama_lwm2m/wakaama-master/core\liblwm2m.c ****     uint8_t found;
 474:g:/iot/IoT_Device_Demo/iot_link/network/lwm2m/wakaama_lwm2m/wakaama-master/core\liblwm2m.c **** 
 475:g:/iot/IoT_Device_Demo/iot_link/network/lwm2m/wakaama_lwm2m/wakaama-master/core\liblwm2m.c ****     //LOG_ARG("endpointName: \"%s\", msisdn: \"%s\", altPath: \"%s\", numObject: %d", endpointName,
 476:g:/iot/IoT_Device_Demo/iot_link/network/lwm2m/wakaama_lwm2m/wakaama-master/core\liblwm2m.c ****     // This API can be called only once for now
 477:g:/iot/IoT_Device_Demo/iot_link/network/lwm2m/wakaama_lwm2m/wakaama-master/core\liblwm2m.c ****     if (contextP->endpointName != NULL || contextP->objectList != NULL) return COAP_400_BAD_REQUEST
 1640              		.loc 1 477 17
 1641 000e FB68     		ldr	r3, [r7, #12]
 1642 0010 5B68     		ldr	r3, [r3, #4]
 1643              		.loc 1 477 8
 1644 0012 002B     		cmp	r3, #0
 1645 0014 03D1     		bne	.L86
 1646              		.loc 1 477 51 discriminator 2
 1647 0016 FB68     		ldr	r3, [r7, #12]
ARM GAS  C:\Users\ADMINI~1\AppData\Local\Temp\ccoKNcyf.s 			page 38


 1648 0018 9B69     		ldr	r3, [r3, #24]
 1649              		.loc 1 477 40 discriminator 2
 1650 001a 002B     		cmp	r3, #0
 1651 001c 01D0     		beq	.L87
 1652              	.L86:
 1653              		.loc 1 477 80 discriminator 3
 1654 001e 8023     		movs	r3, #128
 1655 0020 ABE0     		b	.L88
 1656              	.L87:
 478:g:/iot/IoT_Device_Demo/iot_link/network/lwm2m/wakaama_lwm2m/wakaama-master/core\liblwm2m.c **** 
 479:g:/iot/IoT_Device_Demo/iot_link/network/lwm2m/wakaama_lwm2m/wakaama-master/core\liblwm2m.c ****     if (endpointName == NULL) return COAP_400_BAD_REQUEST;
 1657              		.loc 1 479 8
 1658 0022 BB68     		ldr	r3, [r7, #8]
 1659 0024 002B     		cmp	r3, #0
 1660 0026 01D1     		bne	.L89
 1661              		.loc 1 479 38 discriminator 1
 1662 0028 8023     		movs	r3, #128
 1663 002a A6E0     		b	.L88
 1664              	.L89:
 480:g:/iot/IoT_Device_Demo/iot_link/network/lwm2m/wakaama_lwm2m/wakaama-master/core\liblwm2m.c ****     if (numObject < 3) return COAP_400_BAD_REQUEST;
 1665              		.loc 1 480 8
 1666 002c 3B8C     		ldrh	r3, [r7, #32]
 1667 002e 022B     		cmp	r3, #2
 1668 0030 01D8     		bhi	.L90
 1669              		.loc 1 480 31 discriminator 1
 1670 0032 8023     		movs	r3, #128
 1671 0034 A1E0     		b	.L88
 1672              	.L90:
 481:g:/iot/IoT_Device_Demo/iot_link/network/lwm2m/wakaama_lwm2m/wakaama-master/core\liblwm2m.c ****     // Check that mandatory objects are present
 482:g:/iot/IoT_Device_Demo/iot_link/network/lwm2m/wakaama_lwm2m/wakaama-master/core\liblwm2m.c ****     found = 0;
 1673              		.loc 1 482 11
 1674 0036 0023     		movs	r3, #0
 1675 0038 FB74     		strb	r3, [r7, #19]
 483:g:/iot/IoT_Device_Demo/iot_link/network/lwm2m/wakaama_lwm2m/wakaama-master/core\liblwm2m.c ****     for (i = 0 ; i < numObject ; i++)
 1676              		.loc 1 483 12
 1677 003a 0023     		movs	r3, #0
 1678 003c 7B61     		str	r3, [r7, #20]
 1679              		.loc 1 483 5
 1680 003e 2FE0     		b	.L91
 1681              	.L96:
 484:g:/iot/IoT_Device_Demo/iot_link/network/lwm2m/wakaama_lwm2m/wakaama-master/core\liblwm2m.c ****     {
 485:g:/iot/IoT_Device_Demo/iot_link/network/lwm2m/wakaama_lwm2m/wakaama-master/core\liblwm2m.c ****         if(objectList[i] == NULL) // happens when undef CONFIG_FEATURE_FOTA
 1682              		.loc 1 485 22
 1683 0040 7B69     		ldr	r3, [r7, #20]
 1684 0042 9B00     		lsls	r3, r3, #2
 1685 0044 7A6A     		ldr	r2, [r7, #36]
 1686 0046 1344     		add	r3, r3, r2
 1687 0048 1B68     		ldr	r3, [r3]
 1688              		.loc 1 485 11
 1689 004a 002B     		cmp	r3, #0
 1690 004c 24D0     		beq	.L107
 486:g:/iot/IoT_Device_Demo/iot_link/network/lwm2m/wakaama_lwm2m/wakaama-master/core\liblwm2m.c ****             continue;
 487:g:/iot/IoT_Device_Demo/iot_link/network/lwm2m/wakaama_lwm2m/wakaama-master/core\liblwm2m.c ****         if (objectList[i]->objID == LWM2M_SECURITY_OBJECT_ID) found |= 0x01;
 1691              		.loc 1 487 23
 1692 004e 7B69     		ldr	r3, [r7, #20]
 1693 0050 9B00     		lsls	r3, r3, #2
 1694 0052 7A6A     		ldr	r2, [r7, #36]
ARM GAS  C:\Users\ADMINI~1\AppData\Local\Temp\ccoKNcyf.s 			page 39


 1695 0054 1344     		add	r3, r3, r2
 1696 0056 1B68     		ldr	r3, [r3]
 1697              		.loc 1 487 26
 1698 0058 9B88     		ldrh	r3, [r3, #4]
 1699              		.loc 1 487 12
 1700 005a 002B     		cmp	r3, #0
 1701 005c 03D1     		bne	.L94
 1702              		.loc 1 487 69 discriminator 1
 1703 005e FB7C     		ldrb	r3, [r7, #19]
 1704 0060 43F00103 		orr	r3, r3, #1
 1705 0064 FB74     		strb	r3, [r7, #19]
 1706              	.L94:
 488:g:/iot/IoT_Device_Demo/iot_link/network/lwm2m/wakaama_lwm2m/wakaama-master/core\liblwm2m.c ****         if (objectList[i]->objID == LWM2M_SERVER_OBJECT_ID) found |= 0x02;
 1707              		.loc 1 488 23
 1708 0066 7B69     		ldr	r3, [r7, #20]
 1709 0068 9B00     		lsls	r3, r3, #2
 1710 006a 7A6A     		ldr	r2, [r7, #36]
 1711 006c 1344     		add	r3, r3, r2
 1712 006e 1B68     		ldr	r3, [r3]
 1713              		.loc 1 488 26
 1714 0070 9B88     		ldrh	r3, [r3, #4]
 1715              		.loc 1 488 12
 1716 0072 012B     		cmp	r3, #1
 1717 0074 03D1     		bne	.L95
 1718              		.loc 1 488 67 discriminator 1
 1719 0076 FB7C     		ldrb	r3, [r7, #19]
 1720 0078 43F00203 		orr	r3, r3, #2
 1721 007c FB74     		strb	r3, [r7, #19]
 1722              	.L95:
 489:g:/iot/IoT_Device_Demo/iot_link/network/lwm2m/wakaama_lwm2m/wakaama-master/core\liblwm2m.c ****         if (objectList[i]->objID == LWM2M_DEVICE_OBJECT_ID) found |= 0x04;
 1723              		.loc 1 489 23
 1724 007e 7B69     		ldr	r3, [r7, #20]
 1725 0080 9B00     		lsls	r3, r3, #2
 1726 0082 7A6A     		ldr	r2, [r7, #36]
 1727 0084 1344     		add	r3, r3, r2
 1728 0086 1B68     		ldr	r3, [r3]
 1729              		.loc 1 489 26
 1730 0088 9B88     		ldrh	r3, [r3, #4]
 1731              		.loc 1 489 12
 1732 008a 032B     		cmp	r3, #3
 1733 008c 05D1     		bne	.L93
 1734              		.loc 1 489 67 discriminator 1
 1735 008e FB7C     		ldrb	r3, [r7, #19]
 1736 0090 43F00403 		orr	r3, r3, #4
 1737 0094 FB74     		strb	r3, [r7, #19]
 1738 0096 00E0     		b	.L93
 1739              	.L107:
 486:g:/iot/IoT_Device_Demo/iot_link/network/lwm2m/wakaama_lwm2m/wakaama-master/core\liblwm2m.c ****             continue;
 1740              		.loc 1 486 13
 1741 0098 00BF     		nop
 1742              	.L93:
 483:g:/iot/IoT_Device_Demo/iot_link/network/lwm2m/wakaama_lwm2m/wakaama-master/core\liblwm2m.c ****     {
 1743              		.loc 1 483 35 discriminator 2
 1744 009a 7B69     		ldr	r3, [r7, #20]
 1745 009c 0133     		adds	r3, r3, #1
 1746 009e 7B61     		str	r3, [r7, #20]
 1747              	.L91:
ARM GAS  C:\Users\ADMINI~1\AppData\Local\Temp\ccoKNcyf.s 			page 40


 483:g:/iot/IoT_Device_Demo/iot_link/network/lwm2m/wakaama_lwm2m/wakaama-master/core\liblwm2m.c ****     {
 1748              		.loc 1 483 20 discriminator 1
 1749 00a0 3B8C     		ldrh	r3, [r7, #32]
 483:g:/iot/IoT_Device_Demo/iot_link/network/lwm2m/wakaama_lwm2m/wakaama-master/core\liblwm2m.c ****     {
 1750              		.loc 1 483 5 discriminator 1
 1751 00a2 7A69     		ldr	r2, [r7, #20]
 1752 00a4 9A42     		cmp	r2, r3
 1753 00a6 CBDB     		blt	.L96
 490:g:/iot/IoT_Device_Demo/iot_link/network/lwm2m/wakaama_lwm2m/wakaama-master/core\liblwm2m.c ****     }
 491:g:/iot/IoT_Device_Demo/iot_link/network/lwm2m/wakaama_lwm2m/wakaama-master/core\liblwm2m.c ****     if (found != 0x07) return COAP_400_BAD_REQUEST;
 1754              		.loc 1 491 8
 1755 00a8 FB7C     		ldrb	r3, [r7, #19]	@ zero_extendqisi2
 1756 00aa 072B     		cmp	r3, #7
 1757 00ac 01D0     		beq	.L97
 1758              		.loc 1 491 31 discriminator 1
 1759 00ae 8023     		movs	r3, #128
 1760 00b0 63E0     		b	.L88
 1761              	.L97:
 492:g:/iot/IoT_Device_Demo/iot_link/network/lwm2m/wakaama_lwm2m/wakaama-master/core\liblwm2m.c ****     if (altPath != NULL)
 1762              		.loc 1 492 8
 1763 00b2 3B68     		ldr	r3, [r7]
 1764 00b4 002B     		cmp	r3, #0
 1765 00b6 0ED0     		beq	.L98
 493:g:/iot/IoT_Device_Demo/iot_link/network/lwm2m/wakaama_lwm2m/wakaama-master/core\liblwm2m.c ****     {
 494:g:/iot/IoT_Device_Demo/iot_link/network/lwm2m/wakaama_lwm2m/wakaama-master/core\liblwm2m.c ****         if (0 == utils_isAltPathValid(altPath))
 1766              		.loc 1 494 18
 1767 00b8 3868     		ldr	r0, [r7]
 1768 00ba FFF7FEFF 		bl	utils_isAltPathValid
 1769 00be 0346     		mov	r3, r0
 1770              		.loc 1 494 12
 1771 00c0 002B     		cmp	r3, #0
 1772 00c2 01D1     		bne	.L99
 495:g:/iot/IoT_Device_Demo/iot_link/network/lwm2m/wakaama_lwm2m/wakaama-master/core\liblwm2m.c ****         {
 496:g:/iot/IoT_Device_Demo/iot_link/network/lwm2m/wakaama_lwm2m/wakaama-master/core\liblwm2m.c ****             return COAP_400_BAD_REQUEST;
 1773              		.loc 1 496 20
 1774 00c4 8023     		movs	r3, #128
 1775 00c6 58E0     		b	.L88
 1776              	.L99:
 497:g:/iot/IoT_Device_Demo/iot_link/network/lwm2m/wakaama_lwm2m/wakaama-master/core\liblwm2m.c ****         }
 498:g:/iot/IoT_Device_Demo/iot_link/network/lwm2m/wakaama_lwm2m/wakaama-master/core\liblwm2m.c ****         if (altPath[1] == 0)
 1777              		.loc 1 498 20
 1778 00c8 3B68     		ldr	r3, [r7]
 1779 00ca 0133     		adds	r3, r3, #1
 1780 00cc 1B78     		ldrb	r3, [r3]	@ zero_extendqisi2
 1781              		.loc 1 498 12
 1782 00ce 002B     		cmp	r3, #0
 1783 00d0 01D1     		bne	.L98
 499:g:/iot/IoT_Device_Demo/iot_link/network/lwm2m/wakaama_lwm2m/wakaama-master/core\liblwm2m.c ****         {
 500:g:/iot/IoT_Device_Demo/iot_link/network/lwm2m/wakaama_lwm2m/wakaama-master/core\liblwm2m.c ****             altPath = NULL;
 1784              		.loc 1 500 21
 1785 00d2 0023     		movs	r3, #0
 1786 00d4 3B60     		str	r3, [r7]
 1787              	.L98:
 501:g:/iot/IoT_Device_Demo/iot_link/network/lwm2m/wakaama_lwm2m/wakaama-master/core\liblwm2m.c ****         }
 502:g:/iot/IoT_Device_Demo/iot_link/network/lwm2m/wakaama_lwm2m/wakaama-master/core\liblwm2m.c ****     }
 503:g:/iot/IoT_Device_Demo/iot_link/network/lwm2m/wakaama_lwm2m/wakaama-master/core\liblwm2m.c ****     contextP->endpointName = lwm2m_strdup(endpointName);
 1788              		.loc 1 503 30
ARM GAS  C:\Users\ADMINI~1\AppData\Local\Temp\ccoKNcyf.s 			page 41


 1789 00d6 B868     		ldr	r0, [r7, #8]
 1790 00d8 FFF7FEFF 		bl	lwm2m_strdup
 1791 00dc 0246     		mov	r2, r0
 1792              		.loc 1 503 28
 1793 00de FB68     		ldr	r3, [r7, #12]
 1794 00e0 5A60     		str	r2, [r3, #4]
 504:g:/iot/IoT_Device_Demo/iot_link/network/lwm2m/wakaama_lwm2m/wakaama-master/core\liblwm2m.c ****     if (contextP->endpointName == NULL)
 1795              		.loc 1 504 17
 1796 00e2 FB68     		ldr	r3, [r7, #12]
 1797 00e4 5B68     		ldr	r3, [r3, #4]
 1798              		.loc 1 504 8
 1799 00e6 002B     		cmp	r3, #0
 1800 00e8 01D1     		bne	.L100
 505:g:/iot/IoT_Device_Demo/iot_link/network/lwm2m/wakaama_lwm2m/wakaama-master/core\liblwm2m.c ****     {
 506:g:/iot/IoT_Device_Demo/iot_link/network/lwm2m/wakaama_lwm2m/wakaama-master/core\liblwm2m.c ****         return COAP_500_INTERNAL_SERVER_ERROR;
 1801              		.loc 1 506 16
 1802 00ea A023     		movs	r3, #160
 1803 00ec 45E0     		b	.L88
 1804              	.L100:
 507:g:/iot/IoT_Device_Demo/iot_link/network/lwm2m/wakaama_lwm2m/wakaama-master/core\liblwm2m.c ****     }
 508:g:/iot/IoT_Device_Demo/iot_link/network/lwm2m/wakaama_lwm2m/wakaama-master/core\liblwm2m.c **** 
 509:g:/iot/IoT_Device_Demo/iot_link/network/lwm2m/wakaama_lwm2m/wakaama-master/core\liblwm2m.c ****     if (msisdn != NULL)
 1805              		.loc 1 509 8
 1806 00ee 7B68     		ldr	r3, [r7, #4]
 1807 00f0 002B     		cmp	r3, #0
 1808 00f2 0BD0     		beq	.L101
 510:g:/iot/IoT_Device_Demo/iot_link/network/lwm2m/wakaama_lwm2m/wakaama-master/core\liblwm2m.c ****     {
 511:g:/iot/IoT_Device_Demo/iot_link/network/lwm2m/wakaama_lwm2m/wakaama-master/core\liblwm2m.c ****         contextP->msisdn = lwm2m_strdup(msisdn);
 1809              		.loc 1 511 28
 1810 00f4 7868     		ldr	r0, [r7, #4]
 1811 00f6 FFF7FEFF 		bl	lwm2m_strdup
 1812 00fa 0246     		mov	r2, r0
 1813              		.loc 1 511 26
 1814 00fc FB68     		ldr	r3, [r7, #12]
 1815 00fe 9A60     		str	r2, [r3, #8]
 512:g:/iot/IoT_Device_Demo/iot_link/network/lwm2m/wakaama_lwm2m/wakaama-master/core\liblwm2m.c ****         if (contextP->msisdn == NULL)
 1816              		.loc 1 512 21
 1817 0100 FB68     		ldr	r3, [r7, #12]
 1818 0102 9B68     		ldr	r3, [r3, #8]
 1819              		.loc 1 512 12
 1820 0104 002B     		cmp	r3, #0
 1821 0106 01D1     		bne	.L101
 513:g:/iot/IoT_Device_Demo/iot_link/network/lwm2m/wakaama_lwm2m/wakaama-master/core\liblwm2m.c ****         {
 514:g:/iot/IoT_Device_Demo/iot_link/network/lwm2m/wakaama_lwm2m/wakaama-master/core\liblwm2m.c ****             return COAP_500_INTERNAL_SERVER_ERROR;
 1822              		.loc 1 514 20
 1823 0108 A023     		movs	r3, #160
 1824 010a 36E0     		b	.L88
 1825              	.L101:
 515:g:/iot/IoT_Device_Demo/iot_link/network/lwm2m/wakaama_lwm2m/wakaama-master/core\liblwm2m.c ****         }
 516:g:/iot/IoT_Device_Demo/iot_link/network/lwm2m/wakaama_lwm2m/wakaama-master/core\liblwm2m.c ****     }
 517:g:/iot/IoT_Device_Demo/iot_link/network/lwm2m/wakaama_lwm2m/wakaama-master/core\liblwm2m.c **** 
 518:g:/iot/IoT_Device_Demo/iot_link/network/lwm2m/wakaama_lwm2m/wakaama-master/core\liblwm2m.c ****     if (altPath != NULL)
 1826              		.loc 1 518 8
 1827 010c 3B68     		ldr	r3, [r7]
 1828 010e 002B     		cmp	r3, #0
 1829 0110 0BD0     		beq	.L102
 519:g:/iot/IoT_Device_Demo/iot_link/network/lwm2m/wakaama_lwm2m/wakaama-master/core\liblwm2m.c ****     {
ARM GAS  C:\Users\ADMINI~1\AppData\Local\Temp\ccoKNcyf.s 			page 42


 520:g:/iot/IoT_Device_Demo/iot_link/network/lwm2m/wakaama_lwm2m/wakaama-master/core\liblwm2m.c ****         contextP->altPath = lwm2m_strdup(altPath);
 1830              		.loc 1 520 29
 1831 0112 3868     		ldr	r0, [r7]
 1832 0114 FFF7FEFF 		bl	lwm2m_strdup
 1833 0118 0246     		mov	r2, r0
 1834              		.loc 1 520 27
 1835 011a FB68     		ldr	r3, [r7, #12]
 1836 011c DA60     		str	r2, [r3, #12]
 521:g:/iot/IoT_Device_Demo/iot_link/network/lwm2m/wakaama_lwm2m/wakaama-master/core\liblwm2m.c ****         if (contextP->altPath == NULL)
 1837              		.loc 1 521 21
 1838 011e FB68     		ldr	r3, [r7, #12]
 1839 0120 DB68     		ldr	r3, [r3, #12]
 1840              		.loc 1 521 12
 1841 0122 002B     		cmp	r3, #0
 1842 0124 01D1     		bne	.L102
 522:g:/iot/IoT_Device_Demo/iot_link/network/lwm2m/wakaama_lwm2m/wakaama-master/core\liblwm2m.c ****         {
 523:g:/iot/IoT_Device_Demo/iot_link/network/lwm2m/wakaama_lwm2m/wakaama-master/core\liblwm2m.c ****             return COAP_500_INTERNAL_SERVER_ERROR;
 1843              		.loc 1 523 20
 1844 0126 A023     		movs	r3, #160
 1845 0128 27E0     		b	.L88
 1846              	.L102:
 524:g:/iot/IoT_Device_Demo/iot_link/network/lwm2m/wakaama_lwm2m/wakaama-master/core\liblwm2m.c ****         }
 525:g:/iot/IoT_Device_Demo/iot_link/network/lwm2m/wakaama_lwm2m/wakaama-master/core\liblwm2m.c ****     }
 526:g:/iot/IoT_Device_Demo/iot_link/network/lwm2m/wakaama_lwm2m/wakaama-master/core\liblwm2m.c **** 
 527:g:/iot/IoT_Device_Demo/iot_link/network/lwm2m/wakaama_lwm2m/wakaama-master/core\liblwm2m.c ****     for (i = 0; i < numObject; i++)
 1847              		.loc 1 527 12
 1848 012a 0023     		movs	r3, #0
 1849 012c 7B61     		str	r3, [r7, #20]
 1850              		.loc 1 527 5
 1851 012e 1FE0     		b	.L103
 1852              	.L106:
 528:g:/iot/IoT_Device_Demo/iot_link/network/lwm2m/wakaama_lwm2m/wakaama-master/core\liblwm2m.c ****     {
 529:g:/iot/IoT_Device_Demo/iot_link/network/lwm2m/wakaama_lwm2m/wakaama-master/core\liblwm2m.c ****         if(objectList[i] == NULL) // happens when undef CONFIG_FEATURE_FOTA
 1853              		.loc 1 529 22
 1854 0130 7B69     		ldr	r3, [r7, #20]
 1855 0132 9B00     		lsls	r3, r3, #2
 1856 0134 7A6A     		ldr	r2, [r7, #36]
 1857 0136 1344     		add	r3, r3, r2
 1858 0138 1B68     		ldr	r3, [r3]
 1859              		.loc 1 529 11
 1860 013a 002B     		cmp	r3, #0
 1861 013c 14D0     		beq	.L108
 530:g:/iot/IoT_Device_Demo/iot_link/network/lwm2m/wakaama_lwm2m/wakaama-master/core\liblwm2m.c ****             continue;
 531:g:/iot/IoT_Device_Demo/iot_link/network/lwm2m/wakaama_lwm2m/wakaama-master/core\liblwm2m.c ****         objectList[i]->next = NULL;
 1862              		.loc 1 531 19
 1863 013e 7B69     		ldr	r3, [r7, #20]
 1864 0140 9B00     		lsls	r3, r3, #2
 1865 0142 7A6A     		ldr	r2, [r7, #36]
 1866 0144 1344     		add	r3, r3, r2
 1867 0146 1B68     		ldr	r3, [r3]
 1868              		.loc 1 531 29
 1869 0148 0022     		movs	r2, #0
 1870 014a 1A60     		str	r2, [r3]
 532:g:/iot/IoT_Device_Demo/iot_link/network/lwm2m/wakaama_lwm2m/wakaama-master/core\liblwm2m.c ****         contextP->objectList = (lwm2m_object_t *)LWM2M_LIST_ADD(contextP->objectList, objectList[i]
 1871              		.loc 1 532 50
 1872 014c FB68     		ldr	r3, [r7, #12]
 1873 014e 9869     		ldr	r0, [r3, #24]
ARM GAS  C:\Users\ADMINI~1\AppData\Local\Temp\ccoKNcyf.s 			page 43


 1874 0150 7B69     		ldr	r3, [r7, #20]
 1875 0152 9B00     		lsls	r3, r3, #2
 1876 0154 7A6A     		ldr	r2, [r7, #36]
 1877 0156 1344     		add	r3, r3, r2
 1878 0158 1B68     		ldr	r3, [r3]
 1879 015a 1946     		mov	r1, r3
 1880 015c FFF7FEFF 		bl	lwm2m_list_add
 1881 0160 0246     		mov	r2, r0
 1882              		.loc 1 532 30
 1883 0162 FB68     		ldr	r3, [r7, #12]
 1884 0164 9A61     		str	r2, [r3, #24]
 1885 0166 00E0     		b	.L105
 1886              	.L108:
 530:g:/iot/IoT_Device_Demo/iot_link/network/lwm2m/wakaama_lwm2m/wakaama-master/core\liblwm2m.c ****             continue;
 1887              		.loc 1 530 13
 1888 0168 00BF     		nop
 1889              	.L105:
 527:g:/iot/IoT_Device_Demo/iot_link/network/lwm2m/wakaama_lwm2m/wakaama-master/core\liblwm2m.c ****     {
 1890              		.loc 1 527 33 discriminator 2
 1891 016a 7B69     		ldr	r3, [r7, #20]
 1892 016c 0133     		adds	r3, r3, #1
 1893 016e 7B61     		str	r3, [r7, #20]
 1894              	.L103:
 527:g:/iot/IoT_Device_Demo/iot_link/network/lwm2m/wakaama_lwm2m/wakaama-master/core\liblwm2m.c ****     {
 1895              		.loc 1 527 19 discriminator 1
 1896 0170 3B8C     		ldrh	r3, [r7, #32]
 527:g:/iot/IoT_Device_Demo/iot_link/network/lwm2m/wakaama_lwm2m/wakaama-master/core\liblwm2m.c ****     {
 1897              		.loc 1 527 5 discriminator 1
 1898 0172 7A69     		ldr	r2, [r7, #20]
 1899 0174 9A42     		cmp	r2, r3
 1900 0176 DBDB     		blt	.L106
 533:g:/iot/IoT_Device_Demo/iot_link/network/lwm2m/wakaama_lwm2m/wakaama-master/core\liblwm2m.c ****     }
 534:g:/iot/IoT_Device_Demo/iot_link/network/lwm2m/wakaama_lwm2m/wakaama-master/core\liblwm2m.c **** 
 535:g:/iot/IoT_Device_Demo/iot_link/network/lwm2m/wakaama_lwm2m/wakaama-master/core\liblwm2m.c ****     return COAP_NO_ERROR;
 1901              		.loc 1 535 12
 1902 0178 0023     		movs	r3, #0
 1903              	.L88:
 536:g:/iot/IoT_Device_Demo/iot_link/network/lwm2m/wakaama_lwm2m/wakaama-master/core\liblwm2m.c **** }
 1904              		.loc 1 536 1
 1905 017a 1846     		mov	r0, r3
 1906 017c 1837     		adds	r7, r7, #24
 1907              	.LCFI93:
 1908              		.cfi_def_cfa_offset 8
 1909 017e BD46     		mov	sp, r7
 1910              	.LCFI94:
 1911              		.cfi_def_cfa_register 13
 1912              		@ sp needed
 1913 0180 80BD     		pop	{r7, pc}
 1914              		.cfi_endproc
 1915              	.LFE21:
 1917              		.section	.rodata
 1918 006a 0000     		.align	2
 1919              	.LC2:
 1920 006c 5B25735D 		.ascii	"[%s][%u][%s:%d] [%d][%s:%d] ID: %d\015\012\015\012\000"
 1920      5B25755D 
 1920      5B25733A 
 1920      25645D20 
ARM GAS  C:\Users\ADMINI~1\AppData\Local\Temp\ccoKNcyf.s 			page 44


 1920      5B25645D 
 1921              		.section	.text.lwm2m_add_object,"ax",%progbits
 1922              		.align	1
 1923              		.global	lwm2m_add_object
 1924              		.syntax unified
 1925              		.thumb
 1926              		.thumb_func
 1927              		.fpu fpv4-sp-d16
 1929              	lwm2m_add_object:
 1930              	.LFB22:
 537:g:/iot/IoT_Device_Demo/iot_link/network/lwm2m/wakaama_lwm2m/wakaama-master/core\liblwm2m.c **** 
 538:g:/iot/IoT_Device_Demo/iot_link/network/lwm2m/wakaama_lwm2m/wakaama-master/core\liblwm2m.c **** int lwm2m_add_object(lwm2m_context_t *contextP,
 539:g:/iot/IoT_Device_Demo/iot_link/network/lwm2m/wakaama_lwm2m/wakaama-master/core\liblwm2m.c ****                      lwm2m_object_t *objectP)
 540:g:/iot/IoT_Device_Demo/iot_link/network/lwm2m/wakaama_lwm2m/wakaama-master/core\liblwm2m.c **** {
 1931              		.loc 1 540 1
 1932              		.cfi_startproc
 1933              		@ args = 0, pretend = 0, frame = 16
 1934              		@ frame_needed = 1, uses_anonymous_args = 0
 1935 0000 B0B5     		push	{r4, r5, r7, lr}
 1936              	.LCFI95:
 1937              		.cfi_def_cfa_offset 16
 1938              		.cfi_offset 4, -16
 1939              		.cfi_offset 5, -12
 1940              		.cfi_offset 7, -8
 1941              		.cfi_offset 14, -4
 1942 0002 8AB0     		sub	sp, sp, #40
 1943              	.LCFI96:
 1944              		.cfi_def_cfa_offset 56
 1945 0004 06AF     		add	r7, sp, #24
 1946              	.LCFI97:
 1947              		.cfi_def_cfa 7, 32
 1948 0006 7860     		str	r0, [r7, #4]
 1949 0008 3960     		str	r1, [r7]
 541:g:/iot/IoT_Device_Demo/iot_link/network/lwm2m/wakaama_lwm2m/wakaama-master/core\liblwm2m.c ****     lwm2m_object_t *targetP;
 542:g:/iot/IoT_Device_Demo/iot_link/network/lwm2m/wakaama_lwm2m/wakaama-master/core\liblwm2m.c **** 
 543:g:/iot/IoT_Device_Demo/iot_link/network/lwm2m/wakaama_lwm2m/wakaama-master/core\liblwm2m.c ****     LOG_ARG("ID: %d", objectP->objID);
 1950              		.loc 1 543 5
 1951 000a FFF7FEFF 		bl	link_log_level_get
 1952 000e 0346     		mov	r3, r0
 1953 0010 012B     		cmp	r3, #1
 1954 0012 1ED8     		bhi	.L110
 1955              		.loc 1 543 5 is_stmt 0 discriminator 1
 1956 0014 0120     		movs	r0, #1
 1957 0016 FFF7FEFF 		bl	link_log_level_name
 1958 001a 0446     		mov	r4, r0
 1959 001c FFF7FEFF 		bl	osal_sys_time
 1960 0020 0246     		mov	r2, r0
 1961 0022 0B46     		mov	r3, r1
 1962 0024 1546     		mov	r5, r2
 1963 0026 FFF7FEFF 		bl	lwm2m_gettime
 1964 002a 0246     		mov	r2, r0
 1965 002c 0B46     		mov	r3, r1
 1966 002e 3B68     		ldr	r3, [r7]
 1967 0030 9B88     		ldrh	r3, [r3, #4]
 1968 0032 0493     		str	r3, [sp, #16]
 1969 0034 40F21F23 		movw	r3, #543
 1970 0038 0393     		str	r3, [sp, #12]
ARM GAS  C:\Users\ADMINI~1\AppData\Local\Temp\ccoKNcyf.s 			page 45


 1971 003a 1B4B     		ldr	r3, .L114
 1972 003c 0293     		str	r3, [sp, #8]
 1973 003e 0192     		str	r2, [sp, #4]
 1974 0040 40F21F23 		movw	r3, #543
 1975 0044 0093     		str	r3, [sp]
 1976 0046 194B     		ldr	r3, .L114+4
 1977 0048 2A46     		mov	r2, r5
 1978 004a 2146     		mov	r1, r4
 1979 004c 1848     		ldr	r0, .L114+8
 1980 004e FFF7FEFF 		bl	printf
 1981              	.L110:
 544:g:/iot/IoT_Device_Demo/iot_link/network/lwm2m/wakaama_lwm2m/wakaama-master/core\liblwm2m.c ****     targetP = (lwm2m_object_t *)LWM2M_LIST_FIND(contextP->objectList, objectP->objID);
 1982              		.loc 1 544 33 is_stmt 1
 1983 0052 7B68     		ldr	r3, [r7, #4]
 1984 0054 9A69     		ldr	r2, [r3, #24]
 1985 0056 3B68     		ldr	r3, [r7]
 1986 0058 9B88     		ldrh	r3, [r3, #4]
 1987 005a 1946     		mov	r1, r3
 1988 005c 1046     		mov	r0, r2
 1989 005e FFF7FEFF 		bl	lwm2m_list_find
 1990 0062 F860     		str	r0, [r7, #12]
 545:g:/iot/IoT_Device_Demo/iot_link/network/lwm2m/wakaama_lwm2m/wakaama-master/core\liblwm2m.c ****     if (targetP != NULL) return COAP_406_NOT_ACCEPTABLE;
 1991              		.loc 1 545 8
 1992 0064 FB68     		ldr	r3, [r7, #12]
 1993 0066 002B     		cmp	r3, #0
 1994 0068 01D0     		beq	.L111
 1995              		.loc 1 545 33 discriminator 1
 1996 006a 8623     		movs	r3, #134
 1997 006c 17E0     		b	.L112
 1998              	.L111:
 546:g:/iot/IoT_Device_Demo/iot_link/network/lwm2m/wakaama_lwm2m/wakaama-master/core\liblwm2m.c ****     objectP->next = NULL;
 1999              		.loc 1 546 19
 2000 006e 3B68     		ldr	r3, [r7]
 2001 0070 0022     		movs	r2, #0
 2002 0072 1A60     		str	r2, [r3]
 547:g:/iot/IoT_Device_Demo/iot_link/network/lwm2m/wakaama_lwm2m/wakaama-master/core\liblwm2m.c **** 
 548:g:/iot/IoT_Device_Demo/iot_link/network/lwm2m/wakaama_lwm2m/wakaama-master/core\liblwm2m.c ****     contextP->objectList = (lwm2m_object_t *)LWM2M_LIST_ADD(contextP->objectList, objectP);
 2003              		.loc 1 548 46
 2004 0074 7B68     		ldr	r3, [r7, #4]
 2005 0076 9B69     		ldr	r3, [r3, #24]
 2006 0078 3968     		ldr	r1, [r7]
 2007 007a 1846     		mov	r0, r3
 2008 007c FFF7FEFF 		bl	lwm2m_list_add
 2009 0080 0246     		mov	r2, r0
 2010              		.loc 1 548 26
 2011 0082 7B68     		ldr	r3, [r7, #4]
 2012 0084 9A61     		str	r2, [r3, #24]
 549:g:/iot/IoT_Device_Demo/iot_link/network/lwm2m/wakaama_lwm2m/wakaama-master/core\liblwm2m.c **** 
 550:g:/iot/IoT_Device_Demo/iot_link/network/lwm2m/wakaama_lwm2m/wakaama-master/core\liblwm2m.c ****     if (contextP->state == STATE_READY)
 2013              		.loc 1 550 17
 2014 0086 7B68     		ldr	r3, [r7, #4]
 2015 0088 1B78     		ldrb	r3, [r3]	@ zero_extendqisi2
 2016              		.loc 1 550 8
 2017 008a 052B     		cmp	r3, #5
 2018 008c 06D1     		bne	.L113
 551:g:/iot/IoT_Device_Demo/iot_link/network/lwm2m/wakaama_lwm2m/wakaama-master/core\liblwm2m.c ****     {
 552:g:/iot/IoT_Device_Demo/iot_link/network/lwm2m/wakaama_lwm2m/wakaama-master/core\liblwm2m.c ****         return lwm2m_update_registration(contextP, 0, true);
ARM GAS  C:\Users\ADMINI~1\AppData\Local\Temp\ccoKNcyf.s 			page 46


 2019              		.loc 1 552 16
 2020 008e 0122     		movs	r2, #1
 2021 0090 0021     		movs	r1, #0
 2022 0092 7868     		ldr	r0, [r7, #4]
 2023 0094 FFF7FEFF 		bl	lwm2m_update_registration
 2024 0098 0346     		mov	r3, r0
 2025 009a 00E0     		b	.L112
 2026              	.L113:
 553:g:/iot/IoT_Device_Demo/iot_link/network/lwm2m/wakaama_lwm2m/wakaama-master/core\liblwm2m.c ****     }
 554:g:/iot/IoT_Device_Demo/iot_link/network/lwm2m/wakaama_lwm2m/wakaama-master/core\liblwm2m.c **** 
 555:g:/iot/IoT_Device_Demo/iot_link/network/lwm2m/wakaama_lwm2m/wakaama-master/core\liblwm2m.c ****     return COAP_NO_ERROR;
 2027              		.loc 1 555 12
 2028 009c 0023     		movs	r3, #0
 2029              	.L112:
 556:g:/iot/IoT_Device_Demo/iot_link/network/lwm2m/wakaama_lwm2m/wakaama-master/core\liblwm2m.c **** }
 2030              		.loc 1 556 1
 2031 009e 1846     		mov	r0, r3
 2032 00a0 1037     		adds	r7, r7, #16
 2033              	.LCFI98:
 2034              		.cfi_def_cfa_offset 16
 2035 00a2 BD46     		mov	sp, r7
 2036              	.LCFI99:
 2037              		.cfi_def_cfa_register 13
 2038              		@ sp needed
 2039 00a4 B0BD     		pop	{r4, r5, r7, pc}
 2040              	.L115:
 2041 00a6 00BF     		.align	2
 2042              	.L114:
 2043 00a8 00000000 		.word	__func__.8753
 2044 00ac 00000000 		.word	__FUNCTION__.8752
 2045 00b0 6C000000 		.word	.LC2
 2046              		.cfi_endproc
 2047              	.LFE22:
 2049              		.section	.text.lwm2m_remove_object,"ax",%progbits
 2050              		.align	1
 2051              		.global	lwm2m_remove_object
 2052              		.syntax unified
 2053              		.thumb
 2054              		.thumb_func
 2055              		.fpu fpv4-sp-d16
 2057              	lwm2m_remove_object:
 2058              	.LFB23:
 557:g:/iot/IoT_Device_Demo/iot_link/network/lwm2m/wakaama_lwm2m/wakaama-master/core\liblwm2m.c **** 
 558:g:/iot/IoT_Device_Demo/iot_link/network/lwm2m/wakaama_lwm2m/wakaama-master/core\liblwm2m.c **** int lwm2m_remove_object(lwm2m_context_t *contextP,
 559:g:/iot/IoT_Device_Demo/iot_link/network/lwm2m/wakaama_lwm2m/wakaama-master/core\liblwm2m.c ****                         uint16_t id)
 560:g:/iot/IoT_Device_Demo/iot_link/network/lwm2m/wakaama_lwm2m/wakaama-master/core\liblwm2m.c **** {
 2059              		.loc 1 560 1
 2060              		.cfi_startproc
 2061              		@ args = 0, pretend = 0, frame = 16
 2062              		@ frame_needed = 1, uses_anonymous_args = 0
 2063 0000 B0B5     		push	{r4, r5, r7, lr}
 2064              	.LCFI100:
 2065              		.cfi_def_cfa_offset 16
 2066              		.cfi_offset 4, -16
 2067              		.cfi_offset 5, -12
 2068              		.cfi_offset 7, -8
 2069              		.cfi_offset 14, -4
ARM GAS  C:\Users\ADMINI~1\AppData\Local\Temp\ccoKNcyf.s 			page 47


 2070 0002 8AB0     		sub	sp, sp, #40
 2071              	.LCFI101:
 2072              		.cfi_def_cfa_offset 56
 2073 0004 06AF     		add	r7, sp, #24
 2074              	.LCFI102:
 2075              		.cfi_def_cfa 7, 32
 2076 0006 7860     		str	r0, [r7, #4]
 2077 0008 0B46     		mov	r3, r1
 2078 000a 7B80     		strh	r3, [r7, #2]	@ movhi
 561:g:/iot/IoT_Device_Demo/iot_link/network/lwm2m/wakaama_lwm2m/wakaama-master/core\liblwm2m.c ****     lwm2m_object_t *targetP;
 562:g:/iot/IoT_Device_Demo/iot_link/network/lwm2m/wakaama_lwm2m/wakaama-master/core\liblwm2m.c **** 
 563:g:/iot/IoT_Device_Demo/iot_link/network/lwm2m/wakaama_lwm2m/wakaama-master/core\liblwm2m.c ****     LOG_ARG("ID: %d", id);
 2079              		.loc 1 563 5
 2080 000c FFF7FEFF 		bl	link_log_level_get
 2081 0010 0346     		mov	r3, r0
 2082 0012 012B     		cmp	r3, #1
 2083 0014 1DD8     		bhi	.L117
 2084              		.loc 1 563 5 is_stmt 0 discriminator 1
 2085 0016 0120     		movs	r0, #1
 2086 0018 FFF7FEFF 		bl	link_log_level_name
 2087 001c 0446     		mov	r4, r0
 2088 001e FFF7FEFF 		bl	osal_sys_time
 2089 0022 0246     		mov	r2, r0
 2090 0024 0B46     		mov	r3, r1
 2091 0026 1546     		mov	r5, r2
 2092 0028 FFF7FEFF 		bl	lwm2m_gettime
 2093 002c 0246     		mov	r2, r0
 2094 002e 0B46     		mov	r3, r1
 2095 0030 7B88     		ldrh	r3, [r7, #2]
 2096 0032 0493     		str	r3, [sp, #16]
 2097 0034 40F23323 		movw	r3, #563
 2098 0038 0393     		str	r3, [sp, #12]
 2099 003a 164B     		ldr	r3, .L122
 2100 003c 0293     		str	r3, [sp, #8]
 2101 003e 0192     		str	r2, [sp, #4]
 2102 0040 40F23323 		movw	r3, #563
 2103 0044 0093     		str	r3, [sp]
 2104 0046 144B     		ldr	r3, .L122+4
 2105 0048 2A46     		mov	r2, r5
 2106 004a 2146     		mov	r1, r4
 2107 004c 1348     		ldr	r0, .L122+8
 2108 004e FFF7FEFF 		bl	printf
 2109              	.L117:
 564:g:/iot/IoT_Device_Demo/iot_link/network/lwm2m/wakaama_lwm2m/wakaama-master/core\liblwm2m.c ****     contextP->objectList = (lwm2m_object_t *)LWM2M_LIST_RM(contextP->objectList, id, &targetP);
 2110              		.loc 1 564 46 is_stmt 1
 2111 0052 7B68     		ldr	r3, [r7, #4]
 2112 0054 9B69     		ldr	r3, [r3, #24]
 2113 0056 07F10C02 		add	r2, r7, #12
 2114 005a 7988     		ldrh	r1, [r7, #2]
 2115 005c 1846     		mov	r0, r3
 2116 005e FFF7FEFF 		bl	lwm2m_list_remove
 2117 0062 0246     		mov	r2, r0
 2118              		.loc 1 564 26
 2119 0064 7B68     		ldr	r3, [r7, #4]
 2120 0066 9A61     		str	r2, [r3, #24]
 565:g:/iot/IoT_Device_Demo/iot_link/network/lwm2m/wakaama_lwm2m/wakaama-master/core\liblwm2m.c **** 
 566:g:/iot/IoT_Device_Demo/iot_link/network/lwm2m/wakaama_lwm2m/wakaama-master/core\liblwm2m.c ****     if (targetP == NULL) return COAP_404_NOT_FOUND;
ARM GAS  C:\Users\ADMINI~1\AppData\Local\Temp\ccoKNcyf.s 			page 48


 2121              		.loc 1 566 17
 2122 0068 FB68     		ldr	r3, [r7, #12]
 2123              		.loc 1 566 8
 2124 006a 002B     		cmp	r3, #0
 2125 006c 01D1     		bne	.L118
 2126              		.loc 1 566 33 discriminator 1
 2127 006e 8423     		movs	r3, #132
 2128 0070 0BE0     		b	.L121
 2129              	.L118:
 567:g:/iot/IoT_Device_Demo/iot_link/network/lwm2m/wakaama_lwm2m/wakaama-master/core\liblwm2m.c **** 
 568:g:/iot/IoT_Device_Demo/iot_link/network/lwm2m/wakaama_lwm2m/wakaama-master/core\liblwm2m.c ****     if (contextP->state == STATE_READY)
 2130              		.loc 1 568 17
 2131 0072 7B68     		ldr	r3, [r7, #4]
 2132 0074 1B78     		ldrb	r3, [r3]	@ zero_extendqisi2
 2133              		.loc 1 568 8
 2134 0076 052B     		cmp	r3, #5
 2135 0078 06D1     		bne	.L120
 569:g:/iot/IoT_Device_Demo/iot_link/network/lwm2m/wakaama_lwm2m/wakaama-master/core\liblwm2m.c ****     {
 570:g:/iot/IoT_Device_Demo/iot_link/network/lwm2m/wakaama_lwm2m/wakaama-master/core\liblwm2m.c ****         return lwm2m_update_registration(contextP, 0, true);
 2136              		.loc 1 570 16
 2137 007a 0122     		movs	r2, #1
 2138 007c 0021     		movs	r1, #0
 2139 007e 7868     		ldr	r0, [r7, #4]
 2140 0080 FFF7FEFF 		bl	lwm2m_update_registration
 2141 0084 0346     		mov	r3, r0
 2142 0086 00E0     		b	.L121
 2143              	.L120:
 571:g:/iot/IoT_Device_Demo/iot_link/network/lwm2m/wakaama_lwm2m/wakaama-master/core\liblwm2m.c ****     }
 572:g:/iot/IoT_Device_Demo/iot_link/network/lwm2m/wakaama_lwm2m/wakaama-master/core\liblwm2m.c **** 
 573:g:/iot/IoT_Device_Demo/iot_link/network/lwm2m/wakaama_lwm2m/wakaama-master/core\liblwm2m.c ****     return 0;
 2144              		.loc 1 573 12
 2145 0088 0023     		movs	r3, #0
 2146              	.L121:
 574:g:/iot/IoT_Device_Demo/iot_link/network/lwm2m/wakaama_lwm2m/wakaama-master/core\liblwm2m.c **** }
 2147              		.loc 1 574 1 discriminator 1
 2148 008a 1846     		mov	r0, r3
 2149 008c 1037     		adds	r7, r7, #16
 2150              	.LCFI103:
 2151              		.cfi_def_cfa_offset 16
 2152 008e BD46     		mov	sp, r7
 2153              	.LCFI104:
 2154              		.cfi_def_cfa_register 13
 2155              		@ sp needed
 2156 0090 B0BD     		pop	{r4, r5, r7, pc}
 2157              	.L123:
 2158 0092 00BF     		.align	2
 2159              	.L122:
 2160 0094 00000000 		.word	__func__.8760
 2161 0098 00000000 		.word	__FUNCTION__.8759
 2162 009c 6C000000 		.word	.LC2
 2163              		.cfi_endproc
 2164              	.LFE23:
 2166              		.section	.text.lwm2m_reset_register,"ax",%progbits
 2167              		.align	1
 2168              		.syntax unified
 2169              		.thumb
 2170              		.thumb_func
ARM GAS  C:\Users\ADMINI~1\AppData\Local\Temp\ccoKNcyf.s 			page 49


 2171              		.fpu fpv4-sp-d16
 2173              	lwm2m_reset_register:
 2174              	.LFB24:
 575:g:/iot/IoT_Device_Demo/iot_link/network/lwm2m/wakaama_lwm2m/wakaama-master/core\liblwm2m.c **** 
 576:g:/iot/IoT_Device_Demo/iot_link/network/lwm2m/wakaama_lwm2m/wakaama-master/core\liblwm2m.c **** 
 577:g:/iot/IoT_Device_Demo/iot_link/network/lwm2m/wakaama_lwm2m/wakaama-master/core\liblwm2m.c **** static void lwm2m_reset_register(lwm2m_context_t *context)
 578:g:/iot/IoT_Device_Demo/iot_link/network/lwm2m/wakaama_lwm2m/wakaama-master/core\liblwm2m.c **** {
 2175              		.loc 1 578 1
 2176              		.cfi_startproc
 2177              		@ args = 0, pretend = 0, frame = 16
 2178              		@ frame_needed = 1, uses_anonymous_args = 0
 2179 0000 B0B5     		push	{r4, r5, r7, lr}
 2180              	.LCFI105:
 2181              		.cfi_def_cfa_offset 16
 2182              		.cfi_offset 4, -16
 2183              		.cfi_offset 5, -12
 2184              		.cfi_offset 7, -8
 2185              		.cfi_offset 14, -4
 2186 0002 88B0     		sub	sp, sp, #32
 2187              	.LCFI106:
 2188              		.cfi_def_cfa_offset 48
 2189 0004 04AF     		add	r7, sp, #16
 2190              	.LCFI107:
 2191              		.cfi_def_cfa 7, 32
 2192 0006 7860     		str	r0, [r7, #4]
 579:g:/iot/IoT_Device_Demo/iot_link/network/lwm2m/wakaama_lwm2m/wakaama-master/core\liblwm2m.c ****     lwm2m_server_t *server = context->serverList;
 2193              		.loc 1 579 21
 2194 0008 7B68     		ldr	r3, [r7, #4]
 2195 000a 5B69     		ldr	r3, [r3, #20]
 2196 000c FB60     		str	r3, [r7, #12]
 580:g:/iot/IoT_Device_Demo/iot_link/network/lwm2m/wakaama_lwm2m/wakaama-master/core\liblwm2m.c **** 
 581:g:/iot/IoT_Device_Demo/iot_link/network/lwm2m/wakaama_lwm2m/wakaama-master/core\liblwm2m.c ****     LOG("Entering");
 2197              		.loc 1 581 5
 2198 000e FFF7FEFF 		bl	link_log_level_get
 2199 0012 0346     		mov	r3, r0
 2200 0014 012B     		cmp	r3, #1
 2201 0016 23D8     		bhi	.L126
 2202              		.loc 1 581 5 is_stmt 0 discriminator 1
 2203 0018 0120     		movs	r0, #1
 2204 001a FFF7FEFF 		bl	link_log_level_name
 2205 001e 0446     		mov	r4, r0
 2206 0020 FFF7FEFF 		bl	osal_sys_time
 2207 0024 0246     		mov	r2, r0
 2208 0026 0B46     		mov	r3, r1
 2209 0028 1546     		mov	r5, r2
 2210 002a FFF7FEFF 		bl	lwm2m_gettime
 2211 002e 0246     		mov	r2, r0
 2212 0030 0B46     		mov	r3, r1
 2213 0032 40F24523 		movw	r3, #581
 2214 0036 0393     		str	r3, [sp, #12]
 2215 0038 0D4B     		ldr	r3, .L128
 2216 003a 0293     		str	r3, [sp, #8]
 2217 003c 0192     		str	r2, [sp, #4]
 2218 003e 40F24523 		movw	r3, #581
 2219 0042 0093     		str	r3, [sp]
 2220 0044 0B4B     		ldr	r3, .L128+4
 2221 0046 2A46     		mov	r2, r5
ARM GAS  C:\Users\ADMINI~1\AppData\Local\Temp\ccoKNcyf.s 			page 50


 2222 0048 2146     		mov	r1, r4
 2223 004a 0B48     		ldr	r0, .L128+8
 2224 004c FFF7FEFF 		bl	printf
 582:g:/iot/IoT_Device_Demo/iot_link/network/lwm2m/wakaama_lwm2m/wakaama-master/core\liblwm2m.c ****     while (NULL != server)
 2225              		.loc 1 582 11 is_stmt 1 discriminator 1
 2226 0050 06E0     		b	.L126
 2227              	.L127:
 583:g:/iot/IoT_Device_Demo/iot_link/network/lwm2m/wakaama_lwm2m/wakaama-master/core\liblwm2m.c ****     {
 584:g:/iot/IoT_Device_Demo/iot_link/network/lwm2m/wakaama_lwm2m/wakaama-master/core\liblwm2m.c ****         registration_reset(context, server);
 2228              		.loc 1 584 9
 2229 0052 F968     		ldr	r1, [r7, #12]
 2230 0054 7868     		ldr	r0, [r7, #4]
 2231 0056 FFF7FEFF 		bl	registration_reset
 585:g:/iot/IoT_Device_Demo/iot_link/network/lwm2m/wakaama_lwm2m/wakaama-master/core\liblwm2m.c ****         server = server->next;
 2232              		.loc 1 585 16
 2233 005a FB68     		ldr	r3, [r7, #12]
 2234 005c 1B68     		ldr	r3, [r3]
 2235 005e FB60     		str	r3, [r7, #12]
 2236              	.L126:
 582:g:/iot/IoT_Device_Demo/iot_link/network/lwm2m/wakaama_lwm2m/wakaama-master/core\liblwm2m.c ****     while (NULL != server)
 2237              		.loc 1 582 11
 2238 0060 FB68     		ldr	r3, [r7, #12]
 2239 0062 002B     		cmp	r3, #0
 2240 0064 F5D1     		bne	.L127
 586:g:/iot/IoT_Device_Demo/iot_link/network/lwm2m/wakaama_lwm2m/wakaama-master/core\liblwm2m.c ****     }
 587:g:/iot/IoT_Device_Demo/iot_link/network/lwm2m/wakaama_lwm2m/wakaama-master/core\liblwm2m.c **** }
 2241              		.loc 1 587 1
 2242 0066 00BF     		nop
 2243 0068 00BF     		nop
 2244 006a 1037     		adds	r7, r7, #16
 2245              	.LCFI108:
 2246              		.cfi_def_cfa_offset 16
 2247 006c BD46     		mov	sp, r7
 2248              	.LCFI109:
 2249              		.cfi_def_cfa_register 13
 2250              		@ sp needed
 2251 006e B0BD     		pop	{r4, r5, r7, pc}
 2252              	.L129:
 2253              		.align	2
 2254              	.L128:
 2255 0070 00000000 		.word	__func__.8766
 2256 0074 00000000 		.word	__FUNCTION__.8765
 2257 0078 00000000 		.word	.LC0
 2258              		.cfi_endproc
 2259              	.LFE24:
 2261              		.section	.rodata
 2262 0093 00       		.align	2
 2263              	.LC3:
 2264 0094 5B25735D 		.ascii	"[%s][%u][%s:%d] [%d][%s:%d] context null point\015\012"
 2264      5B25755D 
 2264      5B25733A 
 2264      25645D20 
 2264      5B25645D 
 2265 00c4 0D0A00   		.ascii	"\015\012\000"
 2266              		.section	.text.lwm2m_reconnect,"ax",%progbits
 2267              		.align	1
 2268              		.global	lwm2m_reconnect
ARM GAS  C:\Users\ADMINI~1\AppData\Local\Temp\ccoKNcyf.s 			page 51


 2269              		.syntax unified
 2270              		.thumb
 2271              		.thumb_func
 2272              		.fpu fpv4-sp-d16
 2274              	lwm2m_reconnect:
 2275              	.LFB25:
 588:g:/iot/IoT_Device_Demo/iot_link/network/lwm2m/wakaama_lwm2m/wakaama-master/core\liblwm2m.c **** 
 589:g:/iot/IoT_Device_Demo/iot_link/network/lwm2m/wakaama_lwm2m/wakaama-master/core\liblwm2m.c **** int lwm2m_reconnect(lwm2m_context_t *context)
 590:g:/iot/IoT_Device_Demo/iot_link/network/lwm2m/wakaama_lwm2m/wakaama-master/core\liblwm2m.c **** {
 2276              		.loc 1 590 1
 2277              		.cfi_startproc
 2278              		@ args = 0, pretend = 0, frame = 8
 2279              		@ frame_needed = 1, uses_anonymous_args = 0
 2280 0000 B0B5     		push	{r4, r5, r7, lr}
 2281              	.LCFI110:
 2282              		.cfi_def_cfa_offset 16
 2283              		.cfi_offset 4, -16
 2284              		.cfi_offset 5, -12
 2285              		.cfi_offset 7, -8
 2286              		.cfi_offset 14, -4
 2287 0002 86B0     		sub	sp, sp, #24
 2288              	.LCFI111:
 2289              		.cfi_def_cfa_offset 40
 2290 0004 04AF     		add	r7, sp, #16
 2291              	.LCFI112:
 2292              		.cfi_def_cfa 7, 24
 2293 0006 7860     		str	r0, [r7, #4]
 591:g:/iot/IoT_Device_Demo/iot_link/network/lwm2m/wakaama_lwm2m/wakaama-master/core\liblwm2m.c ****     if(NULL == context)
 2294              		.loc 1 591 7
 2295 0008 7B68     		ldr	r3, [r7, #4]
 2296 000a 002B     		cmp	r3, #0
 2297 000c 22D1     		bne	.L131
 592:g:/iot/IoT_Device_Demo/iot_link/network/lwm2m/wakaama_lwm2m/wakaama-master/core\liblwm2m.c ****     {
 593:g:/iot/IoT_Device_Demo/iot_link/network/lwm2m/wakaama_lwm2m/wakaama-master/core\liblwm2m.c ****         LOG("context null point");
 2298              		.loc 1 593 9
 2299 000e FFF7FEFF 		bl	link_log_level_get
 2300 0012 0346     		mov	r3, r0
 2301 0014 012B     		cmp	r3, #1
 2302 0016 1BD8     		bhi	.L132
 2303              		.loc 1 593 9 is_stmt 0 discriminator 1
 2304 0018 0120     		movs	r0, #1
 2305 001a FFF7FEFF 		bl	link_log_level_name
 2306 001e 0446     		mov	r4, r0
 2307 0020 FFF7FEFF 		bl	osal_sys_time
 2308 0024 0246     		mov	r2, r0
 2309 0026 0B46     		mov	r3, r1
 2310 0028 1546     		mov	r5, r2
 2311 002a FFF7FEFF 		bl	lwm2m_gettime
 2312 002e 0246     		mov	r2, r0
 2313 0030 0B46     		mov	r3, r1
 2314 0032 40F25123 		movw	r3, #593
 2315 0036 0393     		str	r3, [sp, #12]
 2316 0038 164B     		ldr	r3, .L134
 2317 003a 0293     		str	r3, [sp, #8]
 2318 003c 0192     		str	r2, [sp, #4]
 2319 003e 40F25123 		movw	r3, #593
 2320 0042 0093     		str	r3, [sp]
ARM GAS  C:\Users\ADMINI~1\AppData\Local\Temp\ccoKNcyf.s 			page 52


 2321 0044 144B     		ldr	r3, .L134+4
 2322 0046 2A46     		mov	r2, r5
 2323 0048 2146     		mov	r1, r4
 2324 004a 1448     		ldr	r0, .L134+8
 2325 004c FFF7FEFF 		bl	printf
 2326              	.L132:
 594:g:/iot/IoT_Device_Demo/iot_link/network/lwm2m/wakaama_lwm2m/wakaama-master/core\liblwm2m.c ****         return COAP_405_METHOD_NOT_ALLOWED;
 2327              		.loc 1 594 16 is_stmt 1
 2328 0050 8523     		movs	r3, #133
 2329 0052 1AE0     		b	.L133
 2330              	.L131:
 595:g:/iot/IoT_Device_Demo/iot_link/network/lwm2m/wakaama_lwm2m/wakaama-master/core\liblwm2m.c ****     }
 596:g:/iot/IoT_Device_Demo/iot_link/network/lwm2m/wakaama_lwm2m/wakaama-master/core\liblwm2m.c **** 
 597:g:/iot/IoT_Device_Demo/iot_link/network/lwm2m/wakaama_lwm2m/wakaama-master/core\liblwm2m.c ****     lwm2m_reset_register(context);
 2331              		.loc 1 597 5
 2332 0054 7868     		ldr	r0, [r7, #4]
 2333 0056 FFF7FEFF 		bl	lwm2m_reset_register
 598:g:/iot/IoT_Device_Demo/iot_link/network/lwm2m/wakaama_lwm2m/wakaama-master/core\liblwm2m.c ****     prv_deleteObservedList(context);
 2334              		.loc 1 598 5
 2335 005a 7868     		ldr	r0, [r7, #4]
 2336 005c FFF7FEFF 		bl	prv_deleteObservedList
 599:g:/iot/IoT_Device_Demo/iot_link/network/lwm2m/wakaama_lwm2m/wakaama-master/core\liblwm2m.c ****     prv_deleteTransactionList(context);
 2337              		.loc 1 599 5
 2338 0060 7868     		ldr	r0, [r7, #4]
 2339 0062 FFF7FEFF 		bl	prv_deleteTransactionList
 600:g:/iot/IoT_Device_Demo/iot_link/network/lwm2m/wakaama_lwm2m/wakaama-master/core\liblwm2m.c ****     lwm2m_setBsCtrlStat(context, STATE_REGISTER_REQUIRED);
 2340              		.loc 1 600 5
 2341 0066 0321     		movs	r1, #3
 2342 0068 7868     		ldr	r0, [r7, #4]
 2343 006a FFF7FEFF 		bl	lwm2m_setBsCtrlStat
 601:g:/iot/IoT_Device_Demo/iot_link/network/lwm2m/wakaama_lwm2m/wakaama-master/core\liblwm2m.c ****     context->state = lwm2m_getBsCtrlStat(context);
 2344              		.loc 1 601 22
 2345 006e 7868     		ldr	r0, [r7, #4]
 2346 0070 FFF7FEFF 		bl	lwm2m_getBsCtrlStat
 2347 0074 0346     		mov	r3, r0
 2348 0076 1A46     		mov	r2, r3
 2349              		.loc 1 601 20
 2350 0078 7B68     		ldr	r3, [r7, #4]
 2351 007a 1A70     		strb	r2, [r3]
 602:g:/iot/IoT_Device_Demo/iot_link/network/lwm2m/wakaama_lwm2m/wakaama-master/core\liblwm2m.c ****     lwm2m_notify_even(MODULE_LWM2M, STATE_REG_FAILED, NULL, 0);
 2352              		.loc 1 602 5
 2353 007c 0023     		movs	r3, #0
 2354 007e 0022     		movs	r2, #0
 2355 0080 0321     		movs	r1, #3
 2356 0082 0020     		movs	r0, #0
 2357 0084 FFF7FEFF 		bl	lwm2m_notify_even
 603:g:/iot/IoT_Device_Demo/iot_link/network/lwm2m/wakaama_lwm2m/wakaama-master/core\liblwm2m.c ****     return COAP_NO_ERROR;
 2358              		.loc 1 603 12
 2359 0088 0023     		movs	r3, #0
 2360              	.L133:
 604:g:/iot/IoT_Device_Demo/iot_link/network/lwm2m/wakaama_lwm2m/wakaama-master/core\liblwm2m.c **** }
 2361              		.loc 1 604 1
 2362 008a 1846     		mov	r0, r3
 2363 008c 0837     		adds	r7, r7, #8
 2364              	.LCFI113:
 2365              		.cfi_def_cfa_offset 16
 2366 008e BD46     		mov	sp, r7
ARM GAS  C:\Users\ADMINI~1\AppData\Local\Temp\ccoKNcyf.s 			page 53


 2367              	.LCFI114:
 2368              		.cfi_def_cfa_register 13
 2369              		@ sp needed
 2370 0090 B0BD     		pop	{r4, r5, r7, pc}
 2371              	.L135:
 2372 0092 00BF     		.align	2
 2373              	.L134:
 2374 0094 00000000 		.word	__func__.8774
 2375 0098 00000000 		.word	__FUNCTION__.8773
 2376 009c 94000000 		.word	.LC3
 2377              		.cfi_endproc
 2378              	.LFE25:
 2380              		.section	.text.lwm2m_initBootStrap,"ax",%progbits
 2381              		.align	1
 2382              		.global	lwm2m_initBootStrap
 2383              		.syntax unified
 2384              		.thumb
 2385              		.thumb_func
 2386              		.fpu fpv4-sp-d16
 2388              	lwm2m_initBootStrap:
 2389              	.LFB26:
 605:g:/iot/IoT_Device_Demo/iot_link/network/lwm2m/wakaama_lwm2m/wakaama-master/core\liblwm2m.c **** 
 606:g:/iot/IoT_Device_Demo/iot_link/network/lwm2m/wakaama_lwm2m/wakaama-master/core\liblwm2m.c **** int lwm2m_initBootStrap(lwm2m_context_t *contextP, lwm2m_bootstrap_type_e bsType)
 607:g:/iot/IoT_Device_Demo/iot_link/network/lwm2m/wakaama_lwm2m/wakaama-master/core\liblwm2m.c **** {
 2390              		.loc 1 607 1
 2391              		.cfi_startproc
 2392              		@ args = 0, pretend = 0, frame = 8
 2393              		@ frame_needed = 1, uses_anonymous_args = 0
 2394 0000 B0B5     		push	{r4, r5, r7, lr}
 2395              	.LCFI115:
 2396              		.cfi_def_cfa_offset 16
 2397              		.cfi_offset 4, -16
 2398              		.cfi_offset 5, -12
 2399              		.cfi_offset 7, -8
 2400              		.cfi_offset 14, -4
 2401 0002 86B0     		sub	sp, sp, #24
 2402              	.LCFI116:
 2403              		.cfi_def_cfa_offset 40
 2404 0004 04AF     		add	r7, sp, #16
 2405              	.LCFI117:
 2406              		.cfi_def_cfa 7, 24
 2407 0006 7860     		str	r0, [r7, #4]
 2408 0008 0B46     		mov	r3, r1
 2409 000a FB70     		strb	r3, [r7, #3]
 608:g:/iot/IoT_Device_Demo/iot_link/network/lwm2m/wakaama_lwm2m/wakaama-master/core\liblwm2m.c ****     if (NULL == contextP)
 2410              		.loc 1 608 8
 2411 000c 7B68     		ldr	r3, [r7, #4]
 2412 000e 002B     		cmp	r3, #0
 2413 0010 22D1     		bne	.L137
 609:g:/iot/IoT_Device_Demo/iot_link/network/lwm2m/wakaama_lwm2m/wakaama-master/core\liblwm2m.c ****     {
 610:g:/iot/IoT_Device_Demo/iot_link/network/lwm2m/wakaama_lwm2m/wakaama-master/core\liblwm2m.c ****         LOG("context null point");
 2414              		.loc 1 610 9
 2415 0012 FFF7FEFF 		bl	link_log_level_get
 2416 0016 0346     		mov	r3, r0
 2417 0018 012B     		cmp	r3, #1
 2418 001a 1BD8     		bhi	.L138
 2419              		.loc 1 610 9 is_stmt 0 discriminator 1
ARM GAS  C:\Users\ADMINI~1\AppData\Local\Temp\ccoKNcyf.s 			page 54


 2420 001c 0120     		movs	r0, #1
 2421 001e FFF7FEFF 		bl	link_log_level_name
 2422 0022 0446     		mov	r4, r0
 2423 0024 FFF7FEFF 		bl	osal_sys_time
 2424 0028 0246     		mov	r2, r0
 2425 002a 0B46     		mov	r3, r1
 2426 002c 1546     		mov	r5, r2
 2427 002e FFF7FEFF 		bl	lwm2m_gettime
 2428 0032 0246     		mov	r2, r0
 2429 0034 0B46     		mov	r3, r1
 2430 0036 40F26223 		movw	r3, #610
 2431 003a 0393     		str	r3, [sp, #12]
 2432 003c 0F4B     		ldr	r3, .L140
 2433 003e 0293     		str	r3, [sp, #8]
 2434 0040 0192     		str	r2, [sp, #4]
 2435 0042 40F26223 		movw	r3, #610
 2436 0046 0093     		str	r3, [sp]
 2437 0048 0D4B     		ldr	r3, .L140+4
 2438 004a 2A46     		mov	r2, r5
 2439 004c 2146     		mov	r1, r4
 2440 004e 0D48     		ldr	r0, .L140+8
 2441 0050 FFF7FEFF 		bl	printf
 2442              	.L138:
 611:g:/iot/IoT_Device_Demo/iot_link/network/lwm2m/wakaama_lwm2m/wakaama-master/core\liblwm2m.c ****         return COAP_500_INTERNAL_SERVER_ERROR;
 2443              		.loc 1 611 16 is_stmt 1
 2444 0054 A023     		movs	r3, #160
 2445 0056 0DE0     		b	.L139
 2446              	.L137:
 612:g:/iot/IoT_Device_Demo/iot_link/network/lwm2m/wakaama_lwm2m/wakaama-master/core\liblwm2m.c ****     }
 613:g:/iot/IoT_Device_Demo/iot_link/network/lwm2m/wakaama_lwm2m/wakaama-master/core\liblwm2m.c **** 
 614:g:/iot/IoT_Device_Demo/iot_link/network/lwm2m/wakaama_lwm2m/wakaama-master/core\liblwm2m.c ****     contextP->regist_first_flag = ((bsType == BOOTSTRAP_CLIENT_INITIATED) ? false : true);
 2447              		.loc 1 614 83
 2448 0058 FB78     		ldrb	r3, [r7, #3]	@ zero_extendqisi2
 2449 005a 012B     		cmp	r3, #1
 2450 005c 14BF     		ite	ne
 2451 005e 0123     		movne	r3, #1
 2452 0060 0023     		moveq	r3, #0
 2453 0062 DAB2     		uxtb	r2, r3
 2454              		.loc 1 614 33
 2455 0064 7B68     		ldr	r3, [r7, #4]
 2456 0066 5A70     		strb	r2, [r3, #1]
 615:g:/iot/IoT_Device_Demo/iot_link/network/lwm2m/wakaama_lwm2m/wakaama-master/core\liblwm2m.c ****     lwm2m_initBsCtrlStat(contextP, bsType);
 2457              		.loc 1 615 5
 2458 0068 FB78     		ldrb	r3, [r7, #3]	@ zero_extendqisi2
 2459 006a 1946     		mov	r1, r3
 2460 006c 7868     		ldr	r0, [r7, #4]
 2461 006e FFF7FEFF 		bl	lwm2m_initBsCtrlStat
 616:g:/iot/IoT_Device_Demo/iot_link/network/lwm2m/wakaama_lwm2m/wakaama-master/core\liblwm2m.c ****     return COAP_NO_ERROR;
 2462              		.loc 1 616 12
 2463 0072 0023     		movs	r3, #0
 2464              	.L139:
 617:g:/iot/IoT_Device_Demo/iot_link/network/lwm2m/wakaama_lwm2m/wakaama-master/core\liblwm2m.c **** }
 2465              		.loc 1 617 1
 2466 0074 1846     		mov	r0, r3
 2467 0076 0837     		adds	r7, r7, #8
 2468              	.LCFI118:
 2469              		.cfi_def_cfa_offset 16
ARM GAS  C:\Users\ADMINI~1\AppData\Local\Temp\ccoKNcyf.s 			page 55


 2470 0078 BD46     		mov	sp, r7
 2471              	.LCFI119:
 2472              		.cfi_def_cfa_register 13
 2473              		@ sp needed
 2474 007a B0BD     		pop	{r4, r5, r7, pc}
 2475              	.L141:
 2476              		.align	2
 2477              	.L140:
 2478 007c 00000000 		.word	__func__.8780
 2479 0080 00000000 		.word	__FUNCTION__.8779
 2480 0084 94000000 		.word	.LC3
 2481              		.cfi_endproc
 2482              	.LFE26:
 2484              		.section	.rodata
 2485 00c7 00       		.align	2
 2486              	.LC4:
 2487 00c8 5B25735D 		.ascii	"[%s][%u][%s:%d] [%d][%s:%d] timeoutP: %lld\015\012\015"
 2487      5B25755D 
 2487      5B25733A 
 2487      25645D20 
 2487      5B25645D 
 2488 00f5 0A00     		.ascii	"\012\000"
 2489 00f7 00       		.align	2
 2490              	.LC5:
 2491 00f8 53544154 		.ascii	"STATE_READY\000"
 2491      455F5245 
 2491      41445900 
 2492              		.align	2
 2493              	.LC6:
 2494 0104 556E6B6E 		.ascii	"Unknown\000"
 2494      6F776E00 
 2495              		.align	2
 2496              	.LC7:
 2497 010c 53544154 		.ascii	"STATE_REGISTERING\000"
 2497      455F5245 
 2497      47495354 
 2497      4552494E 
 2497      4700
 2498 011e 0000     		.align	2
 2499              	.LC8:
 2500 0120 53544154 		.ascii	"STATE_REGISTER_REQUIRED\000"
 2500      455F5245 
 2500      47495354 
 2500      45525F52 
 2500      45515549 
 2501              		.align	2
 2502              	.LC9:
 2503 0138 53544154 		.ascii	"STATE_BOOTSTRAPPING\000"
 2503      455F424F 
 2503      4F545354 
 2503      52415050 
 2503      494E4700 
 2504              		.align	2
 2505              	.LC10:
 2506 014c 53544154 		.ascii	"STATE_BOOTSTRAP_REQUIRED\000"
 2506      455F424F 
 2506      4F545354 
ARM GAS  C:\Users\ADMINI~1\AppData\Local\Temp\ccoKNcyf.s 			page 56


 2506      5241505F 
 2506      52455155 
 2507 0165 000000   		.align	2
 2508              	.LC11:
 2509 0168 53544154 		.ascii	"STATE_INITIAL\000"
 2509      455F494E 
 2509      49544941 
 2509      4C00
 2510 0176 0000     		.align	2
 2511              	.LC12:
 2512 0178 5B25735D 		.ascii	"[%s][%u][%s:%d] [%d][%s:%d] State: %s\015\012\015\012"
 2512      5B25755D 
 2512      5B25733A 
 2512      25645D20 
 2512      5B25645D 
 2513 01a1 00       		.ascii	"\000"
 2514 01a2 0000     		.align	2
 2515              	.LC13:
 2516 01a4 5B25735D 		.ascii	"[%s][%u][%s:%d] [%d][%s:%d] prv_refreshServerList f"
 2516      5B25755D 
 2516      5B25733A 
 2516      25645D20 
 2516      5B25645D 
 2517 01d7 61696C0D 		.ascii	"ail\015\012\015\012\000"
 2517      0A0D0A00 
 2518 01df 00       		.align	2
 2519              	.LC14:
 2520 01e0 5B25735D 		.ascii	"[%s][%u][%s:%d] [%d][%s:%d] [bootstrap_tag]: ---the"
 2520      5B25755D 
 2520      5B25733A 
 2520      25645D20 
 2520      5B25645D 
 2521 0213 20726574 		.ascii	" return value result = %d of registration_start----"
 2521      75726E20 
 2521      76616C75 
 2521      65207265 
 2521      73756C74 
 2522 0246 2D0D0A0D 		.ascii	"-\015\012\015\012\000"
 2522      0A00
 2523              		.align	2
 2524              	.LC15:
 2525 024c 5B25735D 		.ascii	"[%s][%u][%s:%d] [%d][%s:%d] Final timeoutP: %lld\015"
 2525      5B25755D 
 2525      5B25733A 
 2525      25645D20 
 2525      5B25645D 
 2526 027d 0A0D0A00 		.ascii	"\012\015\012\000"
 2527 0281 000000   		.align	2
 2528              	.LC16:
 2529 0284 5B25735D 		.ascii	"[%s][%u][%s:%d] [%d][%s:%d] Final state: %s\015\012"
 2529      5B25755D 
 2529      5B25733A 
 2529      25645D20 
 2529      5B25645D 
 2530 02b1 0D0A00   		.ascii	"\015\012\000"
 2531              		.section	.text.lwm2m_step,"ax",%progbits
 2532              		.align	1
ARM GAS  C:\Users\ADMINI~1\AppData\Local\Temp\ccoKNcyf.s 			page 57


 2533              		.global	lwm2m_step
 2534              		.syntax unified
 2535              		.thumb
 2536              		.thumb_func
 2537              		.fpu fpv4-sp-d16
 2539              	lwm2m_step:
 2540              	.LFB27:
 618:g:/iot/IoT_Device_Demo/iot_link/network/lwm2m/wakaama_lwm2m/wakaama-master/core\liblwm2m.c **** 
 619:g:/iot/IoT_Device_Demo/iot_link/network/lwm2m/wakaama_lwm2m/wakaama-master/core\liblwm2m.c **** #endif
 620:g:/iot/IoT_Device_Demo/iot_link/network/lwm2m/wakaama_lwm2m/wakaama-master/core\liblwm2m.c **** 
 621:g:/iot/IoT_Device_Demo/iot_link/network/lwm2m/wakaama_lwm2m/wakaama-master/core\liblwm2m.c **** 
 622:g:/iot/IoT_Device_Demo/iot_link/network/lwm2m/wakaama_lwm2m/wakaama-master/core\liblwm2m.c **** 
 623:g:/iot/IoT_Device_Demo/iot_link/network/lwm2m/wakaama_lwm2m/wakaama-master/core\liblwm2m.c **** #define SET_BS_LATER(contextP, newState) \
 624:g:/iot/IoT_Device_Demo/iot_link/network/lwm2m/wakaama_lwm2m/wakaama-master/core\liblwm2m.c **** do{\
 625:g:/iot/IoT_Device_Demo/iot_link/network/lwm2m/wakaama_lwm2m/wakaama-master/core\liblwm2m.c ****     lwm2m_setBsCtrlStat(contextP, newState);\
 626:g:/iot/IoT_Device_Demo/iot_link/network/lwm2m/wakaama_lwm2m/wakaama-master/core\liblwm2m.c ****     contextP->state = lwm2m_getBsCtrlStat(contextP);\
 627:g:/iot/IoT_Device_Demo/iot_link/network/lwm2m/wakaama_lwm2m/wakaama-master/core\liblwm2m.c ****     lwm2m_delayBsRetry(contextP);\
 628:g:/iot/IoT_Device_Demo/iot_link/network/lwm2m/wakaama_lwm2m/wakaama-master/core\liblwm2m.c **** }while(0)
 629:g:/iot/IoT_Device_Demo/iot_link/network/lwm2m/wakaama_lwm2m/wakaama-master/core\liblwm2m.c **** 
 630:g:/iot/IoT_Device_Demo/iot_link/network/lwm2m/wakaama_lwm2m/wakaama-master/core\liblwm2m.c **** int lwm2m_step(lwm2m_context_t *contextP,
 631:g:/iot/IoT_Device_Demo/iot_link/network/lwm2m/wakaama_lwm2m/wakaama-master/core\liblwm2m.c ****                time_t *timeoutP)
 632:g:/iot/IoT_Device_Demo/iot_link/network/lwm2m/wakaama_lwm2m/wakaama-master/core\liblwm2m.c **** {
 2541              		.loc 1 632 1
 2542              		.cfi_startproc
 2543              		@ args = 0, pretend = 0, frame = 32
 2544              		@ frame_needed = 1, uses_anonymous_args = 0
 2545 0000 B0B5     		push	{r4, r5, r7, lr}
 2546              	.LCFI120:
 2547              		.cfi_def_cfa_offset 16
 2548              		.cfi_offset 4, -16
 2549              		.cfi_offset 5, -12
 2550              		.cfi_offset 7, -8
 2551              		.cfi_offset 14, -4
 2552 0002 8EB0     		sub	sp, sp, #56
 2553              	.LCFI121:
 2554              		.cfi_def_cfa_offset 72
 2555 0004 06AF     		add	r7, sp, #24
 2556              	.LCFI122:
 2557              		.cfi_def_cfa 7, 48
 2558 0006 7860     		str	r0, [r7, #4]
 2559 0008 3960     		str	r1, [r7]
 633:g:/iot/IoT_Device_Demo/iot_link/network/lwm2m/wakaama_lwm2m/wakaama-master/core\liblwm2m.c ****     time_t tv_sec;
 634:g:/iot/IoT_Device_Demo/iot_link/network/lwm2m/wakaama_lwm2m/wakaama-master/core\liblwm2m.c ****     int result;
 635:g:/iot/IoT_Device_Demo/iot_link/network/lwm2m/wakaama_lwm2m/wakaama-master/core\liblwm2m.c ****     lwm2m_client_state_t state;
 636:g:/iot/IoT_Device_Demo/iot_link/network/lwm2m/wakaama_lwm2m/wakaama-master/core\liblwm2m.c ****     int ret = 0;
 2560              		.loc 1 636 9
 2561 000a 0023     		movs	r3, #0
 2562 000c FB61     		str	r3, [r7, #28]
 637:g:/iot/IoT_Device_Demo/iot_link/network/lwm2m/wakaama_lwm2m/wakaama-master/core\liblwm2m.c **** 
 638:g:/iot/IoT_Device_Demo/iot_link/network/lwm2m/wakaama_lwm2m/wakaama-master/core\liblwm2m.c ****     LOG_ARG("timeoutP: %" PRId64, *timeoutP);
 2563              		.loc 1 638 5
 2564 000e FFF7FEFF 		bl	link_log_level_get
 2565 0012 0346     		mov	r3, r0
 2566 0014 012B     		cmp	r3, #1
 2567 0016 21D8     		bhi	.L143
 2568              		.loc 1 638 5 is_stmt 0 discriminator 1
 2569 0018 0120     		movs	r0, #1
ARM GAS  C:\Users\ADMINI~1\AppData\Local\Temp\ccoKNcyf.s 			page 58


 2570 001a FFF7FEFF 		bl	link_log_level_name
 2571 001e 0446     		mov	r4, r0
 2572 0020 FFF7FEFF 		bl	osal_sys_time
 2573 0024 0246     		mov	r2, r0
 2574 0026 0B46     		mov	r3, r1
 2575 0028 1546     		mov	r5, r2
 2576 002a FFF7FEFF 		bl	lwm2m_gettime
 2577 002e 0246     		mov	r2, r0
 2578 0030 0B46     		mov	r3, r1
 2579 0032 1146     		mov	r1, r2
 2580 0034 3B68     		ldr	r3, [r7]
 2581 0036 D3E90023 		ldrd	r2, [r3]
 2582 003a CDE90423 		strd	r2, [sp, #16]
 2583 003e 40F27E23 		movw	r3, #638
 2584 0042 0393     		str	r3, [sp, #12]
 2585 0044 A64B     		ldr	r3, .L196
 2586 0046 0293     		str	r3, [sp, #8]
 2587 0048 0191     		str	r1, [sp, #4]
 2588 004a 40F27E23 		movw	r3, #638
 2589 004e 0093     		str	r3, [sp]
 2590 0050 A44B     		ldr	r3, .L196+4
 2591 0052 2A46     		mov	r2, r5
 2592 0054 2146     		mov	r1, r4
 2593 0056 A448     		ldr	r0, .L196+8
 2594 0058 FFF7FEFF 		bl	printf
 2595              	.L143:
 639:g:/iot/IoT_Device_Demo/iot_link/network/lwm2m/wakaama_lwm2m/wakaama-master/core\liblwm2m.c ****     tv_sec = lwm2m_gettime();
 2596              		.loc 1 639 14 is_stmt 1
 2597 005c FFF7FEFF 		bl	lwm2m_gettime
 2598 0060 C7E90401 		strd	r0, [r7, #16]
 640:g:/iot/IoT_Device_Demo/iot_link/network/lwm2m/wakaama_lwm2m/wakaama-master/core\liblwm2m.c ****     //if (tv_sec < 0) return COAP_500_INTERNAL_SERVER_ERROR;
 641:g:/iot/IoT_Device_Demo/iot_link/network/lwm2m/wakaama_lwm2m/wakaama-master/core\liblwm2m.c **** 
 642:g:/iot/IoT_Device_Demo/iot_link/network/lwm2m/wakaama_lwm2m/wakaama-master/core\liblwm2m.c **** #ifdef LWM2M_CLIENT_MODE
 643:g:/iot/IoT_Device_Demo/iot_link/network/lwm2m/wakaama_lwm2m/wakaama-master/core\liblwm2m.c ****     LOG_ARG("State: %s", STR_STATE(contextP->state));
 2599              		.loc 1 643 5
 2600 0064 FFF7FEFF 		bl	link_log_level_get
 2601 0068 0346     		mov	r3, r0
 2602 006a 012B     		cmp	r3, #1
 2603 006c 42D8     		bhi	.L193
 2604              		.loc 1 643 5 is_stmt 0 discriminator 1
 2605 006e 0120     		movs	r0, #1
 2606 0070 FFF7FEFF 		bl	link_log_level_name
 2607 0074 0446     		mov	r4, r0
 2608 0076 FFF7FEFF 		bl	osal_sys_time
 2609 007a 0246     		mov	r2, r0
 2610 007c 0B46     		mov	r3, r1
 2611 007e 1546     		mov	r5, r2
 2612 0080 FFF7FEFF 		bl	lwm2m_gettime
 2613 0084 0246     		mov	r2, r0
 2614 0086 0B46     		mov	r3, r1
 2615 0088 7B68     		ldr	r3, [r7, #4]
 2616 008a 1B78     		ldrb	r3, [r3]	@ zero_extendqisi2
 2617 008c 002B     		cmp	r3, #0
 2618 008e 1FD0     		beq	.L145
 2619              		.loc 1 643 5 discriminator 2
 2620 0090 7B68     		ldr	r3, [r7, #4]
 2621 0092 1B78     		ldrb	r3, [r3]	@ zero_extendqisi2
ARM GAS  C:\Users\ADMINI~1\AppData\Local\Temp\ccoKNcyf.s 			page 59


 2622 0094 012B     		cmp	r3, #1
 2623 0096 19D0     		beq	.L146
 2624              		.loc 1 643 5 discriminator 4
 2625 0098 7B68     		ldr	r3, [r7, #4]
 2626 009a 1B78     		ldrb	r3, [r3]	@ zero_extendqisi2
 2627 009c 022B     		cmp	r3, #2
 2628 009e 13D0     		beq	.L147
 2629              		.loc 1 643 5 discriminator 6
 2630 00a0 7B68     		ldr	r3, [r7, #4]
 2631 00a2 1B78     		ldrb	r3, [r3]	@ zero_extendqisi2
 2632 00a4 032B     		cmp	r3, #3
 2633 00a6 0DD0     		beq	.L148
 2634              		.loc 1 643 5 discriminator 8
 2635 00a8 7B68     		ldr	r3, [r7, #4]
 2636 00aa 1B78     		ldrb	r3, [r3]	@ zero_extendqisi2
 2637 00ac 042B     		cmp	r3, #4
 2638 00ae 07D0     		beq	.L149
 2639              		.loc 1 643 5 discriminator 10
 2640 00b0 7B68     		ldr	r3, [r7, #4]
 2641 00b2 1B78     		ldrb	r3, [r3]	@ zero_extendqisi2
 2642 00b4 052B     		cmp	r3, #5
 2643 00b6 01D1     		bne	.L150
 2644              		.loc 1 643 5 discriminator 12
 2645 00b8 8C4B     		ldr	r3, .L196+12
 2646 00ba 0AE0     		b	.L156
 2647              	.L150:
 2648              		.loc 1 643 5 discriminator 13
 2649 00bc 8C4B     		ldr	r3, .L196+16
 2650 00be 08E0     		b	.L156
 2651              	.L149:
 2652              		.loc 1 643 5 discriminator 11
 2653 00c0 8C4B     		ldr	r3, .L196+20
 2654 00c2 06E0     		b	.L156
 2655              	.L148:
 2656              		.loc 1 643 5 discriminator 9
 2657 00c4 8C4B     		ldr	r3, .L196+24
 2658 00c6 04E0     		b	.L156
 2659              	.L147:
 2660              		.loc 1 643 5 discriminator 7
 2661 00c8 8C4B     		ldr	r3, .L196+28
 2662 00ca 02E0     		b	.L156
 2663              	.L146:
 2664              		.loc 1 643 5 discriminator 5
 2665 00cc 8C4B     		ldr	r3, .L196+32
 2666 00ce 00E0     		b	.L156
 2667              	.L145:
 2668              		.loc 1 643 5 discriminator 3
 2669 00d0 8C4B     		ldr	r3, .L196+36
 2670              	.L156:
 2671              		.loc 1 643 5 discriminator 25
 2672 00d2 0493     		str	r3, [sp, #16]
 2673 00d4 40F28323 		movw	r3, #643
 2674 00d8 0393     		str	r3, [sp, #12]
 2675 00da 814B     		ldr	r3, .L196
 2676 00dc 0293     		str	r3, [sp, #8]
 2677 00de 0192     		str	r2, [sp, #4]
 2678 00e0 40F28323 		movw	r3, #643
ARM GAS  C:\Users\ADMINI~1\AppData\Local\Temp\ccoKNcyf.s 			page 60


 2679 00e4 0093     		str	r3, [sp]
 2680 00e6 7F4B     		ldr	r3, .L196+4
 2681 00e8 2A46     		mov	r2, r5
 2682 00ea 2146     		mov	r1, r4
 2683 00ec 8648     		ldr	r0, .L196+40
 2684 00ee FFF7FEFF 		bl	printf
 2685 00f2 00E0     		b	.L170
 2686              	.L193:
 644:g:/iot/IoT_Device_Demo/iot_link/network/lwm2m/wakaama_lwm2m/wakaama-master/core\liblwm2m.c ****     // state can also be modified in bootstrap_handleCommand().
 645:g:/iot/IoT_Device_Demo/iot_link/network/lwm2m/wakaama_lwm2m/wakaama-master/core\liblwm2m.c **** 
 646:g:/iot/IoT_Device_Demo/iot_link/network/lwm2m/wakaama_lwm2m/wakaama-master/core\liblwm2m.c **** next_step:
 2687              		.loc 1 646 1 is_stmt 1
 2688 00f4 00BF     		nop
 2689              	.L144:
 2690              	.L170:
 647:g:/iot/IoT_Device_Demo/iot_link/network/lwm2m/wakaama_lwm2m/wakaama-master/core\liblwm2m.c ****     switch (contextP->state)
 2691              		.loc 1 647 21
 2692 00f6 7B68     		ldr	r3, [r7, #4]
 2693 00f8 1B78     		ldrb	r3, [r3]	@ zero_extendqisi2
 2694 00fa 052B     		cmp	r3, #5
 2695 00fc 00F2ED80 		bhi	.L194
 2696 0100 01A2     		adr	r2, .L159
 2697 0102 52F823F0 		ldr	pc, [r2, r3, lsl #2]
 2698 0106 00BF     		.p2align 2
 2699              	.L159:
 2700 0108 21010000 		.word	.L163+1
 2701 010c C3010000 		.word	.L162+1
 2702 0110 DB020000 		.word	.L194+1
 2703 0114 E5010000 		.word	.L161+1
 2704 0118 65020000 		.word	.L160+1
 2705 011c BF020000 		.word	.L158+1
 2706              		.p2align 1
 2707              	.L163:
 648:g:/iot/IoT_Device_Demo/iot_link/network/lwm2m/wakaama_lwm2m/wakaama-master/core\liblwm2m.c ****     {
 649:g:/iot/IoT_Device_Demo/iot_link/network/lwm2m/wakaama_lwm2m/wakaama-master/core\liblwm2m.c ****     case STATE_INITIAL:
 650:g:/iot/IoT_Device_Demo/iot_link/network/lwm2m/wakaama_lwm2m/wakaama-master/core\liblwm2m.c ****         if (0 != prv_refreshServerList(contextP))
 2708              		.loc 1 650 18
 2709 0120 7868     		ldr	r0, [r7, #4]
 2710 0122 FFF7FEFF 		bl	prv_refreshServerList
 2711 0126 0346     		mov	r3, r0
 2712              		.loc 1 650 12
 2713 0128 002B     		cmp	r3, #0
 2714 012a 22D0     		beq	.L164
 651:g:/iot/IoT_Device_Demo/iot_link/network/lwm2m/wakaama_lwm2m/wakaama-master/core\liblwm2m.c ****         {
 652:g:/iot/IoT_Device_Demo/iot_link/network/lwm2m/wakaama_lwm2m/wakaama-master/core\liblwm2m.c ****             LOG("prv_refreshServerList fail");
 2715              		.loc 1 652 13
 2716 012c FFF7FEFF 		bl	link_log_level_get
 2717 0130 0346     		mov	r3, r0
 2718 0132 012B     		cmp	r3, #1
 2719 0134 1BD8     		bhi	.L165
 2720              		.loc 1 652 13 is_stmt 0 discriminator 1
 2721 0136 0120     		movs	r0, #1
 2722 0138 FFF7FEFF 		bl	link_log_level_name
 2723 013c 0446     		mov	r4, r0
 2724 013e FFF7FEFF 		bl	osal_sys_time
 2725 0142 0246     		mov	r2, r0
 2726 0144 0B46     		mov	r3, r1
ARM GAS  C:\Users\ADMINI~1\AppData\Local\Temp\ccoKNcyf.s 			page 61


 2727 0146 1546     		mov	r5, r2
 2728 0148 FFF7FEFF 		bl	lwm2m_gettime
 2729 014c 0246     		mov	r2, r0
 2730 014e 0B46     		mov	r3, r1
 2731 0150 4FF42373 		mov	r3, #652
 2732 0154 0393     		str	r3, [sp, #12]
 2733 0156 624B     		ldr	r3, .L196
 2734 0158 0293     		str	r3, [sp, #8]
 2735 015a 0192     		str	r2, [sp, #4]
 2736 015c 4FF42373 		mov	r3, #652
 2737 0160 0093     		str	r3, [sp]
 2738 0162 604B     		ldr	r3, .L196+4
 2739 0164 2A46     		mov	r2, r5
 2740 0166 2146     		mov	r1, r4
 2741 0168 6848     		ldr	r0, .L196+44
 2742 016a FFF7FEFF 		bl	printf
 2743              	.L165:
 653:g:/iot/IoT_Device_Demo/iot_link/network/lwm2m/wakaama_lwm2m/wakaama-master/core\liblwm2m.c ****             return COAP_503_SERVICE_UNAVAILABLE;
 2744              		.loc 1 653 20 is_stmt 1
 2745 016e A323     		movs	r3, #163
 2746 0170 55E1     		b	.L166
 2747              	.L164:
 654:g:/iot/IoT_Device_Demo/iot_link/network/lwm2m/wakaama_lwm2m/wakaama-master/core\liblwm2m.c ****         }
 655:g:/iot/IoT_Device_Demo/iot_link/network/lwm2m/wakaama_lwm2m/wakaama-master/core\liblwm2m.c **** 
 656:g:/iot/IoT_Device_Demo/iot_link/network/lwm2m/wakaama_lwm2m/wakaama-master/core\liblwm2m.c ****         state = ((!prv_isBoostrpEnable(contextP))
 2748              		.loc 1 656 20
 2749 0172 7868     		ldr	r0, [r7, #4]
 2750 0174 FFF7FEFF 		bl	prv_isBoostrpEnable
 2751 0178 0346     		mov	r3, r0
 2752              		.loc 1 656 19
 2753 017a 83F00103 		eor	r3, r3, #1
 2754 017e DBB2     		uxtb	r3, r3
 657:g:/iot/IoT_Device_Demo/iot_link/network/lwm2m/wakaama_lwm2m/wakaama-master/core\liblwm2m.c ****                  || ((contextP->serverList != NULL) && contextP->regist_first_flag)
 658:g:/iot/IoT_Device_Demo/iot_link/network/lwm2m/wakaama_lwm2m/wakaama-master/core\liblwm2m.c ****                  ?  STATE_REGISTER_REQUIRED : STATE_BOOTSTRAP_REQUIRED);
 2755              		.loc 1 658 45
 2756 0180 002B     		cmp	r3, #0
 2757 0182 07D1     		bne	.L167
 657:g:/iot/IoT_Device_Demo/iot_link/network/lwm2m/wakaama_lwm2m/wakaama-master/core\liblwm2m.c ****                  || ((contextP->serverList != NULL) && contextP->regist_first_flag)
 2758              		.loc 1 657 31
 2759 0184 7B68     		ldr	r3, [r7, #4]
 2760 0186 5B69     		ldr	r3, [r3, #20]
 657:g:/iot/IoT_Device_Demo/iot_link/network/lwm2m/wakaama_lwm2m/wakaama-master/core\liblwm2m.c ****                  || ((contextP->serverList != NULL) && contextP->regist_first_flag)
 2761              		.loc 1 657 18
 2762 0188 002B     		cmp	r3, #0
 2763 018a 05D0     		beq	.L168
 657:g:/iot/IoT_Device_Demo/iot_link/network/lwm2m/wakaama_lwm2m/wakaama-master/core\liblwm2m.c ****                  || ((contextP->serverList != NULL) && contextP->regist_first_flag)
 2764              		.loc 1 657 64 discriminator 1
 2765 018c 7B68     		ldr	r3, [r7, #4]
 2766 018e 5B78     		ldrb	r3, [r3, #1]	@ zero_extendqisi2
 657:g:/iot/IoT_Device_Demo/iot_link/network/lwm2m/wakaama_lwm2m/wakaama-master/core\liblwm2m.c ****                  || ((contextP->serverList != NULL) && contextP->regist_first_flag)
 2767              		.loc 1 657 53 discriminator 1
 2768 0190 002B     		cmp	r3, #0
 2769 0192 01D0     		beq	.L168
 2770              	.L167:
 2771              		.loc 1 658 45 discriminator 1
 2772 0194 0323     		movs	r3, #3
 2773 0196 00E0     		b	.L169
ARM GAS  C:\Users\ADMINI~1\AppData\Local\Temp\ccoKNcyf.s 			page 62


 2774              	.L168:
 2775              		.loc 1 658 45 is_stmt 0
 2776 0198 0123     		movs	r3, #1
 2777              	.L169:
 656:g:/iot/IoT_Device_Demo/iot_link/network/lwm2m/wakaama_lwm2m/wakaama-master/core\liblwm2m.c ****                  || ((contextP->serverList != NULL) && contextP->regist_first_flag)
 2778              		.loc 1 656 15 is_stmt 1
 2779 019a FB72     		strb	r3, [r7, #11]
 659:g:/iot/IoT_Device_Demo/iot_link/network/lwm2m/wakaama_lwm2m/wakaama-master/core\liblwm2m.c **** 
 660:g:/iot/IoT_Device_Demo/iot_link/network/lwm2m/wakaama_lwm2m/wakaama-master/core\liblwm2m.c ****         contextP->regist_first_flag = true;
 2780              		.loc 1 660 37
 2781 019c 7B68     		ldr	r3, [r7, #4]
 2782 019e 0122     		movs	r2, #1
 2783 01a0 5A70     		strb	r2, [r3, #1]
 661:g:/iot/IoT_Device_Demo/iot_link/network/lwm2m/wakaama_lwm2m/wakaama-master/core\liblwm2m.c **** 
 662:g:/iot/IoT_Device_Demo/iot_link/network/lwm2m/wakaama_lwm2m/wakaama-master/core\liblwm2m.c ****         SET_BS_LATER(contextP, state);
 2784              		.loc 1 662 9
 2785 01a2 FB7A     		ldrb	r3, [r7, #11]	@ zero_extendqisi2
 2786 01a4 1946     		mov	r1, r3
 2787 01a6 7868     		ldr	r0, [r7, #4]
 2788 01a8 FFF7FEFF 		bl	lwm2m_setBsCtrlStat
 2789 01ac 7868     		ldr	r0, [r7, #4]
 2790 01ae FFF7FEFF 		bl	lwm2m_getBsCtrlStat
 2791 01b2 0346     		mov	r3, r0
 2792 01b4 1A46     		mov	r2, r3
 2793 01b6 7B68     		ldr	r3, [r7, #4]
 2794 01b8 1A70     		strb	r2, [r3]
 2795 01ba 7868     		ldr	r0, [r7, #4]
 2796 01bc FFF7FEFF 		bl	lwm2m_delayBsRetry
 663:g:/iot/IoT_Device_Demo/iot_link/network/lwm2m/wakaama_lwm2m/wakaama-master/core\liblwm2m.c ****         goto next_step;
 2797              		.loc 1 663 9
 2798 01c0 99E7     		b	.L170
 2799              	.L162:
 664:g:/iot/IoT_Device_Demo/iot_link/network/lwm2m/wakaama_lwm2m/wakaama-master/core\liblwm2m.c ****     //break;
 665:g:/iot/IoT_Device_Demo/iot_link/network/lwm2m/wakaama_lwm2m/wakaama-master/core\liblwm2m.c **** 
 666:g:/iot/IoT_Device_Demo/iot_link/network/lwm2m/wakaama_lwm2m/wakaama-master/core\liblwm2m.c ****     case STATE_BOOTSTRAP_REQUIRED:
 667:g:/iot/IoT_Device_Demo/iot_link/network/lwm2m/wakaama_lwm2m/wakaama-master/core\liblwm2m.c **** #ifdef LWM2M_BOOTSTRAP
 668:g:/iot/IoT_Device_Demo/iot_link/network/lwm2m/wakaama_lwm2m/wakaama-master/core\liblwm2m.c ****         if (contextP->bootstrapServerList != NULL)
 669:g:/iot/IoT_Device_Demo/iot_link/network/lwm2m/wakaama_lwm2m/wakaama-master/core\liblwm2m.c ****         {
 670:g:/iot/IoT_Device_Demo/iot_link/network/lwm2m/wakaama_lwm2m/wakaama-master/core\liblwm2m.c ****             bootstrap_start(contextP);
 671:g:/iot/IoT_Device_Demo/iot_link/network/lwm2m/wakaama_lwm2m/wakaama-master/core\liblwm2m.c ****             contextP->state = STATE_BOOTSTRAPPING;
 672:g:/iot/IoT_Device_Demo/iot_link/network/lwm2m/wakaama_lwm2m/wakaama-master/core\liblwm2m.c ****             bootstrap_step(contextP, tv_sec, timeoutP);
 673:g:/iot/IoT_Device_Demo/iot_link/network/lwm2m/wakaama_lwm2m/wakaama-master/core\liblwm2m.c ****             break;
 674:g:/iot/IoT_Device_Demo/iot_link/network/lwm2m/wakaama_lwm2m/wakaama-master/core\liblwm2m.c ****         }
 675:g:/iot/IoT_Device_Demo/iot_link/network/lwm2m/wakaama_lwm2m/wakaama-master/core\liblwm2m.c ****         else
 676:g:/iot/IoT_Device_Demo/iot_link/network/lwm2m/wakaama_lwm2m/wakaama-master/core\liblwm2m.c **** #endif
 677:g:/iot/IoT_Device_Demo/iot_link/network/lwm2m/wakaama_lwm2m/wakaama-master/core\liblwm2m.c ****         {
 678:g:/iot/IoT_Device_Demo/iot_link/network/lwm2m/wakaama_lwm2m/wakaama-master/core\liblwm2m.c ****             SET_BS_LATER(contextP, STATE_BOOTSTRAP_REQUIRED);
 2800              		.loc 1 678 13
 2801 01c2 0121     		movs	r1, #1
 2802 01c4 7868     		ldr	r0, [r7, #4]
 2803 01c6 FFF7FEFF 		bl	lwm2m_setBsCtrlStat
 2804 01ca 7868     		ldr	r0, [r7, #4]
 2805 01cc FFF7FEFF 		bl	lwm2m_getBsCtrlStat
 2806 01d0 0346     		mov	r3, r0
 2807 01d2 1A46     		mov	r2, r3
 2808 01d4 7B68     		ldr	r3, [r7, #4]
 2809 01d6 1A70     		strb	r2, [r3]
ARM GAS  C:\Users\ADMINI~1\AppData\Local\Temp\ccoKNcyf.s 			page 63


 2810 01d8 7868     		ldr	r0, [r7, #4]
 2811 01da FFF7FEFF 		bl	lwm2m_delayBsRetry
 679:g:/iot/IoT_Device_Demo/iot_link/network/lwm2m/wakaama_lwm2m/wakaama-master/core\liblwm2m.c ****             ret = COAP_503_SERVICE_UNAVAILABLE;
 2812              		.loc 1 679 17
 2813 01de A323     		movs	r3, #163
 2814 01e0 FB61     		str	r3, [r7, #28]
 680:g:/iot/IoT_Device_Demo/iot_link/network/lwm2m/wakaama_lwm2m/wakaama-master/core\liblwm2m.c ****             break;
 2815              		.loc 1 680 13
 2816 01e2 98E0     		b	.L171
 2817              	.L161:
 681:g:/iot/IoT_Device_Demo/iot_link/network/lwm2m/wakaama_lwm2m/wakaama-master/core\liblwm2m.c ****         }
 682:g:/iot/IoT_Device_Demo/iot_link/network/lwm2m/wakaama_lwm2m/wakaama-master/core\liblwm2m.c **** 
 683:g:/iot/IoT_Device_Demo/iot_link/network/lwm2m/wakaama_lwm2m/wakaama-master/core\liblwm2m.c **** #ifdef LWM2M_BOOTSTRAP
 684:g:/iot/IoT_Device_Demo/iot_link/network/lwm2m/wakaama_lwm2m/wakaama-master/core\liblwm2m.c ****     case STATE_BOOTSTRAPPING:
 685:g:/iot/IoT_Device_Demo/iot_link/network/lwm2m/wakaama_lwm2m/wakaama-master/core\liblwm2m.c ****         switch (bootstrap_getStatus(contextP))
 686:g:/iot/IoT_Device_Demo/iot_link/network/lwm2m/wakaama_lwm2m/wakaama-master/core\liblwm2m.c ****         {
 687:g:/iot/IoT_Device_Demo/iot_link/network/lwm2m/wakaama_lwm2m/wakaama-master/core\liblwm2m.c ****         case STATE_BS_FINISHED:
 688:g:/iot/IoT_Device_Demo/iot_link/network/lwm2m/wakaama_lwm2m/wakaama-master/core\liblwm2m.c ****             contextP->state = STATE_INITIAL;
 689:g:/iot/IoT_Device_Demo/iot_link/network/lwm2m/wakaama_lwm2m/wakaama-master/core\liblwm2m.c ****             lwm2m_setBsCtrlStat(contextP, STATE_INITIAL);
 690:g:/iot/IoT_Device_Demo/iot_link/network/lwm2m/wakaama_lwm2m/wakaama-master/core\liblwm2m.c ****             goto next_step;
 691:g:/iot/IoT_Device_Demo/iot_link/network/lwm2m/wakaama_lwm2m/wakaama-master/core\liblwm2m.c ****             break;
 692:g:/iot/IoT_Device_Demo/iot_link/network/lwm2m/wakaama_lwm2m/wakaama-master/core\liblwm2m.c **** 
 693:g:/iot/IoT_Device_Demo/iot_link/network/lwm2m/wakaama_lwm2m/wakaama-master/core\liblwm2m.c ****         case STATE_BS_FAILED:
 694:g:/iot/IoT_Device_Demo/iot_link/network/lwm2m/wakaama_lwm2m/wakaama-master/core\liblwm2m.c ****             SET_BS_LATER(contextP, STATE_BOOTSTRAP_REQUIRED);
 695:g:/iot/IoT_Device_Demo/iot_link/network/lwm2m/wakaama_lwm2m/wakaama-master/core\liblwm2m.c ****             ret = COAP_503_SERVICE_UNAVAILABLE;
 696:g:/iot/IoT_Device_Demo/iot_link/network/lwm2m/wakaama_lwm2m/wakaama-master/core\liblwm2m.c ****             break;
 697:g:/iot/IoT_Device_Demo/iot_link/network/lwm2m/wakaama_lwm2m/wakaama-master/core\liblwm2m.c **** 
 698:g:/iot/IoT_Device_Demo/iot_link/network/lwm2m/wakaama_lwm2m/wakaama-master/core\liblwm2m.c ****         default:
 699:g:/iot/IoT_Device_Demo/iot_link/network/lwm2m/wakaama_lwm2m/wakaama-master/core\liblwm2m.c ****             // keep on waiting
 700:g:/iot/IoT_Device_Demo/iot_link/network/lwm2m/wakaama_lwm2m/wakaama-master/core\liblwm2m.c ****             bootstrap_step(contextP, tv_sec, timeoutP);
 701:g:/iot/IoT_Device_Demo/iot_link/network/lwm2m/wakaama_lwm2m/wakaama-master/core\liblwm2m.c ****             break;
 702:g:/iot/IoT_Device_Demo/iot_link/network/lwm2m/wakaama_lwm2m/wakaama-master/core\liblwm2m.c ****         }
 703:g:/iot/IoT_Device_Demo/iot_link/network/lwm2m/wakaama_lwm2m/wakaama-master/core\liblwm2m.c ****         break;
 704:g:/iot/IoT_Device_Demo/iot_link/network/lwm2m/wakaama_lwm2m/wakaama-master/core\liblwm2m.c **** #endif
 705:g:/iot/IoT_Device_Demo/iot_link/network/lwm2m/wakaama_lwm2m/wakaama-master/core\liblwm2m.c ****     case STATE_REGISTER_REQUIRED:
 706:g:/iot/IoT_Device_Demo/iot_link/network/lwm2m/wakaama_lwm2m/wakaama-master/core\liblwm2m.c ****         result = registration_start(contextP);
 2818              		.loc 1 706 18
 2819 01e4 7868     		ldr	r0, [r7, #4]
 2820 01e6 FFF7FEFF 		bl	registration_start
 2821 01ea 0346     		mov	r3, r0
 2822              		.loc 1 706 16
 2823 01ec FB60     		str	r3, [r7, #12]
 707:g:/iot/IoT_Device_Demo/iot_link/network/lwm2m/wakaama_lwm2m/wakaama-master/core\liblwm2m.c ****         LOG_ARG("[bootstrap_tag]: ---the return value result = %d of registration_start-----", resu
 2824              		.loc 1 707 9
 2825 01ee FFF7FEFF 		bl	link_log_level_get
 2826 01f2 0346     		mov	r3, r0
 2827 01f4 012B     		cmp	r3, #1
 2828 01f6 1DD8     		bhi	.L172
 2829              		.loc 1 707 9 is_stmt 0 discriminator 1
 2830 01f8 0120     		movs	r0, #1
 2831 01fa FFF7FEFF 		bl	link_log_level_name
 2832 01fe 0446     		mov	r4, r0
 2833 0200 FFF7FEFF 		bl	osal_sys_time
 2834 0204 0246     		mov	r2, r0
 2835 0206 0B46     		mov	r3, r1
 2836 0208 1546     		mov	r5, r2
 2837 020a FFF7FEFF 		bl	lwm2m_gettime
ARM GAS  C:\Users\ADMINI~1\AppData\Local\Temp\ccoKNcyf.s 			page 64


 2838 020e 0246     		mov	r2, r0
 2839 0210 0B46     		mov	r3, r1
 2840 0212 FB68     		ldr	r3, [r7, #12]
 2841 0214 0493     		str	r3, [sp, #16]
 2842 0216 40F2C323 		movw	r3, #707
 2843 021a 0393     		str	r3, [sp, #12]
 2844 021c 304B     		ldr	r3, .L196
 2845 021e 0293     		str	r3, [sp, #8]
 2846 0220 0192     		str	r2, [sp, #4]
 2847 0222 40F2C323 		movw	r3, #707
 2848 0226 0093     		str	r3, [sp]
 2849 0228 2E4B     		ldr	r3, .L196+4
 2850 022a 2A46     		mov	r2, r5
 2851 022c 2146     		mov	r1, r4
 2852 022e 3848     		ldr	r0, .L196+48
 2853 0230 FFF7FEFF 		bl	printf
 2854              	.L172:
 708:g:/iot/IoT_Device_Demo/iot_link/network/lwm2m/wakaama_lwm2m/wakaama-master/core\liblwm2m.c ****         if (COAP_NO_ERROR != result)
 2855              		.loc 1 708 12 is_stmt 1
 2856 0234 FB68     		ldr	r3, [r7, #12]
 2857 0236 002B     		cmp	r3, #0
 2858 0238 10D0     		beq	.L173
 709:g:/iot/IoT_Device_Demo/iot_link/network/lwm2m/wakaama_lwm2m/wakaama-master/core\liblwm2m.c ****         {
 710:g:/iot/IoT_Device_Demo/iot_link/network/lwm2m/wakaama_lwm2m/wakaama-master/core\liblwm2m.c ****             SET_BS_LATER(contextP, STATE_REGISTER_REQUIRED);
 2859              		.loc 1 710 13
 2860 023a 0321     		movs	r1, #3
 2861 023c 7868     		ldr	r0, [r7, #4]
 2862 023e FFF7FEFF 		bl	lwm2m_setBsCtrlStat
 2863 0242 7868     		ldr	r0, [r7, #4]
 2864 0244 FFF7FEFF 		bl	lwm2m_getBsCtrlStat
 2865 0248 0346     		mov	r3, r0
 2866 024a 1A46     		mov	r2, r3
 2867 024c 7B68     		ldr	r3, [r7, #4]
 2868 024e 1A70     		strb	r2, [r3]
 2869 0250 7868     		ldr	r0, [r7, #4]
 2870 0252 FFF7FEFF 		bl	lwm2m_delayBsRetry
 711:g:/iot/IoT_Device_Demo/iot_link/network/lwm2m/wakaama_lwm2m/wakaama-master/core\liblwm2m.c ****             ret = result;
 2871              		.loc 1 711 17
 2872 0256 FB68     		ldr	r3, [r7, #12]
 2873 0258 FB61     		str	r3, [r7, #28]
 712:g:/iot/IoT_Device_Demo/iot_link/network/lwm2m/wakaama_lwm2m/wakaama-master/core\liblwm2m.c ****             break;
 2874              		.loc 1 712 13
 2875 025a 5CE0     		b	.L171
 2876              	.L173:
 713:g:/iot/IoT_Device_Demo/iot_link/network/lwm2m/wakaama_lwm2m/wakaama-master/core\liblwm2m.c ****         }
 714:g:/iot/IoT_Device_Demo/iot_link/network/lwm2m/wakaama_lwm2m/wakaama-master/core\liblwm2m.c ****         contextP->state = STATE_REGISTERING;
 2877              		.loc 1 714 25
 2878 025c 7B68     		ldr	r3, [r7, #4]
 2879 025e 0422     		movs	r2, #4
 2880 0260 1A70     		strb	r2, [r3]
 715:g:/iot/IoT_Device_Demo/iot_link/network/lwm2m/wakaama_lwm2m/wakaama-master/core\liblwm2m.c ****         break;
 2881              		.loc 1 715 9
 2882 0262 58E0     		b	.L171
 2883              	.L160:
 716:g:/iot/IoT_Device_Demo/iot_link/network/lwm2m/wakaama_lwm2m/wakaama-master/core\liblwm2m.c **** 
 717:g:/iot/IoT_Device_Demo/iot_link/network/lwm2m/wakaama_lwm2m/wakaama-master/core\liblwm2m.c ****     case STATE_REGISTERING:
 718:g:/iot/IoT_Device_Demo/iot_link/network/lwm2m/wakaama_lwm2m/wakaama-master/core\liblwm2m.c ****     {
ARM GAS  C:\Users\ADMINI~1\AppData\Local\Temp\ccoKNcyf.s 			page 65


 719:g:/iot/IoT_Device_Demo/iot_link/network/lwm2m/wakaama_lwm2m/wakaama-master/core\liblwm2m.c ****         switch (registration_getStatus(contextP))
 2884              		.loc 1 719 17
 2885 0264 7868     		ldr	r0, [r7, #4]
 2886 0266 FFF7FEFF 		bl	registration_getStatus
 2887 026a 0346     		mov	r3, r0
 2888 026c 022B     		cmp	r3, #2
 2889 026e 02D0     		beq	.L174
 2890 0270 032B     		cmp	r3, #3
 2891 0272 0ED0     		beq	.L175
 720:g:/iot/IoT_Device_Demo/iot_link/network/lwm2m/wakaama_lwm2m/wakaama-master/core\liblwm2m.c ****         {
 721:g:/iot/IoT_Device_Demo/iot_link/network/lwm2m/wakaama_lwm2m/wakaama-master/core\liblwm2m.c ****         case STATE_REGISTERED:
 722:g:/iot/IoT_Device_Demo/iot_link/network/lwm2m/wakaama_lwm2m/wakaama-master/core\liblwm2m.c ****             contextP->state = STATE_READY;
 723:g:/iot/IoT_Device_Demo/iot_link/network/lwm2m/wakaama_lwm2m/wakaama-master/core\liblwm2m.c ****             lwm2m_notify_even(MODULE_LWM2M, STATE_REGISTERED, NULL, 0);
 724:g:/iot/IoT_Device_Demo/iot_link/network/lwm2m/wakaama_lwm2m/wakaama-master/core\liblwm2m.c ****             lwm2m_setBsCtrlStat(contextP, STATE_INITIAL);
 725:g:/iot/IoT_Device_Demo/iot_link/network/lwm2m/wakaama_lwm2m/wakaama-master/core\liblwm2m.c ****             break;
 726:g:/iot/IoT_Device_Demo/iot_link/network/lwm2m/wakaama_lwm2m/wakaama-master/core\liblwm2m.c **** 
 727:g:/iot/IoT_Device_Demo/iot_link/network/lwm2m/wakaama_lwm2m/wakaama-master/core\liblwm2m.c ****         case STATE_REG_FAILED:
 728:g:/iot/IoT_Device_Demo/iot_link/network/lwm2m/wakaama_lwm2m/wakaama-master/core\liblwm2m.c ****             // TODO avoid infinite loop by checking the bootstrap info is different
 729:g:/iot/IoT_Device_Demo/iot_link/network/lwm2m/wakaama_lwm2m/wakaama-master/core\liblwm2m.c ****             //contextP->state = STATE_BOOTSTRAP_REQUIRED;
 730:g:/iot/IoT_Device_Demo/iot_link/network/lwm2m/wakaama_lwm2m/wakaama-master/core\liblwm2m.c **** 
 731:g:/iot/IoT_Device_Demo/iot_link/network/lwm2m/wakaama_lwm2m/wakaama-master/core\liblwm2m.c ****             lwm2m_notify_even(MODULE_LWM2M,STATE_REG_FAILED, NULL, 0);
 732:g:/iot/IoT_Device_Demo/iot_link/network/lwm2m/wakaama_lwm2m/wakaama-master/core\liblwm2m.c ****             SET_BS_LATER(contextP, STATE_REGISTER_REQUIRED);
 733:g:/iot/IoT_Device_Demo/iot_link/network/lwm2m/wakaama_lwm2m/wakaama-master/core\liblwm2m.c **** 
 734:g:/iot/IoT_Device_Demo/iot_link/network/lwm2m/wakaama_lwm2m/wakaama-master/core\liblwm2m.c ****             break;
 735:g:/iot/IoT_Device_Demo/iot_link/network/lwm2m/wakaama_lwm2m/wakaama-master/core\liblwm2m.c **** 
 736:g:/iot/IoT_Device_Demo/iot_link/network/lwm2m/wakaama_lwm2m/wakaama-master/core\liblwm2m.c ****         case STATE_REG_PENDING:
 737:g:/iot/IoT_Device_Demo/iot_link/network/lwm2m/wakaama_lwm2m/wakaama-master/core\liblwm2m.c ****         default:
 738:g:/iot/IoT_Device_Demo/iot_link/network/lwm2m/wakaama_lwm2m/wakaama-master/core\liblwm2m.c ****             // keep on waiting
 739:g:/iot/IoT_Device_Demo/iot_link/network/lwm2m/wakaama_lwm2m/wakaama-master/core\liblwm2m.c ****             break;
 2892              		.loc 1 739 13
 2893 0274 22E0     		b	.L177
 2894              	.L174:
 722:g:/iot/IoT_Device_Demo/iot_link/network/lwm2m/wakaama_lwm2m/wakaama-master/core\liblwm2m.c ****             lwm2m_notify_even(MODULE_LWM2M, STATE_REGISTERED, NULL, 0);
 2895              		.loc 1 722 29
 2896 0276 7B68     		ldr	r3, [r7, #4]
 2897 0278 0522     		movs	r2, #5
 2898 027a 1A70     		strb	r2, [r3]
 723:g:/iot/IoT_Device_Demo/iot_link/network/lwm2m/wakaama_lwm2m/wakaama-master/core\liblwm2m.c ****             lwm2m_setBsCtrlStat(contextP, STATE_INITIAL);
 2899              		.loc 1 723 13
 2900 027c 0023     		movs	r3, #0
 2901 027e 0022     		movs	r2, #0
 2902 0280 0221     		movs	r1, #2
 2903 0282 0020     		movs	r0, #0
 2904 0284 FFF7FEFF 		bl	lwm2m_notify_even
 724:g:/iot/IoT_Device_Demo/iot_link/network/lwm2m/wakaama_lwm2m/wakaama-master/core\liblwm2m.c ****             break;
 2905              		.loc 1 724 13
 2906 0288 0021     		movs	r1, #0
 2907 028a 7868     		ldr	r0, [r7, #4]
 2908 028c FFF7FEFF 		bl	lwm2m_setBsCtrlStat
 725:g:/iot/IoT_Device_Demo/iot_link/network/lwm2m/wakaama_lwm2m/wakaama-master/core\liblwm2m.c **** 
 2909              		.loc 1 725 13
 2910 0290 14E0     		b	.L177
 2911              	.L175:
 731:g:/iot/IoT_Device_Demo/iot_link/network/lwm2m/wakaama_lwm2m/wakaama-master/core\liblwm2m.c ****             SET_BS_LATER(contextP, STATE_REGISTER_REQUIRED);
 2912              		.loc 1 731 13
 2913 0292 0023     		movs	r3, #0
 2914 0294 0022     		movs	r2, #0
ARM GAS  C:\Users\ADMINI~1\AppData\Local\Temp\ccoKNcyf.s 			page 66


 2915 0296 0321     		movs	r1, #3
 2916 0298 0020     		movs	r0, #0
 2917 029a FFF7FEFF 		bl	lwm2m_notify_even
 732:g:/iot/IoT_Device_Demo/iot_link/network/lwm2m/wakaama_lwm2m/wakaama-master/core\liblwm2m.c **** 
 2918              		.loc 1 732 13
 2919 029e 0321     		movs	r1, #3
 2920 02a0 7868     		ldr	r0, [r7, #4]
 2921 02a2 FFF7FEFF 		bl	lwm2m_setBsCtrlStat
 2922 02a6 7868     		ldr	r0, [r7, #4]
 2923 02a8 FFF7FEFF 		bl	lwm2m_getBsCtrlStat
 2924 02ac 0346     		mov	r3, r0
 2925 02ae 1A46     		mov	r2, r3
 2926 02b0 7B68     		ldr	r3, [r7, #4]
 2927 02b2 1A70     		strb	r2, [r3]
 2928 02b4 7868     		ldr	r0, [r7, #4]
 2929 02b6 FFF7FEFF 		bl	lwm2m_delayBsRetry
 734:g:/iot/IoT_Device_Demo/iot_link/network/lwm2m/wakaama_lwm2m/wakaama-master/core\liblwm2m.c **** 
 2930              		.loc 1 734 13
 2931 02ba 00BF     		nop
 2932              	.L177:
 740:g:/iot/IoT_Device_Demo/iot_link/network/lwm2m/wakaama_lwm2m/wakaama-master/core\liblwm2m.c ****         }
 741:g:/iot/IoT_Device_Demo/iot_link/network/lwm2m/wakaama_lwm2m/wakaama-master/core\liblwm2m.c ****     }
 742:g:/iot/IoT_Device_Demo/iot_link/network/lwm2m/wakaama_lwm2m/wakaama-master/core\liblwm2m.c ****     break;
 2933              		.loc 1 742 5
 2934 02bc 2BE0     		b	.L171
 2935              	.L158:
 743:g:/iot/IoT_Device_Demo/iot_link/network/lwm2m/wakaama_lwm2m/wakaama-master/core\liblwm2m.c **** 
 744:g:/iot/IoT_Device_Demo/iot_link/network/lwm2m/wakaama_lwm2m/wakaama-master/core\liblwm2m.c ****     case STATE_READY:
 745:g:/iot/IoT_Device_Demo/iot_link/network/lwm2m/wakaama_lwm2m/wakaama-master/core\liblwm2m.c ****         if (registration_getStatus(contextP) == STATE_REG_FAILED)
 2936              		.loc 1 745 13
 2937 02be 7868     		ldr	r0, [r7, #4]
 2938 02c0 FFF7FEFF 		bl	registration_getStatus
 2939 02c4 0346     		mov	r3, r0
 2940              		.loc 1 745 12
 2941 02c6 032B     		cmp	r3, #3
 2942 02c8 24D1     		bne	.L195
 746:g:/iot/IoT_Device_Demo/iot_link/network/lwm2m/wakaama_lwm2m/wakaama-master/core\liblwm2m.c ****         {
 747:g:/iot/IoT_Device_Demo/iot_link/network/lwm2m/wakaama_lwm2m/wakaama-master/core\liblwm2m.c ****             // TODO avoid infinite loop by checking the bootstrap info is different
 748:g:/iot/IoT_Device_Demo/iot_link/network/lwm2m/wakaama_lwm2m/wakaama-master/core\liblwm2m.c ****             //contextP->state = STATE_BOOTSTRAP_REQUIRED;
 749:g:/iot/IoT_Device_Demo/iot_link/network/lwm2m/wakaama_lwm2m/wakaama-master/core\liblwm2m.c ****             contextP->state = STATE_REGISTER_REQUIRED;
 2943              		.loc 1 749 29
 2944 02ca 7B68     		ldr	r3, [r7, #4]
 2945 02cc 0322     		movs	r2, #3
 2946 02ce 1A70     		strb	r2, [r3]
 750:g:/iot/IoT_Device_Demo/iot_link/network/lwm2m/wakaama_lwm2m/wakaama-master/core\liblwm2m.c ****             lwm2m_setBsCtrlStat(contextP, STATE_REGISTER_REQUIRED);
 2947              		.loc 1 750 13
 2948 02d0 0321     		movs	r1, #3
 2949 02d2 7868     		ldr	r0, [r7, #4]
 2950 02d4 FFF7FEFF 		bl	lwm2m_setBsCtrlStat
 751:g:/iot/IoT_Device_Demo/iot_link/network/lwm2m/wakaama_lwm2m/wakaama-master/core\liblwm2m.c ****             goto next_step;
 2951              		.loc 1 751 13
 2952 02d8 0DE7     		b	.L170
 2953              	.L194:
 752:g:/iot/IoT_Device_Demo/iot_link/network/lwm2m/wakaama_lwm2m/wakaama-master/core\liblwm2m.c ****             //            break;
 753:g:/iot/IoT_Device_Demo/iot_link/network/lwm2m/wakaama_lwm2m/wakaama-master/core\liblwm2m.c ****         }
 754:g:/iot/IoT_Device_Demo/iot_link/network/lwm2m/wakaama_lwm2m/wakaama-master/core\liblwm2m.c ****         break;
 755:g:/iot/IoT_Device_Demo/iot_link/network/lwm2m/wakaama_lwm2m/wakaama-master/core\liblwm2m.c **** 
ARM GAS  C:\Users\ADMINI~1\AppData\Local\Temp\ccoKNcyf.s 			page 67


 756:g:/iot/IoT_Device_Demo/iot_link/network/lwm2m/wakaama_lwm2m/wakaama-master/core\liblwm2m.c ****     default:
 757:g:/iot/IoT_Device_Demo/iot_link/network/lwm2m/wakaama_lwm2m/wakaama-master/core\liblwm2m.c ****         // do nothing
 758:g:/iot/IoT_Device_Demo/iot_link/network/lwm2m/wakaama_lwm2m/wakaama-master/core\liblwm2m.c ****         break;
 2954              		.loc 1 758 9
 2955 02da 00BF     		nop
 2956 02dc 1BE0     		b	.L171
 2957              	.L197:
 2958 02de 00BF     		.align	2
 2959              	.L196:
 2960 02e0 00000000 		.word	__func__.8790
 2961 02e4 00000000 		.word	__FUNCTION__.8789
 2962 02e8 C8000000 		.word	.LC4
 2963 02ec F8000000 		.word	.LC5
 2964 02f0 04010000 		.word	.LC6
 2965 02f4 0C010000 		.word	.LC7
 2966 02f8 20010000 		.word	.LC8
 2967 02fc 38010000 		.word	.LC9
 2968 0300 4C010000 		.word	.LC10
 2969 0304 68010000 		.word	.LC11
 2970 0308 78010000 		.word	.LC12
 2971 030c A4010000 		.word	.LC13
 2972 0310 E0010000 		.word	.LC14
 2973              	.L195:
 754:g:/iot/IoT_Device_Demo/iot_link/network/lwm2m/wakaama_lwm2m/wakaama-master/core\liblwm2m.c **** 
 2974              		.loc 1 754 9
 2975 0314 00BF     		nop
 2976              	.L171:
 759:g:/iot/IoT_Device_Demo/iot_link/network/lwm2m/wakaama_lwm2m/wakaama-master/core\liblwm2m.c ****     }
 760:g:/iot/IoT_Device_Demo/iot_link/network/lwm2m/wakaama_lwm2m/wakaama-master/core\liblwm2m.c **** 
 761:g:/iot/IoT_Device_Demo/iot_link/network/lwm2m/wakaama_lwm2m/wakaama-master/core\liblwm2m.c ****     observe_step(contextP, tv_sec, timeoutP);
 2977              		.loc 1 761 5
 2978 0316 3B68     		ldr	r3, [r7]
 2979 0318 0093     		str	r3, [sp]
 2980 031a D7E90423 		ldrd	r2, [r7, #16]
 2981 031e 7868     		ldr	r0, [r7, #4]
 2982 0320 FFF7FEFF 		bl	observe_step
 762:g:/iot/IoT_Device_Demo/iot_link/network/lwm2m/wakaama_lwm2m/wakaama-master/core\liblwm2m.c **** #endif
 763:g:/iot/IoT_Device_Demo/iot_link/network/lwm2m/wakaama_lwm2m/wakaama-master/core\liblwm2m.c **** 
 764:g:/iot/IoT_Device_Demo/iot_link/network/lwm2m/wakaama_lwm2m/wakaama-master/core\liblwm2m.c ****     registration_step(contextP, tv_sec, timeoutP);
 2983              		.loc 1 764 5
 2984 0324 3B68     		ldr	r3, [r7]
 2985 0326 0093     		str	r3, [sp]
 2986 0328 D7E90423 		ldrd	r2, [r7, #16]
 2987 032c 7868     		ldr	r0, [r7, #4]
 2988 032e FFF7FEFF 		bl	registration_step
 765:g:/iot/IoT_Device_Demo/iot_link/network/lwm2m/wakaama_lwm2m/wakaama-master/core\liblwm2m.c ****     transaction_step(contextP, tv_sec, timeoutP);
 2989              		.loc 1 765 5
 2990 0332 3B68     		ldr	r3, [r7]
 2991 0334 0093     		str	r3, [sp]
 2992 0336 D7E90423 		ldrd	r2, [r7, #16]
 2993 033a 7868     		ldr	r0, [r7, #4]
 2994 033c FFF7FEFF 		bl	transaction_step
 766:g:/iot/IoT_Device_Demo/iot_link/network/lwm2m/wakaama_lwm2m/wakaama-master/core\liblwm2m.c **** 
 767:g:/iot/IoT_Device_Demo/iot_link/network/lwm2m/wakaama_lwm2m/wakaama-master/core\liblwm2m.c ****     LOG_ARG("Final timeoutP: %" PRId64, *timeoutP);
 2995              		.loc 1 767 5
 2996 0340 FFF7FEFF 		bl	link_log_level_get
 2997 0344 0346     		mov	r3, r0
ARM GAS  C:\Users\ADMINI~1\AppData\Local\Temp\ccoKNcyf.s 			page 68


 2998 0346 012B     		cmp	r3, #1
 2999 0348 21D8     		bhi	.L179
 3000              		.loc 1 767 5 is_stmt 0 discriminator 1
 3001 034a 0120     		movs	r0, #1
 3002 034c FFF7FEFF 		bl	link_log_level_name
 3003 0350 0446     		mov	r4, r0
 3004 0352 FFF7FEFF 		bl	osal_sys_time
 3005 0356 0246     		mov	r2, r0
 3006 0358 0B46     		mov	r3, r1
 3007 035a 1546     		mov	r5, r2
 3008 035c FFF7FEFF 		bl	lwm2m_gettime
 3009 0360 0246     		mov	r2, r0
 3010 0362 0B46     		mov	r3, r1
 3011 0364 1146     		mov	r1, r2
 3012 0366 3B68     		ldr	r3, [r7]
 3013 0368 D3E90023 		ldrd	r2, [r3]
 3014 036c CDE90423 		strd	r2, [sp, #16]
 3015 0370 40F2FF23 		movw	r3, #767
 3016 0374 0393     		str	r3, [sp, #12]
 3017 0376 2C4B     		ldr	r3, .L198
 3018 0378 0293     		str	r3, [sp, #8]
 3019 037a 0191     		str	r1, [sp, #4]
 3020 037c 40F2FF23 		movw	r3, #767
 3021 0380 0093     		str	r3, [sp]
 3022 0382 2A4B     		ldr	r3, .L198+4
 3023 0384 2A46     		mov	r2, r5
 3024 0386 2146     		mov	r1, r4
 3025 0388 2948     		ldr	r0, .L198+8
 3026 038a FFF7FEFF 		bl	printf
 3027              	.L179:
 768:g:/iot/IoT_Device_Demo/iot_link/network/lwm2m/wakaama_lwm2m/wakaama-master/core\liblwm2m.c **** #ifdef LWM2M_CLIENT_MODE
 769:g:/iot/IoT_Device_Demo/iot_link/network/lwm2m/wakaama_lwm2m/wakaama-master/core\liblwm2m.c ****     LOG_ARG("Final state: %s", STR_STATE(contextP->state));
 3028              		.loc 1 769 5 is_stmt 1
 3029 038e FFF7FEFF 		bl	link_log_level_get
 3030 0392 0346     		mov	r3, r0
 3031 0394 012B     		cmp	r3, #1
 3032 0396 41D8     		bhi	.L180
 3033              		.loc 1 769 5 is_stmt 0 discriminator 1
 3034 0398 0120     		movs	r0, #1
 3035 039a FFF7FEFF 		bl	link_log_level_name
 3036 039e 0446     		mov	r4, r0
 3037 03a0 FFF7FEFF 		bl	osal_sys_time
 3038 03a4 0246     		mov	r2, r0
 3039 03a6 0B46     		mov	r3, r1
 3040 03a8 1546     		mov	r5, r2
 3041 03aa FFF7FEFF 		bl	lwm2m_gettime
 3042 03ae 0246     		mov	r2, r0
 3043 03b0 0B46     		mov	r3, r1
 3044 03b2 7B68     		ldr	r3, [r7, #4]
 3045 03b4 1B78     		ldrb	r3, [r3]	@ zero_extendqisi2
 3046 03b6 002B     		cmp	r3, #0
 3047 03b8 1FD0     		beq	.L181
 3048              		.loc 1 769 5 discriminator 2
 3049 03ba 7B68     		ldr	r3, [r7, #4]
 3050 03bc 1B78     		ldrb	r3, [r3]	@ zero_extendqisi2
 3051 03be 012B     		cmp	r3, #1
 3052 03c0 19D0     		beq	.L182
ARM GAS  C:\Users\ADMINI~1\AppData\Local\Temp\ccoKNcyf.s 			page 69


 3053              		.loc 1 769 5 discriminator 4
 3054 03c2 7B68     		ldr	r3, [r7, #4]
 3055 03c4 1B78     		ldrb	r3, [r3]	@ zero_extendqisi2
 3056 03c6 022B     		cmp	r3, #2
 3057 03c8 13D0     		beq	.L183
 3058              		.loc 1 769 5 discriminator 6
 3059 03ca 7B68     		ldr	r3, [r7, #4]
 3060 03cc 1B78     		ldrb	r3, [r3]	@ zero_extendqisi2
 3061 03ce 032B     		cmp	r3, #3
 3062 03d0 0DD0     		beq	.L184
 3063              		.loc 1 769 5 discriminator 8
 3064 03d2 7B68     		ldr	r3, [r7, #4]
 3065 03d4 1B78     		ldrb	r3, [r3]	@ zero_extendqisi2
 3066 03d6 042B     		cmp	r3, #4
 3067 03d8 07D0     		beq	.L185
 3068              		.loc 1 769 5 discriminator 10
 3069 03da 7B68     		ldr	r3, [r7, #4]
 3070 03dc 1B78     		ldrb	r3, [r3]	@ zero_extendqisi2
 3071 03de 052B     		cmp	r3, #5
 3072 03e0 01D1     		bne	.L186
 3073              		.loc 1 769 5 discriminator 12
 3074 03e2 144B     		ldr	r3, .L198+12
 3075 03e4 0AE0     		b	.L192
 3076              	.L186:
 3077              		.loc 1 769 5 discriminator 13
 3078 03e6 144B     		ldr	r3, .L198+16
 3079 03e8 08E0     		b	.L192
 3080              	.L185:
 3081              		.loc 1 769 5 discriminator 11
 3082 03ea 144B     		ldr	r3, .L198+20
 3083 03ec 06E0     		b	.L192
 3084              	.L184:
 3085              		.loc 1 769 5 discriminator 9
 3086 03ee 144B     		ldr	r3, .L198+24
 3087 03f0 04E0     		b	.L192
 3088              	.L183:
 3089              		.loc 1 769 5 discriminator 7
 3090 03f2 144B     		ldr	r3, .L198+28
 3091 03f4 02E0     		b	.L192
 3092              	.L182:
 3093              		.loc 1 769 5 discriminator 5
 3094 03f6 144B     		ldr	r3, .L198+32
 3095 03f8 00E0     		b	.L192
 3096              	.L181:
 3097              		.loc 1 769 5 discriminator 3
 3098 03fa 144B     		ldr	r3, .L198+36
 3099              	.L192:
 3100              		.loc 1 769 5 discriminator 25
 3101 03fc 0493     		str	r3, [sp, #16]
 3102 03fe 40F20133 		movw	r3, #769
 3103 0402 0393     		str	r3, [sp, #12]
 3104 0404 084B     		ldr	r3, .L198
 3105 0406 0293     		str	r3, [sp, #8]
 3106 0408 0192     		str	r2, [sp, #4]
 3107 040a 40F20133 		movw	r3, #769
 3108 040e 0093     		str	r3, [sp]
 3109 0410 064B     		ldr	r3, .L198+4
ARM GAS  C:\Users\ADMINI~1\AppData\Local\Temp\ccoKNcyf.s 			page 70


 3110 0412 2A46     		mov	r2, r5
 3111 0414 2146     		mov	r1, r4
 3112 0416 0E48     		ldr	r0, .L198+40
 3113 0418 FFF7FEFF 		bl	printf
 3114              	.L180:
 770:g:/iot/IoT_Device_Demo/iot_link/network/lwm2m/wakaama_lwm2m/wakaama-master/core\liblwm2m.c **** #endif
 771:g:/iot/IoT_Device_Demo/iot_link/network/lwm2m/wakaama_lwm2m/wakaama-master/core\liblwm2m.c ****     return ret;
 3115              		.loc 1 771 12 is_stmt 1
 3116 041c FB69     		ldr	r3, [r7, #28]
 3117              	.L166:
 772:g:/iot/IoT_Device_Demo/iot_link/network/lwm2m/wakaama_lwm2m/wakaama-master/core\liblwm2m.c **** }
 3118              		.loc 1 772 1
 3119 041e 1846     		mov	r0, r3
 3120 0420 2037     		adds	r7, r7, #32
 3121              	.LCFI123:
 3122              		.cfi_def_cfa_offset 16
 3123 0422 BD46     		mov	sp, r7
 3124              	.LCFI124:
 3125              		.cfi_def_cfa_register 13
 3126              		@ sp needed
 3127 0424 B0BD     		pop	{r4, r5, r7, pc}
 3128              	.L199:
 3129 0426 00BF     		.align	2
 3130              	.L198:
 3131 0428 00000000 		.word	__func__.8790
 3132 042c 00000000 		.word	__FUNCTION__.8789
 3133 0430 4C020000 		.word	.LC15
 3134 0434 F8000000 		.word	.LC5
 3135 0438 04010000 		.word	.LC6
 3136 043c 0C010000 		.word	.LC7
 3137 0440 20010000 		.word	.LC8
 3138 0444 38010000 		.word	.LC9
 3139 0448 4C010000 		.word	.LC10
 3140 044c 68010000 		.word	.LC11
 3141 0450 84020000 		.word	.LC16
 3142              		.cfi_endproc
 3143              	.LFE27:
 3145              		.section	.rodata.__FUNCTION__.8629,"a"
 3146              		.align	2
 3149              	__FUNCTION__.8629:
 3150 0000 6C776D32 		.ascii	"lwm2m_init\000"
 3150      6D5F696E 
 3150      697400
 3151              		.section	.rodata.__func__.8630,"a"
 3152              		.align	2
 3155              	__func__.8630:
 3156 0000 6C776D32 		.ascii	"lwm2m_init\000"
 3156      6D5F696E 
 3156      697400
 3157              		.section	.rodata.__FUNCTION__.8645,"a"
 3158              		.align	2
 3161              	__FUNCTION__.8645:
 3162 0000 6C776D32 		.ascii	"lwm2m_deregister\000"
 3162      6D5F6465 
 3162      72656769 
 3162      73746572 
 3162      00
ARM GAS  C:\Users\ADMINI~1\AppData\Local\Temp\ccoKNcyf.s 			page 71


 3163              		.section	.rodata.__func__.8646,"a"
 3164              		.align	2
 3167              	__func__.8646:
 3168 0000 6C776D32 		.ascii	"lwm2m_deregister\000"
 3168      6D5F6465 
 3168      72656769 
 3168      73746572 
 3168      00
 3169              		.section	.rodata.__FUNCTION__.8682,"a"
 3170              		.align	2
 3173              	__FUNCTION__.8682:
 3174 0000 6C776D32 		.ascii	"lwm2m_close\000"
 3174      6D5F636C 
 3174      6F736500 
 3175              		.section	.rodata.__func__.8683,"a"
 3176              		.align	2
 3179              	__func__.8683:
 3180 0000 6C776D32 		.ascii	"lwm2m_close\000"
 3180      6D5F636C 
 3180      6F736500 
 3181              		.section	.rodata.__FUNCTION__.8706,"a"
 3182              		.align	2
 3185              	__FUNCTION__.8706:
 3186 0000 6C776D32 		.ascii	"lwm2m_setBsCtrlStat\000"
 3186      6D5F7365 
 3186      74427343 
 3186      74726C53 
 3186      74617400 
 3187              		.section	.rodata.__func__.8707,"a"
 3188              		.align	2
 3191              	__func__.8707:
 3192 0000 6C776D32 		.ascii	"lwm2m_setBsCtrlStat\000"
 3192      6D5F7365 
 3192      74427343 
 3192      74726C53 
 3192      74617400 
 3193              		.section	.rodata.__FUNCTION__.8752,"a"
 3194              		.align	2
 3197              	__FUNCTION__.8752:
 3198 0000 6C776D32 		.ascii	"lwm2m_add_object\000"
 3198      6D5F6164 
 3198      645F6F62 
 3198      6A656374 
 3198      00
 3199              		.section	.rodata.__func__.8753,"a"
 3200              		.align	2
 3203              	__func__.8753:
 3204 0000 6C776D32 		.ascii	"lwm2m_add_object\000"
 3204      6D5F6164 
 3204      645F6F62 
 3204      6A656374 
 3204      00
 3205              		.section	.rodata.__FUNCTION__.8759,"a"
 3206              		.align	2
 3209              	__FUNCTION__.8759:
 3210 0000 6C776D32 		.ascii	"lwm2m_remove_object\000"
 3210      6D5F7265 
ARM GAS  C:\Users\ADMINI~1\AppData\Local\Temp\ccoKNcyf.s 			page 72


 3210      6D6F7665 
 3210      5F6F626A 
 3210      65637400 
 3211              		.section	.rodata.__func__.8760,"a"
 3212              		.align	2
 3215              	__func__.8760:
 3216 0000 6C776D32 		.ascii	"lwm2m_remove_object\000"
 3216      6D5F7265 
 3216      6D6F7665 
 3216      5F6F626A 
 3216      65637400 
 3217              		.section	.rodata.__FUNCTION__.8765,"a"
 3218              		.align	2
 3221              	__FUNCTION__.8765:
 3222 0000 6C776D32 		.ascii	"lwm2m_reset_register\000"
 3222      6D5F7265 
 3222      7365745F 
 3222      72656769 
 3222      73746572 
 3223              		.section	.rodata.__func__.8766,"a"
 3224              		.align	2
 3227              	__func__.8766:
 3228 0000 6C776D32 		.ascii	"lwm2m_reset_register\000"
 3228      6D5F7265 
 3228      7365745F 
 3228      72656769 
 3228      73746572 
 3229              		.section	.rodata.__FUNCTION__.8773,"a"
 3230              		.align	2
 3233              	__FUNCTION__.8773:
 3234 0000 6C776D32 		.ascii	"lwm2m_reconnect\000"
 3234      6D5F7265 
 3234      636F6E6E 
 3234      65637400 
 3235              		.section	.rodata.__func__.8774,"a"
 3236              		.align	2
 3239              	__func__.8774:
 3240 0000 6C776D32 		.ascii	"lwm2m_reconnect\000"
 3240      6D5F7265 
 3240      636F6E6E 
 3240      65637400 
 3241              		.section	.rodata.__FUNCTION__.8779,"a"
 3242              		.align	2
 3245              	__FUNCTION__.8779:
 3246 0000 6C776D32 		.ascii	"lwm2m_initBootStrap\000"
 3246      6D5F696E 
 3246      6974426F 
 3246      6F745374 
 3246      72617000 
 3247              		.section	.rodata.__func__.8780,"a"
 3248              		.align	2
 3251              	__func__.8780:
 3252 0000 6C776D32 		.ascii	"lwm2m_initBootStrap\000"
 3252      6D5F696E 
 3252      6974426F 
 3252      6F745374 
 3252      72617000 
ARM GAS  C:\Users\ADMINI~1\AppData\Local\Temp\ccoKNcyf.s 			page 73


 3253              		.section	.rodata.__FUNCTION__.8789,"a"
 3254              		.align	2
 3257              	__FUNCTION__.8789:
 3258 0000 6C776D32 		.ascii	"lwm2m_step\000"
 3258      6D5F7374 
 3258      657000
 3259              		.section	.rodata.__func__.8790,"a"
 3260              		.align	2
 3263              	__func__.8790:
 3264 0000 6C776D32 		.ascii	"lwm2m_step\000"
 3264      6D5F7374 
 3264      657000
 3265              		.text
 3266              	.Letext0:
 3267              		.file 2 "g:\\iot\\.huawei-liteos-studio\\tools\\arm-none-eabi\\arm-none-eabi\\include\\machine\\_d
 3268              		.file 3 "g:\\iot\\.huawei-liteos-studio\\tools\\arm-none-eabi\\arm-none-eabi\\include\\sys\\_stdin
 3269              		.file 4 "g:/iot/IoT_Device_Demo/iot_link/network/lwm2m/wakaama_lwm2m/wakaama-master/core/liblwm2m_
 3270              		.file 5 "g:\\iot\\.huawei-liteos-studio\\tools\\arm-none-eabi\\lib\\gcc\\arm-none-eabi\\9.2.1\\inc
 3271              		.file 6 "g:\\iot\\.huawei-liteos-studio\\tools\\arm-none-eabi\\arm-none-eabi\\include\\sys\\lock.h
 3272              		.file 7 "g:\\iot\\.huawei-liteos-studio\\tools\\arm-none-eabi\\arm-none-eabi\\include\\sys\\_types
 3273              		.file 8 "g:\\iot\\.huawei-liteos-studio\\tools\\arm-none-eabi\\arm-none-eabi\\include\\sys\\reent.
 3274              		.file 9 "g:\\iot\\.huawei-liteos-studio\\tools\\arm-none-eabi\\arm-none-eabi\\include\\sys\\_timev
 3275              		.file 10 "g:\\iot\\.huawei-liteos-studio\\tools\\arm-none-eabi\\arm-none-eabi\\include\\time.h"
 3276              		.file 11 "g:/iot/IoT_Device_Demo/iot_link/network/lwm2m/wakaama_lwm2m/wakaama-master/core/er-coap-
 3277              		.file 12 "g:/iot/IoT_Device_Demo/iot_link/inc/link_log.h"
 3278              		.file 13 "g:/iot/IoT_Device_Demo/iot_link/network/lwm2m/wakaama_lwm2m/wakaama-master/core/liblwm2m
 3279              		.file 14 "g:\\iot\\.huawei-liteos-studio\\tools\\arm-none-eabi\\arm-none-eabi\\include\\stdlib.h"
 3280              		.file 15 "g:\\iot\\.huawei-liteos-studio\\tools\\arm-none-eabi\\arm-none-eabi\\include\\ctype.h"
 3281              		.file 16 "g:/iot/IoT_Device_Demo/iot_link/network/lwm2m/wakaama_lwm2m/port/connection.h"
ARM GAS  C:\Users\ADMINI~1\AppData\Local\Temp\ccoKNcyf.s 			page 74

