ARM GAS  C:\Users\ADMINI~1\AppData\Local\Temp\ccrLD8ST.s 			page 1


   1              		.cpu cortex-m4
   2              		.eabi_attribute 27, 1
   3              		.eabi_attribute 28, 1
   4              		.eabi_attribute 20, 1
   5              		.eabi_attribute 21, 1
   6              		.eabi_attribute 23, 3
   7              		.eabi_attribute 24, 1
   8              		.eabi_attribute 25, 1
   9              		.eabi_attribute 26, 1
  10              		.eabi_attribute 30, 6
  11              		.eabi_attribute 34, 1
  12              		.eabi_attribute 18, 4
  13              		.file	"management.c"
  14              		.text
  15              	.Ltext0:
  16              		.cfi_sections	.debug_frame
  17              		.section	.text.dm_isUriOpaqueHandle,"ax",%progbits
  18              		.align	1
  19              		.arch armv7e-m
  20              		.syntax unified
  21              		.thumb
  22              		.thumb_func
  23              		.fpu fpv4-sp-d16
  25              	dm_isUriOpaqueHandle:
  26              	.LFB3:
  27              		.file 1 "g:/iot/IoT_Device_Demo/iot_link/network/lwm2m/wakaama_lwm2m/wakaama-master/core/internals
   1:g:/iot/IoT_Device_Demo/iot_link/network/lwm2m/wakaama_lwm2m/wakaama-master/core\internals.h **** /*----------------------------------------------------------------------------
   2:g:/iot/IoT_Device_Demo/iot_link/network/lwm2m/wakaama_lwm2m/wakaama-master/core\internals.h ****  * Copyright (c) <2016-2018>, <Huawei Technologies Co., Ltd>
   3:g:/iot/IoT_Device_Demo/iot_link/network/lwm2m/wakaama_lwm2m/wakaama-master/core\internals.h ****  * All rights reserved.
   4:g:/iot/IoT_Device_Demo/iot_link/network/lwm2m/wakaama_lwm2m/wakaama-master/core\internals.h ****  * Redistribution and use in source and binary forms, with or without modification,
   5:g:/iot/IoT_Device_Demo/iot_link/network/lwm2m/wakaama_lwm2m/wakaama-master/core\internals.h ****  * are permitted provided that the following conditions are met:
   6:g:/iot/IoT_Device_Demo/iot_link/network/lwm2m/wakaama_lwm2m/wakaama-master/core\internals.h ****  * 1. Redistributions of source code must retain the above copyright notice, this list of
   7:g:/iot/IoT_Device_Demo/iot_link/network/lwm2m/wakaama_lwm2m/wakaama-master/core\internals.h ****  * conditions and the following disclaimer.
   8:g:/iot/IoT_Device_Demo/iot_link/network/lwm2m/wakaama_lwm2m/wakaama-master/core\internals.h ****  * 2. Redistributions in binary form must reproduce the above copyright notice, this list
   9:g:/iot/IoT_Device_Demo/iot_link/network/lwm2m/wakaama_lwm2m/wakaama-master/core\internals.h ****  * of conditions and the following disclaimer in the documentation and/or other materials
  10:g:/iot/IoT_Device_Demo/iot_link/network/lwm2m/wakaama_lwm2m/wakaama-master/core\internals.h ****  * provided with the distribution.
  11:g:/iot/IoT_Device_Demo/iot_link/network/lwm2m/wakaama_lwm2m/wakaama-master/core\internals.h ****  * 3. Neither the name of the copyright holder nor the names of its contributors may be used
  12:g:/iot/IoT_Device_Demo/iot_link/network/lwm2m/wakaama_lwm2m/wakaama-master/core\internals.h ****  * to endorse or promote products derived from this software without specific prior written
  13:g:/iot/IoT_Device_Demo/iot_link/network/lwm2m/wakaama_lwm2m/wakaama-master/core\internals.h ****  * permission.
  14:g:/iot/IoT_Device_Demo/iot_link/network/lwm2m/wakaama_lwm2m/wakaama-master/core\internals.h ****  * THIS SOFTWARE IS PROVIDED BY THE COPYRIGHT HOLDERS AND CONTRIBUTORS
  15:g:/iot/IoT_Device_Demo/iot_link/network/lwm2m/wakaama_lwm2m/wakaama-master/core\internals.h ****  * "AS IS" AND ANY EXPRESS OR IMPLIED WARRANTIES, INCLUDING, BUT NOT LIMITED TO,
  16:g:/iot/IoT_Device_Demo/iot_link/network/lwm2m/wakaama_lwm2m/wakaama-master/core\internals.h ****  * THE IMPLIED WARRANTIES OF MERCHANTABILITY AND FITNESS FOR A PARTICULAR
  17:g:/iot/IoT_Device_Demo/iot_link/network/lwm2m/wakaama_lwm2m/wakaama-master/core\internals.h ****  * PURPOSE ARE DISCLAIMED. IN NO EVENT SHALL THE COPYRIGHT HOLDER OR
  18:g:/iot/IoT_Device_Demo/iot_link/network/lwm2m/wakaama_lwm2m/wakaama-master/core\internals.h ****  * CONTRIBUTORS BE LIABLE FOR ANY DIRECT, INDIRECT, INCIDENTAL, SPECIAL,
  19:g:/iot/IoT_Device_Demo/iot_link/network/lwm2m/wakaama_lwm2m/wakaama-master/core\internals.h ****  * EXEMPLARY, OR CONSEQUENTIAL DAMAGES (INCLUDING, BUT NOT LIMITED TO,
  20:g:/iot/IoT_Device_Demo/iot_link/network/lwm2m/wakaama_lwm2m/wakaama-master/core\internals.h ****  * PROCUREMENT OF SUBSTITUTE GOODS OR SERVICES; LOSS OF USE, DATA, OR PROFITS;
  21:g:/iot/IoT_Device_Demo/iot_link/network/lwm2m/wakaama_lwm2m/wakaama-master/core\internals.h ****  * OR BUSINESS INTERRUPTION) HOWEVER CAUSED AND ON ANY THEORY OF LIABILITY,
  22:g:/iot/IoT_Device_Demo/iot_link/network/lwm2m/wakaama_lwm2m/wakaama-master/core\internals.h ****  * WHETHER IN CONTRACT, STRICT LIABILITY, OR TORT (INCLUDING NEGLIGENCE OR
  23:g:/iot/IoT_Device_Demo/iot_link/network/lwm2m/wakaama_lwm2m/wakaama-master/core\internals.h ****  * OTHERWISE) ARISING IN ANY WAY OUT OF THE USE OF THIS SOFTWARE, EVEN IF
  24:g:/iot/IoT_Device_Demo/iot_link/network/lwm2m/wakaama_lwm2m/wakaama-master/core\internals.h ****  * ADVISED OF THE POSSIBILITY OF SUCH DAMAGE.
  25:g:/iot/IoT_Device_Demo/iot_link/network/lwm2m/wakaama_lwm2m/wakaama-master/core\internals.h ****  *---------------------------------------------------------------------------*/
  26:g:/iot/IoT_Device_Demo/iot_link/network/lwm2m/wakaama_lwm2m/wakaama-master/core\internals.h **** /*----------------------------------------------------------------------------
  27:g:/iot/IoT_Device_Demo/iot_link/network/lwm2m/wakaama_lwm2m/wakaama-master/core\internals.h ****  * Notice of Export Control Law
  28:g:/iot/IoT_Device_Demo/iot_link/network/lwm2m/wakaama_lwm2m/wakaama-master/core\internals.h ****  * ===============================================
  29:g:/iot/IoT_Device_Demo/iot_link/network/lwm2m/wakaama_lwm2m/wakaama-master/core\internals.h ****  * Huawei LiteOS may be subject to applicable export control laws and regulations, which might
  30:g:/iot/IoT_Device_Demo/iot_link/network/lwm2m/wakaama_lwm2m/wakaama-master/core\internals.h ****  * include those applicable to Huawei LiteOS of U.S. and the country in which you are located.
  31:g:/iot/IoT_Device_Demo/iot_link/network/lwm2m/wakaama_lwm2m/wakaama-master/core\internals.h ****  * Import, export and usage of Huawei LiteOS in any manner by you shall be in compliance with such
ARM GAS  C:\Users\ADMINI~1\AppData\Local\Temp\ccrLD8ST.s 			page 2


  32:g:/iot/IoT_Device_Demo/iot_link/network/lwm2m/wakaama_lwm2m/wakaama-master/core\internals.h ****  * applicable export control laws and regulations.
  33:g:/iot/IoT_Device_Demo/iot_link/network/lwm2m/wakaama_lwm2m/wakaama-master/core\internals.h ****  *---------------------------------------------------------------------------*/
  34:g:/iot/IoT_Device_Demo/iot_link/network/lwm2m/wakaama_lwm2m/wakaama-master/core\internals.h **** 
  35:g:/iot/IoT_Device_Demo/iot_link/network/lwm2m/wakaama_lwm2m/wakaama-master/core\internals.h **** /*******************************************************************************
  36:g:/iot/IoT_Device_Demo/iot_link/network/lwm2m/wakaama_lwm2m/wakaama-master/core\internals.h ****  *
  37:g:/iot/IoT_Device_Demo/iot_link/network/lwm2m/wakaama_lwm2m/wakaama-master/core\internals.h ****  * Copyright (c) 2013, 2014 Intel Corporation and others.
  38:g:/iot/IoT_Device_Demo/iot_link/network/lwm2m/wakaama_lwm2m/wakaama-master/core\internals.h ****  * All rights reserved. This program and the accompanying materials
  39:g:/iot/IoT_Device_Demo/iot_link/network/lwm2m/wakaama_lwm2m/wakaama-master/core\internals.h ****  * are made available under the terms of the Eclipse Public License v1.0
  40:g:/iot/IoT_Device_Demo/iot_link/network/lwm2m/wakaama_lwm2m/wakaama-master/core\internals.h ****  * and Eclipse Distribution License v1.0 which accompany this distribution.
  41:g:/iot/IoT_Device_Demo/iot_link/network/lwm2m/wakaama_lwm2m/wakaama-master/core\internals.h ****  *
  42:g:/iot/IoT_Device_Demo/iot_link/network/lwm2m/wakaama_lwm2m/wakaama-master/core\internals.h ****  * The Eclipse Public License is available at
  43:g:/iot/IoT_Device_Demo/iot_link/network/lwm2m/wakaama_lwm2m/wakaama-master/core\internals.h ****  *    http://www.eclipse.org/legal/epl-v10.html
  44:g:/iot/IoT_Device_Demo/iot_link/network/lwm2m/wakaama_lwm2m/wakaama-master/core\internals.h ****  * The Eclipse Distribution License is available at
  45:g:/iot/IoT_Device_Demo/iot_link/network/lwm2m/wakaama_lwm2m/wakaama-master/core\internals.h ****  *    http://www.eclipse.org/org/documents/edl-v10.php.
  46:g:/iot/IoT_Device_Demo/iot_link/network/lwm2m/wakaama_lwm2m/wakaama-master/core\internals.h ****  *
  47:g:/iot/IoT_Device_Demo/iot_link/network/lwm2m/wakaama_lwm2m/wakaama-master/core\internals.h ****  * Contributors:
  48:g:/iot/IoT_Device_Demo/iot_link/network/lwm2m/wakaama_lwm2m/wakaama-master/core\internals.h ****  *    David Navarro, Intel Corporation - initial API and implementation
  49:g:/iot/IoT_Device_Demo/iot_link/network/lwm2m/wakaama_lwm2m/wakaama-master/core\internals.h ****  *    Fabien Fleutot - Please refer to git log
  50:g:/iot/IoT_Device_Demo/iot_link/network/lwm2m/wakaama_lwm2m/wakaama-master/core\internals.h ****  *    Toby Jaffey - Please refer to git log
  51:g:/iot/IoT_Device_Demo/iot_link/network/lwm2m/wakaama_lwm2m/wakaama-master/core\internals.h ****  *    Bosch Software Innovations GmbH - Please refer to git log
  52:g:/iot/IoT_Device_Demo/iot_link/network/lwm2m/wakaama_lwm2m/wakaama-master/core\internals.h ****  *    Pascal Rieux - Please refer to git log
  53:g:/iot/IoT_Device_Demo/iot_link/network/lwm2m/wakaama_lwm2m/wakaama-master/core\internals.h ****  *    Scott Bertin - Please refer to git log
  54:g:/iot/IoT_Device_Demo/iot_link/network/lwm2m/wakaama_lwm2m/wakaama-master/core\internals.h ****  *
  55:g:/iot/IoT_Device_Demo/iot_link/network/lwm2m/wakaama_lwm2m/wakaama-master/core\internals.h ****  *******************************************************************************/
  56:g:/iot/IoT_Device_Demo/iot_link/network/lwm2m/wakaama_lwm2m/wakaama-master/core\internals.h **** /*
  57:g:/iot/IoT_Device_Demo/iot_link/network/lwm2m/wakaama_lwm2m/wakaama-master/core\internals.h ****  Copyright (c) 2013, 2014 Intel Corporation
  58:g:/iot/IoT_Device_Demo/iot_link/network/lwm2m/wakaama_lwm2m/wakaama-master/core\internals.h **** 
  59:g:/iot/IoT_Device_Demo/iot_link/network/lwm2m/wakaama_lwm2m/wakaama-master/core\internals.h ****  Redistribution and use in source and binary forms, with or without modification,
  60:g:/iot/IoT_Device_Demo/iot_link/network/lwm2m/wakaama_lwm2m/wakaama-master/core\internals.h ****  are permitted provided that the following conditions are met:
  61:g:/iot/IoT_Device_Demo/iot_link/network/lwm2m/wakaama_lwm2m/wakaama-master/core\internals.h **** 
  62:g:/iot/IoT_Device_Demo/iot_link/network/lwm2m/wakaama_lwm2m/wakaama-master/core\internals.h ****      * Redistributions of source code must retain the above copyright notice,
  63:g:/iot/IoT_Device_Demo/iot_link/network/lwm2m/wakaama_lwm2m/wakaama-master/core\internals.h ****        this list of conditions and the following disclaimer.
  64:g:/iot/IoT_Device_Demo/iot_link/network/lwm2m/wakaama_lwm2m/wakaama-master/core\internals.h ****      * Redistributions in binary form must reproduce the above copyright notice,
  65:g:/iot/IoT_Device_Demo/iot_link/network/lwm2m/wakaama_lwm2m/wakaama-master/core\internals.h ****        this list of conditions and the following disclaimer in the documentation
  66:g:/iot/IoT_Device_Demo/iot_link/network/lwm2m/wakaama_lwm2m/wakaama-master/core\internals.h ****        and/or other materials provided with the distribution.
  67:g:/iot/IoT_Device_Demo/iot_link/network/lwm2m/wakaama_lwm2m/wakaama-master/core\internals.h ****      * Neither the name of Intel Corporation nor the names of its contributors
  68:g:/iot/IoT_Device_Demo/iot_link/network/lwm2m/wakaama_lwm2m/wakaama-master/core\internals.h ****        may be used to endorse or promote products derived from this software
  69:g:/iot/IoT_Device_Demo/iot_link/network/lwm2m/wakaama_lwm2m/wakaama-master/core\internals.h ****        without specific prior written permission.
  70:g:/iot/IoT_Device_Demo/iot_link/network/lwm2m/wakaama_lwm2m/wakaama-master/core\internals.h **** 
  71:g:/iot/IoT_Device_Demo/iot_link/network/lwm2m/wakaama_lwm2m/wakaama-master/core\internals.h ****  THIS SOFTWARE IS PROVIDED BY THE COPYRIGHT HOLDERS AND CONTRIBUTORS "AS IS" AND
  72:g:/iot/IoT_Device_Demo/iot_link/network/lwm2m/wakaama_lwm2m/wakaama-master/core\internals.h ****  ANY EXPRESS OR IMPLIED WARRANTIES, INCLUDING, BUT NOT LIMITED TO, THE IMPLIED
  73:g:/iot/IoT_Device_Demo/iot_link/network/lwm2m/wakaama_lwm2m/wakaama-master/core\internals.h ****  WARRANTIES OF MERCHANTABILITY AND FITNESS FOR A PARTICULAR PURPOSE ARE DISCLAIMED.
  74:g:/iot/IoT_Device_Demo/iot_link/network/lwm2m/wakaama_lwm2m/wakaama-master/core\internals.h ****  IN NO EVENT SHALL THE COPYRIGHT OWNER OR CONTRIBUTORS BE LIABLE FOR ANY DIRECT,
  75:g:/iot/IoT_Device_Demo/iot_link/network/lwm2m/wakaama_lwm2m/wakaama-master/core\internals.h ****  INDIRECT, INCIDENTAL, SPECIAL, EXEMPLARY, OR CONSEQUENTIAL DAMAGES (INCLUDING,
  76:g:/iot/IoT_Device_Demo/iot_link/network/lwm2m/wakaama_lwm2m/wakaama-master/core\internals.h ****  BUT NOT LIMITED TO, PROCUREMENT OF SUBSTITUTE GOODS OR SERVICES; LOSS OF USE,
  77:g:/iot/IoT_Device_Demo/iot_link/network/lwm2m/wakaama_lwm2m/wakaama-master/core\internals.h ****  DATA, OR PROFITS; OR BUSINESS INTERRUPTION) HOWEVER CAUSED AND ON ANY THEORY OF
  78:g:/iot/IoT_Device_Demo/iot_link/network/lwm2m/wakaama_lwm2m/wakaama-master/core\internals.h ****  LIABILITY, WHETHER IN CONTRACT, STRICT LIABILITY, OR TORT (INCLUDING NEGLIGENCE OR
  79:g:/iot/IoT_Device_Demo/iot_link/network/lwm2m/wakaama_lwm2m/wakaama-master/core\internals.h ****  OTHERWISE) ARISING IN ANY WAY OUT OF THE USE OF THIS SOFTWARE, EVEN IF ADVISED OF
  80:g:/iot/IoT_Device_Demo/iot_link/network/lwm2m/wakaama_lwm2m/wakaama-master/core\internals.h ****  THE POSSIBILITY OF SUCH DAMAGE.
  81:g:/iot/IoT_Device_Demo/iot_link/network/lwm2m/wakaama_lwm2m/wakaama-master/core\internals.h **** 
  82:g:/iot/IoT_Device_Demo/iot_link/network/lwm2m/wakaama_lwm2m/wakaama-master/core\internals.h ****  David Navarro <david.navarro@intel.com>
  83:g:/iot/IoT_Device_Demo/iot_link/network/lwm2m/wakaama_lwm2m/wakaama-master/core\internals.h **** 
  84:g:/iot/IoT_Device_Demo/iot_link/network/lwm2m/wakaama_lwm2m/wakaama-master/core\internals.h **** */
  85:g:/iot/IoT_Device_Demo/iot_link/network/lwm2m/wakaama_lwm2m/wakaama-master/core\internals.h **** 
  86:g:/iot/IoT_Device_Demo/iot_link/network/lwm2m/wakaama_lwm2m/wakaama-master/core\internals.h **** #ifndef _LWM2M_INTERNALS_H_
  87:g:/iot/IoT_Device_Demo/iot_link/network/lwm2m/wakaama_lwm2m/wakaama-master/core\internals.h **** #define _LWM2M_INTERNALS_H_
  88:g:/iot/IoT_Device_Demo/iot_link/network/lwm2m/wakaama_lwm2m/wakaama-master/core\internals.h **** 
ARM GAS  C:\Users\ADMINI~1\AppData\Local\Temp\ccrLD8ST.s 			page 3


  89:g:/iot/IoT_Device_Demo/iot_link/network/lwm2m/wakaama_lwm2m/wakaama-master/core\internals.h **** #include "liblwm2m.h"
  90:g:/iot/IoT_Device_Demo/iot_link/network/lwm2m/wakaama_lwm2m/wakaama-master/core\internals.h **** 
  91:g:/iot/IoT_Device_Demo/iot_link/network/lwm2m/wakaama_lwm2m/wakaama-master/core\internals.h **** #include <stdlib.h>
  92:g:/iot/IoT_Device_Demo/iot_link/network/lwm2m/wakaama_lwm2m/wakaama-master/core\internals.h **** #include <string.h>
  93:g:/iot/IoT_Device_Demo/iot_link/network/lwm2m/wakaama_lwm2m/wakaama-master/core\internals.h **** #include <stdio.h>
  94:g:/iot/IoT_Device_Demo/iot_link/network/lwm2m/wakaama_lwm2m/wakaama-master/core\internals.h **** #include <ctype.h>
  95:g:/iot/IoT_Device_Demo/iot_link/network/lwm2m/wakaama_lwm2m/wakaama-master/core\internals.h **** #include <stdint.h>
  96:g:/iot/IoT_Device_Demo/iot_link/network/lwm2m/wakaama_lwm2m/wakaama-master/core\internals.h **** #include <stddef.h>
  97:g:/iot/IoT_Device_Demo/iot_link/network/lwm2m/wakaama_lwm2m/wakaama-master/core\internals.h **** #include <stdbool.h>
  98:g:/iot/IoT_Device_Demo/iot_link/network/lwm2m/wakaama_lwm2m/wakaama-master/core\internals.h **** 
  99:g:/iot/IoT_Device_Demo/iot_link/network/lwm2m/wakaama_lwm2m/wakaama-master/core\internals.h **** #include "er-coap-13/er-coap-13.h"
 100:g:/iot/IoT_Device_Demo/iot_link/network/lwm2m/wakaama_lwm2m/wakaama-master/core\internals.h **** #include "connection.h"
 101:g:/iot/IoT_Device_Demo/iot_link/network/lwm2m/wakaama_lwm2m/wakaama-master/core\internals.h **** 
 102:g:/iot/IoT_Device_Demo/iot_link/network/lwm2m/wakaama_lwm2m/wakaama-master/core\internals.h **** 
 103:g:/iot/IoT_Device_Demo/iot_link/network/lwm2m/wakaama_lwm2m/wakaama-master/core\internals.h **** #ifdef LWM2M_WITH_LOGS
 104:g:/iot/IoT_Device_Demo/iot_link/network/lwm2m/wakaama_lwm2m/wakaama-master/core\internals.h **** #include <inttypes.h>
 105:g:/iot/IoT_Device_Demo/iot_link/network/lwm2m/wakaama_lwm2m/wakaama-master/core\internals.h **** #define LOG(STR)    lwm2m_printf("[%d][%s:%d] " STR "\r\n", (int)lwm2m_gettime(), __func__ , __LINE
 106:g:/iot/IoT_Device_Demo/iot_link/network/lwm2m/wakaama_lwm2m/wakaama-master/core\internals.h **** #define LOG_ARG(FMT, ...) lwm2m_printf("[%d][%s:%d] " FMT "\r\n", (int)lwm2m_gettime(), __func__ , 
 107:g:/iot/IoT_Device_Demo/iot_link/network/lwm2m/wakaama_lwm2m/wakaama-master/core\internals.h **** #define LOG_URI(URI)                                                                \
 108:g:/iot/IoT_Device_Demo/iot_link/network/lwm2m/wakaama_lwm2m/wakaama-master/core\internals.h **** {                                                                                   \
 109:g:/iot/IoT_Device_Demo/iot_link/network/lwm2m/wakaama_lwm2m/wakaama-master/core\internals.h ****     if ((URI) == NULL) lwm2m_printf("[%s:%d] NULL\r\n", __func__ , __LINE__);     \
 110:g:/iot/IoT_Device_Demo/iot_link/network/lwm2m/wakaama_lwm2m/wakaama-master/core\internals.h ****     else                                                                            \
 111:g:/iot/IoT_Device_Demo/iot_link/network/lwm2m/wakaama_lwm2m/wakaama-master/core\internals.h ****     {                                                                               \
 112:g:/iot/IoT_Device_Demo/iot_link/network/lwm2m/wakaama_lwm2m/wakaama-master/core\internals.h ****         lwm2m_printf("[%s:%d] /%d", __func__ , __LINE__ , (int)(URI)->objectId);       \
 113:g:/iot/IoT_Device_Demo/iot_link/network/lwm2m/wakaama_lwm2m/wakaama-master/core\internals.h ****         if (LWM2M_URI_IS_SET_INSTANCE(URI)) lwm2m_printf("/%d",(int)(URI)->instanceId); \
 114:g:/iot/IoT_Device_Demo/iot_link/network/lwm2m/wakaama_lwm2m/wakaama-master/core\internals.h ****         if (LWM2M_URI_IS_SET_RESOURCE(URI)) lwm2m_printf("/%d", (int)(URI)->resourceId); \
 115:g:/iot/IoT_Device_Demo/iot_link/network/lwm2m/wakaama_lwm2m/wakaama-master/core\internals.h ****           lwm2m_printf("\r\n");                                                       \
 116:g:/iot/IoT_Device_Demo/iot_link/network/lwm2m/wakaama_lwm2m/wakaama-master/core\internals.h ****     }                                                                               \
 117:g:/iot/IoT_Device_Demo/iot_link/network/lwm2m/wakaama_lwm2m/wakaama-master/core\internals.h **** }
 118:g:/iot/IoT_Device_Demo/iot_link/network/lwm2m/wakaama_lwm2m/wakaama-master/core\internals.h **** #define UNUSEX(x)
 119:g:/iot/IoT_Device_Demo/iot_link/network/lwm2m/wakaama_lwm2m/wakaama-master/core\internals.h **** #define STR_STATUS(S)                                           \
 120:g:/iot/IoT_Device_Demo/iot_link/network/lwm2m/wakaama_lwm2m/wakaama-master/core\internals.h **** ((S) == STATE_DEREGISTERED ? "STATE_DEREGISTERED" :             \
 121:g:/iot/IoT_Device_Demo/iot_link/network/lwm2m/wakaama_lwm2m/wakaama-master/core\internals.h **** ((S) == STATE_REG_PENDING ? "STATE_REG_PENDING" :               \
 122:g:/iot/IoT_Device_Demo/iot_link/network/lwm2m/wakaama_lwm2m/wakaama-master/core\internals.h **** ((S) == STATE_REGISTERED ? "STATE_REGISTERED" :                 \
 123:g:/iot/IoT_Device_Demo/iot_link/network/lwm2m/wakaama_lwm2m/wakaama-master/core\internals.h **** ((S) == STATE_REG_FAILED ? "STATE_REG_FAILED" :                 \
 124:g:/iot/IoT_Device_Demo/iot_link/network/lwm2m/wakaama_lwm2m/wakaama-master/core\internals.h **** ((S) == STATE_REG_UPDATE_PENDING ? "STATE_REG_UPDATE_PENDING" : \
 125:g:/iot/IoT_Device_Demo/iot_link/network/lwm2m/wakaama_lwm2m/wakaama-master/core\internals.h **** ((S) == STATE_REG_UPDATE_NEEDED ? "STATE_REG_UPDATE_NEEDED" :   \
 126:g:/iot/IoT_Device_Demo/iot_link/network/lwm2m/wakaama_lwm2m/wakaama-master/core\internals.h **** ((S) == STATE_REG_FULL_UPDATE_NEEDED ? "STATE_REG_FULL_UPDATE_NEEDED" :   \
 127:g:/iot/IoT_Device_Demo/iot_link/network/lwm2m/wakaama_lwm2m/wakaama-master/core\internals.h **** ((S) == STATE_DEREG_PENDING ? "STATE_DEREG_PENDING" :           \
 128:g:/iot/IoT_Device_Demo/iot_link/network/lwm2m/wakaama_lwm2m/wakaama-master/core\internals.h **** ((S) == STATE_BS_HOLD_OFF ? "STATE_BS_HOLD_OFF" :               \
 129:g:/iot/IoT_Device_Demo/iot_link/network/lwm2m/wakaama_lwm2m/wakaama-master/core\internals.h **** ((S) == STATE_BS_INITIATED ? "STATE_BS_INITIATED" :             \
 130:g:/iot/IoT_Device_Demo/iot_link/network/lwm2m/wakaama_lwm2m/wakaama-master/core\internals.h **** ((S) == STATE_BS_PENDING ? "STATE_BS_PENDING" :                 \
 131:g:/iot/IoT_Device_Demo/iot_link/network/lwm2m/wakaama_lwm2m/wakaama-master/core\internals.h **** ((S) == STATE_BS_FINISHED ? "STATE_BS_FINISHED" :               \
 132:g:/iot/IoT_Device_Demo/iot_link/network/lwm2m/wakaama_lwm2m/wakaama-master/core\internals.h **** ((S) == STATE_BS_FINISHING ? "STATE_BS_FINISHING" :             \
 133:g:/iot/IoT_Device_Demo/iot_link/network/lwm2m/wakaama_lwm2m/wakaama-master/core\internals.h **** ((S) == STATE_BS_FAILING ? "STATE_BS_FAILING" :                 \
 134:g:/iot/IoT_Device_Demo/iot_link/network/lwm2m/wakaama_lwm2m/wakaama-master/core\internals.h **** ((S) == STATE_BS_FAILED ? "STATE_BS_FAILED" :                   \
 135:g:/iot/IoT_Device_Demo/iot_link/network/lwm2m/wakaama_lwm2m/wakaama-master/core\internals.h **** "Unknown")))))))))))))))
 136:g:/iot/IoT_Device_Demo/iot_link/network/lwm2m/wakaama_lwm2m/wakaama-master/core\internals.h **** #define STR_MEDIA_TYPE(M)                                \
 137:g:/iot/IoT_Device_Demo/iot_link/network/lwm2m/wakaama_lwm2m/wakaama-master/core\internals.h **** ((M) == LWM2M_CONTENT_TEXT ? "LWM2M_CONTENT_TEXT" :      \
 138:g:/iot/IoT_Device_Demo/iot_link/network/lwm2m/wakaama_lwm2m/wakaama-master/core\internals.h **** ((M) == LWM2M_CONTENT_LINK ? "LWM2M_CONTENT_LINK" :      \
 139:g:/iot/IoT_Device_Demo/iot_link/network/lwm2m/wakaama_lwm2m/wakaama-master/core\internals.h **** ((M) == LWM2M_CONTENT_OPAQUE ? "LWM2M_CONTENT_OPAQUE" :  \
 140:g:/iot/IoT_Device_Demo/iot_link/network/lwm2m/wakaama_lwm2m/wakaama-master/core\internals.h **** ((M) == LWM2M_CONTENT_TLV ? "LWM2M_CONTENT_TLV" :        \
 141:g:/iot/IoT_Device_Demo/iot_link/network/lwm2m/wakaama_lwm2m/wakaama-master/core\internals.h **** ((M) == LWM2M_CONTENT_JSON ? "LWM2M_CONTENT_JSON" :      \
 142:g:/iot/IoT_Device_Demo/iot_link/network/lwm2m/wakaama_lwm2m/wakaama-master/core\internals.h **** "Unknown")))))
 143:g:/iot/IoT_Device_Demo/iot_link/network/lwm2m/wakaama_lwm2m/wakaama-master/core\internals.h **** #define STR_STATE(S)                                \
 144:g:/iot/IoT_Device_Demo/iot_link/network/lwm2m/wakaama_lwm2m/wakaama-master/core\internals.h **** ((S) == STATE_INITIAL ? "STATE_INITIAL" :      \
 145:g:/iot/IoT_Device_Demo/iot_link/network/lwm2m/wakaama_lwm2m/wakaama-master/core\internals.h **** ((S) == STATE_BOOTSTRAP_REQUIRED ? "STATE_BOOTSTRAP_REQUIRED" :      \
ARM GAS  C:\Users\ADMINI~1\AppData\Local\Temp\ccrLD8ST.s 			page 4


 146:g:/iot/IoT_Device_Demo/iot_link/network/lwm2m/wakaama_lwm2m/wakaama-master/core\internals.h **** ((S) == STATE_BOOTSTRAPPING ? "STATE_BOOTSTRAPPING" :  \
 147:g:/iot/IoT_Device_Demo/iot_link/network/lwm2m/wakaama_lwm2m/wakaama-master/core\internals.h **** ((S) == STATE_REGISTER_REQUIRED ? "STATE_REGISTER_REQUIRED" :        \
 148:g:/iot/IoT_Device_Demo/iot_link/network/lwm2m/wakaama_lwm2m/wakaama-master/core\internals.h **** ((S) == STATE_REGISTERING ? "STATE_REGISTERING" :      \
 149:g:/iot/IoT_Device_Demo/iot_link/network/lwm2m/wakaama_lwm2m/wakaama-master/core\internals.h **** ((S) == STATE_READY ? "STATE_READY" :      \
 150:g:/iot/IoT_Device_Demo/iot_link/network/lwm2m/wakaama_lwm2m/wakaama-master/core\internals.h **** "Unknown"))))))
 151:g:/iot/IoT_Device_Demo/iot_link/network/lwm2m/wakaama_lwm2m/wakaama-master/core\internals.h **** #else
 152:g:/iot/IoT_Device_Demo/iot_link/network/lwm2m/wakaama_lwm2m/wakaama-master/core\internals.h **** #define UNUSEX(x) (x)=(x)
 153:g:/iot/IoT_Device_Demo/iot_link/network/lwm2m/wakaama_lwm2m/wakaama-master/core\internals.h **** #define LOG_ARG(FMT, ...)
 154:g:/iot/IoT_Device_Demo/iot_link/network/lwm2m/wakaama_lwm2m/wakaama-master/core\internals.h **** #define LOG(STR)
 155:g:/iot/IoT_Device_Demo/iot_link/network/lwm2m/wakaama_lwm2m/wakaama-master/core\internals.h **** #define LOG_URI(URI)
 156:g:/iot/IoT_Device_Demo/iot_link/network/lwm2m/wakaama_lwm2m/wakaama-master/core\internals.h **** #endif
 157:g:/iot/IoT_Device_Demo/iot_link/network/lwm2m/wakaama_lwm2m/wakaama-master/core\internals.h **** 
 158:g:/iot/IoT_Device_Demo/iot_link/network/lwm2m/wakaama_lwm2m/wakaama-master/core\internals.h **** #define LWM2M_DEFAULT_LIFETIME  86400
 159:g:/iot/IoT_Device_Demo/iot_link/network/lwm2m/wakaama_lwm2m/wakaama-master/core\internals.h **** 
 160:g:/iot/IoT_Device_Demo/iot_link/network/lwm2m/wakaama_lwm2m/wakaama-master/core\internals.h **** #ifdef LWM2M_SUPPORT_JSON
 161:g:/iot/IoT_Device_Demo/iot_link/network/lwm2m/wakaama_lwm2m/wakaama-master/core\internals.h **** #define REG_LWM2M_RESOURCE_TYPE     ">;rt=\"oma.lwm2m\";ct=11543,"
 162:g:/iot/IoT_Device_Demo/iot_link/network/lwm2m/wakaama_lwm2m/wakaama-master/core\internals.h **** #define REG_LWM2M_RESOURCE_TYPE_LEN 25
 163:g:/iot/IoT_Device_Demo/iot_link/network/lwm2m/wakaama_lwm2m/wakaama-master/core\internals.h **** #else
 164:g:/iot/IoT_Device_Demo/iot_link/network/lwm2m/wakaama_lwm2m/wakaama-master/core\internals.h **** #define REG_LWM2M_RESOURCE_TYPE     ">;rt=\"oma.lwm2m\","
 165:g:/iot/IoT_Device_Demo/iot_link/network/lwm2m/wakaama_lwm2m/wakaama-master/core\internals.h **** #define REG_LWM2M_RESOURCE_TYPE_LEN 17
 166:g:/iot/IoT_Device_Demo/iot_link/network/lwm2m/wakaama_lwm2m/wakaama-master/core\internals.h **** #endif
 167:g:/iot/IoT_Device_Demo/iot_link/network/lwm2m/wakaama_lwm2m/wakaama-master/core\internals.h **** #define REG_START           "<"
 168:g:/iot/IoT_Device_Demo/iot_link/network/lwm2m/wakaama_lwm2m/wakaama-master/core\internals.h **** #define REG_DEFAULT_PATH    "/"
 169:g:/iot/IoT_Device_Demo/iot_link/network/lwm2m/wakaama_lwm2m/wakaama-master/core\internals.h **** 
 170:g:/iot/IoT_Device_Demo/iot_link/network/lwm2m/wakaama_lwm2m/wakaama-master/core\internals.h **** #define REG_OBJECT_MIN_LEN  5   // "</n>,"
 171:g:/iot/IoT_Device_Demo/iot_link/network/lwm2m/wakaama_lwm2m/wakaama-master/core\internals.h **** #define REG_PATH_END        ">,"
 172:g:/iot/IoT_Device_Demo/iot_link/network/lwm2m/wakaama_lwm2m/wakaama-master/core\internals.h **** #define REG_PATH_SEPARATOR  "/"
 173:g:/iot/IoT_Device_Demo/iot_link/network/lwm2m/wakaama_lwm2m/wakaama-master/core\internals.h **** 
 174:g:/iot/IoT_Device_Demo/iot_link/network/lwm2m/wakaama_lwm2m/wakaama-master/core\internals.h **** #define REG_OBJECT_PATH             "<%s/%hu>,"
 175:g:/iot/IoT_Device_Demo/iot_link/network/lwm2m/wakaama_lwm2m/wakaama-master/core\internals.h **** #define REG_OBJECT_INSTANCE_PATH    "<%s/%hu/%hu>,"
 176:g:/iot/IoT_Device_Demo/iot_link/network/lwm2m/wakaama_lwm2m/wakaama-master/core\internals.h **** 
 177:g:/iot/IoT_Device_Demo/iot_link/network/lwm2m/wakaama_lwm2m/wakaama-master/core\internals.h **** #define URI_REGISTRATION_SEGMENT        "rd"
 178:g:/iot/IoT_Device_Demo/iot_link/network/lwm2m/wakaama_lwm2m/wakaama-master/core\internals.h **** #define URI_REGISTRATION_SEGMENT_LEN    2
 179:g:/iot/IoT_Device_Demo/iot_link/network/lwm2m/wakaama_lwm2m/wakaama-master/core\internals.h **** #define URI_BOOTSTRAP_SEGMENT           "bs"
 180:g:/iot/IoT_Device_Demo/iot_link/network/lwm2m/wakaama_lwm2m/wakaama-master/core\internals.h **** #define URI_BOOTSTRAP_SEGMENT_LEN       2
 181:g:/iot/IoT_Device_Demo/iot_link/network/lwm2m/wakaama_lwm2m/wakaama-master/core\internals.h **** 
 182:g:/iot/IoT_Device_Demo/iot_link/network/lwm2m/wakaama_lwm2m/wakaama-master/core\internals.h **** #define QUERY_STARTER       "?"
 183:g:/iot/IoT_Device_Demo/iot_link/network/lwm2m/wakaama_lwm2m/wakaama-master/core\internals.h **** #define QUERY_NAME          "ep="
 184:g:/iot/IoT_Device_Demo/iot_link/network/lwm2m/wakaama_lwm2m/wakaama-master/core\internals.h **** #define QUERY_NAME_LEN      3       // strlen("ep=")
 185:g:/iot/IoT_Device_Demo/iot_link/network/lwm2m/wakaama_lwm2m/wakaama-master/core\internals.h **** #define QUERY_SMS           "sms="
 186:g:/iot/IoT_Device_Demo/iot_link/network/lwm2m/wakaama_lwm2m/wakaama-master/core\internals.h **** #define QUERY_SMS_LEN       4
 187:g:/iot/IoT_Device_Demo/iot_link/network/lwm2m/wakaama_lwm2m/wakaama-master/core\internals.h **** #define QUERY_LIFETIME      "lt="
 188:g:/iot/IoT_Device_Demo/iot_link/network/lwm2m/wakaama_lwm2m/wakaama-master/core\internals.h **** #define QUERY_LIFETIME_LEN  3
 189:g:/iot/IoT_Device_Demo/iot_link/network/lwm2m/wakaama_lwm2m/wakaama-master/core\internals.h **** #define QUERY_VERSION       "lwm2m="
 190:g:/iot/IoT_Device_Demo/iot_link/network/lwm2m/wakaama_lwm2m/wakaama-master/core\internals.h **** #define QUERY_VERSION_LEN   6
 191:g:/iot/IoT_Device_Demo/iot_link/network/lwm2m/wakaama_lwm2m/wakaama-master/core\internals.h **** #define QUERY_BINDING       "b="
 192:g:/iot/IoT_Device_Demo/iot_link/network/lwm2m/wakaama_lwm2m/wakaama-master/core\internals.h **** #define QUERY_BINDING_LEN   2
 193:g:/iot/IoT_Device_Demo/iot_link/network/lwm2m/wakaama_lwm2m/wakaama-master/core\internals.h **** #define QUERY_DELIMITER     "&"
 194:g:/iot/IoT_Device_Demo/iot_link/network/lwm2m/wakaama_lwm2m/wakaama-master/core\internals.h **** 
 195:g:/iot/IoT_Device_Demo/iot_link/network/lwm2m/wakaama_lwm2m/wakaama-master/core\internals.h **** #define LWM2M_VERSION      "1.0"
 196:g:/iot/IoT_Device_Demo/iot_link/network/lwm2m/wakaama_lwm2m/wakaama-master/core\internals.h **** #define LWM2M_VERSION_LEN  3
 197:g:/iot/IoT_Device_Demo/iot_link/network/lwm2m/wakaama_lwm2m/wakaama-master/core\internals.h **** 
 198:g:/iot/IoT_Device_Demo/iot_link/network/lwm2m/wakaama_lwm2m/wakaama-master/core\internals.h **** #define QUERY_VERSION_FULL      QUERY_VERSION LWM2M_VERSION
 199:g:/iot/IoT_Device_Demo/iot_link/network/lwm2m/wakaama_lwm2m/wakaama-master/core\internals.h **** #define QUERY_VERSION_FULL_LEN  QUERY_VERSION_LEN+LWM2M_VERSION_LEN
 200:g:/iot/IoT_Device_Demo/iot_link/network/lwm2m/wakaama_lwm2m/wakaama-master/core\internals.h **** 
 201:g:/iot/IoT_Device_Demo/iot_link/network/lwm2m/wakaama_lwm2m/wakaama-master/core\internals.h **** #define REG_URI_START       '<'
 202:g:/iot/IoT_Device_Demo/iot_link/network/lwm2m/wakaama_lwm2m/wakaama-master/core\internals.h **** #define REG_URI_END         '>'
ARM GAS  C:\Users\ADMINI~1\AppData\Local\Temp\ccrLD8ST.s 			page 5


 203:g:/iot/IoT_Device_Demo/iot_link/network/lwm2m/wakaama_lwm2m/wakaama-master/core\internals.h **** #define REG_DELIMITER       ','
 204:g:/iot/IoT_Device_Demo/iot_link/network/lwm2m/wakaama_lwm2m/wakaama-master/core\internals.h **** #define REG_ATTR_SEPARATOR  ';'
 205:g:/iot/IoT_Device_Demo/iot_link/network/lwm2m/wakaama_lwm2m/wakaama-master/core\internals.h **** #define REG_ATTR_EQUALS     '='
 206:g:/iot/IoT_Device_Demo/iot_link/network/lwm2m/wakaama_lwm2m/wakaama-master/core\internals.h **** #define REG_ATTR_TYPE_KEY           "rt"
 207:g:/iot/IoT_Device_Demo/iot_link/network/lwm2m/wakaama_lwm2m/wakaama-master/core\internals.h **** #define REG_ATTR_TYPE_KEY_LEN       2
 208:g:/iot/IoT_Device_Demo/iot_link/network/lwm2m/wakaama_lwm2m/wakaama-master/core\internals.h **** #define REG_ATTR_TYPE_VALUE         "\"oma.lwm2m\""
 209:g:/iot/IoT_Device_Demo/iot_link/network/lwm2m/wakaama_lwm2m/wakaama-master/core\internals.h **** #define REG_ATTR_TYPE_VALUE_LEN     11
 210:g:/iot/IoT_Device_Demo/iot_link/network/lwm2m/wakaama_lwm2m/wakaama-master/core\internals.h **** #define REG_ATTR_CONTENT_KEY        "ct"
 211:g:/iot/IoT_Device_Demo/iot_link/network/lwm2m/wakaama_lwm2m/wakaama-master/core\internals.h **** #define REG_ATTR_CONTENT_KEY_LEN    2
 212:g:/iot/IoT_Device_Demo/iot_link/network/lwm2m/wakaama_lwm2m/wakaama-master/core\internals.h **** #define REG_ATTR_CONTENT_JSON       "11543"   // Temporary value
 213:g:/iot/IoT_Device_Demo/iot_link/network/lwm2m/wakaama_lwm2m/wakaama-master/core\internals.h **** #define REG_ATTR_CONTENT_JSON_LEN   5
 214:g:/iot/IoT_Device_Demo/iot_link/network/lwm2m/wakaama_lwm2m/wakaama-master/core\internals.h **** 
 215:g:/iot/IoT_Device_Demo/iot_link/network/lwm2m/wakaama_lwm2m/wakaama-master/core\internals.h **** #define ATTR_SERVER_ID_STR       "ep="
 216:g:/iot/IoT_Device_Demo/iot_link/network/lwm2m/wakaama_lwm2m/wakaama-master/core\internals.h **** #define ATTR_SERVER_ID_LEN       3
 217:g:/iot/IoT_Device_Demo/iot_link/network/lwm2m/wakaama_lwm2m/wakaama-master/core\internals.h **** #define ATTR_MIN_PERIOD_STR      "pmin="
 218:g:/iot/IoT_Device_Demo/iot_link/network/lwm2m/wakaama_lwm2m/wakaama-master/core\internals.h **** #define ATTR_MIN_PERIOD_LEN      5
 219:g:/iot/IoT_Device_Demo/iot_link/network/lwm2m/wakaama_lwm2m/wakaama-master/core\internals.h **** #define ATTR_MAX_PERIOD_STR      "pmax="
 220:g:/iot/IoT_Device_Demo/iot_link/network/lwm2m/wakaama_lwm2m/wakaama-master/core\internals.h **** #define ATTR_MAX_PERIOD_LEN      5
 221:g:/iot/IoT_Device_Demo/iot_link/network/lwm2m/wakaama_lwm2m/wakaama-master/core\internals.h **** #define ATTR_GREATER_THAN_STR    "gt="
 222:g:/iot/IoT_Device_Demo/iot_link/network/lwm2m/wakaama_lwm2m/wakaama-master/core\internals.h **** #define ATTR_GREATER_THAN_LEN    3
 223:g:/iot/IoT_Device_Demo/iot_link/network/lwm2m/wakaama_lwm2m/wakaama-master/core\internals.h **** #define ATTR_LESS_THAN_STR       "lt="
 224:g:/iot/IoT_Device_Demo/iot_link/network/lwm2m/wakaama_lwm2m/wakaama-master/core\internals.h **** #define ATTR_LESS_THAN_LEN       3
 225:g:/iot/IoT_Device_Demo/iot_link/network/lwm2m/wakaama_lwm2m/wakaama-master/core\internals.h **** #define ATTR_STEP_STR            "st="
 226:g:/iot/IoT_Device_Demo/iot_link/network/lwm2m/wakaama_lwm2m/wakaama-master/core\internals.h **** #define ATTR_STEP_LEN            3
 227:g:/iot/IoT_Device_Demo/iot_link/network/lwm2m/wakaama_lwm2m/wakaama-master/core\internals.h **** #define ATTR_DIMENSION_STR       "dim="
 228:g:/iot/IoT_Device_Demo/iot_link/network/lwm2m/wakaama_lwm2m/wakaama-master/core\internals.h **** #define ATTR_DIMENSION_LEN       4
 229:g:/iot/IoT_Device_Demo/iot_link/network/lwm2m/wakaama_lwm2m/wakaama-master/core\internals.h **** 
 230:g:/iot/IoT_Device_Demo/iot_link/network/lwm2m/wakaama_lwm2m/wakaama-master/core\internals.h **** #define URI_MAX_STRING_LEN    18      // /65535/65535/65535
 231:g:/iot/IoT_Device_Demo/iot_link/network/lwm2m/wakaama_lwm2m/wakaama-master/core\internals.h **** #define _PRV_64BIT_BUFFER_SIZE 8
 232:g:/iot/IoT_Device_Demo/iot_link/network/lwm2m/wakaama_lwm2m/wakaama-master/core\internals.h **** 
 233:g:/iot/IoT_Device_Demo/iot_link/network/lwm2m/wakaama_lwm2m/wakaama-master/core\internals.h **** #define LINK_ITEM_START             "<"
 234:g:/iot/IoT_Device_Demo/iot_link/network/lwm2m/wakaama_lwm2m/wakaama-master/core\internals.h **** #define LINK_ITEM_START_SIZE        1
 235:g:/iot/IoT_Device_Demo/iot_link/network/lwm2m/wakaama_lwm2m/wakaama-master/core\internals.h **** #define LINK_ITEM_END               ">,"
 236:g:/iot/IoT_Device_Demo/iot_link/network/lwm2m/wakaama_lwm2m/wakaama-master/core\internals.h **** #define LINK_ITEM_END_SIZE          2
 237:g:/iot/IoT_Device_Demo/iot_link/network/lwm2m/wakaama_lwm2m/wakaama-master/core\internals.h **** #define LINK_ITEM_DIM_START         ">;dim="
 238:g:/iot/IoT_Device_Demo/iot_link/network/lwm2m/wakaama_lwm2m/wakaama-master/core\internals.h **** #define LINK_ITEM_DIM_START_SIZE    6
 239:g:/iot/IoT_Device_Demo/iot_link/network/lwm2m/wakaama_lwm2m/wakaama-master/core\internals.h **** #define LINK_ITEM_ATTR_END          ","
 240:g:/iot/IoT_Device_Demo/iot_link/network/lwm2m/wakaama_lwm2m/wakaama-master/core\internals.h **** #define LINK_ITEM_ATTR_END_SIZE     1
 241:g:/iot/IoT_Device_Demo/iot_link/network/lwm2m/wakaama_lwm2m/wakaama-master/core\internals.h **** #define LINK_URI_SEPARATOR          "/"
 242:g:/iot/IoT_Device_Demo/iot_link/network/lwm2m/wakaama_lwm2m/wakaama-master/core\internals.h **** #define LINK_URI_SEPARATOR_SIZE     1
 243:g:/iot/IoT_Device_Demo/iot_link/network/lwm2m/wakaama_lwm2m/wakaama-master/core\internals.h **** #define LINK_ATTR_SEPARATOR         ";"
 244:g:/iot/IoT_Device_Demo/iot_link/network/lwm2m/wakaama_lwm2m/wakaama-master/core\internals.h **** #define LINK_ATTR_SEPARATOR_SIZE    1
 245:g:/iot/IoT_Device_Demo/iot_link/network/lwm2m/wakaama_lwm2m/wakaama-master/core\internals.h **** 
 246:g:/iot/IoT_Device_Demo/iot_link/network/lwm2m/wakaama_lwm2m/wakaama-master/core\internals.h **** #define ATTR_FLAG_NUMERIC (uint8_t)(LWM2M_ATTR_FLAG_LESS_THAN | LWM2M_ATTR_FLAG_GREATER_THAN | LWM2
 247:g:/iot/IoT_Device_Demo/iot_link/network/lwm2m/wakaama_lwm2m/wakaama-master/core\internals.h **** 
 248:g:/iot/IoT_Device_Demo/iot_link/network/lwm2m/wakaama_lwm2m/wakaama-master/core\internals.h **** #define LWM2M_URI_FLAG_DM           (uint8_t)0x00
 249:g:/iot/IoT_Device_Demo/iot_link/network/lwm2m/wakaama_lwm2m/wakaama-master/core\internals.h **** #define LWM2M_URI_FLAG_DELETE_ALL   (uint8_t)0x10
 250:g:/iot/IoT_Device_Demo/iot_link/network/lwm2m/wakaama_lwm2m/wakaama-master/core\internals.h **** #define LWM2M_URI_FLAG_REGISTRATION (uint8_t)0x20
 251:g:/iot/IoT_Device_Demo/iot_link/network/lwm2m/wakaama_lwm2m/wakaama-master/core\internals.h **** #define LWM2M_URI_FLAG_BOOTSTRAP    (uint8_t)0x40
 252:g:/iot/IoT_Device_Demo/iot_link/network/lwm2m/wakaama_lwm2m/wakaama-master/core\internals.h **** 
 253:g:/iot/IoT_Device_Demo/iot_link/network/lwm2m/wakaama_lwm2m/wakaama-master/core\internals.h **** #define LWM2M_URI_MASK_TYPE (uint8_t)0x70
 254:g:/iot/IoT_Device_Demo/iot_link/network/lwm2m/wakaama_lwm2m/wakaama-master/core\internals.h **** #define LWM2M_URI_MASK_ID   (uint8_t)0x07
 255:g:/iot/IoT_Device_Demo/iot_link/network/lwm2m/wakaama_lwm2m/wakaama-master/core\internals.h **** 
 256:g:/iot/IoT_Device_Demo/iot_link/network/lwm2m/wakaama_lwm2m/wakaama-master/core\internals.h **** typedef struct
 257:g:/iot/IoT_Device_Demo/iot_link/network/lwm2m/wakaama_lwm2m/wakaama-master/core\internals.h **** {
 258:g:/iot/IoT_Device_Demo/iot_link/network/lwm2m/wakaama_lwm2m/wakaama-master/core\internals.h ****     uint16_t clientID;
 259:g:/iot/IoT_Device_Demo/iot_link/network/lwm2m/wakaama_lwm2m/wakaama-master/core\internals.h ****     lwm2m_uri_t uri;
ARM GAS  C:\Users\ADMINI~1\AppData\Local\Temp\ccrLD8ST.s 			page 6


 260:g:/iot/IoT_Device_Demo/iot_link/network/lwm2m/wakaama_lwm2m/wakaama-master/core\internals.h ****     lwm2m_result_callback_t callback;
 261:g:/iot/IoT_Device_Demo/iot_link/network/lwm2m/wakaama_lwm2m/wakaama-master/core\internals.h ****     void * userData;
 262:g:/iot/IoT_Device_Demo/iot_link/network/lwm2m/wakaama_lwm2m/wakaama-master/core\internals.h **** } dm_data_t;
 263:g:/iot/IoT_Device_Demo/iot_link/network/lwm2m/wakaama_lwm2m/wakaama-master/core\internals.h **** 
 264:g:/iot/IoT_Device_Demo/iot_link/network/lwm2m/wakaama_lwm2m/wakaama-master/core\internals.h **** typedef enum
 265:g:/iot/IoT_Device_Demo/iot_link/network/lwm2m/wakaama_lwm2m/wakaama-master/core\internals.h **** {
 266:g:/iot/IoT_Device_Demo/iot_link/network/lwm2m/wakaama_lwm2m/wakaama-master/core\internals.h ****     URI_DEPTH_OBJECT,
 267:g:/iot/IoT_Device_Demo/iot_link/network/lwm2m/wakaama_lwm2m/wakaama-master/core\internals.h ****     URI_DEPTH_OBJECT_INSTANCE,
 268:g:/iot/IoT_Device_Demo/iot_link/network/lwm2m/wakaama_lwm2m/wakaama-master/core\internals.h ****     URI_DEPTH_RESOURCE,
 269:g:/iot/IoT_Device_Demo/iot_link/network/lwm2m/wakaama_lwm2m/wakaama-master/core\internals.h ****     URI_DEPTH_RESOURCE_INSTANCE
 270:g:/iot/IoT_Device_Demo/iot_link/network/lwm2m/wakaama_lwm2m/wakaama-master/core\internals.h **** } uri_depth_t;
 271:g:/iot/IoT_Device_Demo/iot_link/network/lwm2m/wakaama_lwm2m/wakaama-master/core\internals.h **** 
 272:g:/iot/IoT_Device_Demo/iot_link/network/lwm2m/wakaama_lwm2m/wakaama-master/core\internals.h **** #ifdef LWM2M_BOOTSTRAP_SERVER_MODE
 273:g:/iot/IoT_Device_Demo/iot_link/network/lwm2m/wakaama_lwm2m/wakaama-master/core\internals.h **** typedef struct
 274:g:/iot/IoT_Device_Demo/iot_link/network/lwm2m/wakaama_lwm2m/wakaama-master/core\internals.h **** {
 275:g:/iot/IoT_Device_Demo/iot_link/network/lwm2m/wakaama_lwm2m/wakaama-master/core\internals.h ****     bool        isUri;
 276:g:/iot/IoT_Device_Demo/iot_link/network/lwm2m/wakaama_lwm2m/wakaama-master/core\internals.h ****     lwm2m_uri_t uri;
 277:g:/iot/IoT_Device_Demo/iot_link/network/lwm2m/wakaama_lwm2m/wakaama-master/core\internals.h ****     lwm2m_bootstrap_callback_t callback;
 278:g:/iot/IoT_Device_Demo/iot_link/network/lwm2m/wakaama_lwm2m/wakaama-master/core\internals.h ****     void *      userData;
 279:g:/iot/IoT_Device_Demo/iot_link/network/lwm2m/wakaama_lwm2m/wakaama-master/core\internals.h **** } bs_data_t;
 280:g:/iot/IoT_Device_Demo/iot_link/network/lwm2m/wakaama_lwm2m/wakaama-master/core\internals.h **** #endif
 281:g:/iot/IoT_Device_Demo/iot_link/network/lwm2m/wakaama_lwm2m/wakaama-master/core\internals.h **** 
 282:g:/iot/IoT_Device_Demo/iot_link/network/lwm2m/wakaama_lwm2m/wakaama-master/core\internals.h **** // defined in uri.c
 283:g:/iot/IoT_Device_Demo/iot_link/network/lwm2m/wakaama_lwm2m/wakaama-master/core\internals.h **** lwm2m_uri_t * uri_decode(char * altPath, multi_option_t *uriPath);
 284:g:/iot/IoT_Device_Demo/iot_link/network/lwm2m/wakaama_lwm2m/wakaama-master/core\internals.h **** int uri_getNumber(uint8_t * uriString, size_t uriLength);
 285:g:/iot/IoT_Device_Demo/iot_link/network/lwm2m/wakaama_lwm2m/wakaama-master/core\internals.h **** int uri_toString(lwm2m_uri_t * uriP, uint8_t * buffer, size_t bufferLen, uri_depth_t * depthP);
 286:g:/iot/IoT_Device_Demo/iot_link/network/lwm2m/wakaama_lwm2m/wakaama-master/core\internals.h **** 
 287:g:/iot/IoT_Device_Demo/iot_link/network/lwm2m/wakaama_lwm2m/wakaama-master/core\internals.h **** // defined in objects.c
 288:g:/iot/IoT_Device_Demo/iot_link/network/lwm2m/wakaama_lwm2m/wakaama-master/core\internals.h **** uint8_t object_readData(lwm2m_context_t * contextP, lwm2m_uri_t * uriP, int * sizeP, lwm2m_data_t *
 289:g:/iot/IoT_Device_Demo/iot_link/network/lwm2m/wakaama_lwm2m/wakaama-master/core\internals.h **** uint8_t object_read(lwm2m_context_t * contextP, lwm2m_uri_t * uriP, lwm2m_media_type_t * formatP, u
 290:g:/iot/IoT_Device_Demo/iot_link/network/lwm2m/wakaama_lwm2m/wakaama-master/core\internals.h **** uint8_t object_write(lwm2m_context_t * contextP, lwm2m_uri_t * uriP, lwm2m_media_type_t format, uin
 291:g:/iot/IoT_Device_Demo/iot_link/network/lwm2m/wakaama_lwm2m/wakaama-master/core\internals.h **** uint8_t object_create(lwm2m_context_t * contextP, lwm2m_uri_t * uriP, lwm2m_media_type_t format, ui
 292:g:/iot/IoT_Device_Demo/iot_link/network/lwm2m/wakaama_lwm2m/wakaama-master/core\internals.h **** uint8_t object_execute(lwm2m_context_t * contextP, lwm2m_uri_t * uriP, uint8_t * buffer, size_t len
 293:g:/iot/IoT_Device_Demo/iot_link/network/lwm2m/wakaama_lwm2m/wakaama-master/core\internals.h **** uint8_t object_delete(lwm2m_context_t * contextP, lwm2m_uri_t * uriP);
 294:g:/iot/IoT_Device_Demo/iot_link/network/lwm2m/wakaama_lwm2m/wakaama-master/core\internals.h **** uint8_t object_discover(lwm2m_context_t * contextP, lwm2m_uri_t * uriP, lwm2m_server_t * serverP, u
 295:g:/iot/IoT_Device_Demo/iot_link/network/lwm2m/wakaama_lwm2m/wakaama-master/core\internals.h **** uint8_t object_checkReadable(lwm2m_context_t * contextP, lwm2m_uri_t * uriP);
 296:g:/iot/IoT_Device_Demo/iot_link/network/lwm2m/wakaama_lwm2m/wakaama-master/core\internals.h **** uint8_t object_checkNumeric(lwm2m_context_t * contextP, lwm2m_uri_t * uriP);
 297:g:/iot/IoT_Device_Demo/iot_link/network/lwm2m/wakaama_lwm2m/wakaama-master/core\internals.h **** bool object_isInstanceNew(lwm2m_context_t * contextP, uint16_t objectId, uint16_t instanceId);
 298:g:/iot/IoT_Device_Demo/iot_link/network/lwm2m/wakaama_lwm2m/wakaama-master/core\internals.h **** int object_getRegisterPayloadBufferLength(lwm2m_context_t * contextP);
 299:g:/iot/IoT_Device_Demo/iot_link/network/lwm2m/wakaama_lwm2m/wakaama-master/core\internals.h **** int object_getRegisterPayload(lwm2m_context_t * contextP, uint8_t * buffer, size_t length);
 300:g:/iot/IoT_Device_Demo/iot_link/network/lwm2m/wakaama_lwm2m/wakaama-master/core\internals.h **** int object_getServers(lwm2m_context_t * contextP, bool checkOnly);
 301:g:/iot/IoT_Device_Demo/iot_link/network/lwm2m/wakaama_lwm2m/wakaama-master/core\internals.h **** uint8_t object_createInstance(lwm2m_context_t * contextP, lwm2m_uri_t * uriP, lwm2m_data_t * dataP)
 302:g:/iot/IoT_Device_Demo/iot_link/network/lwm2m/wakaama_lwm2m/wakaama-master/core\internals.h **** uint8_t object_writeInstance(lwm2m_context_t * contextP, lwm2m_uri_t * uriP, lwm2m_data_t * dataP);
 303:g:/iot/IoT_Device_Demo/iot_link/network/lwm2m/wakaama_lwm2m/wakaama-master/core\internals.h **** 
 304:g:/iot/IoT_Device_Demo/iot_link/network/lwm2m/wakaama_lwm2m/wakaama-master/core\internals.h **** // defined in transaction.c
 305:g:/iot/IoT_Device_Demo/iot_link/network/lwm2m/wakaama_lwm2m/wakaama-master/core\internals.h **** lwm2m_transaction_t * transaction_new(void * sessionH, unsigned char method, char * altPath, lwm2m_
 306:g:/iot/IoT_Device_Demo/iot_link/network/lwm2m/wakaama_lwm2m/wakaama-master/core\internals.h **** int transaction_send(lwm2m_context_t * contextP, lwm2m_transaction_t * transacP);
 307:g:/iot/IoT_Device_Demo/iot_link/network/lwm2m/wakaama_lwm2m/wakaama-master/core\internals.h **** void transaction_free(lwm2m_transaction_t * transacP);
 308:g:/iot/IoT_Device_Demo/iot_link/network/lwm2m/wakaama_lwm2m/wakaama-master/core\internals.h **** void transaction_remove(lwm2m_context_t * contextP, lwm2m_transaction_t * transacP);
 309:g:/iot/IoT_Device_Demo/iot_link/network/lwm2m/wakaama_lwm2m/wakaama-master/core\internals.h **** bool transaction_handleResponse(lwm2m_context_t * contextP, void * fromSessionH, coap_packet_t * me
 310:g:/iot/IoT_Device_Demo/iot_link/network/lwm2m/wakaama_lwm2m/wakaama-master/core\internals.h **** void transaction_step(lwm2m_context_t * contextP, time_t currentTime, time_t * timeoutP);
 311:g:/iot/IoT_Device_Demo/iot_link/network/lwm2m/wakaama_lwm2m/wakaama-master/core\internals.h **** 
 312:g:/iot/IoT_Device_Demo/iot_link/network/lwm2m/wakaama_lwm2m/wakaama-master/core\internals.h **** // defined in management.c
 313:g:/iot/IoT_Device_Demo/iot_link/network/lwm2m/wakaama_lwm2m/wakaama-master/core\internals.h **** uint8_t dm_handleRequest(lwm2m_context_t * contextP, lwm2m_uri_t * uriP, lwm2m_server_t * serverP, 
 314:g:/iot/IoT_Device_Demo/iot_link/network/lwm2m/wakaama_lwm2m/wakaama-master/core\internals.h **** 
 315:g:/iot/IoT_Device_Demo/iot_link/network/lwm2m/wakaama_lwm2m/wakaama-master/core\internals.h **** // defined in observe.c
 316:g:/iot/IoT_Device_Demo/iot_link/network/lwm2m/wakaama_lwm2m/wakaama-master/core\internals.h **** uint8_t observe_handleRequest(lwm2m_context_t * contextP, lwm2m_uri_t * uriP, lwm2m_server_t * serv
ARM GAS  C:\Users\ADMINI~1\AppData\Local\Temp\ccrLD8ST.s 			page 7


 317:g:/iot/IoT_Device_Demo/iot_link/network/lwm2m/wakaama_lwm2m/wakaama-master/core\internals.h **** void observe_cancel(lwm2m_context_t * contextP, uint16_t mid, void * fromSessionH);
 318:g:/iot/IoT_Device_Demo/iot_link/network/lwm2m/wakaama_lwm2m/wakaama-master/core\internals.h **** uint8_t observe_setParameters(lwm2m_context_t * contextP, lwm2m_uri_t * uriP, lwm2m_server_t * serv
 319:g:/iot/IoT_Device_Demo/iot_link/network/lwm2m/wakaama_lwm2m/wakaama-master/core\internals.h **** void observe_step(lwm2m_context_t * contextP, time_t currentTime, time_t * timeoutP);
 320:g:/iot/IoT_Device_Demo/iot_link/network/lwm2m/wakaama_lwm2m/wakaama-master/core\internals.h **** void observe_clear(lwm2m_context_t * contextP, lwm2m_uri_t * uriP);
 321:g:/iot/IoT_Device_Demo/iot_link/network/lwm2m/wakaama_lwm2m/wakaama-master/core\internals.h **** //bool observe_handleNotify(lwm2m_context_t * contextP, void * fromSessionH, coap_packet_t * messag
 322:g:/iot/IoT_Device_Demo/iot_link/network/lwm2m/wakaama_lwm2m/wakaama-master/core\internals.h **** void observe_remove(lwm2m_observation_t * observationP);
 323:g:/iot/IoT_Device_Demo/iot_link/network/lwm2m/wakaama_lwm2m/wakaama-master/core\internals.h **** lwm2m_observed_t * observe_findByUri(lwm2m_context_t * contextP, lwm2m_uri_t * uriP);
 324:g:/iot/IoT_Device_Demo/iot_link/network/lwm2m/wakaama_lwm2m/wakaama-master/core\internals.h **** 
 325:g:/iot/IoT_Device_Demo/iot_link/network/lwm2m/wakaama_lwm2m/wakaama-master/core\internals.h **** // defined in registration.c
 326:g:/iot/IoT_Device_Demo/iot_link/network/lwm2m/wakaama_lwm2m/wakaama-master/core\internals.h **** //uint8_t registration_handleRequest(lwm2m_context_t * contextP, lwm2m_uri_t * uriP, void * fromSes
 327:g:/iot/IoT_Device_Demo/iot_link/network/lwm2m/wakaama_lwm2m/wakaama-master/core\internals.h **** void registration_deregister(lwm2m_context_t * contextP, lwm2m_server_t * serverP);
 328:g:/iot/IoT_Device_Demo/iot_link/network/lwm2m/wakaama_lwm2m/wakaama-master/core\internals.h **** void registration_freeClient(lwm2m_client_t * clientP);
 329:g:/iot/IoT_Device_Demo/iot_link/network/lwm2m/wakaama_lwm2m/wakaama-master/core\internals.h **** uint8_t registration_start(lwm2m_context_t * contextP);
 330:g:/iot/IoT_Device_Demo/iot_link/network/lwm2m/wakaama_lwm2m/wakaama-master/core\internals.h **** void registration_step(lwm2m_context_t * contextP, time_t currentTime, time_t * timeoutP);
 331:g:/iot/IoT_Device_Demo/iot_link/network/lwm2m/wakaama_lwm2m/wakaama-master/core\internals.h **** lwm2m_status_t registration_getStatus(lwm2m_context_t * contextP);
 332:g:/iot/IoT_Device_Demo/iot_link/network/lwm2m/wakaama_lwm2m/wakaama-master/core\internals.h **** void registration_reset(lwm2m_context_t * contextP, lwm2m_server_t * serverP);
 333:g:/iot/IoT_Device_Demo/iot_link/network/lwm2m/wakaama_lwm2m/wakaama-master/core\internals.h **** 
 334:g:/iot/IoT_Device_Demo/iot_link/network/lwm2m/wakaama_lwm2m/wakaama-master/core\internals.h **** // defined in packet.c
 335:g:/iot/IoT_Device_Demo/iot_link/network/lwm2m/wakaama_lwm2m/wakaama-master/core\internals.h **** uint8_t message_send(lwm2m_context_t * contextP, coap_packet_t * message, void * sessionH);
 336:g:/iot/IoT_Device_Demo/iot_link/network/lwm2m/wakaama_lwm2m/wakaama-master/core\internals.h **** 
 337:g:/iot/IoT_Device_Demo/iot_link/network/lwm2m/wakaama_lwm2m/wakaama-master/core\internals.h **** // defined in bootstrap.c
 338:g:/iot/IoT_Device_Demo/iot_link/network/lwm2m/wakaama_lwm2m/wakaama-master/core\internals.h **** void bootstrap_step(lwm2m_context_t * contextP, uint32_t currentTime, time_t* timeoutP);
 339:g:/iot/IoT_Device_Demo/iot_link/network/lwm2m/wakaama_lwm2m/wakaama-master/core\internals.h **** uint8_t bootstrap_handleCommand(lwm2m_context_t * contextP, lwm2m_uri_t * uriP, lwm2m_server_t * se
 340:g:/iot/IoT_Device_Demo/iot_link/network/lwm2m/wakaama_lwm2m/wakaama-master/core\internals.h **** uint8_t bootstrap_handleDeleteAll(lwm2m_context_t * context, void * fromSessionH);
 341:g:/iot/IoT_Device_Demo/iot_link/network/lwm2m/wakaama_lwm2m/wakaama-master/core\internals.h **** uint8_t bootstrap_handleFinish(lwm2m_context_t * context, void * fromSessionH);
 342:g:/iot/IoT_Device_Demo/iot_link/network/lwm2m/wakaama_lwm2m/wakaama-master/core\internals.h **** uint8_t bootstrap_handleRequest(lwm2m_context_t * contextP, lwm2m_uri_t * uriP, void * fromSessionH
 343:g:/iot/IoT_Device_Demo/iot_link/network/lwm2m/wakaama_lwm2m/wakaama-master/core\internals.h **** void bootstrap_start(lwm2m_context_t * contextP);
 344:g:/iot/IoT_Device_Demo/iot_link/network/lwm2m/wakaama_lwm2m/wakaama-master/core\internals.h **** lwm2m_status_t bootstrap_getStatus(lwm2m_context_t * contextP);
 345:g:/iot/IoT_Device_Demo/iot_link/network/lwm2m/wakaama_lwm2m/wakaama-master/core\internals.h **** bool bootstrap_isBsServerIpValid(const lwm2m_context_t *contextP);
 346:g:/iot/IoT_Device_Demo/iot_link/network/lwm2m/wakaama_lwm2m/wakaama-master/core\internals.h **** 
 347:g:/iot/IoT_Device_Demo/iot_link/network/lwm2m/wakaama_lwm2m/wakaama-master/core\internals.h **** 
 348:g:/iot/IoT_Device_Demo/iot_link/network/lwm2m/wakaama_lwm2m/wakaama-master/core\internals.h **** // defined in tlv.c
 349:g:/iot/IoT_Device_Demo/iot_link/network/lwm2m/wakaama_lwm2m/wakaama-master/core\internals.h **** int tlv_parse(uint8_t * buffer, size_t bufferLen, lwm2m_data_t ** dataP);
 350:g:/iot/IoT_Device_Demo/iot_link/network/lwm2m/wakaama_lwm2m/wakaama-master/core\internals.h **** int tlv_serialize(bool isResourceInstance, int size, lwm2m_data_t * dataP, uint8_t ** bufferP);
 351:g:/iot/IoT_Device_Demo/iot_link/network/lwm2m/wakaama_lwm2m/wakaama-master/core\internals.h **** 
 352:g:/iot/IoT_Device_Demo/iot_link/network/lwm2m/wakaama_lwm2m/wakaama-master/core\internals.h **** // defined in json.c
 353:g:/iot/IoT_Device_Demo/iot_link/network/lwm2m/wakaama_lwm2m/wakaama-master/core\internals.h **** #ifdef LWM2M_SUPPORT_JSON
 354:g:/iot/IoT_Device_Demo/iot_link/network/lwm2m/wakaama_lwm2m/wakaama-master/core\internals.h **** int json_parse(lwm2m_uri_t * uriP, uint8_t * buffer, size_t bufferLen, lwm2m_data_t ** dataP);
 355:g:/iot/IoT_Device_Demo/iot_link/network/lwm2m/wakaama_lwm2m/wakaama-master/core\internals.h **** int json_serialize(lwm2m_uri_t * uriP, int size, lwm2m_data_t * tlvP, uint8_t ** bufferP);
 356:g:/iot/IoT_Device_Demo/iot_link/network/lwm2m/wakaama_lwm2m/wakaama-master/core\internals.h **** #endif
 357:g:/iot/IoT_Device_Demo/iot_link/network/lwm2m/wakaama_lwm2m/wakaama-master/core\internals.h **** 
 358:g:/iot/IoT_Device_Demo/iot_link/network/lwm2m/wakaama_lwm2m/wakaama-master/core\internals.h **** // defined in discover.c
 359:g:/iot/IoT_Device_Demo/iot_link/network/lwm2m/wakaama_lwm2m/wakaama-master/core\internals.h **** int discover_serialize(lwm2m_context_t * contextP, lwm2m_uri_t * uriP, lwm2m_server_t * serverP, in
 360:g:/iot/IoT_Device_Demo/iot_link/network/lwm2m/wakaama_lwm2m/wakaama-master/core\internals.h **** 
 361:g:/iot/IoT_Device_Demo/iot_link/network/lwm2m/wakaama_lwm2m/wakaama-master/core\internals.h **** // defined in block1.c
 362:g:/iot/IoT_Device_Demo/iot_link/network/lwm2m/wakaama_lwm2m/wakaama-master/core\internals.h **** uint8_t coap_block1_handler(lwm2m_block1_data_t ** block1Data, uint16_t mid, uint8_t * buffer, size
 363:g:/iot/IoT_Device_Demo/iot_link/network/lwm2m/wakaama_lwm2m/wakaama-master/core\internals.h **** void free_block1_buffer(lwm2m_block1_data_t * block1Data);
 364:g:/iot/IoT_Device_Demo/iot_link/network/lwm2m/wakaama_lwm2m/wakaama-master/core\internals.h **** 
 365:g:/iot/IoT_Device_Demo/iot_link/network/lwm2m/wakaama_lwm2m/wakaama-master/core\internals.h **** // defined in utils.c
 366:g:/iot/IoT_Device_Demo/iot_link/network/lwm2m/wakaama_lwm2m/wakaama-master/core\internals.h **** lwm2m_data_type_t utils_depthToDatatype(uri_depth_t depth);
 367:g:/iot/IoT_Device_Demo/iot_link/network/lwm2m/wakaama_lwm2m/wakaama-master/core\internals.h **** lwm2m_binding_t utils_stringToBinding(uint8_t *buffer, size_t length);
 368:g:/iot/IoT_Device_Demo/iot_link/network/lwm2m/wakaama_lwm2m/wakaama-master/core\internals.h **** lwm2m_media_type_t utils_convertMediaType(coap_content_type_t type);
 369:g:/iot/IoT_Device_Demo/iot_link/network/lwm2m/wakaama_lwm2m/wakaama-master/core\internals.h **** int utils_isAltPathValid(const char * altPath);
 370:g:/iot/IoT_Device_Demo/iot_link/network/lwm2m/wakaama_lwm2m/wakaama-master/core\internals.h **** int utils_stringCopy(char * buffer, size_t length, const char * str);
 371:g:/iot/IoT_Device_Demo/iot_link/network/lwm2m/wakaama_lwm2m/wakaama-master/core\internals.h **** size_t utils_intToText(int64_t data, uint8_t * string, size_t length);
 372:g:/iot/IoT_Device_Demo/iot_link/network/lwm2m/wakaama_lwm2m/wakaama-master/core\internals.h **** size_t utils_floatToText(double data, uint8_t * string, size_t length);
 373:g:/iot/IoT_Device_Demo/iot_link/network/lwm2m/wakaama_lwm2m/wakaama-master/core\internals.h **** int utils_textToInt(uint8_t * buffer, int length, int64_t * dataP);
ARM GAS  C:\Users\ADMINI~1\AppData\Local\Temp\ccrLD8ST.s 			page 8


 374:g:/iot/IoT_Device_Demo/iot_link/network/lwm2m/wakaama_lwm2m/wakaama-master/core\internals.h **** int utils_textToFloat(uint8_t * buffer, int length, double * dataP);
 375:g:/iot/IoT_Device_Demo/iot_link/network/lwm2m/wakaama_lwm2m/wakaama-master/core\internals.h **** void utils_copyValue(void * dst, const void * src, size_t len);
 376:g:/iot/IoT_Device_Demo/iot_link/network/lwm2m/wakaama_lwm2m/wakaama-master/core\internals.h **** size_t utils_base64GetSize(size_t dataLen);
 377:g:/iot/IoT_Device_Demo/iot_link/network/lwm2m/wakaama_lwm2m/wakaama-master/core\internals.h **** size_t utils_base64Encode(uint8_t * dataP, size_t dataLen, uint8_t * bufferP, size_t bufferLen);
 378:g:/iot/IoT_Device_Demo/iot_link/network/lwm2m/wakaama_lwm2m/wakaama-master/core\internals.h **** #ifdef LWM2M_CLIENT_MODE
 379:g:/iot/IoT_Device_Demo/iot_link/network/lwm2m/wakaama_lwm2m/wakaama-master/core\internals.h **** lwm2m_server_t * utils_findServer(lwm2m_context_t * contextP, void * fromSessionH);
 380:g:/iot/IoT_Device_Demo/iot_link/network/lwm2m/wakaama_lwm2m/wakaama-master/core\internals.h **** lwm2m_server_t * utils_findBootstrapServer(lwm2m_context_t * contextP, void * fromSessionH);
 381:g:/iot/IoT_Device_Demo/iot_link/network/lwm2m/wakaama_lwm2m/wakaama-master/core\internals.h **** #endif
 382:g:/iot/IoT_Device_Demo/iot_link/network/lwm2m/wakaama_lwm2m/wakaama-master/core\internals.h **** static inline int dm_isUriOpaqueHandle(const lwm2m_uri_t * uriP)
 383:g:/iot/IoT_Device_Demo/iot_link/network/lwm2m/wakaama_lwm2m/wakaama-master/core\internals.h **** {
  28              		.loc 1 383 1
  29              		.cfi_startproc
  30              		@ args = 0, pretend = 0, frame = 8
  31              		@ frame_needed = 1, uses_anonymous_args = 0
  32              		@ link register save eliminated.
  33 0000 80B4     		push	{r7}
  34              	.LCFI0:
  35              		.cfi_def_cfa_offset 4
  36              		.cfi_offset 7, -4
  37 0002 83B0     		sub	sp, sp, #12
  38              	.LCFI1:
  39              		.cfi_def_cfa_offset 16
  40 0004 00AF     		add	r7, sp, #0
  41              	.LCFI2:
  42              		.cfi_def_cfa_register 7
  43 0006 7860     		str	r0, [r7, #4]
 384:g:/iot/IoT_Device_Demo/iot_link/network/lwm2m/wakaama_lwm2m/wakaama-master/core\internals.h ****     return (19 == uriP->objectId);
  44              		.loc 1 384 23
  45 0008 7B68     		ldr	r3, [r7, #4]
  46 000a 5B88     		ldrh	r3, [r3, #2]
  47              		.loc 1 384 16
  48 000c 132B     		cmp	r3, #19
  49 000e 0CBF     		ite	eq
  50 0010 0123     		moveq	r3, #1
  51 0012 0023     		movne	r3, #0
  52 0014 DBB2     		uxtb	r3, r3
 385:g:/iot/IoT_Device_Demo/iot_link/network/lwm2m/wakaama_lwm2m/wakaama-master/core\internals.h **** }
  53              		.loc 1 385 1
  54 0016 1846     		mov	r0, r3
  55 0018 0C37     		adds	r7, r7, #12
  56              	.LCFI3:
  57              		.cfi_def_cfa_offset 4
  58 001a BD46     		mov	sp, r7
  59              	.LCFI4:
  60              		.cfi_def_cfa_register 13
  61              		@ sp needed
  62 001c 5DF8047B 		ldr	r7, [sp], #4
  63              	.LCFI5:
  64              		.cfi_restore 7
  65              		.cfi_def_cfa_offset 0
  66 0020 7047     		bx	lr
  67              		.cfi_endproc
  68              	.LFE3:
  70              		.section	.rodata
  71              		.align	2
  72              	.LC0:
  73 0000 706D696E 		.ascii	"pmin=\000"
ARM GAS  C:\Users\ADMINI~1\AppData\Local\Temp\ccrLD8ST.s 			page 9


  73      3D00
  74 0006 0000     		.align	2
  75              	.LC1:
  76 0008 706D6178 		.ascii	"pmax=\000"
  76      3D00
  77 000e 0000     		.align	2
  78              	.LC2:
  79 0010 67743D00 		.ascii	"gt=\000"
  80              		.align	2
  81              	.LC3:
  82 0014 6C743D00 		.ascii	"lt=\000"
  83              		.align	2
  84              	.LC4:
  85 0018 73743D00 		.ascii	"st=\000"
  86              		.global	__aeabi_dcmplt
  87              		.section	.text.prv_readAttributes,"ax",%progbits
  88              		.align	1
  89              		.syntax unified
  90              		.thumb
  91              		.thumb_func
  92              		.fpu fpv4-sp-d16
  94              	prv_readAttributes:
  95              	.LFB12:
  96              		.file 2 "g:/iot/IoT_Device_Demo/iot_link/network/lwm2m/wakaama_lwm2m/wakaama-master/core/managemen
   1:g:/iot/IoT_Device_Demo/iot_link/network/lwm2m/wakaama_lwm2m/wakaama-master/core\management.c **** /*----------------------------------------------------------------------------
   2:g:/iot/IoT_Device_Demo/iot_link/network/lwm2m/wakaama_lwm2m/wakaama-master/core\management.c ****  * Copyright (c) <2016-2018>, <Huawei Technologies Co., Ltd>
   3:g:/iot/IoT_Device_Demo/iot_link/network/lwm2m/wakaama_lwm2m/wakaama-master/core\management.c ****  * All rights reserved.
   4:g:/iot/IoT_Device_Demo/iot_link/network/lwm2m/wakaama_lwm2m/wakaama-master/core\management.c ****  * Redistribution and use in source and binary forms, with or without modification,
   5:g:/iot/IoT_Device_Demo/iot_link/network/lwm2m/wakaama_lwm2m/wakaama-master/core\management.c ****  * are permitted provided that the following conditions are met:
   6:g:/iot/IoT_Device_Demo/iot_link/network/lwm2m/wakaama_lwm2m/wakaama-master/core\management.c ****  * 1. Redistributions of source code must retain the above copyright notice, this list of
   7:g:/iot/IoT_Device_Demo/iot_link/network/lwm2m/wakaama_lwm2m/wakaama-master/core\management.c ****  * conditions and the following disclaimer.
   8:g:/iot/IoT_Device_Demo/iot_link/network/lwm2m/wakaama_lwm2m/wakaama-master/core\management.c ****  * 2. Redistributions in binary form must reproduce the above copyright notice, this list
   9:g:/iot/IoT_Device_Demo/iot_link/network/lwm2m/wakaama_lwm2m/wakaama-master/core\management.c ****  * of conditions and the following disclaimer in the documentation and/or other materials
  10:g:/iot/IoT_Device_Demo/iot_link/network/lwm2m/wakaama_lwm2m/wakaama-master/core\management.c ****  * provided with the distribution.
  11:g:/iot/IoT_Device_Demo/iot_link/network/lwm2m/wakaama_lwm2m/wakaama-master/core\management.c ****  * 3. Neither the name of the copyright holder nor the names of its contributors may be used
  12:g:/iot/IoT_Device_Demo/iot_link/network/lwm2m/wakaama_lwm2m/wakaama-master/core\management.c ****  * to endorse or promote products derived from this software without specific prior written
  13:g:/iot/IoT_Device_Demo/iot_link/network/lwm2m/wakaama_lwm2m/wakaama-master/core\management.c ****  * permission.
  14:g:/iot/IoT_Device_Demo/iot_link/network/lwm2m/wakaama_lwm2m/wakaama-master/core\management.c ****  * THIS SOFTWARE IS PROVIDED BY THE COPYRIGHT HOLDERS AND CONTRIBUTORS
  15:g:/iot/IoT_Device_Demo/iot_link/network/lwm2m/wakaama_lwm2m/wakaama-master/core\management.c ****  * "AS IS" AND ANY EXPRESS OR IMPLIED WARRANTIES, INCLUDING, BUT NOT LIMITED TO,
  16:g:/iot/IoT_Device_Demo/iot_link/network/lwm2m/wakaama_lwm2m/wakaama-master/core\management.c ****  * THE IMPLIED WARRANTIES OF MERCHANTABILITY AND FITNESS FOR A PARTICULAR
  17:g:/iot/IoT_Device_Demo/iot_link/network/lwm2m/wakaama_lwm2m/wakaama-master/core\management.c ****  * PURPOSE ARE DISCLAIMED. IN NO EVENT SHALL THE COPYRIGHT HOLDER OR
  18:g:/iot/IoT_Device_Demo/iot_link/network/lwm2m/wakaama_lwm2m/wakaama-master/core\management.c ****  * CONTRIBUTORS BE LIABLE FOR ANY DIRECT, INDIRECT, INCIDENTAL, SPECIAL,
  19:g:/iot/IoT_Device_Demo/iot_link/network/lwm2m/wakaama_lwm2m/wakaama-master/core\management.c ****  * EXEMPLARY, OR CONSEQUENTIAL DAMAGES (INCLUDING, BUT NOT LIMITED TO,
  20:g:/iot/IoT_Device_Demo/iot_link/network/lwm2m/wakaama_lwm2m/wakaama-master/core\management.c ****  * PROCUREMENT OF SUBSTITUTE GOODS OR SERVICES; LOSS OF USE, DATA, OR PROFITS;
  21:g:/iot/IoT_Device_Demo/iot_link/network/lwm2m/wakaama_lwm2m/wakaama-master/core\management.c ****  * OR BUSINESS INTERRUPTION) HOWEVER CAUSED AND ON ANY THEORY OF LIABILITY,
  22:g:/iot/IoT_Device_Demo/iot_link/network/lwm2m/wakaama_lwm2m/wakaama-master/core\management.c ****  * WHETHER IN CONTRACT, STRICT LIABILITY, OR TORT (INCLUDING NEGLIGENCE OR
  23:g:/iot/IoT_Device_Demo/iot_link/network/lwm2m/wakaama_lwm2m/wakaama-master/core\management.c ****  * OTHERWISE) ARISING IN ANY WAY OUT OF THE USE OF THIS SOFTWARE, EVEN IF
  24:g:/iot/IoT_Device_Demo/iot_link/network/lwm2m/wakaama_lwm2m/wakaama-master/core\management.c ****  * ADVISED OF THE POSSIBILITY OF SUCH DAMAGE.
  25:g:/iot/IoT_Device_Demo/iot_link/network/lwm2m/wakaama_lwm2m/wakaama-master/core\management.c ****  *---------------------------------------------------------------------------*/
  26:g:/iot/IoT_Device_Demo/iot_link/network/lwm2m/wakaama_lwm2m/wakaama-master/core\management.c **** /*----------------------------------------------------------------------------
  27:g:/iot/IoT_Device_Demo/iot_link/network/lwm2m/wakaama_lwm2m/wakaama-master/core\management.c ****  * Notice of Export Control Law
  28:g:/iot/IoT_Device_Demo/iot_link/network/lwm2m/wakaama_lwm2m/wakaama-master/core\management.c ****  * ===============================================
  29:g:/iot/IoT_Device_Demo/iot_link/network/lwm2m/wakaama_lwm2m/wakaama-master/core\management.c ****  * Huawei LiteOS may be subject to applicable export control laws and regulations, which might
  30:g:/iot/IoT_Device_Demo/iot_link/network/lwm2m/wakaama_lwm2m/wakaama-master/core\management.c ****  * include those applicable to Huawei LiteOS of U.S. and the country in which you are located.
  31:g:/iot/IoT_Device_Demo/iot_link/network/lwm2m/wakaama_lwm2m/wakaama-master/core\management.c ****  * Import, export and usage of Huawei LiteOS in any manner by you shall be in compliance with such
  32:g:/iot/IoT_Device_Demo/iot_link/network/lwm2m/wakaama_lwm2m/wakaama-master/core\management.c ****  * applicable export control laws and regulations.
  33:g:/iot/IoT_Device_Demo/iot_link/network/lwm2m/wakaama_lwm2m/wakaama-master/core\management.c ****  *---------------------------------------------------------------------------*/
ARM GAS  C:\Users\ADMINI~1\AppData\Local\Temp\ccrLD8ST.s 			page 10


  34:g:/iot/IoT_Device_Demo/iot_link/network/lwm2m/wakaama_lwm2m/wakaama-master/core\management.c **** 
  35:g:/iot/IoT_Device_Demo/iot_link/network/lwm2m/wakaama_lwm2m/wakaama-master/core\management.c **** /*******************************************************************************
  36:g:/iot/IoT_Device_Demo/iot_link/network/lwm2m/wakaama_lwm2m/wakaama-master/core\management.c ****  *
  37:g:/iot/IoT_Device_Demo/iot_link/network/lwm2m/wakaama_lwm2m/wakaama-master/core\management.c ****  * Copyright (c) 2013, 2014 Intel Corporation and others.
  38:g:/iot/IoT_Device_Demo/iot_link/network/lwm2m/wakaama_lwm2m/wakaama-master/core\management.c ****  * All rights reserved. This program and the accompanying materials
  39:g:/iot/IoT_Device_Demo/iot_link/network/lwm2m/wakaama_lwm2m/wakaama-master/core\management.c ****  * are made available under the terms of the Eclipse Public License v1.0
  40:g:/iot/IoT_Device_Demo/iot_link/network/lwm2m/wakaama_lwm2m/wakaama-master/core\management.c ****  * and Eclipse Distribution License v1.0 which accompany this distribution.
  41:g:/iot/IoT_Device_Demo/iot_link/network/lwm2m/wakaama_lwm2m/wakaama-master/core\management.c ****  *
  42:g:/iot/IoT_Device_Demo/iot_link/network/lwm2m/wakaama_lwm2m/wakaama-master/core\management.c ****  * The Eclipse Public License is available at
  43:g:/iot/IoT_Device_Demo/iot_link/network/lwm2m/wakaama_lwm2m/wakaama-master/core\management.c ****  *    http://www.eclipse.org/legal/epl-v10.html
  44:g:/iot/IoT_Device_Demo/iot_link/network/lwm2m/wakaama_lwm2m/wakaama-master/core\management.c ****  * The Eclipse Distribution License is available at
  45:g:/iot/IoT_Device_Demo/iot_link/network/lwm2m/wakaama_lwm2m/wakaama-master/core\management.c ****  *    http://www.eclipse.org/org/documents/edl-v10.php.
  46:g:/iot/IoT_Device_Demo/iot_link/network/lwm2m/wakaama_lwm2m/wakaama-master/core\management.c ****  *
  47:g:/iot/IoT_Device_Demo/iot_link/network/lwm2m/wakaama_lwm2m/wakaama-master/core\management.c ****  * Contributors:
  48:g:/iot/IoT_Device_Demo/iot_link/network/lwm2m/wakaama_lwm2m/wakaama-master/core\management.c ****  *    David Navarro, Intel Corporation - initial API and implementation
  49:g:/iot/IoT_Device_Demo/iot_link/network/lwm2m/wakaama_lwm2m/wakaama-master/core\management.c ****  *    domedambrosio - Please refer to git log
  50:g:/iot/IoT_Device_Demo/iot_link/network/lwm2m/wakaama_lwm2m/wakaama-master/core\management.c ****  *    Toby Jaffey - Please refer to git log
  51:g:/iot/IoT_Device_Demo/iot_link/network/lwm2m/wakaama_lwm2m/wakaama-master/core\management.c ****  *    Bosch Software Innovations GmbH - Please refer to git log
  52:g:/iot/IoT_Device_Demo/iot_link/network/lwm2m/wakaama_lwm2m/wakaama-master/core\management.c ****  *    Pascal Rieux - Please refer to git log
  53:g:/iot/IoT_Device_Demo/iot_link/network/lwm2m/wakaama_lwm2m/wakaama-master/core\management.c ****  *
  54:g:/iot/IoT_Device_Demo/iot_link/network/lwm2m/wakaama_lwm2m/wakaama-master/core\management.c ****  *******************************************************************************/
  55:g:/iot/IoT_Device_Demo/iot_link/network/lwm2m/wakaama_lwm2m/wakaama-master/core\management.c **** /*
  56:g:/iot/IoT_Device_Demo/iot_link/network/lwm2m/wakaama_lwm2m/wakaama-master/core\management.c ****  Copyright (c) 2013, 2014 Intel Corporation
  57:g:/iot/IoT_Device_Demo/iot_link/network/lwm2m/wakaama_lwm2m/wakaama-master/core\management.c **** 
  58:g:/iot/IoT_Device_Demo/iot_link/network/lwm2m/wakaama_lwm2m/wakaama-master/core\management.c ****  Redistribution and use in source and binary forms, with or without modification,
  59:g:/iot/IoT_Device_Demo/iot_link/network/lwm2m/wakaama_lwm2m/wakaama-master/core\management.c ****  are permitted provided that the following conditions are met:
  60:g:/iot/IoT_Device_Demo/iot_link/network/lwm2m/wakaama_lwm2m/wakaama-master/core\management.c **** 
  61:g:/iot/IoT_Device_Demo/iot_link/network/lwm2m/wakaama_lwm2m/wakaama-master/core\management.c ****      * Redistributions of source code must retain the above copyright notice,
  62:g:/iot/IoT_Device_Demo/iot_link/network/lwm2m/wakaama_lwm2m/wakaama-master/core\management.c ****        this list of conditions and the following disclaimer.
  63:g:/iot/IoT_Device_Demo/iot_link/network/lwm2m/wakaama_lwm2m/wakaama-master/core\management.c ****      * Redistributions in binary form must reproduce the above copyright notice,
  64:g:/iot/IoT_Device_Demo/iot_link/network/lwm2m/wakaama_lwm2m/wakaama-master/core\management.c ****        this list of conditions and the following disclaimer in the documentation
  65:g:/iot/IoT_Device_Demo/iot_link/network/lwm2m/wakaama_lwm2m/wakaama-master/core\management.c ****        and/or other materials provided with the distribution.
  66:g:/iot/IoT_Device_Demo/iot_link/network/lwm2m/wakaama_lwm2m/wakaama-master/core\management.c ****      * Neither the name of Intel Corporation nor the names of its contributors
  67:g:/iot/IoT_Device_Demo/iot_link/network/lwm2m/wakaama_lwm2m/wakaama-master/core\management.c ****        may be used to endorse or promote products derived from this software
  68:g:/iot/IoT_Device_Demo/iot_link/network/lwm2m/wakaama_lwm2m/wakaama-master/core\management.c ****        without specific prior written permission.
  69:g:/iot/IoT_Device_Demo/iot_link/network/lwm2m/wakaama_lwm2m/wakaama-master/core\management.c **** 
  70:g:/iot/IoT_Device_Demo/iot_link/network/lwm2m/wakaama_lwm2m/wakaama-master/core\management.c ****  THIS SOFTWARE IS PROVIDED BY THE COPYRIGHT HOLDERS AND CONTRIBUTORS "AS IS" AND
  71:g:/iot/IoT_Device_Demo/iot_link/network/lwm2m/wakaama_lwm2m/wakaama-master/core\management.c ****  ANY EXPRESS OR IMPLIED WARRANTIES, INCLUDING, BUT NOT LIMITED TO, THE IMPLIED
  72:g:/iot/IoT_Device_Demo/iot_link/network/lwm2m/wakaama_lwm2m/wakaama-master/core\management.c ****  WARRANTIES OF MERCHANTABILITY AND FITNESS FOR A PARTICULAR PURPOSE ARE DISCLAIMED.
  73:g:/iot/IoT_Device_Demo/iot_link/network/lwm2m/wakaama_lwm2m/wakaama-master/core\management.c ****  IN NO EVENT SHALL THE COPYRIGHT OWNER OR CONTRIBUTORS BE LIABLE FOR ANY DIRECT,
  74:g:/iot/IoT_Device_Demo/iot_link/network/lwm2m/wakaama_lwm2m/wakaama-master/core\management.c ****  INDIRECT, INCIDENTAL, SPECIAL, EXEMPLARY, OR CONSEQUENTIAL DAMAGES (INCLUDING,
  75:g:/iot/IoT_Device_Demo/iot_link/network/lwm2m/wakaama_lwm2m/wakaama-master/core\management.c ****  BUT NOT LIMITED TO, PROCUREMENT OF SUBSTITUTE GOODS OR SERVICES; LOSS OF USE,
  76:g:/iot/IoT_Device_Demo/iot_link/network/lwm2m/wakaama_lwm2m/wakaama-master/core\management.c ****  DATA, OR PROFITS; OR BUSINESS INTERRUPTION) HOWEVER CAUSED AND ON ANY THEORY OF
  77:g:/iot/IoT_Device_Demo/iot_link/network/lwm2m/wakaama_lwm2m/wakaama-master/core\management.c ****  LIABILITY, WHETHER IN CONTRACT, STRICT LIABILITY, OR TORT (INCLUDING NEGLIGENCE OR
  78:g:/iot/IoT_Device_Demo/iot_link/network/lwm2m/wakaama_lwm2m/wakaama-master/core\management.c ****  OTHERWISE) ARISING IN ANY WAY OUT OF THE USE OF THIS SOFTWARE, EVEN IF ADVISED OF
  79:g:/iot/IoT_Device_Demo/iot_link/network/lwm2m/wakaama_lwm2m/wakaama-master/core\management.c ****  THE POSSIBILITY OF SUCH DAMAGE.
  80:g:/iot/IoT_Device_Demo/iot_link/network/lwm2m/wakaama_lwm2m/wakaama-master/core\management.c **** 
  81:g:/iot/IoT_Device_Demo/iot_link/network/lwm2m/wakaama_lwm2m/wakaama-master/core\management.c ****  David Navarro <david.navarro@intel.com>
  82:g:/iot/IoT_Device_Demo/iot_link/network/lwm2m/wakaama_lwm2m/wakaama-master/core\management.c **** 
  83:g:/iot/IoT_Device_Demo/iot_link/network/lwm2m/wakaama_lwm2m/wakaama-master/core\management.c **** */
  84:g:/iot/IoT_Device_Demo/iot_link/network/lwm2m/wakaama_lwm2m/wakaama-master/core\management.c **** 
  85:g:/iot/IoT_Device_Demo/iot_link/network/lwm2m/wakaama_lwm2m/wakaama-master/core\management.c **** #include "internals.h"
  86:g:/iot/IoT_Device_Demo/iot_link/network/lwm2m/wakaama_lwm2m/wakaama-master/core\management.c **** #include "object_comm.h"
  87:g:/iot/IoT_Device_Demo/iot_link/network/lwm2m/wakaama_lwm2m/wakaama-master/core\management.c **** #include <stdio.h>
  88:g:/iot/IoT_Device_Demo/iot_link/network/lwm2m/wakaama_lwm2m/wakaama-master/core\management.c **** 
  89:g:/iot/IoT_Device_Demo/iot_link/network/lwm2m/wakaama_lwm2m/wakaama-master/core\management.c **** 
  90:g:/iot/IoT_Device_Demo/iot_link/network/lwm2m/wakaama_lwm2m/wakaama-master/core\management.c **** #ifdef LWM2M_CLIENT_MODE
ARM GAS  C:\Users\ADMINI~1\AppData\Local\Temp\ccrLD8ST.s 			page 11


  91:g:/iot/IoT_Device_Demo/iot_link/network/lwm2m/wakaama_lwm2m/wakaama-master/core\management.c **** static int prv_readAttributes(multi_option_t *query,
  92:g:/iot/IoT_Device_Demo/iot_link/network/lwm2m/wakaama_lwm2m/wakaama-master/core\management.c ****                               lwm2m_attributes_t *attrP)
  93:g:/iot/IoT_Device_Demo/iot_link/network/lwm2m/wakaama_lwm2m/wakaama-master/core\management.c **** {
  97              		.loc 2 93 1
  98              		.cfi_startproc
  99              		@ args = 0, pretend = 0, frame = 24
 100              		@ frame_needed = 1, uses_anonymous_args = 0
 101 0000 80B5     		push	{r7, lr}
 102              	.LCFI6:
 103              		.cfi_def_cfa_offset 8
 104              		.cfi_offset 7, -8
 105              		.cfi_offset 14, -4
 106 0002 86B0     		sub	sp, sp, #24
 107              	.LCFI7:
 108              		.cfi_def_cfa_offset 32
 109 0004 00AF     		add	r7, sp, #0
 110              	.LCFI8:
 111              		.cfi_def_cfa_register 7
 112 0006 7860     		str	r0, [r7, #4]
 113 0008 3960     		str	r1, [r7]
  94:g:/iot/IoT_Device_Demo/iot_link/network/lwm2m/wakaama_lwm2m/wakaama-master/core\management.c ****     int64_t intValue;
  95:g:/iot/IoT_Device_Demo/iot_link/network/lwm2m/wakaama_lwm2m/wakaama-master/core\management.c ****     double floatValue;
  96:g:/iot/IoT_Device_Demo/iot_link/network/lwm2m/wakaama_lwm2m/wakaama-master/core\management.c **** 
  97:g:/iot/IoT_Device_Demo/iot_link/network/lwm2m/wakaama_lwm2m/wakaama-master/core\management.c ****     memset(attrP, 0, sizeof(lwm2m_attributes_t));
 114              		.loc 2 97 5
 115 000a 2822     		movs	r2, #40
 116 000c 0021     		movs	r1, #0
 117 000e 3868     		ldr	r0, [r7]
 118 0010 FFF7FEFF 		bl	memset
  98:g:/iot/IoT_Device_Demo/iot_link/network/lwm2m/wakaama_lwm2m/wakaama-master/core\management.c **** 
  99:g:/iot/IoT_Device_Demo/iot_link/network/lwm2m/wakaama_lwm2m/wakaama-master/core\management.c ****     while (query != NULL)
 119              		.loc 2 99 11
 120 0014 16E2     		b	.L4
 121              	.L46:
 100:g:/iot/IoT_Device_Demo/iot_link/network/lwm2m/wakaama_lwm2m/wakaama-master/core\management.c ****     {
 101:g:/iot/IoT_Device_Demo/iot_link/network/lwm2m/wakaama_lwm2m/wakaama-master/core\management.c ****         if (lwm2m_strncmp((char *)query->data, ATTR_MIN_PERIOD_STR, ATTR_MIN_PERIOD_LEN) == 0)
 122              		.loc 2 101 40
 123 0016 7B68     		ldr	r3, [r7, #4]
 124 0018 9B68     		ldr	r3, [r3, #8]
 125              		.loc 2 101 13
 126 001a 0522     		movs	r2, #5
 127 001c A849     		ldr	r1, .L50
 128 001e 1846     		mov	r0, r3
 129 0020 FFF7FEFF 		bl	lwm2m_strncmp
 130 0024 0346     		mov	r3, r0
 131              		.loc 2 101 12
 132 0026 002B     		cmp	r3, #0
 133 0028 39D1     		bne	.L5
 102:g:/iot/IoT_Device_Demo/iot_link/network/lwm2m/wakaama_lwm2m/wakaama-master/core\management.c ****         {
 103:g:/iot/IoT_Device_Demo/iot_link/network/lwm2m/wakaama_lwm2m/wakaama-master/core\management.c ****             if (0 != ((attrP->toSet | attrP->toClear) & LWM2M_ATTR_FLAG_MIN_PERIOD)) return -1;
 134              		.loc 2 103 29
 135 002a 3B68     		ldr	r3, [r7]
 136 002c 1A78     		ldrb	r2, [r3]	@ zero_extendqisi2
 137              		.loc 2 103 44
 138 002e 3B68     		ldr	r3, [r7]
 139 0030 5B78     		ldrb	r3, [r3, #1]	@ zero_extendqisi2
 140              		.loc 2 103 55
ARM GAS  C:\Users\ADMINI~1\AppData\Local\Temp\ccrLD8ST.s 			page 12


 141 0032 1343     		orrs	r3, r3, r2
 142 0034 DBB2     		uxtb	r3, r3
 143 0036 03F00103 		and	r3, r3, #1
 144              		.loc 2 103 16
 145 003a 002B     		cmp	r3, #0
 146 003c 02D0     		beq	.L6
 147              		.loc 2 103 93 discriminator 1
 148 003e 4FF0FF33 		mov	r3, #-1
 149 0042 04E2     		b	.L47
 150              	.L6:
 104:g:/iot/IoT_Device_Demo/iot_link/network/lwm2m/wakaama_lwm2m/wakaama-master/core\management.c ****             if (query->len == ATTR_MIN_PERIOD_LEN) return -1;
 151              		.loc 2 104 22
 152 0044 7B68     		ldr	r3, [r7, #4]
 153 0046 5B79     		ldrb	r3, [r3, #5]	@ zero_extendqisi2
 154              		.loc 2 104 16
 155 0048 052B     		cmp	r3, #5
 156 004a 02D1     		bne	.L8
 157              		.loc 2 104 59 discriminator 1
 158 004c 4FF0FF33 		mov	r3, #-1
 159 0050 FDE1     		b	.L47
 160              	.L8:
 105:g:/iot/IoT_Device_Demo/iot_link/network/lwm2m/wakaama_lwm2m/wakaama-master/core\management.c **** 
 106:g:/iot/IoT_Device_Demo/iot_link/network/lwm2m/wakaama_lwm2m/wakaama-master/core\management.c ****             if (1 != utils_textToInt(query->data + ATTR_MIN_PERIOD_LEN, query->len - ATTR_MIN_PERIO
 161              		.loc 2 106 43
 162 0052 7B68     		ldr	r3, [r7, #4]
 163 0054 9B68     		ldr	r3, [r3, #8]
 164              		.loc 2 106 22
 165 0056 581D     		adds	r0, r3, #5
 166              		.loc 2 106 78
 167 0058 7B68     		ldr	r3, [r7, #4]
 168 005a 5B79     		ldrb	r3, [r3, #5]	@ zero_extendqisi2
 169              		.loc 2 106 22
 170 005c 053B     		subs	r3, r3, #5
 171 005e 07F11002 		add	r2, r7, #16
 172 0062 1946     		mov	r1, r3
 173 0064 FFF7FEFF 		bl	utils_textToInt
 174 0068 0346     		mov	r3, r0
 175              		.loc 2 106 16
 176 006a 012B     		cmp	r3, #1
 177 006c 02D0     		beq	.L9
 178              		.loc 2 106 126 discriminator 1
 179 006e 4FF0FF33 		mov	r3, #-1
 180 0072 ECE1     		b	.L47
 181              	.L9:
 107:g:/iot/IoT_Device_Demo/iot_link/network/lwm2m/wakaama_lwm2m/wakaama-master/core\management.c ****             if (intValue < 0) return -1;
 182              		.loc 2 107 26
 183 0074 D7E90423 		ldrd	r2, [r7, #16]
 184              		.loc 2 107 16
 185 0078 002A     		cmp	r2, #0
 186 007a 73F10003 		sbcs	r3, r3, #0
 187 007e 02DA     		bge	.L10
 188              		.loc 2 107 38 discriminator 1
 189 0080 4FF0FF33 		mov	r3, #-1
 190 0084 E3E1     		b	.L47
 191              	.L10:
 108:g:/iot/IoT_Device_Demo/iot_link/network/lwm2m/wakaama_lwm2m/wakaama-master/core\management.c **** 
 109:g:/iot/IoT_Device_Demo/iot_link/network/lwm2m/wakaama_lwm2m/wakaama-master/core\management.c ****             attrP->toSet |= LWM2M_ATTR_FLAG_MIN_PERIOD;
ARM GAS  C:\Users\ADMINI~1\AppData\Local\Temp\ccrLD8ST.s 			page 13


 192              		.loc 2 109 26
 193 0086 3B68     		ldr	r3, [r7]
 194 0088 1B78     		ldrb	r3, [r3]	@ zero_extendqisi2
 195 008a 43F00103 		orr	r3, r3, #1
 196 008e DAB2     		uxtb	r2, r3
 197 0090 3B68     		ldr	r3, [r7]
 198 0092 1A70     		strb	r2, [r3]
 110:g:/iot/IoT_Device_Demo/iot_link/network/lwm2m/wakaama_lwm2m/wakaama-master/core\management.c ****             attrP->minPeriod = intValue;
 199              		.loc 2 110 30
 200 0094 D7E90423 		ldrd	r2, [r7, #16]
 201 0098 3B68     		ldr	r3, [r7]
 202 009a 5A60     		str	r2, [r3, #4]
 203 009c CFE1     		b	.L11
 204              	.L5:
 111:g:/iot/IoT_Device_Demo/iot_link/network/lwm2m/wakaama_lwm2m/wakaama-master/core\management.c ****         }
 112:g:/iot/IoT_Device_Demo/iot_link/network/lwm2m/wakaama_lwm2m/wakaama-master/core\management.c ****         else if (lwm2m_strncmp((char *)query->data, ATTR_MIN_PERIOD_STR, ATTR_MIN_PERIOD_LEN - 1) =
 205              		.loc 2 112 45
 206 009e 7B68     		ldr	r3, [r7, #4]
 207 00a0 9B68     		ldr	r3, [r3, #8]
 208              		.loc 2 112 18
 209 00a2 0422     		movs	r2, #4
 210 00a4 8649     		ldr	r1, .L50
 211 00a6 1846     		mov	r0, r3
 212 00a8 FFF7FEFF 		bl	lwm2m_strncmp
 213 00ac 0346     		mov	r3, r0
 214              		.loc 2 112 17
 215 00ae 002B     		cmp	r3, #0
 216 00b0 1BD1     		bne	.L12
 113:g:/iot/IoT_Device_Demo/iot_link/network/lwm2m/wakaama_lwm2m/wakaama-master/core\management.c ****         {
 114:g:/iot/IoT_Device_Demo/iot_link/network/lwm2m/wakaama_lwm2m/wakaama-master/core\management.c ****             if (0 != ((attrP->toSet | attrP->toClear) & LWM2M_ATTR_FLAG_MIN_PERIOD)) return -1;
 217              		.loc 2 114 29
 218 00b2 3B68     		ldr	r3, [r7]
 219 00b4 1A78     		ldrb	r2, [r3]	@ zero_extendqisi2
 220              		.loc 2 114 44
 221 00b6 3B68     		ldr	r3, [r7]
 222 00b8 5B78     		ldrb	r3, [r3, #1]	@ zero_extendqisi2
 223              		.loc 2 114 55
 224 00ba 1343     		orrs	r3, r3, r2
 225 00bc DBB2     		uxtb	r3, r3
 226 00be 03F00103 		and	r3, r3, #1
 227              		.loc 2 114 16
 228 00c2 002B     		cmp	r3, #0
 229 00c4 02D0     		beq	.L13
 230              		.loc 2 114 93 discriminator 1
 231 00c6 4FF0FF33 		mov	r3, #-1
 232 00ca C0E1     		b	.L47
 233              	.L13:
 115:g:/iot/IoT_Device_Demo/iot_link/network/lwm2m/wakaama_lwm2m/wakaama-master/core\management.c ****             if (query->len != ATTR_MIN_PERIOD_LEN - 1) return -1;
 234              		.loc 2 115 22
 235 00cc 7B68     		ldr	r3, [r7, #4]
 236 00ce 5B79     		ldrb	r3, [r3, #5]	@ zero_extendqisi2
 237              		.loc 2 115 16
 238 00d0 042B     		cmp	r3, #4
 239 00d2 02D0     		beq	.L14
 240              		.loc 2 115 63 discriminator 1
 241 00d4 4FF0FF33 		mov	r3, #-1
 242 00d8 B9E1     		b	.L47
ARM GAS  C:\Users\ADMINI~1\AppData\Local\Temp\ccrLD8ST.s 			page 14


 243              	.L14:
 116:g:/iot/IoT_Device_Demo/iot_link/network/lwm2m/wakaama_lwm2m/wakaama-master/core\management.c **** 
 117:g:/iot/IoT_Device_Demo/iot_link/network/lwm2m/wakaama_lwm2m/wakaama-master/core\management.c ****             attrP->toClear |= LWM2M_ATTR_FLAG_MIN_PERIOD;
 244              		.loc 2 117 28
 245 00da 3B68     		ldr	r3, [r7]
 246 00dc 5B78     		ldrb	r3, [r3, #1]	@ zero_extendqisi2
 247 00de 43F00103 		orr	r3, r3, #1
 248 00e2 DAB2     		uxtb	r2, r3
 249 00e4 3B68     		ldr	r3, [r7]
 250 00e6 5A70     		strb	r2, [r3, #1]
 251 00e8 A9E1     		b	.L11
 252              	.L12:
 118:g:/iot/IoT_Device_Demo/iot_link/network/lwm2m/wakaama_lwm2m/wakaama-master/core\management.c ****         }
 119:g:/iot/IoT_Device_Demo/iot_link/network/lwm2m/wakaama_lwm2m/wakaama-master/core\management.c ****         else if (lwm2m_strncmp((char *)query->data, ATTR_MAX_PERIOD_STR, ATTR_MAX_PERIOD_LEN) == 0)
 253              		.loc 2 119 45
 254 00ea 7B68     		ldr	r3, [r7, #4]
 255 00ec 9B68     		ldr	r3, [r3, #8]
 256              		.loc 2 119 18
 257 00ee 0522     		movs	r2, #5
 258 00f0 7449     		ldr	r1, .L50+4
 259 00f2 1846     		mov	r0, r3
 260 00f4 FFF7FEFF 		bl	lwm2m_strncmp
 261 00f8 0346     		mov	r3, r0
 262              		.loc 2 119 17
 263 00fa 002B     		cmp	r3, #0
 264 00fc 39D1     		bne	.L15
 120:g:/iot/IoT_Device_Demo/iot_link/network/lwm2m/wakaama_lwm2m/wakaama-master/core\management.c ****         {
 121:g:/iot/IoT_Device_Demo/iot_link/network/lwm2m/wakaama_lwm2m/wakaama-master/core\management.c ****             if (0 != ((attrP->toSet | attrP->toClear) & LWM2M_ATTR_FLAG_MAX_PERIOD)) return -1;
 265              		.loc 2 121 29
 266 00fe 3B68     		ldr	r3, [r7]
 267 0100 1A78     		ldrb	r2, [r3]	@ zero_extendqisi2
 268              		.loc 2 121 44
 269 0102 3B68     		ldr	r3, [r7]
 270 0104 5B78     		ldrb	r3, [r3, #1]	@ zero_extendqisi2
 271              		.loc 2 121 55
 272 0106 1343     		orrs	r3, r3, r2
 273 0108 DBB2     		uxtb	r3, r3
 274 010a 03F00203 		and	r3, r3, #2
 275              		.loc 2 121 16
 276 010e 002B     		cmp	r3, #0
 277 0110 02D0     		beq	.L16
 278              		.loc 2 121 93 discriminator 1
 279 0112 4FF0FF33 		mov	r3, #-1
 280 0116 9AE1     		b	.L47
 281              	.L16:
 122:g:/iot/IoT_Device_Demo/iot_link/network/lwm2m/wakaama_lwm2m/wakaama-master/core\management.c ****             if (query->len == ATTR_MAX_PERIOD_LEN) return -1;
 282              		.loc 2 122 22
 283 0118 7B68     		ldr	r3, [r7, #4]
 284 011a 5B79     		ldrb	r3, [r3, #5]	@ zero_extendqisi2
 285              		.loc 2 122 16
 286 011c 052B     		cmp	r3, #5
 287 011e 02D1     		bne	.L17
 288              		.loc 2 122 59 discriminator 1
 289 0120 4FF0FF33 		mov	r3, #-1
 290 0124 93E1     		b	.L47
 291              	.L17:
 123:g:/iot/IoT_Device_Demo/iot_link/network/lwm2m/wakaama_lwm2m/wakaama-master/core\management.c **** 
ARM GAS  C:\Users\ADMINI~1\AppData\Local\Temp\ccrLD8ST.s 			page 15


 124:g:/iot/IoT_Device_Demo/iot_link/network/lwm2m/wakaama_lwm2m/wakaama-master/core\management.c ****             if (1 != utils_textToInt(query->data + ATTR_MAX_PERIOD_LEN, query->len - ATTR_MAX_PERIO
 292              		.loc 2 124 43
 293 0126 7B68     		ldr	r3, [r7, #4]
 294 0128 9B68     		ldr	r3, [r3, #8]
 295              		.loc 2 124 22
 296 012a 581D     		adds	r0, r3, #5
 297              		.loc 2 124 78
 298 012c 7B68     		ldr	r3, [r7, #4]
 299 012e 5B79     		ldrb	r3, [r3, #5]	@ zero_extendqisi2
 300              		.loc 2 124 22
 301 0130 053B     		subs	r3, r3, #5
 302 0132 07F11002 		add	r2, r7, #16
 303 0136 1946     		mov	r1, r3
 304 0138 FFF7FEFF 		bl	utils_textToInt
 305 013c 0346     		mov	r3, r0
 306              		.loc 2 124 16
 307 013e 012B     		cmp	r3, #1
 308 0140 02D0     		beq	.L18
 309              		.loc 2 124 126 discriminator 1
 310 0142 4FF0FF33 		mov	r3, #-1
 311 0146 82E1     		b	.L47
 312              	.L18:
 125:g:/iot/IoT_Device_Demo/iot_link/network/lwm2m/wakaama_lwm2m/wakaama-master/core\management.c ****             if (intValue < 0) return -1;
 313              		.loc 2 125 26
 314 0148 D7E90423 		ldrd	r2, [r7, #16]
 315              		.loc 2 125 16
 316 014c 002A     		cmp	r2, #0
 317 014e 73F10003 		sbcs	r3, r3, #0
 318 0152 02DA     		bge	.L19
 319              		.loc 2 125 38 discriminator 1
 320 0154 4FF0FF33 		mov	r3, #-1
 321 0158 79E1     		b	.L47
 322              	.L19:
 126:g:/iot/IoT_Device_Demo/iot_link/network/lwm2m/wakaama_lwm2m/wakaama-master/core\management.c **** 
 127:g:/iot/IoT_Device_Demo/iot_link/network/lwm2m/wakaama_lwm2m/wakaama-master/core\management.c ****             attrP->toSet |= LWM2M_ATTR_FLAG_MAX_PERIOD;
 323              		.loc 2 127 26
 324 015a 3B68     		ldr	r3, [r7]
 325 015c 1B78     		ldrb	r3, [r3]	@ zero_extendqisi2
 326 015e 43F00203 		orr	r3, r3, #2
 327 0162 DAB2     		uxtb	r2, r3
 328 0164 3B68     		ldr	r3, [r7]
 329 0166 1A70     		strb	r2, [r3]
 128:g:/iot/IoT_Device_Demo/iot_link/network/lwm2m/wakaama_lwm2m/wakaama-master/core\management.c ****             attrP->maxPeriod = intValue;
 330              		.loc 2 128 30
 331 0168 D7E90423 		ldrd	r2, [r7, #16]
 332 016c 3B68     		ldr	r3, [r7]
 333 016e 9A60     		str	r2, [r3, #8]
 334 0170 65E1     		b	.L11
 335              	.L15:
 129:g:/iot/IoT_Device_Demo/iot_link/network/lwm2m/wakaama_lwm2m/wakaama-master/core\management.c ****         }
 130:g:/iot/IoT_Device_Demo/iot_link/network/lwm2m/wakaama_lwm2m/wakaama-master/core\management.c ****         else if (lwm2m_strncmp((char *)query->data, ATTR_MAX_PERIOD_STR, ATTR_MAX_PERIOD_LEN - 1) =
 336              		.loc 2 130 45
 337 0172 7B68     		ldr	r3, [r7, #4]
 338 0174 9B68     		ldr	r3, [r3, #8]
 339              		.loc 2 130 18
 340 0176 0422     		movs	r2, #4
 341 0178 5249     		ldr	r1, .L50+4
ARM GAS  C:\Users\ADMINI~1\AppData\Local\Temp\ccrLD8ST.s 			page 16


 342 017a 1846     		mov	r0, r3
 343 017c FFF7FEFF 		bl	lwm2m_strncmp
 344 0180 0346     		mov	r3, r0
 345              		.loc 2 130 17
 346 0182 002B     		cmp	r3, #0
 347 0184 1BD1     		bne	.L20
 131:g:/iot/IoT_Device_Demo/iot_link/network/lwm2m/wakaama_lwm2m/wakaama-master/core\management.c ****         {
 132:g:/iot/IoT_Device_Demo/iot_link/network/lwm2m/wakaama_lwm2m/wakaama-master/core\management.c ****             if (0 != ((attrP->toSet | attrP->toClear) & LWM2M_ATTR_FLAG_MAX_PERIOD)) return -1;
 348              		.loc 2 132 29
 349 0186 3B68     		ldr	r3, [r7]
 350 0188 1A78     		ldrb	r2, [r3]	@ zero_extendqisi2
 351              		.loc 2 132 44
 352 018a 3B68     		ldr	r3, [r7]
 353 018c 5B78     		ldrb	r3, [r3, #1]	@ zero_extendqisi2
 354              		.loc 2 132 55
 355 018e 1343     		orrs	r3, r3, r2
 356 0190 DBB2     		uxtb	r3, r3
 357 0192 03F00203 		and	r3, r3, #2
 358              		.loc 2 132 16
 359 0196 002B     		cmp	r3, #0
 360 0198 02D0     		beq	.L21
 361              		.loc 2 132 93 discriminator 1
 362 019a 4FF0FF33 		mov	r3, #-1
 363 019e 56E1     		b	.L47
 364              	.L21:
 133:g:/iot/IoT_Device_Demo/iot_link/network/lwm2m/wakaama_lwm2m/wakaama-master/core\management.c ****             if (query->len != ATTR_MAX_PERIOD_LEN - 1) return -1;
 365              		.loc 2 133 22
 366 01a0 7B68     		ldr	r3, [r7, #4]
 367 01a2 5B79     		ldrb	r3, [r3, #5]	@ zero_extendqisi2
 368              		.loc 2 133 16
 369 01a4 042B     		cmp	r3, #4
 370 01a6 02D0     		beq	.L22
 371              		.loc 2 133 63 discriminator 1
 372 01a8 4FF0FF33 		mov	r3, #-1
 373 01ac 4FE1     		b	.L47
 374              	.L22:
 134:g:/iot/IoT_Device_Demo/iot_link/network/lwm2m/wakaama_lwm2m/wakaama-master/core\management.c **** 
 135:g:/iot/IoT_Device_Demo/iot_link/network/lwm2m/wakaama_lwm2m/wakaama-master/core\management.c ****             attrP->toClear |= LWM2M_ATTR_FLAG_MAX_PERIOD;
 375              		.loc 2 135 28
 376 01ae 3B68     		ldr	r3, [r7]
 377 01b0 5B78     		ldrb	r3, [r3, #1]	@ zero_extendqisi2
 378 01b2 43F00203 		orr	r3, r3, #2
 379 01b6 DAB2     		uxtb	r2, r3
 380 01b8 3B68     		ldr	r3, [r7]
 381 01ba 5A70     		strb	r2, [r3, #1]
 382 01bc 3FE1     		b	.L11
 383              	.L20:
 136:g:/iot/IoT_Device_Demo/iot_link/network/lwm2m/wakaama_lwm2m/wakaama-master/core\management.c ****         }
 137:g:/iot/IoT_Device_Demo/iot_link/network/lwm2m/wakaama_lwm2m/wakaama-master/core\management.c ****         else if (lwm2m_strncmp((char *)query->data, ATTR_GREATER_THAN_STR, ATTR_GREATER_THAN_LEN) =
 384              		.loc 2 137 45
 385 01be 7B68     		ldr	r3, [r7, #4]
 386 01c0 9B68     		ldr	r3, [r3, #8]
 387              		.loc 2 137 18
 388 01c2 0322     		movs	r2, #3
 389 01c4 4049     		ldr	r1, .L50+8
 390 01c6 1846     		mov	r0, r3
 391 01c8 FFF7FEFF 		bl	lwm2m_strncmp
ARM GAS  C:\Users\ADMINI~1\AppData\Local\Temp\ccrLD8ST.s 			page 17


 392 01cc 0346     		mov	r3, r0
 393              		.loc 2 137 17
 394 01ce 002B     		cmp	r3, #0
 395 01d0 31D1     		bne	.L23
 138:g:/iot/IoT_Device_Demo/iot_link/network/lwm2m/wakaama_lwm2m/wakaama-master/core\management.c ****         {
 139:g:/iot/IoT_Device_Demo/iot_link/network/lwm2m/wakaama_lwm2m/wakaama-master/core\management.c ****             if (0 != ((attrP->toSet | attrP->toClear) & LWM2M_ATTR_FLAG_GREATER_THAN)) return -1;
 396              		.loc 2 139 29
 397 01d2 3B68     		ldr	r3, [r7]
 398 01d4 1A78     		ldrb	r2, [r3]	@ zero_extendqisi2
 399              		.loc 2 139 44
 400 01d6 3B68     		ldr	r3, [r7]
 401 01d8 5B78     		ldrb	r3, [r3, #1]	@ zero_extendqisi2
 402              		.loc 2 139 55
 403 01da 1343     		orrs	r3, r3, r2
 404 01dc DBB2     		uxtb	r3, r3
 405 01de 03F00403 		and	r3, r3, #4
 406              		.loc 2 139 16
 407 01e2 002B     		cmp	r3, #0
 408 01e4 02D0     		beq	.L24
 409              		.loc 2 139 95 discriminator 1
 410 01e6 4FF0FF33 		mov	r3, #-1
 411 01ea 30E1     		b	.L47
 412              	.L24:
 140:g:/iot/IoT_Device_Demo/iot_link/network/lwm2m/wakaama_lwm2m/wakaama-master/core\management.c ****             if (query->len == ATTR_GREATER_THAN_LEN) return -1;
 413              		.loc 2 140 22
 414 01ec 7B68     		ldr	r3, [r7, #4]
 415 01ee 5B79     		ldrb	r3, [r3, #5]	@ zero_extendqisi2
 416              		.loc 2 140 16
 417 01f0 032B     		cmp	r3, #3
 418 01f2 02D1     		bne	.L25
 419              		.loc 2 140 61 discriminator 1
 420 01f4 4FF0FF33 		mov	r3, #-1
 421 01f8 29E1     		b	.L47
 422              	.L25:
 141:g:/iot/IoT_Device_Demo/iot_link/network/lwm2m/wakaama_lwm2m/wakaama-master/core\management.c **** 
 142:g:/iot/IoT_Device_Demo/iot_link/network/lwm2m/wakaama_lwm2m/wakaama-master/core\management.c ****             if (1 != utils_textToFloat(query->data + ATTR_GREATER_THAN_LEN, query->len - ATTR_GREAT
 423              		.loc 2 142 45
 424 01fa 7B68     		ldr	r3, [r7, #4]
 425 01fc 9B68     		ldr	r3, [r3, #8]
 426              		.loc 2 142 22
 427 01fe D81C     		adds	r0, r3, #3
 428              		.loc 2 142 82
 429 0200 7B68     		ldr	r3, [r7, #4]
 430 0202 5B79     		ldrb	r3, [r3, #5]	@ zero_extendqisi2
 431              		.loc 2 142 22
 432 0204 033B     		subs	r3, r3, #3
 433 0206 07F10802 		add	r2, r7, #8
 434 020a 1946     		mov	r1, r3
 435 020c FFF7FEFF 		bl	utils_textToFloat
 436 0210 0346     		mov	r3, r0
 437              		.loc 2 142 16
 438 0212 012B     		cmp	r3, #1
 439 0214 02D0     		beq	.L26
 440              		.loc 2 142 134 discriminator 1
 441 0216 4FF0FF33 		mov	r3, #-1
 442 021a 18E1     		b	.L47
 443              	.L26:
ARM GAS  C:\Users\ADMINI~1\AppData\Local\Temp\ccrLD8ST.s 			page 18


 143:g:/iot/IoT_Device_Demo/iot_link/network/lwm2m/wakaama_lwm2m/wakaama-master/core\management.c **** 
 144:g:/iot/IoT_Device_Demo/iot_link/network/lwm2m/wakaama_lwm2m/wakaama-master/core\management.c ****             attrP->toSet |= LWM2M_ATTR_FLAG_GREATER_THAN;
 444              		.loc 2 144 26
 445 021c 3B68     		ldr	r3, [r7]
 446 021e 1B78     		ldrb	r3, [r3]	@ zero_extendqisi2
 447 0220 43F00403 		orr	r3, r3, #4
 448 0224 DAB2     		uxtb	r2, r3
 449 0226 3B68     		ldr	r3, [r7]
 450 0228 1A70     		strb	r2, [r3]
 145:g:/iot/IoT_Device_Demo/iot_link/network/lwm2m/wakaama_lwm2m/wakaama-master/core\management.c ****             attrP->greaterThan = floatValue;
 451              		.loc 2 145 32
 452 022a D7E90223 		ldrd	r2, [r7, #8]
 453 022e 3968     		ldr	r1, [r7]
 454 0230 C1E90423 		strd	r2, [r1, #16]
 455 0234 03E1     		b	.L11
 456              	.L23:
 146:g:/iot/IoT_Device_Demo/iot_link/network/lwm2m/wakaama_lwm2m/wakaama-master/core\management.c ****         }
 147:g:/iot/IoT_Device_Demo/iot_link/network/lwm2m/wakaama_lwm2m/wakaama-master/core\management.c ****         else if (lwm2m_strncmp((char *)query->data, ATTR_GREATER_THAN_STR, ATTR_GREATER_THAN_LEN - 
 457              		.loc 2 147 45
 458 0236 7B68     		ldr	r3, [r7, #4]
 459 0238 9B68     		ldr	r3, [r3, #8]
 460              		.loc 2 147 18
 461 023a 0222     		movs	r2, #2
 462 023c 2249     		ldr	r1, .L50+8
 463 023e 1846     		mov	r0, r3
 464 0240 FFF7FEFF 		bl	lwm2m_strncmp
 465 0244 0346     		mov	r3, r0
 466              		.loc 2 147 17
 467 0246 002B     		cmp	r3, #0
 468 0248 1BD1     		bne	.L27
 148:g:/iot/IoT_Device_Demo/iot_link/network/lwm2m/wakaama_lwm2m/wakaama-master/core\management.c ****         {
 149:g:/iot/IoT_Device_Demo/iot_link/network/lwm2m/wakaama_lwm2m/wakaama-master/core\management.c ****             if (0 != ((attrP->toSet | attrP->toClear) & LWM2M_ATTR_FLAG_GREATER_THAN)) return -1;
 469              		.loc 2 149 29
 470 024a 3B68     		ldr	r3, [r7]
 471 024c 1A78     		ldrb	r2, [r3]	@ zero_extendqisi2
 472              		.loc 2 149 44
 473 024e 3B68     		ldr	r3, [r7]
 474 0250 5B78     		ldrb	r3, [r3, #1]	@ zero_extendqisi2
 475              		.loc 2 149 55
 476 0252 1343     		orrs	r3, r3, r2
 477 0254 DBB2     		uxtb	r3, r3
 478 0256 03F00403 		and	r3, r3, #4
 479              		.loc 2 149 16
 480 025a 002B     		cmp	r3, #0
 481 025c 02D0     		beq	.L28
 482              		.loc 2 149 95 discriminator 1
 483 025e 4FF0FF33 		mov	r3, #-1
 484 0262 F4E0     		b	.L47
 485              	.L28:
 150:g:/iot/IoT_Device_Demo/iot_link/network/lwm2m/wakaama_lwm2m/wakaama-master/core\management.c ****             if (query->len != ATTR_GREATER_THAN_LEN - 1) return -1;
 486              		.loc 2 150 22
 487 0264 7B68     		ldr	r3, [r7, #4]
 488 0266 5B79     		ldrb	r3, [r3, #5]	@ zero_extendqisi2
 489              		.loc 2 150 16
 490 0268 022B     		cmp	r3, #2
 491 026a 02D0     		beq	.L29
 492              		.loc 2 150 65 discriminator 1
ARM GAS  C:\Users\ADMINI~1\AppData\Local\Temp\ccrLD8ST.s 			page 19


 493 026c 4FF0FF33 		mov	r3, #-1
 494 0270 EDE0     		b	.L47
 495              	.L29:
 151:g:/iot/IoT_Device_Demo/iot_link/network/lwm2m/wakaama_lwm2m/wakaama-master/core\management.c **** 
 152:g:/iot/IoT_Device_Demo/iot_link/network/lwm2m/wakaama_lwm2m/wakaama-master/core\management.c ****             attrP->toClear |= LWM2M_ATTR_FLAG_GREATER_THAN;
 496              		.loc 2 152 28
 497 0272 3B68     		ldr	r3, [r7]
 498 0274 5B78     		ldrb	r3, [r3, #1]	@ zero_extendqisi2
 499 0276 43F00403 		orr	r3, r3, #4
 500 027a DAB2     		uxtb	r2, r3
 501 027c 3B68     		ldr	r3, [r7]
 502 027e 5A70     		strb	r2, [r3, #1]
 503 0280 DDE0     		b	.L11
 504              	.L27:
 153:g:/iot/IoT_Device_Demo/iot_link/network/lwm2m/wakaama_lwm2m/wakaama-master/core\management.c ****         }
 154:g:/iot/IoT_Device_Demo/iot_link/network/lwm2m/wakaama_lwm2m/wakaama-master/core\management.c ****         else if (lwm2m_strncmp((char *)query->data, ATTR_LESS_THAN_STR, ATTR_LESS_THAN_LEN) == 0)
 505              		.loc 2 154 45
 506 0282 7B68     		ldr	r3, [r7, #4]
 507 0284 9B68     		ldr	r3, [r3, #8]
 508              		.loc 2 154 18
 509 0286 0322     		movs	r2, #3
 510 0288 1049     		ldr	r1, .L50+12
 511 028a 1846     		mov	r0, r3
 512 028c FFF7FEFF 		bl	lwm2m_strncmp
 513 0290 0346     		mov	r3, r0
 514              		.loc 2 154 17
 515 0292 002B     		cmp	r3, #0
 516 0294 3AD1     		bne	.L30
 155:g:/iot/IoT_Device_Demo/iot_link/network/lwm2m/wakaama_lwm2m/wakaama-master/core\management.c ****         {
 156:g:/iot/IoT_Device_Demo/iot_link/network/lwm2m/wakaama_lwm2m/wakaama-master/core\management.c ****             if (0 != ((attrP->toSet | attrP->toClear) & LWM2M_ATTR_FLAG_LESS_THAN)) return -1;
 517              		.loc 2 156 29
 518 0296 3B68     		ldr	r3, [r7]
 519 0298 1A78     		ldrb	r2, [r3]	@ zero_extendqisi2
 520              		.loc 2 156 44
 521 029a 3B68     		ldr	r3, [r7]
 522 029c 5B78     		ldrb	r3, [r3, #1]	@ zero_extendqisi2
 523              		.loc 2 156 55
 524 029e 1343     		orrs	r3, r3, r2
 525 02a0 DBB2     		uxtb	r3, r3
 526 02a2 03F00803 		and	r3, r3, #8
 527              		.loc 2 156 16
 528 02a6 002B     		cmp	r3, #0
 529 02a8 02D0     		beq	.L31
 530              		.loc 2 156 92 discriminator 1
 531 02aa 4FF0FF33 		mov	r3, #-1
 532 02ae CEE0     		b	.L47
 533              	.L31:
 157:g:/iot/IoT_Device_Demo/iot_link/network/lwm2m/wakaama_lwm2m/wakaama-master/core\management.c ****             if (query->len == ATTR_LESS_THAN_LEN) return -1;
 534              		.loc 2 157 22
 535 02b0 7B68     		ldr	r3, [r7, #4]
 536 02b2 5B79     		ldrb	r3, [r3, #5]	@ zero_extendqisi2
 537              		.loc 2 157 16
 538 02b4 032B     		cmp	r3, #3
 539 02b6 0BD1     		bne	.L32
 540              		.loc 2 157 58 discriminator 1
 541 02b8 4FF0FF33 		mov	r3, #-1
 542 02bc C7E0     		b	.L47
ARM GAS  C:\Users\ADMINI~1\AppData\Local\Temp\ccrLD8ST.s 			page 20


 543              	.L51:
 544 02be 00BF     		.align	2
 545              	.L50:
 546 02c0 00000000 		.word	.LC0
 547 02c4 08000000 		.word	.LC1
 548 02c8 10000000 		.word	.LC2
 549 02cc 14000000 		.word	.LC3
 550              	.L32:
 158:g:/iot/IoT_Device_Demo/iot_link/network/lwm2m/wakaama_lwm2m/wakaama-master/core\management.c **** 
 159:g:/iot/IoT_Device_Demo/iot_link/network/lwm2m/wakaama_lwm2m/wakaama-master/core\management.c ****             if (1 != utils_textToFloat(query->data + ATTR_LESS_THAN_LEN, query->len - ATTR_LESS_THA
 551              		.loc 2 159 45
 552 02d0 7B68     		ldr	r3, [r7, #4]
 553 02d2 9B68     		ldr	r3, [r3, #8]
 554              		.loc 2 159 22
 555 02d4 D81C     		adds	r0, r3, #3
 556              		.loc 2 159 79
 557 02d6 7B68     		ldr	r3, [r7, #4]
 558 02d8 5B79     		ldrb	r3, [r3, #5]	@ zero_extendqisi2
 559              		.loc 2 159 22
 560 02da 033B     		subs	r3, r3, #3
 561 02dc 07F10802 		add	r2, r7, #8
 562 02e0 1946     		mov	r1, r3
 563 02e2 FFF7FEFF 		bl	utils_textToFloat
 564 02e6 0346     		mov	r3, r0
 565              		.loc 2 159 16
 566 02e8 012B     		cmp	r3, #1
 567 02ea 02D0     		beq	.L33
 568              		.loc 2 159 128 discriminator 1
 569 02ec 4FF0FF33 		mov	r3, #-1
 570 02f0 ADE0     		b	.L47
 571              	.L33:
 160:g:/iot/IoT_Device_Demo/iot_link/network/lwm2m/wakaama_lwm2m/wakaama-master/core\management.c **** 
 161:g:/iot/IoT_Device_Demo/iot_link/network/lwm2m/wakaama_lwm2m/wakaama-master/core\management.c ****             attrP->toSet |= LWM2M_ATTR_FLAG_LESS_THAN;
 572              		.loc 2 161 26
 573 02f2 3B68     		ldr	r3, [r7]
 574 02f4 1B78     		ldrb	r3, [r3]	@ zero_extendqisi2
 575 02f6 43F00803 		orr	r3, r3, #8
 576 02fa DAB2     		uxtb	r2, r3
 577 02fc 3B68     		ldr	r3, [r7]
 578 02fe 1A70     		strb	r2, [r3]
 162:g:/iot/IoT_Device_Demo/iot_link/network/lwm2m/wakaama_lwm2m/wakaama-master/core\management.c ****             attrP->lessThan = floatValue;
 579              		.loc 2 162 29
 580 0300 D7E90223 		ldrd	r2, [r7, #8]
 581 0304 3968     		ldr	r1, [r7]
 582 0306 C1E90623 		strd	r2, [r1, #24]
 583 030a 98E0     		b	.L11
 584              	.L30:
 163:g:/iot/IoT_Device_Demo/iot_link/network/lwm2m/wakaama_lwm2m/wakaama-master/core\management.c ****         }
 164:g:/iot/IoT_Device_Demo/iot_link/network/lwm2m/wakaama_lwm2m/wakaama-master/core\management.c ****         else if (lwm2m_strncmp((char *)query->data, ATTR_LESS_THAN_STR, ATTR_LESS_THAN_LEN - 1) == 
 585              		.loc 2 164 45
 586 030c 7B68     		ldr	r3, [r7, #4]
 587 030e 9B68     		ldr	r3, [r3, #8]
 588              		.loc 2 164 18
 589 0310 0222     		movs	r2, #2
 590 0312 5149     		ldr	r1, .L52
 591 0314 1846     		mov	r0, r3
 592 0316 FFF7FEFF 		bl	lwm2m_strncmp
ARM GAS  C:\Users\ADMINI~1\AppData\Local\Temp\ccrLD8ST.s 			page 21


 593 031a 0346     		mov	r3, r0
 594              		.loc 2 164 17
 595 031c 002B     		cmp	r3, #0
 596 031e 1BD1     		bne	.L34
 165:g:/iot/IoT_Device_Demo/iot_link/network/lwm2m/wakaama_lwm2m/wakaama-master/core\management.c ****         {
 166:g:/iot/IoT_Device_Demo/iot_link/network/lwm2m/wakaama_lwm2m/wakaama-master/core\management.c ****             if (0 != ((attrP->toSet | attrP->toClear) & LWM2M_ATTR_FLAG_LESS_THAN)) return -1;
 597              		.loc 2 166 29
 598 0320 3B68     		ldr	r3, [r7]
 599 0322 1A78     		ldrb	r2, [r3]	@ zero_extendqisi2
 600              		.loc 2 166 44
 601 0324 3B68     		ldr	r3, [r7]
 602 0326 5B78     		ldrb	r3, [r3, #1]	@ zero_extendqisi2
 603              		.loc 2 166 55
 604 0328 1343     		orrs	r3, r3, r2
 605 032a DBB2     		uxtb	r3, r3
 606 032c 03F00803 		and	r3, r3, #8
 607              		.loc 2 166 16
 608 0330 002B     		cmp	r3, #0
 609 0332 02D0     		beq	.L35
 610              		.loc 2 166 92 discriminator 1
 611 0334 4FF0FF33 		mov	r3, #-1
 612 0338 89E0     		b	.L47
 613              	.L35:
 167:g:/iot/IoT_Device_Demo/iot_link/network/lwm2m/wakaama_lwm2m/wakaama-master/core\management.c ****             if (query->len != ATTR_LESS_THAN_LEN - 1) return -1;
 614              		.loc 2 167 22
 615 033a 7B68     		ldr	r3, [r7, #4]
 616 033c 5B79     		ldrb	r3, [r3, #5]	@ zero_extendqisi2
 617              		.loc 2 167 16
 618 033e 022B     		cmp	r3, #2
 619 0340 02D0     		beq	.L36
 620              		.loc 2 167 62 discriminator 1
 621 0342 4FF0FF33 		mov	r3, #-1
 622 0346 82E0     		b	.L47
 623              	.L36:
 168:g:/iot/IoT_Device_Demo/iot_link/network/lwm2m/wakaama_lwm2m/wakaama-master/core\management.c **** 
 169:g:/iot/IoT_Device_Demo/iot_link/network/lwm2m/wakaama_lwm2m/wakaama-master/core\management.c ****             attrP->toClear |= LWM2M_ATTR_FLAG_LESS_THAN;
 624              		.loc 2 169 28
 625 0348 3B68     		ldr	r3, [r7]
 626 034a 5B78     		ldrb	r3, [r3, #1]	@ zero_extendqisi2
 627 034c 43F00803 		orr	r3, r3, #8
 628 0350 DAB2     		uxtb	r2, r3
 629 0352 3B68     		ldr	r3, [r7]
 630 0354 5A70     		strb	r2, [r3, #1]
 631 0356 72E0     		b	.L11
 632              	.L34:
 170:g:/iot/IoT_Device_Demo/iot_link/network/lwm2m/wakaama_lwm2m/wakaama-master/core\management.c ****         }
 171:g:/iot/IoT_Device_Demo/iot_link/network/lwm2m/wakaama_lwm2m/wakaama-master/core\management.c ****         else if (lwm2m_strncmp((char *)query->data, ATTR_STEP_STR, ATTR_STEP_LEN) == 0)
 633              		.loc 2 171 45
 634 0358 7B68     		ldr	r3, [r7, #4]
 635 035a 9B68     		ldr	r3, [r3, #8]
 636              		.loc 2 171 18
 637 035c 0322     		movs	r2, #3
 638 035e 3F49     		ldr	r1, .L52+4
 639 0360 1846     		mov	r0, r3
 640 0362 FFF7FEFF 		bl	lwm2m_strncmp
 641 0366 0346     		mov	r3, r0
 642              		.loc 2 171 17
ARM GAS  C:\Users\ADMINI~1\AppData\Local\Temp\ccrLD8ST.s 			page 22


 643 0368 002B     		cmp	r3, #0
 644 036a 3FD1     		bne	.L37
 172:g:/iot/IoT_Device_Demo/iot_link/network/lwm2m/wakaama_lwm2m/wakaama-master/core\management.c ****         {
 173:g:/iot/IoT_Device_Demo/iot_link/network/lwm2m/wakaama_lwm2m/wakaama-master/core\management.c ****             if (0 != ((attrP->toSet | attrP->toClear) & LWM2M_ATTR_FLAG_STEP)) return -1;
 645              		.loc 2 173 29
 646 036c 3B68     		ldr	r3, [r7]
 647 036e 1A78     		ldrb	r2, [r3]	@ zero_extendqisi2
 648              		.loc 2 173 44
 649 0370 3B68     		ldr	r3, [r7]
 650 0372 5B78     		ldrb	r3, [r3, #1]	@ zero_extendqisi2
 651              		.loc 2 173 55
 652 0374 1343     		orrs	r3, r3, r2
 653 0376 DBB2     		uxtb	r3, r3
 654 0378 03F01003 		and	r3, r3, #16
 655              		.loc 2 173 16
 656 037c 002B     		cmp	r3, #0
 657 037e 02D0     		beq	.L38
 658              		.loc 2 173 87 discriminator 1
 659 0380 4FF0FF33 		mov	r3, #-1
 660 0384 63E0     		b	.L47
 661              	.L38:
 174:g:/iot/IoT_Device_Demo/iot_link/network/lwm2m/wakaama_lwm2m/wakaama-master/core\management.c ****             if (query->len == ATTR_STEP_LEN) return -1;
 662              		.loc 2 174 22
 663 0386 7B68     		ldr	r3, [r7, #4]
 664 0388 5B79     		ldrb	r3, [r3, #5]	@ zero_extendqisi2
 665              		.loc 2 174 16
 666 038a 032B     		cmp	r3, #3
 667 038c 02D1     		bne	.L39
 668              		.loc 2 174 53 discriminator 1
 669 038e 4FF0FF33 		mov	r3, #-1
 670 0392 5CE0     		b	.L47
 671              	.L39:
 175:g:/iot/IoT_Device_Demo/iot_link/network/lwm2m/wakaama_lwm2m/wakaama-master/core\management.c **** 
 176:g:/iot/IoT_Device_Demo/iot_link/network/lwm2m/wakaama_lwm2m/wakaama-master/core\management.c ****             if (1 != utils_textToFloat(query->data + ATTR_STEP_LEN, query->len - ATTR_STEP_LEN, &fl
 672              		.loc 2 176 45
 673 0394 7B68     		ldr	r3, [r7, #4]
 674 0396 9B68     		ldr	r3, [r3, #8]
 675              		.loc 2 176 22
 676 0398 D81C     		adds	r0, r3, #3
 677              		.loc 2 176 74
 678 039a 7B68     		ldr	r3, [r7, #4]
 679 039c 5B79     		ldrb	r3, [r3, #5]	@ zero_extendqisi2
 680              		.loc 2 176 22
 681 039e 033B     		subs	r3, r3, #3
 682 03a0 07F10802 		add	r2, r7, #8
 683 03a4 1946     		mov	r1, r3
 684 03a6 FFF7FEFF 		bl	utils_textToFloat
 685 03aa 0346     		mov	r3, r0
 686              		.loc 2 176 16
 687 03ac 012B     		cmp	r3, #1
 688 03ae 02D0     		beq	.L40
 689              		.loc 2 176 118 discriminator 1
 690 03b0 4FF0FF33 		mov	r3, #-1
 691 03b4 4BE0     		b	.L47
 692              	.L40:
 177:g:/iot/IoT_Device_Demo/iot_link/network/lwm2m/wakaama_lwm2m/wakaama-master/core\management.c ****             if (floatValue < 0) return -1;
 693              		.loc 2 177 28
ARM GAS  C:\Users\ADMINI~1\AppData\Local\Temp\ccrLD8ST.s 			page 23


 694 03b6 D7E90201 		ldrd	r0, [r7, #8]
 695              		.loc 2 177 16
 696 03ba 4FF00002 		mov	r2, #0
 697 03be 4FF00003 		mov	r3, #0
 698 03c2 FFF7FEFF 		bl	__aeabi_dcmplt
 699              	.LVL0:
 700 03c6 0346     		mov	r3, r0
 701 03c8 002B     		cmp	r3, #0
 702 03ca 02D0     		beq	.L49
 703              		.loc 2 177 40 discriminator 1
 704 03cc 4FF0FF33 		mov	r3, #-1
 705 03d0 3DE0     		b	.L47
 706              	.L49:
 178:g:/iot/IoT_Device_Demo/iot_link/network/lwm2m/wakaama_lwm2m/wakaama-master/core\management.c **** 
 179:g:/iot/IoT_Device_Demo/iot_link/network/lwm2m/wakaama_lwm2m/wakaama-master/core\management.c ****             attrP->toSet |= LWM2M_ATTR_FLAG_STEP;
 707              		.loc 2 179 26
 708 03d2 3B68     		ldr	r3, [r7]
 709 03d4 1B78     		ldrb	r3, [r3]	@ zero_extendqisi2
 710 03d6 43F01003 		orr	r3, r3, #16
 711 03da DAB2     		uxtb	r2, r3
 712 03dc 3B68     		ldr	r3, [r7]
 713 03de 1A70     		strb	r2, [r3]
 180:g:/iot/IoT_Device_Demo/iot_link/network/lwm2m/wakaama_lwm2m/wakaama-master/core\management.c ****             attrP->step = floatValue;
 714              		.loc 2 180 25
 715 03e0 D7E90223 		ldrd	r2, [r7, #8]
 716 03e4 3968     		ldr	r1, [r7]
 717 03e6 C1E90823 		strd	r2, [r1, #32]
 718 03ea 28E0     		b	.L11
 719              	.L37:
 181:g:/iot/IoT_Device_Demo/iot_link/network/lwm2m/wakaama_lwm2m/wakaama-master/core\management.c ****         }
 182:g:/iot/IoT_Device_Demo/iot_link/network/lwm2m/wakaama_lwm2m/wakaama-master/core\management.c ****         else if (lwm2m_strncmp((char *)query->data, ATTR_STEP_STR, ATTR_STEP_LEN - 1) == 0)
 720              		.loc 2 182 45
 721 03ec 7B68     		ldr	r3, [r7, #4]
 722 03ee 9B68     		ldr	r3, [r3, #8]
 723              		.loc 2 182 18
 724 03f0 0222     		movs	r2, #2
 725 03f2 1A49     		ldr	r1, .L52+4
 726 03f4 1846     		mov	r0, r3
 727 03f6 FFF7FEFF 		bl	lwm2m_strncmp
 728 03fa 0346     		mov	r3, r0
 729              		.loc 2 182 17
 730 03fc 002B     		cmp	r3, #0
 731 03fe 1BD1     		bne	.L43
 183:g:/iot/IoT_Device_Demo/iot_link/network/lwm2m/wakaama_lwm2m/wakaama-master/core\management.c ****         {
 184:g:/iot/IoT_Device_Demo/iot_link/network/lwm2m/wakaama_lwm2m/wakaama-master/core\management.c ****             if (0 != ((attrP->toSet | attrP->toClear) & LWM2M_ATTR_FLAG_STEP)) return -1;
 732              		.loc 2 184 29
 733 0400 3B68     		ldr	r3, [r7]
 734 0402 1A78     		ldrb	r2, [r3]	@ zero_extendqisi2
 735              		.loc 2 184 44
 736 0404 3B68     		ldr	r3, [r7]
 737 0406 5B78     		ldrb	r3, [r3, #1]	@ zero_extendqisi2
 738              		.loc 2 184 55
 739 0408 1343     		orrs	r3, r3, r2
 740 040a DBB2     		uxtb	r3, r3
 741 040c 03F01003 		and	r3, r3, #16
 742              		.loc 2 184 16
 743 0410 002B     		cmp	r3, #0
ARM GAS  C:\Users\ADMINI~1\AppData\Local\Temp\ccrLD8ST.s 			page 24


 744 0412 02D0     		beq	.L44
 745              		.loc 2 184 87 discriminator 1
 746 0414 4FF0FF33 		mov	r3, #-1
 747 0418 19E0     		b	.L47
 748              	.L44:
 185:g:/iot/IoT_Device_Demo/iot_link/network/lwm2m/wakaama_lwm2m/wakaama-master/core\management.c ****             if (query->len != ATTR_STEP_LEN - 1) return -1;
 749              		.loc 2 185 22
 750 041a 7B68     		ldr	r3, [r7, #4]
 751 041c 5B79     		ldrb	r3, [r3, #5]	@ zero_extendqisi2
 752              		.loc 2 185 16
 753 041e 022B     		cmp	r3, #2
 754 0420 02D0     		beq	.L45
 755              		.loc 2 185 57 discriminator 1
 756 0422 4FF0FF33 		mov	r3, #-1
 757 0426 12E0     		b	.L47
 758              	.L45:
 186:g:/iot/IoT_Device_Demo/iot_link/network/lwm2m/wakaama_lwm2m/wakaama-master/core\management.c **** 
 187:g:/iot/IoT_Device_Demo/iot_link/network/lwm2m/wakaama_lwm2m/wakaama-master/core\management.c ****             attrP->toClear |= LWM2M_ATTR_FLAG_STEP;
 759              		.loc 2 187 28
 760 0428 3B68     		ldr	r3, [r7]
 761 042a 5B78     		ldrb	r3, [r3, #1]	@ zero_extendqisi2
 762 042c 43F01003 		orr	r3, r3, #16
 763 0430 DAB2     		uxtb	r2, r3
 764 0432 3B68     		ldr	r3, [r7]
 765 0434 5A70     		strb	r2, [r3, #1]
 766 0436 02E0     		b	.L11
 767              	.L43:
 188:g:/iot/IoT_Device_Demo/iot_link/network/lwm2m/wakaama_lwm2m/wakaama-master/core\management.c ****         }
 189:g:/iot/IoT_Device_Demo/iot_link/network/lwm2m/wakaama_lwm2m/wakaama-master/core\management.c ****         else return -1;
 768              		.loc 2 189 21
 769 0438 4FF0FF33 		mov	r3, #-1
 770 043c 07E0     		b	.L47
 771              	.L11:
 190:g:/iot/IoT_Device_Demo/iot_link/network/lwm2m/wakaama_lwm2m/wakaama-master/core\management.c **** 
 191:g:/iot/IoT_Device_Demo/iot_link/network/lwm2m/wakaama_lwm2m/wakaama-master/core\management.c ****         query = query->next;
 772              		.loc 2 191 15
 773 043e 7B68     		ldr	r3, [r7, #4]
 774 0440 1B68     		ldr	r3, [r3]
 775 0442 7B60     		str	r3, [r7, #4]
 776              	.L4:
  99:g:/iot/IoT_Device_Demo/iot_link/network/lwm2m/wakaama_lwm2m/wakaama-master/core\management.c ****     {
 777              		.loc 2 99 11
 778 0444 7B68     		ldr	r3, [r7, #4]
 779 0446 002B     		cmp	r3, #0
 780 0448 7FF4E5AD 		bne	.L46
 192:g:/iot/IoT_Device_Demo/iot_link/network/lwm2m/wakaama_lwm2m/wakaama-master/core\management.c ****     }
 193:g:/iot/IoT_Device_Demo/iot_link/network/lwm2m/wakaama_lwm2m/wakaama-master/core\management.c **** 
 194:g:/iot/IoT_Device_Demo/iot_link/network/lwm2m/wakaama_lwm2m/wakaama-master/core\management.c ****     return 0;
 781              		.loc 2 194 12
 782 044c 0023     		movs	r3, #0
 783              	.L47:
 195:g:/iot/IoT_Device_Demo/iot_link/network/lwm2m/wakaama_lwm2m/wakaama-master/core\management.c **** }
 784              		.loc 2 195 1 discriminator 1
 785 044e 1846     		mov	r0, r3
 786 0450 1837     		adds	r7, r7, #24
 787              	.LCFI9:
 788              		.cfi_def_cfa_offset 8
ARM GAS  C:\Users\ADMINI~1\AppData\Local\Temp\ccrLD8ST.s 			page 25


 789 0452 BD46     		mov	sp, r7
 790              	.LCFI10:
 791              		.cfi_def_cfa_register 13
 792              		@ sp needed
 793 0454 80BD     		pop	{r7, pc}
 794              	.L53:
 795 0456 00BF     		.align	2
 796              	.L52:
 797 0458 14000000 		.word	.LC3
 798 045c 18000000 		.word	.LC4
 799              		.cfi_endproc
 800              	.LFE12:
 802              		.section	.rodata
 803              		.align	2
 804              	.LC5:
 805 001c 53544154 		.ascii	"STATE_BS_FAILED\000"
 805      455F4253 
 805      5F464149 
 805      4C454400 
 806              		.align	2
 807              	.LC6:
 808 002c 556E6B6E 		.ascii	"Unknown\000"
 808      6F776E00 
 809              		.align	2
 810              	.LC7:
 811 0034 53544154 		.ascii	"STATE_BS_FAILING\000"
 811      455F4253 
 811      5F464149 
 811      4C494E47 
 811      00
 812 0045 000000   		.align	2
 813              	.LC8:
 814 0048 53544154 		.ascii	"STATE_BS_FINISHING\000"
 814      455F4253 
 814      5F46494E 
 814      49534849 
 814      4E4700
 815 005b 00       		.align	2
 816              	.LC9:
 817 005c 53544154 		.ascii	"STATE_BS_FINISHED\000"
 817      455F4253 
 817      5F46494E 
 817      49534845 
 817      4400
 818 006e 0000     		.align	2
 819              	.LC10:
 820 0070 53544154 		.ascii	"STATE_BS_PENDING\000"
 820      455F4253 
 820      5F50454E 
 820      44494E47 
 820      00
 821 0081 000000   		.align	2
 822              	.LC11:
 823 0084 53544154 		.ascii	"STATE_BS_INITIATED\000"
 823      455F4253 
 823      5F494E49 
 823      54494154 
ARM GAS  C:\Users\ADMINI~1\AppData\Local\Temp\ccrLD8ST.s 			page 26


 823      454400
 824 0097 00       		.align	2
 825              	.LC12:
 826 0098 53544154 		.ascii	"STATE_BS_HOLD_OFF\000"
 826      455F4253 
 826      5F484F4C 
 826      445F4F46 
 826      4600
 827 00aa 0000     		.align	2
 828              	.LC13:
 829 00ac 53544154 		.ascii	"STATE_DEREG_PENDING\000"
 829      455F4445 
 829      5245475F 
 829      50454E44 
 829      494E4700 
 830              		.align	2
 831              	.LC14:
 832 00c0 53544154 		.ascii	"STATE_REG_FULL_UPDATE_NEEDED\000"
 832      455F5245 
 832      475F4655 
 832      4C4C5F55 
 832      50444154 
 833 00dd 000000   		.align	2
 834              	.LC15:
 835 00e0 53544154 		.ascii	"STATE_REG_UPDATE_NEEDED\000"
 835      455F5245 
 835      475F5550 
 835      44415445 
 835      5F4E4545 
 836              		.align	2
 837              	.LC16:
 838 00f8 53544154 		.ascii	"STATE_REG_UPDATE_PENDING\000"
 838      455F5245 
 838      475F5550 
 838      44415445 
 838      5F50454E 
 839 0111 000000   		.align	2
 840              	.LC17:
 841 0114 53544154 		.ascii	"STATE_REG_FAILED\000"
 841      455F5245 
 841      475F4641 
 841      494C4544 
 841      00
 842 0125 000000   		.align	2
 843              	.LC18:
 844 0128 53544154 		.ascii	"STATE_REGISTERED\000"
 844      455F5245 
 844      47495354 
 844      45524544 
 844      00
 845 0139 000000   		.align	2
 846              	.LC19:
 847 013c 53544154 		.ascii	"STATE_REG_PENDING\000"
 847      455F5245 
 847      475F5045 
 847      4E44494E 
 847      4700
ARM GAS  C:\Users\ADMINI~1\AppData\Local\Temp\ccrLD8ST.s 			page 27


 848 014e 0000     		.align	2
 849              	.LC20:
 850 0150 53544154 		.ascii	"STATE_DEREGISTERED\000"
 850      455F4445 
 850      52454749 
 850      53544552 
 850      454400
 851 0163 00       		.align	2
 852              	.LC21:
 853 0164 5B25735D 		.ascii	"[%s][%u][%s:%d] [%d][%s:%d] Code: %02X, server stat"
 853      5B25755D 
 853      5B25733A 
 853      25645D20 
 853      5B25645D 
 854 0197 75733A20 		.ascii	"us: %s\015\012\015\012\000"
 854      25730D0A 
 854      0D0A00
 855 01a2 0000     		.align	2
 856              	.LC22:
 857 01a4 5B25735D 		.ascii	"[%s][%u][%s:%d] [%s:%d] NULL\015\012\015\012\000"
 857      5B25755D 
 857      5B25733A 
 857      25645D20 
 857      5B25733A 
 858 01c5 000000   		.align	2
 859              	.LC23:
 860 01c8 5B25735D 		.ascii	"[%s][%u][%s:%d] [%s:%d] /%d\015\012\000"
 860      5B25755D 
 860      5B25733A 
 860      25645D20 
 860      5B25733A 
 861 01e6 0000     		.align	2
 862              	.LC24:
 863 01e8 5B25735D 		.ascii	"[%s][%u][%s:%d] /%d\015\012\000"
 863      5B25755D 
 863      5B25733A 
 863      25645D20 
 863      2F25640D 
 864 01fe 0000     		.align	2
 865              	.LC25:
 866 0200 5B25735D 		.ascii	"[%s][%u][%s:%d] \015\012\015\012\000"
 866      5B25755D 
 866      5B25733A 
 866      25645D20 
 866      0D0A0D0A 
 867 0215 000000   		.align	2
 868              	.LC26:
 869 0218 5B25735D 		.ascii	"[%s][%u][%s:%d] [%d][%s:%d] Observe Request[/%d/%d/"
 869      5B25755D 
 869      5B25733A 
 869      25645D20 
 869      5B25645D 
 870 024b 25645D3A 		.ascii	"%d]: %.*s\012\015\012\015\012\000"
 870      20252E2A 
 870      730A0D0A 
 870      0D0A00
 871 025a 0000     		.align	2
ARM GAS  C:\Users\ADMINI~1\AppData\Local\Temp\ccrLD8ST.s 			page 28


 872              	.LC27:
 873 025c 2F25642F 		.ascii	"/%d/%d\000"
 873      256400
 874              		.section	.text.dm_handleRequest,"ax",%progbits
 875              		.align	1
 876              		.global	dm_handleRequest
 877              		.syntax unified
 878              		.thumb
 879              		.thumb_func
 880              		.fpu fpv4-sp-d16
 882              	dm_handleRequest:
 883              	.LFB13:
 196:g:/iot/IoT_Device_Demo/iot_link/network/lwm2m/wakaama_lwm2m/wakaama-master/core\management.c **** 
 197:g:/iot/IoT_Device_Demo/iot_link/network/lwm2m/wakaama_lwm2m/wakaama-master/core\management.c **** uint8_t dm_handleRequest(lwm2m_context_t *contextP,
 198:g:/iot/IoT_Device_Demo/iot_link/network/lwm2m/wakaama_lwm2m/wakaama-master/core\management.c ****                          lwm2m_uri_t *uriP,
 199:g:/iot/IoT_Device_Demo/iot_link/network/lwm2m/wakaama_lwm2m/wakaama-master/core\management.c ****                          lwm2m_server_t *serverP,
 200:g:/iot/IoT_Device_Demo/iot_link/network/lwm2m/wakaama_lwm2m/wakaama-master/core\management.c ****                          coap_packet_t *message,
 201:g:/iot/IoT_Device_Demo/iot_link/network/lwm2m/wakaama_lwm2m/wakaama-master/core\management.c ****                          coap_packet_t *response)
 202:g:/iot/IoT_Device_Demo/iot_link/network/lwm2m/wakaama_lwm2m/wakaama-master/core\management.c **** {
 884              		.loc 2 202 1
 885              		.cfi_startproc
 886              		@ args = 4, pretend = 0, frame = 104
 887              		@ frame_needed = 1, uses_anonymous_args = 0
 888 0000 2DE9F041 		push	{r4, r5, r6, r7, r8, lr}
 889              	.LCFI11:
 890              		.cfi_def_cfa_offset 24
 891              		.cfi_offset 4, -24
 892              		.cfi_offset 5, -20
 893              		.cfi_offset 6, -16
 894              		.cfi_offset 7, -12
 895              		.cfi_offset 8, -8
 896              		.cfi_offset 14, -4
 897 0004 A4B0     		sub	sp, sp, #144
 898              	.LCFI12:
 899              		.cfi_def_cfa_offset 168
 900 0006 0AAF     		add	r7, sp, #40
 901              	.LCFI13:
 902              		.cfi_def_cfa 7, 128
 903 0008 F860     		str	r0, [r7, #12]
 904 000a B960     		str	r1, [r7, #8]
 905 000c 7A60     		str	r2, [r7, #4]
 906 000e 3B60     		str	r3, [r7]
 203:g:/iot/IoT_Device_Demo/iot_link/network/lwm2m/wakaama_lwm2m/wakaama-master/core\management.c ****     uint8_t result;
 204:g:/iot/IoT_Device_Demo/iot_link/network/lwm2m/wakaama_lwm2m/wakaama-master/core\management.c ****     lwm2m_media_type_t format;
 205:g:/iot/IoT_Device_Demo/iot_link/network/lwm2m/wakaama_lwm2m/wakaama-master/core\management.c **** 
 206:g:/iot/IoT_Device_Demo/iot_link/network/lwm2m/wakaama_lwm2m/wakaama-master/core\management.c ****     LOG_ARG("Code: %02X, server status: %s", message->code, STR_STATUS(serverP->status));
 907              		.loc 2 206 5
 908 0010 FFF7FEFF 		bl	link_log_level_get
 909 0014 0346     		mov	r3, r0
 910 0016 012B     		cmp	r3, #1
 911 0018 00F28980 		bhi	.L55
 912              		.loc 2 206 5 is_stmt 0 discriminator 1
 913 001c 0120     		movs	r0, #1
 914 001e FFF7FEFF 		bl	link_log_level_name
 915 0022 0446     		mov	r4, r0
 916 0024 FFF7FEFF 		bl	osal_sys_time
 917 0028 0246     		mov	r2, r0
ARM GAS  C:\Users\ADMINI~1\AppData\Local\Temp\ccrLD8ST.s 			page 29


 918 002a 0B46     		mov	r3, r1
 919 002c 1546     		mov	r5, r2
 920 002e FFF7FEFF 		bl	lwm2m_gettime
 921 0032 0246     		mov	r2, r0
 922 0034 0B46     		mov	r3, r1
 923 0036 3B68     		ldr	r3, [r7]
 924 0038 9B79     		ldrb	r3, [r3, #6]	@ zero_extendqisi2
 925 003a 1946     		mov	r1, r3
 926 003c 7B68     		ldr	r3, [r7, #4]
 927 003e 93F82030 		ldrb	r3, [r3, #32]	@ zero_extendqisi2
 928 0042 002B     		cmp	r3, #0
 929 0044 63D0     		beq	.L56
 930              		.loc 2 206 5 discriminator 2
 931 0046 7B68     		ldr	r3, [r7, #4]
 932 0048 93F82030 		ldrb	r3, [r3, #32]	@ zero_extendqisi2
 933 004c 012B     		cmp	r3, #1
 934 004e 5CD0     		beq	.L57
 935              		.loc 2 206 5 discriminator 4
 936 0050 7B68     		ldr	r3, [r7, #4]
 937 0052 93F82030 		ldrb	r3, [r3, #32]	@ zero_extendqisi2
 938 0056 022B     		cmp	r3, #2
 939 0058 55D0     		beq	.L58
 940              		.loc 2 206 5 discriminator 6
 941 005a 7B68     		ldr	r3, [r7, #4]
 942 005c 93F82030 		ldrb	r3, [r3, #32]	@ zero_extendqisi2
 943 0060 032B     		cmp	r3, #3
 944 0062 4ED0     		beq	.L59
 945              		.loc 2 206 5 discriminator 8
 946 0064 7B68     		ldr	r3, [r7, #4]
 947 0066 93F82030 		ldrb	r3, [r3, #32]	@ zero_extendqisi2
 948 006a 042B     		cmp	r3, #4
 949 006c 47D0     		beq	.L60
 950              		.loc 2 206 5 discriminator 10
 951 006e 7B68     		ldr	r3, [r7, #4]
 952 0070 93F82030 		ldrb	r3, [r3, #32]	@ zero_extendqisi2
 953 0074 052B     		cmp	r3, #5
 954 0076 40D0     		beq	.L61
 955              		.loc 2 206 5 discriminator 12
 956 0078 7B68     		ldr	r3, [r7, #4]
 957 007a 93F82030 		ldrb	r3, [r3, #32]	@ zero_extendqisi2
 958 007e 062B     		cmp	r3, #6
 959 0080 39D0     		beq	.L62
 960              		.loc 2 206 5 discriminator 14
 961 0082 7B68     		ldr	r3, [r7, #4]
 962 0084 93F82030 		ldrb	r3, [r3, #32]	@ zero_extendqisi2
 963 0088 072B     		cmp	r3, #7
 964 008a 32D0     		beq	.L63
 965              		.loc 2 206 5 discriminator 16
 966 008c 7B68     		ldr	r3, [r7, #4]
 967 008e 93F82030 		ldrb	r3, [r3, #32]	@ zero_extendqisi2
 968 0092 082B     		cmp	r3, #8
 969 0094 2BD0     		beq	.L64
 970              		.loc 2 206 5 discriminator 18
 971 0096 7B68     		ldr	r3, [r7, #4]
 972 0098 93F82030 		ldrb	r3, [r3, #32]	@ zero_extendqisi2
 973 009c 092B     		cmp	r3, #9
 974 009e 24D0     		beq	.L65
ARM GAS  C:\Users\ADMINI~1\AppData\Local\Temp\ccrLD8ST.s 			page 30


 975              		.loc 2 206 5 discriminator 20
 976 00a0 7B68     		ldr	r3, [r7, #4]
 977 00a2 93F82030 		ldrb	r3, [r3, #32]	@ zero_extendqisi2
 978 00a6 0A2B     		cmp	r3, #10
 979 00a8 1DD0     		beq	.L66
 980              		.loc 2 206 5 discriminator 22
 981 00aa 7B68     		ldr	r3, [r7, #4]
 982 00ac 93F82030 		ldrb	r3, [r3, #32]	@ zero_extendqisi2
 983 00b0 0C2B     		cmp	r3, #12
 984 00b2 16D0     		beq	.L67
 985              		.loc 2 206 5 discriminator 24
 986 00b4 7B68     		ldr	r3, [r7, #4]
 987 00b6 93F82030 		ldrb	r3, [r3, #32]	@ zero_extendqisi2
 988 00ba 0B2B     		cmp	r3, #11
 989 00bc 0FD0     		beq	.L68
 990              		.loc 2 206 5 discriminator 26
 991 00be 7B68     		ldr	r3, [r7, #4]
 992 00c0 93F82030 		ldrb	r3, [r3, #32]	@ zero_extendqisi2
 993 00c4 0D2B     		cmp	r3, #13
 994 00c6 08D0     		beq	.L69
 995              		.loc 2 206 5 discriminator 28
 996 00c8 7B68     		ldr	r3, [r7, #4]
 997 00ca 93F82030 		ldrb	r3, [r3, #32]	@ zero_extendqisi2
 998 00ce 0E2B     		cmp	r3, #14
 999 00d0 01D1     		bne	.L70
 1000              		.loc 2 206 5 discriminator 30
 1001 00d2 AB4B     		ldr	r3, .L144
 1002 00d4 1CE0     		b	.L85
 1003              	.L70:
 1004              		.loc 2 206 5 discriminator 31
 1005 00d6 AB4B     		ldr	r3, .L144+4
 1006 00d8 1AE0     		b	.L85
 1007              	.L69:
 1008              		.loc 2 206 5 discriminator 29
 1009 00da AB4B     		ldr	r3, .L144+8
 1010 00dc 18E0     		b	.L85
 1011              	.L68:
 1012              		.loc 2 206 5 discriminator 27
 1013 00de AB4B     		ldr	r3, .L144+12
 1014 00e0 16E0     		b	.L85
 1015              	.L67:
 1016              		.loc 2 206 5 discriminator 25
 1017 00e2 AB4B     		ldr	r3, .L144+16
 1018 00e4 14E0     		b	.L85
 1019              	.L66:
 1020              		.loc 2 206 5 discriminator 23
 1021 00e6 AB4B     		ldr	r3, .L144+20
 1022 00e8 12E0     		b	.L85
 1023              	.L65:
 1024              		.loc 2 206 5 discriminator 21
 1025 00ea AB4B     		ldr	r3, .L144+24
 1026 00ec 10E0     		b	.L85
 1027              	.L64:
 1028              		.loc 2 206 5 discriminator 19
 1029 00ee AB4B     		ldr	r3, .L144+28
 1030 00f0 0EE0     		b	.L85
 1031              	.L63:
ARM GAS  C:\Users\ADMINI~1\AppData\Local\Temp\ccrLD8ST.s 			page 31


 1032              		.loc 2 206 5 discriminator 17
 1033 00f2 AB4B     		ldr	r3, .L144+32
 1034 00f4 0CE0     		b	.L85
 1035              	.L62:
 1036              		.loc 2 206 5 discriminator 15
 1037 00f6 AB4B     		ldr	r3, .L144+36
 1038 00f8 0AE0     		b	.L85
 1039              	.L61:
 1040              		.loc 2 206 5 discriminator 13
 1041 00fa AB4B     		ldr	r3, .L144+40
 1042 00fc 08E0     		b	.L85
 1043              	.L60:
 1044              		.loc 2 206 5 discriminator 11
 1045 00fe AB4B     		ldr	r3, .L144+44
 1046 0100 06E0     		b	.L85
 1047              	.L59:
 1048              		.loc 2 206 5 discriminator 9
 1049 0102 AB4B     		ldr	r3, .L144+48
 1050 0104 04E0     		b	.L85
 1051              	.L58:
 1052              		.loc 2 206 5 discriminator 7
 1053 0106 AB4B     		ldr	r3, .L144+52
 1054 0108 02E0     		b	.L85
 1055              	.L57:
 1056              		.loc 2 206 5 discriminator 5
 1057 010a AB4B     		ldr	r3, .L144+56
 1058 010c 00E0     		b	.L85
 1059              	.L56:
 1060              		.loc 2 206 5 discriminator 3
 1061 010e AB4B     		ldr	r3, .L144+60
 1062              	.L85:
 1063              		.loc 2 206 5 discriminator 61
 1064 0110 0593     		str	r3, [sp, #20]
 1065 0112 0491     		str	r1, [sp, #16]
 1066 0114 CE23     		movs	r3, #206
 1067 0116 0393     		str	r3, [sp, #12]
 1068 0118 A94B     		ldr	r3, .L144+64
 1069 011a 0293     		str	r3, [sp, #8]
 1070 011c 0192     		str	r2, [sp, #4]
 1071 011e CE23     		movs	r3, #206
 1072 0120 0093     		str	r3, [sp]
 1073 0122 A84B     		ldr	r3, .L144+68
 1074 0124 2A46     		mov	r2, r5
 1075 0126 2146     		mov	r1, r4
 1076 0128 A748     		ldr	r0, .L144+72
 1077 012a FFF7FEFF 		bl	printf
 1078              	.L55:
 207:g:/iot/IoT_Device_Demo/iot_link/network/lwm2m/wakaama_lwm2m/wakaama-master/core\management.c ****     LOG_URI(uriP);
 1079              		.loc 2 207 5 is_stmt 1
 1080 012e BB68     		ldr	r3, [r7, #8]
 1081 0130 002B     		cmp	r3, #0
 1082 0132 18D1     		bne	.L86
 1083              		.loc 2 207 5 is_stmt 0 discriminator 1
 1084 0134 FFF7FEFF 		bl	link_log_level_get
 1085 0138 0346     		mov	r3, r0
 1086 013a 012B     		cmp	r3, #1
 1087 013c 7CD8     		bhi	.L87
ARM GAS  C:\Users\ADMINI~1\AppData\Local\Temp\ccrLD8ST.s 			page 32


 1088              		.loc 2 207 5 discriminator 3
 1089 013e 0120     		movs	r0, #1
 1090 0140 FFF7FEFF 		bl	link_log_level_name
 1091 0144 0446     		mov	r4, r0
 1092 0146 FFF7FEFF 		bl	osal_sys_time
 1093 014a 0246     		mov	r2, r0
 1094 014c 0B46     		mov	r3, r1
 1095 014e CF23     		movs	r3, #207
 1096 0150 0293     		str	r3, [sp, #8]
 1097 0152 9B4B     		ldr	r3, .L144+64
 1098 0154 0193     		str	r3, [sp, #4]
 1099 0156 CF23     		movs	r3, #207
 1100 0158 0093     		str	r3, [sp]
 1101 015a 9A4B     		ldr	r3, .L144+68
 1102 015c 2146     		mov	r1, r4
 1103 015e 9B48     		ldr	r0, .L144+76
 1104 0160 FFF7FEFF 		bl	printf
 1105 0164 68E0     		b	.L87
 1106              	.L86:
 1107              		.loc 2 207 5 discriminator 2
 1108 0166 FFF7FEFF 		bl	link_log_level_get
 1109 016a 0346     		mov	r3, r0
 1110 016c 012B     		cmp	r3, #1
 1111 016e 15D8     		bhi	.L88
 1112              		.loc 2 207 5 discriminator 4
 1113 0170 0120     		movs	r0, #1
 1114 0172 FFF7FEFF 		bl	link_log_level_name
 1115 0176 0446     		mov	r4, r0
 1116 0178 FFF7FEFF 		bl	osal_sys_time
 1117 017c 0246     		mov	r2, r0
 1118 017e 0B46     		mov	r3, r1
 1119 0180 BB68     		ldr	r3, [r7, #8]
 1120 0182 5B88     		ldrh	r3, [r3, #2]
 1121 0184 0393     		str	r3, [sp, #12]
 1122 0186 CF23     		movs	r3, #207
 1123 0188 0293     		str	r3, [sp, #8]
 1124 018a 8D4B     		ldr	r3, .L144+64
 1125 018c 0193     		str	r3, [sp, #4]
 1126 018e CF23     		movs	r3, #207
 1127 0190 0093     		str	r3, [sp]
 1128 0192 8C4B     		ldr	r3, .L144+68
 1129 0194 2146     		mov	r1, r4
 1130 0196 8E48     		ldr	r0, .L144+80
 1131 0198 FFF7FEFF 		bl	printf
 1132              	.L88:
 1133              		.loc 2 207 5 discriminator 6
 1134 019c BB68     		ldr	r3, [r7, #8]
 1135 019e 1B78     		ldrb	r3, [r3]	@ zero_extendqisi2
 1136 01a0 03F00203 		and	r3, r3, #2
 1137 01a4 002B     		cmp	r3, #0
 1138 01a6 16D0     		beq	.L89
 1139              		.loc 2 207 5 discriminator 7
 1140 01a8 FFF7FEFF 		bl	link_log_level_get
 1141 01ac 0346     		mov	r3, r0
 1142 01ae 012B     		cmp	r3, #1
 1143 01b0 11D8     		bhi	.L89
 1144              		.loc 2 207 5 discriminator 9
ARM GAS  C:\Users\ADMINI~1\AppData\Local\Temp\ccrLD8ST.s 			page 33


 1145 01b2 0120     		movs	r0, #1
 1146 01b4 FFF7FEFF 		bl	link_log_level_name
 1147 01b8 0446     		mov	r4, r0
 1148 01ba FFF7FEFF 		bl	osal_sys_time
 1149 01be 0246     		mov	r2, r0
 1150 01c0 0B46     		mov	r3, r1
 1151 01c2 BB68     		ldr	r3, [r7, #8]
 1152 01c4 9B88     		ldrh	r3, [r3, #4]
 1153 01c6 0193     		str	r3, [sp, #4]
 1154 01c8 CF23     		movs	r3, #207
 1155 01ca 0093     		str	r3, [sp]
 1156 01cc 7D4B     		ldr	r3, .L144+68
 1157 01ce 2146     		mov	r1, r4
 1158 01d0 8048     		ldr	r0, .L144+84
 1159 01d2 FFF7FEFF 		bl	printf
 1160              	.L89:
 1161              		.loc 2 207 5 discriminator 11
 1162 01d6 BB68     		ldr	r3, [r7, #8]
 1163 01d8 1B78     		ldrb	r3, [r3]	@ zero_extendqisi2
 1164 01da 03F00103 		and	r3, r3, #1
 1165 01de 002B     		cmp	r3, #0
 1166 01e0 16D0     		beq	.L90
 1167              		.loc 2 207 5 discriminator 12
 1168 01e2 FFF7FEFF 		bl	link_log_level_get
 1169 01e6 0346     		mov	r3, r0
 1170 01e8 012B     		cmp	r3, #1
 1171 01ea 11D8     		bhi	.L90
 1172              		.loc 2 207 5 discriminator 14
 1173 01ec 0120     		movs	r0, #1
 1174 01ee FFF7FEFF 		bl	link_log_level_name
 1175 01f2 0446     		mov	r4, r0
 1176 01f4 FFF7FEFF 		bl	osal_sys_time
 1177 01f8 0246     		mov	r2, r0
 1178 01fa 0B46     		mov	r3, r1
 1179 01fc BB68     		ldr	r3, [r7, #8]
 1180 01fe DB88     		ldrh	r3, [r3, #6]
 1181 0200 0193     		str	r3, [sp, #4]
 1182 0202 CF23     		movs	r3, #207
 1183 0204 0093     		str	r3, [sp]
 1184 0206 6F4B     		ldr	r3, .L144+68
 1185 0208 2146     		mov	r1, r4
 1186 020a 7248     		ldr	r0, .L144+84
 1187 020c FFF7FEFF 		bl	printf
 1188              	.L90:
 1189              		.loc 2 207 5 discriminator 16
 1190 0210 FFF7FEFF 		bl	link_log_level_get
 1191 0214 0346     		mov	r3, r0
 1192 0216 012B     		cmp	r3, #1
 1193 0218 0ED8     		bhi	.L87
 1194              		.loc 2 207 5 discriminator 17
 1195 021a 0120     		movs	r0, #1
 1196 021c FFF7FEFF 		bl	link_log_level_name
 1197 0220 0446     		mov	r4, r0
 1198 0222 FFF7FEFF 		bl	osal_sys_time
 1199 0226 0246     		mov	r2, r0
 1200 0228 0B46     		mov	r3, r1
 1201 022a CF23     		movs	r3, #207
ARM GAS  C:\Users\ADMINI~1\AppData\Local\Temp\ccrLD8ST.s 			page 34


 1202 022c 0093     		str	r3, [sp]
 1203 022e 654B     		ldr	r3, .L144+68
 1204 0230 2146     		mov	r1, r4
 1205 0232 6948     		ldr	r0, .L144+88
 1206 0234 FFF7FEFF 		bl	printf
 1207              	.L87:
 208:g:/iot/IoT_Device_Demo/iot_link/network/lwm2m/wakaama_lwm2m/wakaama-master/core\management.c **** 
 209:g:/iot/IoT_Device_Demo/iot_link/network/lwm2m/wakaama_lwm2m/wakaama-master/core\management.c ****     if (IS_OPTION(message, COAP_OPTION_CONTENT_TYPE))
 1208              		.loc 2 209 9 is_stmt 1
 1209 0238 3B68     		ldr	r3, [r7]
 1210 023a DB7A     		ldrb	r3, [r3, #11]	@ zero_extendqisi2
 1211 023c 03F01003 		and	r3, r3, #16
 1212              		.loc 2 209 8
 1213 0240 002B     		cmp	r3, #0
 1214 0242 08D0     		beq	.L91
 210:g:/iot/IoT_Device_Demo/iot_link/network/lwm2m/wakaama_lwm2m/wakaama-master/core\management.c ****     {
 211:g:/iot/IoT_Device_Demo/iot_link/network/lwm2m/wakaama_lwm2m/wakaama-master/core\management.c ****         format = utils_convertMediaType(message->content_type);
 1215              		.loc 2 211 18
 1216 0244 3B68     		ldr	r3, [r7]
 1217 0246 1B8A     		ldrh	r3, [r3, #16]
 1218 0248 1846     		mov	r0, r3
 1219 024a FFF7FEFF 		bl	utils_convertMediaType
 1220 024e 0346     		mov	r3, r0
 1221              		.loc 2 211 16
 1222 0250 A7F85E30 		strh	r3, [r7, #94]	@ movhi
 1223 0254 0BE0     		b	.L92
 1224              	.L91:
 212:g:/iot/IoT_Device_Demo/iot_link/network/lwm2m/wakaama_lwm2m/wakaama-master/core\management.c ****     }
 213:g:/iot/IoT_Device_Demo/iot_link/network/lwm2m/wakaama_lwm2m/wakaama-master/core\management.c ****     else
 214:g:/iot/IoT_Device_Demo/iot_link/network/lwm2m/wakaama_lwm2m/wakaama-master/core\management.c ****     {
 215:g:/iot/IoT_Device_Demo/iot_link/network/lwm2m/wakaama_lwm2m/wakaama-master/core\management.c ****         format = (dm_isUriOpaqueHandle(uriP) ? LWM2M_CONTENT_OPAQUE : LWM2M_CONTENT_TLV);
 1225              		.loc 2 215 19
 1226 0256 B868     		ldr	r0, [r7, #8]
 1227 0258 FFF7FEFF 		bl	dm_isUriOpaqueHandle
 1228 025c 0346     		mov	r3, r0
 1229              		.loc 2 215 69
 1230 025e 002B     		cmp	r3, #0
 1231 0260 01D0     		beq	.L93
 1232              		.loc 2 215 69 is_stmt 0 discriminator 1
 1233 0262 2A23     		movs	r3, #42
 1234 0264 01E0     		b	.L94
 1235              	.L93:
 1236              		.loc 2 215 69 discriminator 2
 1237 0266 42F61653 		movw	r3, #11542
 1238              	.L94:
 1239              		.loc 2 215 16 is_stmt 1 discriminator 4
 1240 026a A7F85E30 		strh	r3, [r7, #94]	@ movhi
 1241              	.L92:
 216:g:/iot/IoT_Device_Demo/iot_link/network/lwm2m/wakaama_lwm2m/wakaama-master/core\management.c **** 
 217:g:/iot/IoT_Device_Demo/iot_link/network/lwm2m/wakaama_lwm2m/wakaama-master/core\management.c ****     }
 218:g:/iot/IoT_Device_Demo/iot_link/network/lwm2m/wakaama_lwm2m/wakaama-master/core\management.c **** 
 219:g:/iot/IoT_Device_Demo/iot_link/network/lwm2m/wakaama_lwm2m/wakaama-master/core\management.c ****     if (uriP->objectId == LWM2M_SECURITY_OBJECT_ID)
 1242              		.loc 2 219 13
 1243 026e BB68     		ldr	r3, [r7, #8]
 1244 0270 5B88     		ldrh	r3, [r3, #2]
 1245              		.loc 2 219 8
 1246 0272 002B     		cmp	r3, #0
ARM GAS  C:\Users\ADMINI~1\AppData\Local\Temp\ccrLD8ST.s 			page 35


 1247 0274 01D1     		bne	.L95
 220:g:/iot/IoT_Device_Demo/iot_link/network/lwm2m/wakaama_lwm2m/wakaama-master/core\management.c ****     {
 221:g:/iot/IoT_Device_Demo/iot_link/network/lwm2m/wakaama_lwm2m/wakaama-master/core\management.c ****         return COAP_404_NOT_FOUND;
 1248              		.loc 2 221 16
 1249 0276 8423     		movs	r3, #132
 1250 0278 D4E2     		b	.L141
 1251              	.L95:
 222:g:/iot/IoT_Device_Demo/iot_link/network/lwm2m/wakaama_lwm2m/wakaama-master/core\management.c ****     }
 223:g:/iot/IoT_Device_Demo/iot_link/network/lwm2m/wakaama_lwm2m/wakaama-master/core\management.c **** 
 224:g:/iot/IoT_Device_Demo/iot_link/network/lwm2m/wakaama_lwm2m/wakaama-master/core\management.c ****     if (serverP->status != STATE_REGISTERED
 1252              		.loc 2 224 16
 1253 027a 7B68     		ldr	r3, [r7, #4]
 1254 027c 93F82030 		ldrb	r3, [r3, #32]	@ zero_extendqisi2
 1255              		.loc 2 224 8
 1256 0280 022B     		cmp	r3, #2
 1257 0282 10D0     		beq	.L97
 225:g:/iot/IoT_Device_Demo/iot_link/network/lwm2m/wakaama_lwm2m/wakaama-master/core\management.c ****             && serverP->status != STATE_REG_UPDATE_NEEDED
 1258              		.loc 2 225 23
 1259 0284 7B68     		ldr	r3, [r7, #4]
 1260 0286 93F82030 		ldrb	r3, [r3, #32]	@ zero_extendqisi2
 1261              		.loc 2 225 13
 1262 028a 052B     		cmp	r3, #5
 1263 028c 0BD0     		beq	.L97
 226:g:/iot/IoT_Device_Demo/iot_link/network/lwm2m/wakaama_lwm2m/wakaama-master/core\management.c ****             && serverP->status != STATE_REG_FULL_UPDATE_NEEDED
 1264              		.loc 2 226 23
 1265 028e 7B68     		ldr	r3, [r7, #4]
 1266 0290 93F82030 		ldrb	r3, [r3, #32]	@ zero_extendqisi2
 1267              		.loc 2 226 13
 1268 0294 062B     		cmp	r3, #6
 1269 0296 06D0     		beq	.L97
 227:g:/iot/IoT_Device_Demo/iot_link/network/lwm2m/wakaama_lwm2m/wakaama-master/core\management.c ****             && serverP->status != STATE_REG_UPDATE_PENDING)
 1270              		.loc 2 227 23
 1271 0298 7B68     		ldr	r3, [r7, #4]
 1272 029a 93F82030 		ldrb	r3, [r3, #32]	@ zero_extendqisi2
 1273              		.loc 2 227 13
 1274 029e 042B     		cmp	r3, #4
 1275 02a0 01D0     		beq	.L97
 228:g:/iot/IoT_Device_Demo/iot_link/network/lwm2m/wakaama_lwm2m/wakaama-master/core\management.c ****     {
 229:g:/iot/IoT_Device_Demo/iot_link/network/lwm2m/wakaama_lwm2m/wakaama-master/core\management.c ****         return COAP_IGNORE;
 1276              		.loc 2 229 16
 1277 02a2 0123     		movs	r3, #1
 1278 02a4 BEE2     		b	.L141
 1279              	.L97:
 230:g:/iot/IoT_Device_Demo/iot_link/network/lwm2m/wakaama_lwm2m/wakaama-master/core\management.c ****     }
 231:g:/iot/IoT_Device_Demo/iot_link/network/lwm2m/wakaama_lwm2m/wakaama-master/core\management.c **** 
 232:g:/iot/IoT_Device_Demo/iot_link/network/lwm2m/wakaama_lwm2m/wakaama-master/core\management.c ****     switch (message->code)
 1280              		.loc 2 232 20
 1281 02a6 3B68     		ldr	r3, [r7]
 1282 02a8 9B79     		ldrb	r3, [r3, #6]	@ zero_extendqisi2
 1283 02aa 013B     		subs	r3, r3, #1
 1284 02ac 032B     		cmp	r3, #3
 1285 02ae 00F2B082 		bhi	.L98
 1286 02b2 01A2     		adr	r2, .L100
 1287 02b4 52F823F0 		ldr	pc, [r2, r3, lsl #2]
 1288              		.p2align 2
 1289              	.L100:
 1290 02b8 C9020000 		.word	.L103+1
ARM GAS  C:\Users\ADMINI~1\AppData\Local\Temp\ccrLD8ST.s 			page 36


 1291 02bc 97050000 		.word	.L102+1
 1292 02c0 E1060000 		.word	.L101+1
 1293 02c4 AF070000 		.word	.L99+1
 1294              		.p2align 1
 1295              	.L103:
 1296              	.LBB2:
 233:g:/iot/IoT_Device_Demo/iot_link/network/lwm2m/wakaama_lwm2m/wakaama-master/core\management.c ****     {
 234:g:/iot/IoT_Device_Demo/iot_link/network/lwm2m/wakaama_lwm2m/wakaama-master/core\management.c ****     case COAP_GET:
 235:g:/iot/IoT_Device_Demo/iot_link/network/lwm2m/wakaama_lwm2m/wakaama-master/core\management.c ****     {
 236:g:/iot/IoT_Device_Demo/iot_link/network/lwm2m/wakaama_lwm2m/wakaama-master/core\management.c ****         uint8_t *buffer = NULL;
 1297              		.loc 2 236 18
 1298 02c8 0023     		movs	r3, #0
 1299 02ca BB65     		str	r3, [r7, #88]
 237:g:/iot/IoT_Device_Demo/iot_link/network/lwm2m/wakaama_lwm2m/wakaama-master/core\management.c ****         size_t length = 0;
 1300              		.loc 2 237 16
 1301 02cc 0023     		movs	r3, #0
 1302 02ce 7B65     		str	r3, [r7, #84]
 238:g:/iot/IoT_Device_Demo/iot_link/network/lwm2m/wakaama_lwm2m/wakaama-master/core\management.c ****         int res;
 239:g:/iot/IoT_Device_Demo/iot_link/network/lwm2m/wakaama_lwm2m/wakaama-master/core\management.c **** 
 240:g:/iot/IoT_Device_Demo/iot_link/network/lwm2m/wakaama_lwm2m/wakaama-master/core\management.c ****         if (IS_OPTION(message, COAP_OPTION_OBSERVE))
 1303              		.loc 2 240 13
 1304 02d0 3B68     		ldr	r3, [r7]
 1305 02d2 9B7A     		ldrb	r3, [r3, #10]	@ zero_extendqisi2
 1306 02d4 03F04003 		and	r3, r3, #64
 1307              		.loc 2 240 12
 1308 02d8 002B     		cmp	r3, #0
 1309 02da 00F0DF80 		beq	.L104
 1310              	.LBB3:
 241:g:/iot/IoT_Device_Demo/iot_link/network/lwm2m/wakaama_lwm2m/wakaama-master/core\management.c ****         {
 242:g:/iot/IoT_Device_Demo/iot_link/network/lwm2m/wakaama_lwm2m/wakaama-master/core\management.c ****             lwm2m_data_t *dataP = NULL;
 1311              		.loc 2 242 27
 1312 02de 0023     		movs	r3, #0
 1313 02e0 3B65     		str	r3, [r7, #80]
 243:g:/iot/IoT_Device_Demo/iot_link/network/lwm2m/wakaama_lwm2m/wakaama-master/core\management.c ****             int size = 0;
 1314              		.loc 2 243 17
 1315 02e2 0023     		movs	r3, #0
 1316 02e4 FB64     		str	r3, [r7, #76]
 244:g:/iot/IoT_Device_Demo/iot_link/network/lwm2m/wakaama_lwm2m/wakaama-master/core\management.c **** 
 245:g:/iot/IoT_Device_Demo/iot_link/network/lwm2m/wakaama_lwm2m/wakaama-master/core\management.c ****             if ((result = acc_auth_operate(contextP, uriP, OBJ_ACC_OBSERVE, serverP->shortID)) != C
 1317              		.loc 2 245 27
 1318 02e6 7B68     		ldr	r3, [r7, #4]
 1319 02e8 DB88     		ldrh	r3, [r3, #6]
 1320 02ea 0022     		movs	r2, #0
 1321 02ec B968     		ldr	r1, [r7, #8]
 1322 02ee F868     		ldr	r0, [r7, #12]
 1323 02f0 FFF7FEFF 		bl	acc_auth_operate
 1324 02f4 0346     		mov	r3, r0
 1325 02f6 87F86730 		strb	r3, [r7, #103]
 1326              		.loc 2 245 16
 1327 02fa 97F86730 		ldrb	r3, [r7, #103]	@ zero_extendqisi2
 1328 02fe 002B     		cmp	r3, #0
 1329 0300 02D0     		beq	.L105
 246:g:/iot/IoT_Device_Demo/iot_link/network/lwm2m/wakaama_lwm2m/wakaama-master/core\management.c ****             {
 247:g:/iot/IoT_Device_Demo/iot_link/network/lwm2m/wakaama_lwm2m/wakaama-master/core\management.c ****                 return result;
 1330              		.loc 2 247 24
 1331 0302 97F86730 		ldrb	r3, [r7, #103]	@ zero_extendqisi2
 1332 0306 8DE2     		b	.L141
ARM GAS  C:\Users\ADMINI~1\AppData\Local\Temp\ccrLD8ST.s 			page 37


 1333              	.L105:
 248:g:/iot/IoT_Device_Demo/iot_link/network/lwm2m/wakaama_lwm2m/wakaama-master/core\management.c ****             }
 249:g:/iot/IoT_Device_Demo/iot_link/network/lwm2m/wakaama_lwm2m/wakaama-master/core\management.c **** 
 250:g:/iot/IoT_Device_Demo/iot_link/network/lwm2m/wakaama_lwm2m/wakaama-master/core\management.c ****             result = object_readData(contextP, uriP, &size, &dataP, NULL, serverP->shortID);
 1334              		.loc 2 250 22
 1335 0308 7B68     		ldr	r3, [r7, #4]
 1336 030a DB88     		ldrh	r3, [r3, #6]
 1337 030c 07F15001 		add	r1, r7, #80
 1338 0310 07F14C02 		add	r2, r7, #76
 1339 0314 0193     		str	r3, [sp, #4]
 1340 0316 0023     		movs	r3, #0
 1341 0318 0093     		str	r3, [sp]
 1342 031a 0B46     		mov	r3, r1
 1343 031c B968     		ldr	r1, [r7, #8]
 1344 031e F868     		ldr	r0, [r7, #12]
 1345 0320 FFF7FEFF 		bl	object_readData
 1346 0324 0346     		mov	r3, r0
 1347 0326 87F86730 		strb	r3, [r7, #103]
 251:g:/iot/IoT_Device_Demo/iot_link/network/lwm2m/wakaama_lwm2m/wakaama-master/core\management.c ****             if (COAP_205_CONTENT == result)
 1348              		.loc 2 251 16
 1349 032a 97F86730 		ldrb	r3, [r7, #103]	@ zero_extendqisi2
 1350 032e 452B     		cmp	r3, #69
 1351 0330 40F01981 		bne	.L113
 252:g:/iot/IoT_Device_Demo/iot_link/network/lwm2m/wakaama_lwm2m/wakaama-master/core\management.c ****             {
 253:g:/iot/IoT_Device_Demo/iot_link/network/lwm2m/wakaama_lwm2m/wakaama-master/core\management.c ****                 result = observe_handleRequest(contextP, uriP, serverP, size, dataP, message, respo
 1352              		.loc 2 253 26
 1353 0334 F96C     		ldr	r1, [r7, #76]
 1354 0336 3B6D     		ldr	r3, [r7, #80]
 1355 0338 D7F88020 		ldr	r2, [r7, #128]
 1356 033c 0292     		str	r2, [sp, #8]
 1357 033e 3A68     		ldr	r2, [r7]
 1358 0340 0192     		str	r2, [sp, #4]
 1359 0342 0093     		str	r3, [sp]
 1360 0344 0B46     		mov	r3, r1
 1361 0346 7A68     		ldr	r2, [r7, #4]
 1362 0348 B968     		ldr	r1, [r7, #8]
 1363 034a F868     		ldr	r0, [r7, #12]
 1364 034c FFF7FEFF 		bl	observe_handleRequest
 1365 0350 0346     		mov	r3, r0
 1366 0352 87F86730 		strb	r3, [r7, #103]
 254:g:/iot/IoT_Device_Demo/iot_link/network/lwm2m/wakaama_lwm2m/wakaama-master/core\management.c ****                 if (COAP_205_CONTENT == result)
 1367              		.loc 2 254 20
 1368 0356 97F86730 		ldrb	r3, [r7, #103]	@ zero_extendqisi2
 1369 035a 452B     		cmp	r3, #69
 1370 035c 40F09780 		bne	.L108
 255:g:/iot/IoT_Device_Demo/iot_link/network/lwm2m/wakaama_lwm2m/wakaama-master/core\management.c ****                 {
 256:g:/iot/IoT_Device_Demo/iot_link/network/lwm2m/wakaama_lwm2m/wakaama-master/core\management.c ****                     if (IS_OPTION(message, COAP_OPTION_ACCEPT))
 1371              		.loc 2 256 25
 1372 0360 3B68     		ldr	r3, [r7]
 1373 0362 1B7B     		ldrb	r3, [r3, #12]	@ zero_extendqisi2
 1374 0364 03F00203 		and	r3, r3, #2
 1375              		.loc 2 256 24
 1376 0368 002B     		cmp	r3, #0
 1377 036a 37D0     		beq	.L109
 257:g:/iot/IoT_Device_Demo/iot_link/network/lwm2m/wakaama_lwm2m/wakaama-master/core\management.c ****                     {
 258:g:/iot/IoT_Device_Demo/iot_link/network/lwm2m/wakaama_lwm2m/wakaama-master/core\management.c ****                         format = utils_convertMediaType((coap_content_type_t)message->accept[0]);
 1378              		.loc 2 258 93
ARM GAS  C:\Users\ADMINI~1\AppData\Local\Temp\ccrLD8ST.s 			page 38


 1379 036c 3B68     		ldr	r3, [r7]
 1380 036e B3F85630 		ldrh	r3, [r3, #86]
 1381              		.loc 2 258 34
 1382 0372 1846     		mov	r0, r3
 1383 0374 FFF7FEFF 		bl	utils_convertMediaType
 1384 0378 0346     		mov	r3, r0
 1385              		.loc 2 258 32
 1386 037a A7F85E30 		strh	r3, [r7, #94]	@ movhi
 1387 037e 31E0     		b	.L110
 1388              	.L145:
 1389              		.align	2
 1390              	.L144:
 1391 0380 1C000000 		.word	.LC5
 1392 0384 2C000000 		.word	.LC6
 1393 0388 34000000 		.word	.LC7
 1394 038c 48000000 		.word	.LC8
 1395 0390 5C000000 		.word	.LC9
 1396 0394 70000000 		.word	.LC10
 1397 0398 84000000 		.word	.LC11
 1398 039c 98000000 		.word	.LC12
 1399 03a0 AC000000 		.word	.LC13
 1400 03a4 C0000000 		.word	.LC14
 1401 03a8 E0000000 		.word	.LC15
 1402 03ac F8000000 		.word	.LC16
 1403 03b0 14010000 		.word	.LC17
 1404 03b4 28010000 		.word	.LC18
 1405 03b8 3C010000 		.word	.LC19
 1406 03bc 50010000 		.word	.LC20
 1407 03c0 00000000 		.word	__func__.9109
 1408 03c4 00000000 		.word	__FUNCTION__.9108
 1409 03c8 64010000 		.word	.LC21
 1410 03cc A4010000 		.word	.LC22
 1411 03d0 C8010000 		.word	.LC23
 1412 03d4 E8010000 		.word	.LC24
 1413 03d8 00020000 		.word	.LC25
 1414              	.L109:
 259:g:/iot/IoT_Device_Demo/iot_link/network/lwm2m/wakaama_lwm2m/wakaama-master/core\management.c ****                     }
 260:g:/iot/IoT_Device_Demo/iot_link/network/lwm2m/wakaama_lwm2m/wakaama-master/core\management.c ****                     else
 261:g:/iot/IoT_Device_Demo/iot_link/network/lwm2m/wakaama_lwm2m/wakaama-master/core\management.c ****                     {
 262:g:/iot/IoT_Device_Demo/iot_link/network/lwm2m/wakaama_lwm2m/wakaama-master/core\management.c ****                         format = LWM2M_CONTENT_TLV;
 1415              		.loc 2 262 32
 1416 03dc 42F61653 		movw	r3, #11542
 1417 03e0 A7F85E30 		strh	r3, [r7, #94]	@ movhi
 1418              	.L110:
 263:g:/iot/IoT_Device_Demo/iot_link/network/lwm2m/wakaama_lwm2m/wakaama-master/core\management.c ****                     }
 264:g:/iot/IoT_Device_Demo/iot_link/network/lwm2m/wakaama_lwm2m/wakaama-master/core\management.c **** 
 265:g:/iot/IoT_Device_Demo/iot_link/network/lwm2m/wakaama_lwm2m/wakaama-master/core\management.c ****                     if(dm_isUriOpaqueHandle(uriP))
 1419              		.loc 2 265 24
 1420 03e4 B868     		ldr	r0, [r7, #8]
 1421 03e6 FFF7FEFF 		bl	dm_isUriOpaqueHandle
 1422 03ea 0346     		mov	r3, r0
 1423              		.loc 2 265 23
 1424 03ec 002B     		cmp	r3, #0
 1425 03ee 07D0     		beq	.L111
 266:g:/iot/IoT_Device_Demo/iot_link/network/lwm2m/wakaama_lwm2m/wakaama-master/core\management.c ****                     {
 267:g:/iot/IoT_Device_Demo/iot_link/network/lwm2m/wakaama_lwm2m/wakaama-master/core\management.c ****                         buffer = NULL;
 1426              		.loc 2 267 32
ARM GAS  C:\Users\ADMINI~1\AppData\Local\Temp\ccrLD8ST.s 			page 39


 1427 03f0 0023     		movs	r3, #0
 1428 03f2 BB65     		str	r3, [r7, #88]
 268:g:/iot/IoT_Device_Demo/iot_link/network/lwm2m/wakaama_lwm2m/wakaama-master/core\management.c ****                         length = 0;
 1429              		.loc 2 268 32
 1430 03f4 0023     		movs	r3, #0
 1431 03f6 7B65     		str	r3, [r7, #84]
 269:g:/iot/IoT_Device_Demo/iot_link/network/lwm2m/wakaama_lwm2m/wakaama-master/core\management.c ****                         format = LWM2M_CONTENT_OPAQUE;
 1432              		.loc 2 269 32
 1433 03f8 2A23     		movs	r3, #42
 1434 03fa A7F85E30 		strh	r3, [r7, #94]	@ movhi
 1435 03fe 46E0     		b	.L108
 1436              	.L111:
 270:g:/iot/IoT_Device_Demo/iot_link/network/lwm2m/wakaama_lwm2m/wakaama-master/core\management.c ****                     }
 271:g:/iot/IoT_Device_Demo/iot_link/network/lwm2m/wakaama_lwm2m/wakaama-master/core\management.c ****                     else
 272:g:/iot/IoT_Device_Demo/iot_link/network/lwm2m/wakaama_lwm2m/wakaama-master/core\management.c ****                     {
 273:g:/iot/IoT_Device_Demo/iot_link/network/lwm2m/wakaama_lwm2m/wakaama-master/core\management.c ****                         res = lwm2m_data_serialize(uriP, size, dataP, &format, &buffer);
 1437              		.loc 2 273 31
 1438 0400 F96C     		ldr	r1, [r7, #76]
 1439 0402 3A6D     		ldr	r2, [r7, #80]
 1440 0404 07F15E00 		add	r0, r7, #94
 1441 0408 07F15803 		add	r3, r7, #88
 1442 040c 0093     		str	r3, [sp]
 1443 040e 0346     		mov	r3, r0
 1444 0410 B868     		ldr	r0, [r7, #8]
 1445 0412 FFF7FEFF 		bl	lwm2m_data_serialize
 1446 0416 3866     		str	r0, [r7, #96]
 274:g:/iot/IoT_Device_Demo/iot_link/network/lwm2m/wakaama_lwm2m/wakaama-master/core\management.c ****                         if (res < 0)
 1447              		.loc 2 274 28
 1448 0418 3B6E     		ldr	r3, [r7, #96]
 1449 041a 002B     		cmp	r3, #0
 1450 041c 03DA     		bge	.L112
 275:g:/iot/IoT_Device_Demo/iot_link/network/lwm2m/wakaama_lwm2m/wakaama-master/core\management.c ****                         {
 276:g:/iot/IoT_Device_Demo/iot_link/network/lwm2m/wakaama_lwm2m/wakaama-master/core\management.c ****                             result = COAP_500_INTERNAL_SERVER_ERROR;
 1451              		.loc 2 276 36
 1452 041e A023     		movs	r3, #160
 1453 0420 87F86730 		strb	r3, [r7, #103]
 1454 0424 33E0     		b	.L108
 1455              	.L112:
 277:g:/iot/IoT_Device_Demo/iot_link/network/lwm2m/wakaama_lwm2m/wakaama-master/core\management.c ****                         }
 278:g:/iot/IoT_Device_Demo/iot_link/network/lwm2m/wakaama_lwm2m/wakaama-master/core\management.c ****                         else
 279:g:/iot/IoT_Device_Demo/iot_link/network/lwm2m/wakaama_lwm2m/wakaama-master/core\management.c ****                         {
 280:g:/iot/IoT_Device_Demo/iot_link/network/lwm2m/wakaama_lwm2m/wakaama-master/core\management.c ****                             length = (size_t)res;
 1456              		.loc 2 280 38
 1457 0426 3B6E     		ldr	r3, [r7, #96]
 1458              		.loc 2 280 36
 1459 0428 7B65     		str	r3, [r7, #84]
 281:g:/iot/IoT_Device_Demo/iot_link/network/lwm2m/wakaama_lwm2m/wakaama-master/core\management.c ****                             LOG_ARG("Observe Request[/%d/%d/%d]: %.*s\n", uriP->objectId, uriP->ins
 1460              		.loc 2 281 29
 1461 042a FFF7FEFF 		bl	link_log_level_get
 1462 042e 0346     		mov	r3, r0
 1463 0430 012B     		cmp	r3, #1
 1464 0432 2CD8     		bhi	.L108
 1465              		.loc 2 281 29 is_stmt 0 discriminator 1
 1466 0434 0120     		movs	r0, #1
 1467 0436 FFF7FEFF 		bl	link_log_level_name
 1468 043a 0446     		mov	r4, r0
 1469 043c FFF7FEFF 		bl	osal_sys_time
ARM GAS  C:\Users\ADMINI~1\AppData\Local\Temp\ccrLD8ST.s 			page 40


 1470 0440 0246     		mov	r2, r0
 1471 0442 0B46     		mov	r3, r1
 1472 0444 9046     		mov	r8, r2
 1473 0446 FFF7FEFF 		bl	lwm2m_gettime
 1474 044a 0246     		mov	r2, r0
 1475 044c 0B46     		mov	r3, r1
 1476 044e 1146     		mov	r1, r2
 1477 0450 BB68     		ldr	r3, [r7, #8]
 1478 0452 5B88     		ldrh	r3, [r3, #2]
 1479 0454 1846     		mov	r0, r3
 1480 0456 BB68     		ldr	r3, [r7, #8]
 1481 0458 9B88     		ldrh	r3, [r3, #4]
 1482 045a 1D46     		mov	r5, r3
 1483 045c BB68     		ldr	r3, [r7, #8]
 1484 045e DB88     		ldrh	r3, [r3, #6]
 1485 0460 1E46     		mov	r6, r3
 1486 0462 7B6D     		ldr	r3, [r7, #84]
 1487 0464 BA6D     		ldr	r2, [r7, #88]
 1488 0466 0892     		str	r2, [sp, #32]
 1489 0468 0793     		str	r3, [sp, #28]
 1490 046a 0696     		str	r6, [sp, #24]
 1491 046c 0595     		str	r5, [sp, #20]
 1492 046e 0490     		str	r0, [sp, #16]
 1493 0470 40F21913 		movw	r3, #281
 1494 0474 0393     		str	r3, [sp, #12]
 1495 0476 B34B     		ldr	r3, .L146
 1496 0478 0293     		str	r3, [sp, #8]
 1497 047a 0191     		str	r1, [sp, #4]
 1498 047c 40F21913 		movw	r3, #281
 1499 0480 0093     		str	r3, [sp]
 1500 0482 B14B     		ldr	r3, .L146+4
 1501 0484 4246     		mov	r2, r8
 1502 0486 2146     		mov	r1, r4
 1503 0488 B048     		ldr	r0, .L146+8
 1504 048a FFF7FEFF 		bl	printf
 1505              	.L108:
 282:g:/iot/IoT_Device_Demo/iot_link/network/lwm2m/wakaama_lwm2m/wakaama-master/core\management.c ****                         }
 283:g:/iot/IoT_Device_Demo/iot_link/network/lwm2m/wakaama_lwm2m/wakaama-master/core\management.c ****                     }
 284:g:/iot/IoT_Device_Demo/iot_link/network/lwm2m/wakaama_lwm2m/wakaama-master/core\management.c ****                 }
 285:g:/iot/IoT_Device_Demo/iot_link/network/lwm2m/wakaama_lwm2m/wakaama-master/core\management.c ****                 lwm2m_data_free(size, dataP);
 1506              		.loc 2 285 17 is_stmt 1
 1507 048e FB6C     		ldr	r3, [r7, #76]
 1508 0490 3A6D     		ldr	r2, [r7, #80]
 1509 0492 1146     		mov	r1, r2
 1510 0494 1846     		mov	r0, r3
 1511 0496 FFF7FEFF 		bl	lwm2m_data_free
 1512 049a 64E0     		b	.L113
 1513              	.L104:
 1514              	.LBE3:
 286:g:/iot/IoT_Device_Demo/iot_link/network/lwm2m/wakaama_lwm2m/wakaama-master/core\management.c ****             }
 287:g:/iot/IoT_Device_Demo/iot_link/network/lwm2m/wakaama_lwm2m/wakaama-master/core\management.c ****         }
 288:g:/iot/IoT_Device_Demo/iot_link/network/lwm2m/wakaama_lwm2m/wakaama-master/core\management.c ****         else if (IS_OPTION(message, COAP_OPTION_ACCEPT)
 1515              		.loc 2 288 18
 1516 049c 3B68     		ldr	r3, [r7]
 1517 049e 1B7B     		ldrb	r3, [r3, #12]	@ zero_extendqisi2
 1518 04a0 03F00203 		and	r3, r3, #2
 1519              		.loc 2 288 17
ARM GAS  C:\Users\ADMINI~1\AppData\Local\Temp\ccrLD8ST.s 			page 41


 1520 04a4 002B     		cmp	r3, #0
 1521 04a6 2CD0     		beq	.L114
 289:g:/iot/IoT_Device_Demo/iot_link/network/lwm2m/wakaama_lwm2m/wakaama-master/core\management.c ****                  && message->accept_num == 1
 1522              		.loc 2 289 28
 1523 04a8 3B68     		ldr	r3, [r7]
 1524 04aa 93F85530 		ldrb	r3, [r3, #85]	@ zero_extendqisi2
 1525              		.loc 2 289 18
 1526 04ae 012B     		cmp	r3, #1
 1527 04b0 27D1     		bne	.L114
 290:g:/iot/IoT_Device_Demo/iot_link/network/lwm2m/wakaama_lwm2m/wakaama-master/core\management.c ****                  && message->accept[0] == APPLICATION_LINK_FORMAT)
 1528              		.loc 2 290 36
 1529 04b2 3B68     		ldr	r3, [r7]
 1530 04b4 B3F85630 		ldrh	r3, [r3, #86]
 1531              		.loc 2 290 18
 1532 04b8 282B     		cmp	r3, #40
 1533 04ba 22D1     		bne	.L114
 291:g:/iot/IoT_Device_Demo/iot_link/network/lwm2m/wakaama_lwm2m/wakaama-master/core\management.c ****         {
 292:g:/iot/IoT_Device_Demo/iot_link/network/lwm2m/wakaama_lwm2m/wakaama-master/core\management.c ****             if ((result = acc_auth_operate(contextP, uriP, OBJ_ACC_DISCOVER, serverP->shortID)) != 
 1534              		.loc 2 292 27
 1535 04bc 7B68     		ldr	r3, [r7, #4]
 1536 04be DB88     		ldrh	r3, [r3, #6]
 1537 04c0 0522     		movs	r2, #5
 1538 04c2 B968     		ldr	r1, [r7, #8]
 1539 04c4 F868     		ldr	r0, [r7, #12]
 1540 04c6 FFF7FEFF 		bl	acc_auth_operate
 1541 04ca 0346     		mov	r3, r0
 1542 04cc 87F86730 		strb	r3, [r7, #103]
 1543              		.loc 2 292 16
 1544 04d0 97F86730 		ldrb	r3, [r7, #103]	@ zero_extendqisi2
 1545 04d4 002B     		cmp	r3, #0
 1546 04d6 02D0     		beq	.L115
 293:g:/iot/IoT_Device_Demo/iot_link/network/lwm2m/wakaama_lwm2m/wakaama-master/core\management.c ****             {
 294:g:/iot/IoT_Device_Demo/iot_link/network/lwm2m/wakaama_lwm2m/wakaama-master/core\management.c ****                 return result;
 1547              		.loc 2 294 24
 1548 04d8 97F86730 		ldrb	r3, [r7, #103]	@ zero_extendqisi2
 1549 04dc A2E1     		b	.L141
 1550              	.L115:
 295:g:/iot/IoT_Device_Demo/iot_link/network/lwm2m/wakaama_lwm2m/wakaama-master/core\management.c ****             }
 296:g:/iot/IoT_Device_Demo/iot_link/network/lwm2m/wakaama_lwm2m/wakaama-master/core\management.c ****             format = LWM2M_CONTENT_LINK;
 1551              		.loc 2 296 20
 1552 04de 2823     		movs	r3, #40
 1553 04e0 A7F85E30 		strh	r3, [r7, #94]	@ movhi
 297:g:/iot/IoT_Device_Demo/iot_link/network/lwm2m/wakaama_lwm2m/wakaama-master/core\management.c ****             result = object_discover(contextP, uriP, serverP, &buffer, &length);
 1554              		.loc 2 297 22
 1555 04e4 07F15802 		add	r2, r7, #88
 1556 04e8 07F15403 		add	r3, r7, #84
 1557 04ec 0093     		str	r3, [sp]
 1558 04ee 1346     		mov	r3, r2
 1559 04f0 7A68     		ldr	r2, [r7, #4]
 1560 04f2 B968     		ldr	r1, [r7, #8]
 1561 04f4 F868     		ldr	r0, [r7, #12]
 1562 04f6 FFF7FEFF 		bl	object_discover
 1563 04fa 0346     		mov	r3, r0
 1564 04fc 87F86730 		strb	r3, [r7, #103]
 1565              		.loc 2 297 20
 1566 0500 31E0     		b	.L113
 1567              	.L114:
ARM GAS  C:\Users\ADMINI~1\AppData\Local\Temp\ccrLD8ST.s 			page 42


 298:g:/iot/IoT_Device_Demo/iot_link/network/lwm2m/wakaama_lwm2m/wakaama-master/core\management.c ****         }
 299:g:/iot/IoT_Device_Demo/iot_link/network/lwm2m/wakaama_lwm2m/wakaama-master/core\management.c ****         else
 300:g:/iot/IoT_Device_Demo/iot_link/network/lwm2m/wakaama_lwm2m/wakaama-master/core\management.c ****         {
 301:g:/iot/IoT_Device_Demo/iot_link/network/lwm2m/wakaama_lwm2m/wakaama-master/core\management.c ****             if ((result = acc_auth_operate(contextP, uriP, OBJ_ACC_READ, serverP->shortID)) != COAP
 1568              		.loc 2 301 27
 1569 0502 7B68     		ldr	r3, [r7, #4]
 1570 0504 DB88     		ldrh	r3, [r3, #6]
 1571 0506 0022     		movs	r2, #0
 1572 0508 B968     		ldr	r1, [r7, #8]
 1573 050a F868     		ldr	r0, [r7, #12]
 1574 050c FFF7FEFF 		bl	acc_auth_operate
 1575 0510 0346     		mov	r3, r0
 1576 0512 87F86730 		strb	r3, [r7, #103]
 1577              		.loc 2 301 16
 1578 0516 97F86730 		ldrb	r3, [r7, #103]	@ zero_extendqisi2
 1579 051a 002B     		cmp	r3, #0
 1580 051c 02D0     		beq	.L116
 302:g:/iot/IoT_Device_Demo/iot_link/network/lwm2m/wakaama_lwm2m/wakaama-master/core\management.c ****             {
 303:g:/iot/IoT_Device_Demo/iot_link/network/lwm2m/wakaama_lwm2m/wakaama-master/core\management.c ****                 return result;
 1581              		.loc 2 303 24
 1582 051e 97F86730 		ldrb	r3, [r7, #103]	@ zero_extendqisi2
 1583 0522 7FE1     		b	.L141
 1584              	.L116:
 304:g:/iot/IoT_Device_Demo/iot_link/network/lwm2m/wakaama_lwm2m/wakaama-master/core\management.c ****             }
 305:g:/iot/IoT_Device_Demo/iot_link/network/lwm2m/wakaama_lwm2m/wakaama-master/core\management.c ****             if (IS_OPTION(message, COAP_OPTION_ACCEPT))
 1585              		.loc 2 305 17
 1586 0524 3B68     		ldr	r3, [r7]
 1587 0526 1B7B     		ldrb	r3, [r3, #12]	@ zero_extendqisi2
 1588 0528 03F00203 		and	r3, r3, #2
 1589              		.loc 2 305 16
 1590 052c 002B     		cmp	r3, #0
 1591 052e 08D0     		beq	.L117
 306:g:/iot/IoT_Device_Demo/iot_link/network/lwm2m/wakaama_lwm2m/wakaama-master/core\management.c ****             {
 307:g:/iot/IoT_Device_Demo/iot_link/network/lwm2m/wakaama_lwm2m/wakaama-master/core\management.c ****                 format = utils_convertMediaType((coap_content_type_t)message->accept[0]);
 1592              		.loc 2 307 85
 1593 0530 3B68     		ldr	r3, [r7]
 1594 0532 B3F85630 		ldrh	r3, [r3, #86]
 1595              		.loc 2 307 26
 1596 0536 1846     		mov	r0, r3
 1597 0538 FFF7FEFF 		bl	utils_convertMediaType
 1598 053c 0346     		mov	r3, r0
 1599              		.loc 2 307 24
 1600 053e A7F85E30 		strh	r3, [r7, #94]	@ movhi
 1601              	.L117:
 308:g:/iot/IoT_Device_Demo/iot_link/network/lwm2m/wakaama_lwm2m/wakaama-master/core\management.c ****             }
 309:g:/iot/IoT_Device_Demo/iot_link/network/lwm2m/wakaama_lwm2m/wakaama-master/core\management.c **** 
 310:g:/iot/IoT_Device_Demo/iot_link/network/lwm2m/wakaama_lwm2m/wakaama-master/core\management.c ****             result = object_read(contextP, uriP, &format, &buffer, &length, serverP->shortID);
 1602              		.loc 2 310 22
 1603 0542 7B68     		ldr	r3, [r7, #4]
 1604 0544 DB88     		ldrh	r3, [r3, #6]
 1605 0546 07F15801 		add	r1, r7, #88
 1606 054a 07F15E02 		add	r2, r7, #94
 1607 054e 0193     		str	r3, [sp, #4]
 1608 0550 07F15403 		add	r3, r7, #84
 1609 0554 0093     		str	r3, [sp]
 1610 0556 0B46     		mov	r3, r1
 1611 0558 B968     		ldr	r1, [r7, #8]
ARM GAS  C:\Users\ADMINI~1\AppData\Local\Temp\ccrLD8ST.s 			page 43


 1612 055a F868     		ldr	r0, [r7, #12]
 1613 055c FFF7FEFF 		bl	object_read
 1614 0560 0346     		mov	r3, r0
 1615 0562 87F86730 		strb	r3, [r7, #103]
 1616              	.L113:
 311:g:/iot/IoT_Device_Demo/iot_link/network/lwm2m/wakaama_lwm2m/wakaama-master/core\management.c ****         }
 312:g:/iot/IoT_Device_Demo/iot_link/network/lwm2m/wakaama_lwm2m/wakaama-master/core\management.c ****         if (COAP_205_CONTENT == result)
 1617              		.loc 2 312 12
 1618 0566 97F86730 		ldrb	r3, [r7, #103]	@ zero_extendqisi2
 1619 056a 452B     		cmp	r3, #69
 1620 056c 0ED1     		bne	.L118
 313:g:/iot/IoT_Device_Demo/iot_link/network/lwm2m/wakaama_lwm2m/wakaama-master/core\management.c ****         {
 314:g:/iot/IoT_Device_Demo/iot_link/network/lwm2m/wakaama_lwm2m/wakaama-master/core\management.c ****             coap_set_header_content_type(response, format);
 1621              		.loc 2 314 13
 1622 056e B7F85E30 		ldrh	r3, [r7, #94]
 1623 0572 1946     		mov	r1, r3
 1624 0574 D7F88000 		ldr	r0, [r7, #128]
 1625 0578 FFF7FEFF 		bl	coap_set_header_content_type
 315:g:/iot/IoT_Device_Demo/iot_link/network/lwm2m/wakaama_lwm2m/wakaama-master/core\management.c ****             coap_set_payload(response, buffer, length);
 1626              		.loc 2 315 13
 1627 057c BB6D     		ldr	r3, [r7, #88]
 1628 057e 7A6D     		ldr	r2, [r7, #84]
 1629 0580 1946     		mov	r1, r3
 1630 0582 D7F88000 		ldr	r0, [r7, #128]
 1631 0586 FFF7FEFF 		bl	coap_set_payload
 1632              	.LBE2:
 316:g:/iot/IoT_Device_Demo/iot_link/network/lwm2m/wakaama_lwm2m/wakaama-master/core\management.c ****             // lwm2m_handle_packet will free buffer
 317:g:/iot/IoT_Device_Demo/iot_link/network/lwm2m/wakaama_lwm2m/wakaama-master/core\management.c ****         }
 318:g:/iot/IoT_Device_Demo/iot_link/network/lwm2m/wakaama_lwm2m/wakaama-master/core\management.c ****         else
 319:g:/iot/IoT_Device_Demo/iot_link/network/lwm2m/wakaama_lwm2m/wakaama-master/core\management.c ****         {
 320:g:/iot/IoT_Device_Demo/iot_link/network/lwm2m/wakaama_lwm2m/wakaama-master/core\management.c ****             lwm2m_free(buffer);
 321:g:/iot/IoT_Device_Demo/iot_link/network/lwm2m/wakaama_lwm2m/wakaama-master/core\management.c ****         }
 322:g:/iot/IoT_Device_Demo/iot_link/network/lwm2m/wakaama_lwm2m/wakaama-master/core\management.c ****     }
 323:g:/iot/IoT_Device_Demo/iot_link/network/lwm2m/wakaama_lwm2m/wakaama-master/core\management.c ****     break;
 1633              		.loc 2 323 5
 1634 058a 49E1     		b	.L120
 1635              	.L118:
 1636              	.LBB4:
 320:g:/iot/IoT_Device_Demo/iot_link/network/lwm2m/wakaama_lwm2m/wakaama-master/core\management.c ****         }
 1637              		.loc 2 320 13
 1638 058c BB6D     		ldr	r3, [r7, #88]
 1639 058e 1846     		mov	r0, r3
 1640 0590 FFF7FEFF 		bl	lwm2m_free
 1641              	.LBE4:
 1642              		.loc 2 323 5
 1643 0594 44E1     		b	.L120
 1644              	.L102:
 324:g:/iot/IoT_Device_Demo/iot_link/network/lwm2m/wakaama_lwm2m/wakaama-master/core\management.c **** 
 325:g:/iot/IoT_Device_Demo/iot_link/network/lwm2m/wakaama_lwm2m/wakaama-master/core\management.c ****     case COAP_POST:
 326:g:/iot/IoT_Device_Demo/iot_link/network/lwm2m/wakaama_lwm2m/wakaama-master/core\management.c ****     {
 327:g:/iot/IoT_Device_Demo/iot_link/network/lwm2m/wakaama_lwm2m/wakaama-master/core\management.c ****         if (!LWM2M_URI_IS_SET_INSTANCE(uriP))
 1645              		.loc 2 327 14
 1646 0596 BB68     		ldr	r3, [r7, #8]
 1647 0598 1B78     		ldrb	r3, [r3]	@ zero_extendqisi2
 1648 059a 03F00203 		and	r3, r3, #2
 1649              		.loc 2 327 12
 1650 059e 002B     		cmp	r3, #0
ARM GAS  C:\Users\ADMINI~1\AppData\Local\Temp\ccrLD8ST.s 			page 44


 1651 05a0 56D1     		bne	.L121
 328:g:/iot/IoT_Device_Demo/iot_link/network/lwm2m/wakaama_lwm2m/wakaama-master/core\management.c ****         {
 329:g:/iot/IoT_Device_Demo/iot_link/network/lwm2m/wakaama_lwm2m/wakaama-master/core\management.c ****             if ((result = acc_auth_operate(contextP, uriP, OBJ_ACC_CREATE, serverP->shortID)) != CO
 1652              		.loc 2 329 27
 1653 05a2 7B68     		ldr	r3, [r7, #4]
 1654 05a4 DB88     		ldrh	r3, [r3, #6]
 1655 05a6 0422     		movs	r2, #4
 1656 05a8 B968     		ldr	r1, [r7, #8]
 1657 05aa F868     		ldr	r0, [r7, #12]
 1658 05ac FFF7FEFF 		bl	acc_auth_operate
 1659 05b0 0346     		mov	r3, r0
 1660 05b2 87F86730 		strb	r3, [r7, #103]
 1661              		.loc 2 329 16
 1662 05b6 97F86730 		ldrb	r3, [r7, #103]	@ zero_extendqisi2
 1663 05ba 002B     		cmp	r3, #0
 1664 05bc 02D0     		beq	.L122
 330:g:/iot/IoT_Device_Demo/iot_link/network/lwm2m/wakaama_lwm2m/wakaama-master/core\management.c ****             {
 331:g:/iot/IoT_Device_Demo/iot_link/network/lwm2m/wakaama_lwm2m/wakaama-master/core\management.c ****                 return result;
 1665              		.loc 2 331 24
 1666 05be 97F86730 		ldrb	r3, [r7, #103]	@ zero_extendqisi2
 1667 05c2 2FE1     		b	.L141
 1668              	.L122:
 332:g:/iot/IoT_Device_Demo/iot_link/network/lwm2m/wakaama_lwm2m/wakaama-master/core\management.c ****             }
 333:g:/iot/IoT_Device_Demo/iot_link/network/lwm2m/wakaama_lwm2m/wakaama-master/core\management.c ****             result = object_create(contextP, uriP, format, message->payload, message->payload_len);
 1669              		.loc 2 333 22
 1670 05c4 B7F85E20 		ldrh	r2, [r7, #94]
 1671 05c8 3B68     		ldr	r3, [r7]
 1672 05ca D3F88810 		ldr	r1, [r3, #136]
 1673              		.loc 2 333 85
 1674 05ce 3B68     		ldr	r3, [r7]
 1675 05d0 B3F88630 		ldrh	r3, [r3, #134]
 1676              		.loc 2 333 22
 1677 05d4 0093     		str	r3, [sp]
 1678 05d6 0B46     		mov	r3, r1
 1679 05d8 B968     		ldr	r1, [r7, #8]
 1680 05da F868     		ldr	r0, [r7, #12]
 1681 05dc FFF7FEFF 		bl	object_create
 1682 05e0 0346     		mov	r3, r0
 1683 05e2 87F86730 		strb	r3, [r7, #103]
 334:g:/iot/IoT_Device_Demo/iot_link/network/lwm2m/wakaama_lwm2m/wakaama-master/core\management.c ****             if (result == COAP_201_CREATED)
 1684              		.loc 2 334 16
 1685 05e6 97F86730 		ldrb	r3, [r7, #103]	@ zero_extendqisi2
 1686 05ea 412B     		cmp	r3, #65
 1687 05ec 40F01581 		bne	.L142
 1688              	.LBB5:
 335:g:/iot/IoT_Device_Demo/iot_link/network/lwm2m/wakaama_lwm2m/wakaama-master/core\management.c ****             {
 336:g:/iot/IoT_Device_Demo/iot_link/network/lwm2m/wakaama_lwm2m/wakaama-master/core\management.c ****                 //longest uri is /65535/65535 = 12 + 1 (null) chars
 337:g:/iot/IoT_Device_Demo/iot_link/network/lwm2m/wakaama_lwm2m/wakaama-master/core\management.c ****                 char location_path[13] = "";
 1689              		.loc 2 337 22
 1690 05f0 0023     		movs	r3, #0
 1691 05f2 FB63     		str	r3, [r7, #60]
 1692 05f4 07F14003 		add	r3, r7, #64
 1693 05f8 0022     		movs	r2, #0
 1694 05fa 1A60     		str	r2, [r3]
 1695 05fc 5A60     		str	r2, [r3, #4]
 1696 05fe 1A72     		strb	r2, [r3, #8]
 338:g:/iot/IoT_Device_Demo/iot_link/network/lwm2m/wakaama_lwm2m/wakaama-master/core\management.c ****                 //instanceId expected
ARM GAS  C:\Users\ADMINI~1\AppData\Local\Temp\ccrLD8ST.s 			page 45


 339:g:/iot/IoT_Device_Demo/iot_link/network/lwm2m/wakaama_lwm2m/wakaama-master/core\management.c ****                 if ((uriP->flag & LWM2M_URI_FLAG_INSTANCE_ID) == 0)
 1697              		.loc 2 339 26
 1698 0600 BB68     		ldr	r3, [r7, #8]
 1699 0602 1B78     		ldrb	r3, [r3]	@ zero_extendqisi2
 1700              		.loc 2 339 33
 1701 0604 03F00203 		and	r3, r3, #2
 1702              		.loc 2 339 20
 1703 0608 002B     		cmp	r3, #0
 1704 060a 03D1     		bne	.L124
 340:g:/iot/IoT_Device_Demo/iot_link/network/lwm2m/wakaama_lwm2m/wakaama-master/core\management.c ****                 {
 341:g:/iot/IoT_Device_Demo/iot_link/network/lwm2m/wakaama_lwm2m/wakaama-master/core\management.c ****                     result = COAP_500_INTERNAL_SERVER_ERROR;
 1705              		.loc 2 341 28
 1706 060c A023     		movs	r3, #160
 1707 060e 87F86730 		strb	r3, [r7, #103]
 342:g:/iot/IoT_Device_Demo/iot_link/network/lwm2m/wakaama_lwm2m/wakaama-master/core\management.c ****                     break;
 1708              		.loc 2 342 21
 1709 0612 05E1     		b	.L120
 1710              	.L124:
 343:g:/iot/IoT_Device_Demo/iot_link/network/lwm2m/wakaama_lwm2m/wakaama-master/core\management.c ****                 }
 344:g:/iot/IoT_Device_Demo/iot_link/network/lwm2m/wakaama_lwm2m/wakaama-master/core\management.c **** 
 345:g:/iot/IoT_Device_Demo/iot_link/network/lwm2m/wakaama_lwm2m/wakaama-master/core\management.c ****                 if (sprintf(location_path, "/%d/%d", uriP->objectId, uriP->instanceId) < 0)
 1711              		.loc 2 345 58
 1712 0614 BB68     		ldr	r3, [r7, #8]
 1713 0616 5B88     		ldrh	r3, [r3, #2]
 1714              		.loc 2 345 21
 1715 0618 1A46     		mov	r2, r3
 1716              		.loc 2 345 74
 1717 061a BB68     		ldr	r3, [r7, #8]
 1718 061c 9B88     		ldrh	r3, [r3, #4]
 1719              		.loc 2 345 21
 1720 061e 07F13C00 		add	r0, r7, #60
 1721 0622 4B49     		ldr	r1, .L146+12
 1722 0624 FFF7FEFF 		bl	sprintf
 1723 0628 0346     		mov	r3, r0
 1724              		.loc 2 345 20
 1725 062a 002B     		cmp	r3, #0
 1726 062c 03DA     		bge	.L126
 346:g:/iot/IoT_Device_Demo/iot_link/network/lwm2m/wakaama_lwm2m/wakaama-master/core\management.c ****                 {
 347:g:/iot/IoT_Device_Demo/iot_link/network/lwm2m/wakaama_lwm2m/wakaama-master/core\management.c ****                     result = COAP_500_INTERNAL_SERVER_ERROR;
 1727              		.loc 2 347 28
 1728 062e A023     		movs	r3, #160
 1729 0630 87F86730 		strb	r3, [r7, #103]
 348:g:/iot/IoT_Device_Demo/iot_link/network/lwm2m/wakaama_lwm2m/wakaama-master/core\management.c ****                     break;
 1730              		.loc 2 348 21
 1731 0634 F4E0     		b	.L120
 1732              	.L126:
 349:g:/iot/IoT_Device_Demo/iot_link/network/lwm2m/wakaama_lwm2m/wakaama-master/core\management.c ****                 }
 350:g:/iot/IoT_Device_Demo/iot_link/network/lwm2m/wakaama_lwm2m/wakaama-master/core\management.c ****                 coap_set_header_location_path(response, location_path);
 1733              		.loc 2 350 17
 1734 0636 07F13C03 		add	r3, r7, #60
 1735 063a 1946     		mov	r1, r3
 1736 063c D7F88000 		ldr	r0, [r7, #128]
 1737 0640 FFF7FEFF 		bl	coap_set_header_location_path
 351:g:/iot/IoT_Device_Demo/iot_link/network/lwm2m/wakaama_lwm2m/wakaama-master/core\management.c **** 
 352:g:/iot/IoT_Device_Demo/iot_link/network/lwm2m/wakaama_lwm2m/wakaama-master/core\management.c ****                 lwm2m_update_registration(contextP, 0, true);
 1738              		.loc 2 352 17
 1739 0644 0122     		movs	r2, #1
ARM GAS  C:\Users\ADMINI~1\AppData\Local\Temp\ccrLD8ST.s 			page 46


 1740 0646 0021     		movs	r1, #0
 1741 0648 F868     		ldr	r0, [r7, #12]
 1742 064a FFF7FEFF 		bl	lwm2m_update_registration
 1743              	.LBE5:
 353:g:/iot/IoT_Device_Demo/iot_link/network/lwm2m/wakaama_lwm2m/wakaama-master/core\management.c ****             }
 354:g:/iot/IoT_Device_Demo/iot_link/network/lwm2m/wakaama_lwm2m/wakaama-master/core\management.c ****         }
 355:g:/iot/IoT_Device_Demo/iot_link/network/lwm2m/wakaama_lwm2m/wakaama-master/core\management.c ****         else if (!LWM2M_URI_IS_SET_RESOURCE(uriP))
 356:g:/iot/IoT_Device_Demo/iot_link/network/lwm2m/wakaama_lwm2m/wakaama-master/core\management.c ****         {
 357:g:/iot/IoT_Device_Demo/iot_link/network/lwm2m/wakaama_lwm2m/wakaama-master/core\management.c ****             if ((result = acc_auth_operate(contextP, uriP, OBJ_ACC_WRITE, serverP->shortID)) != COA
 358:g:/iot/IoT_Device_Demo/iot_link/network/lwm2m/wakaama_lwm2m/wakaama-master/core\management.c ****             {
 359:g:/iot/IoT_Device_Demo/iot_link/network/lwm2m/wakaama_lwm2m/wakaama-master/core\management.c ****                 return result;
 360:g:/iot/IoT_Device_Demo/iot_link/network/lwm2m/wakaama_lwm2m/wakaama-master/core\management.c ****             }
 361:g:/iot/IoT_Device_Demo/iot_link/network/lwm2m/wakaama_lwm2m/wakaama-master/core\management.c ****             result = object_write(contextP, uriP, format, message->payload, message->payload_len);
 362:g:/iot/IoT_Device_Demo/iot_link/network/lwm2m/wakaama_lwm2m/wakaama-master/core\management.c ****         }
 363:g:/iot/IoT_Device_Demo/iot_link/network/lwm2m/wakaama_lwm2m/wakaama-master/core\management.c ****         else
 364:g:/iot/IoT_Device_Demo/iot_link/network/lwm2m/wakaama_lwm2m/wakaama-master/core\management.c ****         {
 365:g:/iot/IoT_Device_Demo/iot_link/network/lwm2m/wakaama_lwm2m/wakaama-master/core\management.c ****             if ((result = acc_auth_operate(contextP, uriP, OBJ_ACC_EXCUTE, serverP->shortID)) != CO
 366:g:/iot/IoT_Device_Demo/iot_link/network/lwm2m/wakaama_lwm2m/wakaama-master/core\management.c ****             {
 367:g:/iot/IoT_Device_Demo/iot_link/network/lwm2m/wakaama_lwm2m/wakaama-master/core\management.c ****                 return result;
 368:g:/iot/IoT_Device_Demo/iot_link/network/lwm2m/wakaama_lwm2m/wakaama-master/core\management.c ****             }
 369:g:/iot/IoT_Device_Demo/iot_link/network/lwm2m/wakaama_lwm2m/wakaama-master/core\management.c ****             result = object_execute(contextP, uriP, message->payload, message->payload_len);
 370:g:/iot/IoT_Device_Demo/iot_link/network/lwm2m/wakaama_lwm2m/wakaama-master/core\management.c ****         }
 371:g:/iot/IoT_Device_Demo/iot_link/network/lwm2m/wakaama_lwm2m/wakaama-master/core\management.c **** 
 372:g:/iot/IoT_Device_Demo/iot_link/network/lwm2m/wakaama_lwm2m/wakaama-master/core\management.c ****     }
 373:g:/iot/IoT_Device_Demo/iot_link/network/lwm2m/wakaama_lwm2m/wakaama-master/core\management.c ****     break;
 1744              		.loc 2 373 5
 1745 064e E4E0     		b	.L142
 1746              	.L121:
 355:g:/iot/IoT_Device_Demo/iot_link/network/lwm2m/wakaama_lwm2m/wakaama-master/core\management.c ****         {
 1747              		.loc 2 355 19
 1748 0650 BB68     		ldr	r3, [r7, #8]
 1749 0652 1B78     		ldrb	r3, [r3]	@ zero_extendqisi2
 1750 0654 03F00103 		and	r3, r3, #1
 355:g:/iot/IoT_Device_Demo/iot_link/network/lwm2m/wakaama_lwm2m/wakaama-master/core\management.c ****         {
 1751              		.loc 2 355 17
 1752 0658 002B     		cmp	r3, #0
 1753 065a 22D1     		bne	.L127
 357:g:/iot/IoT_Device_Demo/iot_link/network/lwm2m/wakaama_lwm2m/wakaama-master/core\management.c ****             {
 1754              		.loc 2 357 27
 1755 065c 7B68     		ldr	r3, [r7, #4]
 1756 065e DB88     		ldrh	r3, [r3, #6]
 1757 0660 0122     		movs	r2, #1
 1758 0662 B968     		ldr	r1, [r7, #8]
 1759 0664 F868     		ldr	r0, [r7, #12]
 1760 0666 FFF7FEFF 		bl	acc_auth_operate
 1761 066a 0346     		mov	r3, r0
 1762 066c 87F86730 		strb	r3, [r7, #103]
 357:g:/iot/IoT_Device_Demo/iot_link/network/lwm2m/wakaama_lwm2m/wakaama-master/core\management.c ****             {
 1763              		.loc 2 357 16
 1764 0670 97F86730 		ldrb	r3, [r7, #103]	@ zero_extendqisi2
 1765 0674 002B     		cmp	r3, #0
 1766 0676 02D0     		beq	.L128
 359:g:/iot/IoT_Device_Demo/iot_link/network/lwm2m/wakaama_lwm2m/wakaama-master/core\management.c ****             }
 1767              		.loc 2 359 24
 1768 0678 97F86730 		ldrb	r3, [r7, #103]	@ zero_extendqisi2
 1769 067c D2E0     		b	.L141
 1770              	.L128:
ARM GAS  C:\Users\ADMINI~1\AppData\Local\Temp\ccrLD8ST.s 			page 47


 361:g:/iot/IoT_Device_Demo/iot_link/network/lwm2m/wakaama_lwm2m/wakaama-master/core\management.c ****         }
 1771              		.loc 2 361 22
 1772 067e B7F85E20 		ldrh	r2, [r7, #94]
 1773 0682 3B68     		ldr	r3, [r7]
 1774 0684 D3F88810 		ldr	r1, [r3, #136]
 361:g:/iot/IoT_Device_Demo/iot_link/network/lwm2m/wakaama_lwm2m/wakaama-master/core\management.c ****         }
 1775              		.loc 2 361 84
 1776 0688 3B68     		ldr	r3, [r7]
 1777 068a B3F88630 		ldrh	r3, [r3, #134]
 361:g:/iot/IoT_Device_Demo/iot_link/network/lwm2m/wakaama_lwm2m/wakaama-master/core\management.c ****         }
 1778              		.loc 2 361 22
 1779 068e 0093     		str	r3, [sp]
 1780 0690 0B46     		mov	r3, r1
 1781 0692 B968     		ldr	r1, [r7, #8]
 1782 0694 F868     		ldr	r0, [r7, #12]
 1783 0696 FFF7FEFF 		bl	object_write
 1784 069a 0346     		mov	r3, r0
 1785 069c 87F86730 		strb	r3, [r7, #103]
 1786              		.loc 2 373 5
 1787 06a0 BBE0     		b	.L142
 1788              	.L127:
 365:g:/iot/IoT_Device_Demo/iot_link/network/lwm2m/wakaama_lwm2m/wakaama-master/core\management.c ****             {
 1789              		.loc 2 365 27
 1790 06a2 7B68     		ldr	r3, [r7, #4]
 1791 06a4 DB88     		ldrh	r3, [r3, #6]
 1792 06a6 0222     		movs	r2, #2
 1793 06a8 B968     		ldr	r1, [r7, #8]
 1794 06aa F868     		ldr	r0, [r7, #12]
 1795 06ac FFF7FEFF 		bl	acc_auth_operate
 1796 06b0 0346     		mov	r3, r0
 1797 06b2 87F86730 		strb	r3, [r7, #103]
 365:g:/iot/IoT_Device_Demo/iot_link/network/lwm2m/wakaama_lwm2m/wakaama-master/core\management.c ****             {
 1798              		.loc 2 365 16
 1799 06b6 97F86730 		ldrb	r3, [r7, #103]	@ zero_extendqisi2
 1800 06ba 002B     		cmp	r3, #0
 1801 06bc 02D0     		beq	.L129
 367:g:/iot/IoT_Device_Demo/iot_link/network/lwm2m/wakaama_lwm2m/wakaama-master/core\management.c ****             }
 1802              		.loc 2 367 24
 1803 06be 97F86730 		ldrb	r3, [r7, #103]	@ zero_extendqisi2
 1804 06c2 AFE0     		b	.L141
 1805              	.L129:
 369:g:/iot/IoT_Device_Demo/iot_link/network/lwm2m/wakaama_lwm2m/wakaama-master/core\management.c ****         }
 1806              		.loc 2 369 22
 1807 06c4 3B68     		ldr	r3, [r7]
 1808 06c6 D3F88820 		ldr	r2, [r3, #136]
 369:g:/iot/IoT_Device_Demo/iot_link/network/lwm2m/wakaama_lwm2m/wakaama-master/core\management.c ****         }
 1809              		.loc 2 369 78
 1810 06ca 3B68     		ldr	r3, [r7]
 1811 06cc B3F88630 		ldrh	r3, [r3, #134]
 369:g:/iot/IoT_Device_Demo/iot_link/network/lwm2m/wakaama_lwm2m/wakaama-master/core\management.c ****         }
 1812              		.loc 2 369 22
 1813 06d0 B968     		ldr	r1, [r7, #8]
 1814 06d2 F868     		ldr	r0, [r7, #12]
 1815 06d4 FFF7FEFF 		bl	object_execute
 1816 06d8 0346     		mov	r3, r0
 1817 06da 87F86730 		strb	r3, [r7, #103]
 1818              		.loc 2 373 5
ARM GAS  C:\Users\ADMINI~1\AppData\Local\Temp\ccrLD8ST.s 			page 48


 1819 06de 9CE0     		b	.L142
 1820              	.L101:
 374:g:/iot/IoT_Device_Demo/iot_link/network/lwm2m/wakaama_lwm2m/wakaama-master/core\management.c **** 
 375:g:/iot/IoT_Device_Demo/iot_link/network/lwm2m/wakaama_lwm2m/wakaama-master/core\management.c ****     case COAP_PUT:
 376:g:/iot/IoT_Device_Demo/iot_link/network/lwm2m/wakaama_lwm2m/wakaama-master/core\management.c ****     {
 377:g:/iot/IoT_Device_Demo/iot_link/network/lwm2m/wakaama_lwm2m/wakaama-master/core\management.c ****         if (IS_OPTION(message, COAP_OPTION_URI_QUERY))
 1821              		.loc 2 377 13
 1822 06e0 3B68     		ldr	r3, [r7]
 1823 06e2 DB7A     		ldrb	r3, [r3, #11]	@ zero_extendqisi2
 1824 06e4 5BB2     		sxtb	r3, r3
 1825              		.loc 2 377 12
 1826 06e6 002B     		cmp	r3, #0
 1827 06e8 34DA     		bge	.L130
 1828              	.LBB6:
 378:g:/iot/IoT_Device_Demo/iot_link/network/lwm2m/wakaama_lwm2m/wakaama-master/core\management.c ****         {
 379:g:/iot/IoT_Device_Demo/iot_link/network/lwm2m/wakaama_lwm2m/wakaama-master/core\management.c ****             lwm2m_attributes_t attr;
 380:g:/iot/IoT_Device_Demo/iot_link/network/lwm2m/wakaama_lwm2m/wakaama-master/core\management.c **** 
 381:g:/iot/IoT_Device_Demo/iot_link/network/lwm2m/wakaama_lwm2m/wakaama-master/core\management.c ****             if ((result = acc_auth_operate(contextP, uriP, OBJ_ACC_WRITE_ATTR, serverP->shortID)) !
 1829              		.loc 2 381 27
 1830 06ea 7B68     		ldr	r3, [r7, #4]
 1831 06ec DB88     		ldrh	r3, [r3, #6]
 1832 06ee 0022     		movs	r2, #0
 1833 06f0 B968     		ldr	r1, [r7, #8]
 1834 06f2 F868     		ldr	r0, [r7, #12]
 1835 06f4 FFF7FEFF 		bl	acc_auth_operate
 1836 06f8 0346     		mov	r3, r0
 1837 06fa 87F86730 		strb	r3, [r7, #103]
 1838              		.loc 2 381 16
 1839 06fe 97F86730 		ldrb	r3, [r7, #103]	@ zero_extendqisi2
 1840 0702 002B     		cmp	r3, #0
 1841 0704 02D0     		beq	.L131
 382:g:/iot/IoT_Device_Demo/iot_link/network/lwm2m/wakaama_lwm2m/wakaama-master/core\management.c ****             {
 383:g:/iot/IoT_Device_Demo/iot_link/network/lwm2m/wakaama_lwm2m/wakaama-master/core\management.c ****                 return result;
 1842              		.loc 2 383 24
 1843 0706 97F86730 		ldrb	r3, [r7, #103]	@ zero_extendqisi2
 1844 070a 8BE0     		b	.L141
 1845              	.L131:
 384:g:/iot/IoT_Device_Demo/iot_link/network/lwm2m/wakaama_lwm2m/wakaama-master/core\management.c ****             }
 385:g:/iot/IoT_Device_Demo/iot_link/network/lwm2m/wakaama_lwm2m/wakaama-master/core\management.c ****             if (0 != prv_readAttributes(message->uri_query, &attr))
 1846              		.loc 2 385 22
 1847 070c 3B68     		ldr	r3, [r7]
 1848 070e D3F88030 		ldr	r3, [r3, #128]
 1849 0712 07F11002 		add	r2, r7, #16
 1850 0716 1146     		mov	r1, r2
 1851 0718 1846     		mov	r0, r3
 1852 071a FFF7FEFF 		bl	prv_readAttributes
 1853 071e 0346     		mov	r3, r0
 1854              		.loc 2 385 16
 1855 0720 002B     		cmp	r3, #0
 1856 0722 03D0     		beq	.L132
 386:g:/iot/IoT_Device_Demo/iot_link/network/lwm2m/wakaama_lwm2m/wakaama-master/core\management.c ****             {
 387:g:/iot/IoT_Device_Demo/iot_link/network/lwm2m/wakaama_lwm2m/wakaama-master/core\management.c ****                 result = COAP_400_BAD_REQUEST;
 1857              		.loc 2 387 24
 1858 0724 8023     		movs	r3, #128
 1859 0726 87F86730 		strb	r3, [r7, #103]
 1860              	.LBE6:
 388:g:/iot/IoT_Device_Demo/iot_link/network/lwm2m/wakaama_lwm2m/wakaama-master/core\management.c ****             }
ARM GAS  C:\Users\ADMINI~1\AppData\Local\Temp\ccrLD8ST.s 			page 49


 389:g:/iot/IoT_Device_Demo/iot_link/network/lwm2m/wakaama_lwm2m/wakaama-master/core\management.c ****             else
 390:g:/iot/IoT_Device_Demo/iot_link/network/lwm2m/wakaama_lwm2m/wakaama-master/core\management.c ****             {
 391:g:/iot/IoT_Device_Demo/iot_link/network/lwm2m/wakaama_lwm2m/wakaama-master/core\management.c ****                 result = observe_setParameters(contextP, uriP, serverP, &attr);
 392:g:/iot/IoT_Device_Demo/iot_link/network/lwm2m/wakaama_lwm2m/wakaama-master/core\management.c ****             }
 393:g:/iot/IoT_Device_Demo/iot_link/network/lwm2m/wakaama_lwm2m/wakaama-master/core\management.c ****         }
 394:g:/iot/IoT_Device_Demo/iot_link/network/lwm2m/wakaama_lwm2m/wakaama-master/core\management.c ****         else if (LWM2M_URI_IS_SET_INSTANCE(uriP))
 395:g:/iot/IoT_Device_Demo/iot_link/network/lwm2m/wakaama_lwm2m/wakaama-master/core\management.c ****         {
 396:g:/iot/IoT_Device_Demo/iot_link/network/lwm2m/wakaama_lwm2m/wakaama-master/core\management.c ****             if ((result = acc_auth_operate(contextP, uriP, OBJ_ACC_WRITE, serverP->shortID)) != COA
 397:g:/iot/IoT_Device_Demo/iot_link/network/lwm2m/wakaama_lwm2m/wakaama-master/core\management.c ****             {
 398:g:/iot/IoT_Device_Demo/iot_link/network/lwm2m/wakaama_lwm2m/wakaama-master/core\management.c ****                 return result;
 399:g:/iot/IoT_Device_Demo/iot_link/network/lwm2m/wakaama_lwm2m/wakaama-master/core\management.c ****             }
 400:g:/iot/IoT_Device_Demo/iot_link/network/lwm2m/wakaama_lwm2m/wakaama-master/core\management.c ****             result = object_write(contextP, uriP, format, message->payload, message->payload_len);
 401:g:/iot/IoT_Device_Demo/iot_link/network/lwm2m/wakaama_lwm2m/wakaama-master/core\management.c ****         }
 402:g:/iot/IoT_Device_Demo/iot_link/network/lwm2m/wakaama_lwm2m/wakaama-master/core\management.c ****         else
 403:g:/iot/IoT_Device_Demo/iot_link/network/lwm2m/wakaama_lwm2m/wakaama-master/core\management.c ****         {
 404:g:/iot/IoT_Device_Demo/iot_link/network/lwm2m/wakaama_lwm2m/wakaama-master/core\management.c ****             result = COAP_400_BAD_REQUEST;
 405:g:/iot/IoT_Device_Demo/iot_link/network/lwm2m/wakaama_lwm2m/wakaama-master/core\management.c ****         }
 406:g:/iot/IoT_Device_Demo/iot_link/network/lwm2m/wakaama_lwm2m/wakaama-master/core\management.c ****     }
 407:g:/iot/IoT_Device_Demo/iot_link/network/lwm2m/wakaama_lwm2m/wakaama-master/core\management.c ****     break;
 1861              		.loc 2 407 5
 1862 072a 79E0     		b	.L120
 1863              	.L132:
 1864              	.LBB7:
 391:g:/iot/IoT_Device_Demo/iot_link/network/lwm2m/wakaama_lwm2m/wakaama-master/core\management.c ****             }
 1865              		.loc 2 391 26
 1866 072c 07F11003 		add	r3, r7, #16
 1867 0730 7A68     		ldr	r2, [r7, #4]
 1868 0732 B968     		ldr	r1, [r7, #8]
 1869 0734 F868     		ldr	r0, [r7, #12]
 1870 0736 FFF7FEFF 		bl	observe_setParameters
 1871 073a 0346     		mov	r3, r0
 1872 073c 87F86730 		strb	r3, [r7, #103]
 1873              	.LBE7:
 1874              		.loc 2 407 5
 1875 0740 6EE0     		b	.L120
 1876              	.L147:
 1877 0742 00BF     		.align	2
 1878              	.L146:
 1879 0744 00000000 		.word	__func__.9109
 1880 0748 00000000 		.word	__FUNCTION__.9108
 1881 074c 18020000 		.word	.LC26
 1882 0750 5C020000 		.word	.LC27
 1883              	.L130:
 394:g:/iot/IoT_Device_Demo/iot_link/network/lwm2m/wakaama_lwm2m/wakaama-master/core\management.c ****         {
 1884              		.loc 2 394 18
 1885 0754 BB68     		ldr	r3, [r7, #8]
 1886 0756 1B78     		ldrb	r3, [r3]	@ zero_extendqisi2
 1887 0758 03F00203 		and	r3, r3, #2
 394:g:/iot/IoT_Device_Demo/iot_link/network/lwm2m/wakaama_lwm2m/wakaama-master/core\management.c ****         {
 1888              		.loc 2 394 17
 1889 075c 002B     		cmp	r3, #0
 1890 075e 22D0     		beq	.L135
 396:g:/iot/IoT_Device_Demo/iot_link/network/lwm2m/wakaama_lwm2m/wakaama-master/core\management.c ****             {
 1891              		.loc 2 396 27
 1892 0760 7B68     		ldr	r3, [r7, #4]
 1893 0762 DB88     		ldrh	r3, [r3, #6]
 1894 0764 0122     		movs	r2, #1
ARM GAS  C:\Users\ADMINI~1\AppData\Local\Temp\ccrLD8ST.s 			page 50


 1895 0766 B968     		ldr	r1, [r7, #8]
 1896 0768 F868     		ldr	r0, [r7, #12]
 1897 076a FFF7FEFF 		bl	acc_auth_operate
 1898 076e 0346     		mov	r3, r0
 1899 0770 87F86730 		strb	r3, [r7, #103]
 396:g:/iot/IoT_Device_Demo/iot_link/network/lwm2m/wakaama_lwm2m/wakaama-master/core\management.c ****             {
 1900              		.loc 2 396 16
 1901 0774 97F86730 		ldrb	r3, [r7, #103]	@ zero_extendqisi2
 1902 0778 002B     		cmp	r3, #0
 1903 077a 02D0     		beq	.L136
 398:g:/iot/IoT_Device_Demo/iot_link/network/lwm2m/wakaama_lwm2m/wakaama-master/core\management.c ****             }
 1904              		.loc 2 398 24
 1905 077c 97F86730 		ldrb	r3, [r7, #103]	@ zero_extendqisi2
 1906 0780 50E0     		b	.L141
 1907              	.L136:
 400:g:/iot/IoT_Device_Demo/iot_link/network/lwm2m/wakaama_lwm2m/wakaama-master/core\management.c ****         }
 1908              		.loc 2 400 22
 1909 0782 B7F85E20 		ldrh	r2, [r7, #94]
 1910 0786 3B68     		ldr	r3, [r7]
 1911 0788 D3F88810 		ldr	r1, [r3, #136]
 400:g:/iot/IoT_Device_Demo/iot_link/network/lwm2m/wakaama_lwm2m/wakaama-master/core\management.c ****         }
 1912              		.loc 2 400 84
 1913 078c 3B68     		ldr	r3, [r7]
 1914 078e B3F88630 		ldrh	r3, [r3, #134]
 400:g:/iot/IoT_Device_Demo/iot_link/network/lwm2m/wakaama_lwm2m/wakaama-master/core\management.c ****         }
 1915              		.loc 2 400 22
 1916 0792 0093     		str	r3, [sp]
 1917 0794 0B46     		mov	r3, r1
 1918 0796 B968     		ldr	r1, [r7, #8]
 1919 0798 F868     		ldr	r0, [r7, #12]
 1920 079a FFF7FEFF 		bl	object_write
 1921 079e 0346     		mov	r3, r0
 1922 07a0 87F86730 		strb	r3, [r7, #103]
 1923              		.loc 2 407 5
 1924 07a4 3CE0     		b	.L120
 1925              	.L135:
 404:g:/iot/IoT_Device_Demo/iot_link/network/lwm2m/wakaama_lwm2m/wakaama-master/core\management.c ****         }
 1926              		.loc 2 404 20
 1927 07a6 8023     		movs	r3, #128
 1928 07a8 87F86730 		strb	r3, [r7, #103]
 1929              		.loc 2 407 5
 1930 07ac 38E0     		b	.L120
 1931              	.L99:
 408:g:/iot/IoT_Device_Demo/iot_link/network/lwm2m/wakaama_lwm2m/wakaama-master/core\management.c **** 
 409:g:/iot/IoT_Device_Demo/iot_link/network/lwm2m/wakaama_lwm2m/wakaama-master/core\management.c ****     case COAP_DELETE:
 410:g:/iot/IoT_Device_Demo/iot_link/network/lwm2m/wakaama_lwm2m/wakaama-master/core\management.c ****     {
 411:g:/iot/IoT_Device_Demo/iot_link/network/lwm2m/wakaama_lwm2m/wakaama-master/core\management.c ****         if (!LWM2M_URI_IS_SET_INSTANCE(uriP) || LWM2M_URI_IS_SET_RESOURCE(uriP))
 1932              		.loc 2 411 14
 1933 07ae BB68     		ldr	r3, [r7, #8]
 1934 07b0 1B78     		ldrb	r3, [r3]	@ zero_extendqisi2
 1935 07b2 03F00203 		and	r3, r3, #2
 1936              		.loc 2 411 12
 1937 07b6 002B     		cmp	r3, #0
 1938 07b8 05D0     		beq	.L137
 1939              		.loc 2 411 49 discriminator 1
 1940 07ba BB68     		ldr	r3, [r7, #8]
 1941 07bc 1B78     		ldrb	r3, [r3]	@ zero_extendqisi2
ARM GAS  C:\Users\ADMINI~1\AppData\Local\Temp\ccrLD8ST.s 			page 51


 1942 07be 03F00103 		and	r3, r3, #1
 1943              		.loc 2 411 46 discriminator 1
 1944 07c2 002B     		cmp	r3, #0
 1945 07c4 03D0     		beq	.L138
 1946              	.L137:
 412:g:/iot/IoT_Device_Demo/iot_link/network/lwm2m/wakaama_lwm2m/wakaama-master/core\management.c ****         {
 413:g:/iot/IoT_Device_Demo/iot_link/network/lwm2m/wakaama_lwm2m/wakaama-master/core\management.c ****             result = COAP_400_BAD_REQUEST;
 1947              		.loc 2 413 20
 1948 07c6 8023     		movs	r3, #128
 1949 07c8 87F86730 		strb	r3, [r7, #103]
 414:g:/iot/IoT_Device_Demo/iot_link/network/lwm2m/wakaama_lwm2m/wakaama-master/core\management.c ****         }
 415:g:/iot/IoT_Device_Demo/iot_link/network/lwm2m/wakaama_lwm2m/wakaama-master/core\management.c ****         else
 416:g:/iot/IoT_Device_Demo/iot_link/network/lwm2m/wakaama_lwm2m/wakaama-master/core\management.c ****         {
 417:g:/iot/IoT_Device_Demo/iot_link/network/lwm2m/wakaama_lwm2m/wakaama-master/core\management.c ****             if ((result = acc_auth_operate(contextP, uriP, OBJ_ACC_DELETE, serverP->shortID)) != CO
 418:g:/iot/IoT_Device_Demo/iot_link/network/lwm2m/wakaama_lwm2m/wakaama-master/core\management.c ****             {
 419:g:/iot/IoT_Device_Demo/iot_link/network/lwm2m/wakaama_lwm2m/wakaama-master/core\management.c ****                 return result;
 420:g:/iot/IoT_Device_Demo/iot_link/network/lwm2m/wakaama_lwm2m/wakaama-master/core\management.c ****             }
 421:g:/iot/IoT_Device_Demo/iot_link/network/lwm2m/wakaama_lwm2m/wakaama-master/core\management.c ****             result = object_delete(contextP, uriP);
 422:g:/iot/IoT_Device_Demo/iot_link/network/lwm2m/wakaama_lwm2m/wakaama-master/core\management.c ****             if (result == COAP_202_DELETED)
 423:g:/iot/IoT_Device_Demo/iot_link/network/lwm2m/wakaama_lwm2m/wakaama-master/core\management.c ****             {
 424:g:/iot/IoT_Device_Demo/iot_link/network/lwm2m/wakaama_lwm2m/wakaama-master/core\management.c ****                 lwm2m_update_registration(contextP, 0, true);
 425:g:/iot/IoT_Device_Demo/iot_link/network/lwm2m/wakaama_lwm2m/wakaama-master/core\management.c ****             }
 426:g:/iot/IoT_Device_Demo/iot_link/network/lwm2m/wakaama_lwm2m/wakaama-master/core\management.c ****         }
 427:g:/iot/IoT_Device_Demo/iot_link/network/lwm2m/wakaama_lwm2m/wakaama-master/core\management.c ****     }
 428:g:/iot/IoT_Device_Demo/iot_link/network/lwm2m/wakaama_lwm2m/wakaama-master/core\management.c ****     break;
 1950              		.loc 2 428 5
 1951 07cc 27E0     		b	.L143
 1952              	.L138:
 417:g:/iot/IoT_Device_Demo/iot_link/network/lwm2m/wakaama_lwm2m/wakaama-master/core\management.c ****             {
 1953              		.loc 2 417 27
 1954 07ce 7B68     		ldr	r3, [r7, #4]
 1955 07d0 DB88     		ldrh	r3, [r3, #6]
 1956 07d2 0322     		movs	r2, #3
 1957 07d4 B968     		ldr	r1, [r7, #8]
 1958 07d6 F868     		ldr	r0, [r7, #12]
 1959 07d8 FFF7FEFF 		bl	acc_auth_operate
 1960 07dc 0346     		mov	r3, r0
 1961 07de 87F86730 		strb	r3, [r7, #103]
 417:g:/iot/IoT_Device_Demo/iot_link/network/lwm2m/wakaama_lwm2m/wakaama-master/core\management.c ****             {
 1962              		.loc 2 417 16
 1963 07e2 97F86730 		ldrb	r3, [r7, #103]	@ zero_extendqisi2
 1964 07e6 002B     		cmp	r3, #0
 1965 07e8 02D0     		beq	.L140
 419:g:/iot/IoT_Device_Demo/iot_link/network/lwm2m/wakaama_lwm2m/wakaama-master/core\management.c ****             }
 1966              		.loc 2 419 24
 1967 07ea 97F86730 		ldrb	r3, [r7, #103]	@ zero_extendqisi2
 1968 07ee 19E0     		b	.L141
 1969              	.L140:
 421:g:/iot/IoT_Device_Demo/iot_link/network/lwm2m/wakaama_lwm2m/wakaama-master/core\management.c ****             if (result == COAP_202_DELETED)
 1970              		.loc 2 421 22
 1971 07f0 B968     		ldr	r1, [r7, #8]
 1972 07f2 F868     		ldr	r0, [r7, #12]
 1973 07f4 FFF7FEFF 		bl	object_delete
 1974 07f8 0346     		mov	r3, r0
 1975 07fa 87F86730 		strb	r3, [r7, #103]
 422:g:/iot/IoT_Device_Demo/iot_link/network/lwm2m/wakaama_lwm2m/wakaama-master/core\management.c ****             {
 1976              		.loc 2 422 16
ARM GAS  C:\Users\ADMINI~1\AppData\Local\Temp\ccrLD8ST.s 			page 52


 1977 07fe 97F86730 		ldrb	r3, [r7, #103]	@ zero_extendqisi2
 1978 0802 422B     		cmp	r3, #66
 1979 0804 0BD1     		bne	.L143
 424:g:/iot/IoT_Device_Demo/iot_link/network/lwm2m/wakaama_lwm2m/wakaama-master/core\management.c ****             }
 1980              		.loc 2 424 17
 1981 0806 0122     		movs	r2, #1
 1982 0808 0021     		movs	r1, #0
 1983 080a F868     		ldr	r0, [r7, #12]
 1984 080c FFF7FEFF 		bl	lwm2m_update_registration
 1985              		.loc 2 428 5
 1986 0810 05E0     		b	.L143
 1987              	.L98:
 429:g:/iot/IoT_Device_Demo/iot_link/network/lwm2m/wakaama_lwm2m/wakaama-master/core\management.c **** 
 430:g:/iot/IoT_Device_Demo/iot_link/network/lwm2m/wakaama_lwm2m/wakaama-master/core\management.c ****     default:
 431:g:/iot/IoT_Device_Demo/iot_link/network/lwm2m/wakaama_lwm2m/wakaama-master/core\management.c ****         result = COAP_400_BAD_REQUEST;
 1988              		.loc 2 431 16
 1989 0812 8023     		movs	r3, #128
 1990 0814 87F86730 		strb	r3, [r7, #103]
 432:g:/iot/IoT_Device_Demo/iot_link/network/lwm2m/wakaama_lwm2m/wakaama-master/core\management.c ****         break;
 1991              		.loc 2 432 9
 1992 0818 02E0     		b	.L120
 1993              	.L142:
 373:g:/iot/IoT_Device_Demo/iot_link/network/lwm2m/wakaama_lwm2m/wakaama-master/core\management.c **** 
 1994              		.loc 2 373 5
 1995 081a 00BF     		nop
 1996 081c 00E0     		b	.L120
 1997              	.L143:
 428:g:/iot/IoT_Device_Demo/iot_link/network/lwm2m/wakaama_lwm2m/wakaama-master/core\management.c **** 
 1998              		.loc 2 428 5
 1999 081e 00BF     		nop
 2000              	.L120:
 433:g:/iot/IoT_Device_Demo/iot_link/network/lwm2m/wakaama_lwm2m/wakaama-master/core\management.c ****     }
 434:g:/iot/IoT_Device_Demo/iot_link/network/lwm2m/wakaama_lwm2m/wakaama-master/core\management.c **** 
 435:g:/iot/IoT_Device_Demo/iot_link/network/lwm2m/wakaama_lwm2m/wakaama-master/core\management.c ****     return result;
 2001              		.loc 2 435 12
 2002 0820 97F86730 		ldrb	r3, [r7, #103]	@ zero_extendqisi2
 2003              	.L141:
 436:g:/iot/IoT_Device_Demo/iot_link/network/lwm2m/wakaama_lwm2m/wakaama-master/core\management.c **** }
 2004              		.loc 2 436 1 discriminator 6
 2005 0824 1846     		mov	r0, r3
 2006 0826 6837     		adds	r7, r7, #104
 2007              	.LCFI14:
 2008              		.cfi_def_cfa_offset 24
 2009 0828 BD46     		mov	sp, r7
 2010              	.LCFI15:
 2011              		.cfi_def_cfa_register 13
 2012              		@ sp needed
 2013 082a BDE8F081 		pop	{r4, r5, r6, r7, r8, pc}
 2014              		.cfi_endproc
 2015              	.LFE13:
 2017 082e 00BF     		.section	.rodata.__FUNCTION__.9108,"a"
 2018              		.align	2
 2021              	__FUNCTION__.9108:
 2022 0000 646D5F68 		.ascii	"dm_handleRequest\000"
 2022      616E646C 
 2022      65526571 
 2022      75657374 
ARM GAS  C:\Users\ADMINI~1\AppData\Local\Temp\ccrLD8ST.s 			page 53


 2022      00
 2023              		.section	.rodata.__func__.9109,"a"
 2024              		.align	2
 2027              	__func__.9109:
 2028 0000 646D5F68 		.ascii	"dm_handleRequest\000"
 2028      616E646C 
 2028      65526571 
 2028      75657374 
 2028      00
 2029              		.text
 2030              	.Letext0:
 2031              		.file 3 "g:\\iot\\.huawei-liteos-studio\\tools\\arm-none-eabi\\arm-none-eabi\\include\\machine\\_d
 2032              		.file 4 "g:\\iot\\.huawei-liteos-studio\\tools\\arm-none-eabi\\arm-none-eabi\\include\\sys\\_stdin
 2033              		.file 5 "g:/iot/IoT_Device_Demo/iot_link/network/lwm2m/wakaama_lwm2m/wakaama-master/core/liblwm2m_
 2034              		.file 6 "g:\\iot\\.huawei-liteos-studio\\tools\\arm-none-eabi\\lib\\gcc\\arm-none-eabi\\9.2.1\\inc
 2035              		.file 7 "g:\\iot\\.huawei-liteos-studio\\tools\\arm-none-eabi\\arm-none-eabi\\include\\sys\\lock.h
 2036              		.file 8 "g:\\iot\\.huawei-liteos-studio\\tools\\arm-none-eabi\\arm-none-eabi\\include\\sys\\_types
 2037              		.file 9 "g:\\iot\\.huawei-liteos-studio\\tools\\arm-none-eabi\\arm-none-eabi\\include\\sys\\reent.
 2038              		.file 10 "g:\\iot\\.huawei-liteos-studio\\tools\\arm-none-eabi\\arm-none-eabi\\include\\sys\\_time
 2039              		.file 11 "g:\\iot\\.huawei-liteos-studio\\tools\\arm-none-eabi\\arm-none-eabi\\include\\time.h"
 2040              		.file 12 "g:/iot/IoT_Device_Demo/iot_link/network/lwm2m/wakaama_lwm2m/wakaama-master/core/er-coap-
 2041              		.file 13 "g:/iot/IoT_Device_Demo/iot_link/inc/link_log.h"
 2042              		.file 14 "g:/iot/IoT_Device_Demo/iot_link/network/lwm2m/wakaama_lwm2m/wakaama-master/core/liblwm2m
 2043              		.file 15 "g:\\iot\\.huawei-liteos-studio\\tools\\arm-none-eabi\\arm-none-eabi\\include\\stdlib.h"
 2044              		.file 16 "g:\\iot\\.huawei-liteos-studio\\tools\\arm-none-eabi\\arm-none-eabi\\include\\ctype.h"
 2045              		.file 17 "g:/iot/IoT_Device_Demo/iot_link/network/lwm2m/wakaama_lwm2m/port/object_comm.h"
ARM GAS  C:\Users\ADMINI~1\AppData\Local\Temp\ccrLD8ST.s 			page 54

