ARM GAS  C:\Users\ADMINI~1\AppData\Local\Temp\ccpcHGeL.s 			page 1


   1              		.cpu cortex-m4
   2              		.eabi_attribute 27, 1
   3              		.eabi_attribute 28, 1
   4              		.eabi_attribute 20, 1
   5              		.eabi_attribute 21, 1
   6              		.eabi_attribute 23, 3
   7              		.eabi_attribute 24, 1
   8              		.eabi_attribute 25, 1
   9              		.eabi_attribute 26, 1
  10              		.eabi_attribute 30, 6
  11              		.eabi_attribute 34, 1
  12              		.eabi_attribute 18, 4
  13              		.file	"objects.c"
  14              		.text
  15              	.Ltext0:
  16              		.cfi_sections	.debug_frame
  17              		.section	.rodata
  18              		.align	2
  19              	.LC0:
  20 0000 5B25735D 		.ascii	"[%s][%u][%s:%d] [%s:%d] NULL\015\012\015\012\000"
  20      5B25755D 
  20      5B25733A 
  20      25645D20 
  20      5B25733A 
  21 0021 000000   		.align	2
  22              	.LC1:
  23 0024 5B25735D 		.ascii	"[%s][%u][%s:%d] [%s:%d] /%d\015\012\000"
  23      5B25755D 
  23      5B25733A 
  23      25645D20 
  23      5B25733A 
  24 0042 0000     		.align	2
  25              	.LC2:
  26 0044 5B25735D 		.ascii	"[%s][%u][%s:%d] /%d\015\012\000"
  26      5B25755D 
  26      5B25733A 
  26      25645D20 
  26      2F25640D 
  27 005a 0000     		.align	2
  28              	.LC3:
  29 005c 5B25735D 		.ascii	"[%s][%u][%s:%d] \015\012\015\012\000"
  29      5B25755D 
  29      5B25733A 
  29      25645D20 
  29      0D0A0D0A 
  30              		.section	.text.object_checkReadable,"ax",%progbits
  31              		.align	1
  32              		.global	object_checkReadable
  33              		.arch armv7e-m
  34              		.syntax unified
  35              		.thumb
  36              		.thumb_func
  37              		.fpu fpv4-sp-d16
  39              	object_checkReadable:
  40              	.LFB12:
  41              		.file 1 "g:/iot/IoT_Device_Demo/iot_link/network/lwm2m/wakaama_lwm2m/wakaama-master/core/objects.c
   1:g:/iot/IoT_Device_Demo/iot_link/network/lwm2m/wakaama_lwm2m/wakaama-master/core\objects.c **** /*----------------------------------------------------------------------------
ARM GAS  C:\Users\ADMINI~1\AppData\Local\Temp\ccpcHGeL.s 			page 2


   2:g:/iot/IoT_Device_Demo/iot_link/network/lwm2m/wakaama_lwm2m/wakaama-master/core\objects.c ****  * Copyright (c) <2016-2018>, <Huawei Technologies Co., Ltd>
   3:g:/iot/IoT_Device_Demo/iot_link/network/lwm2m/wakaama_lwm2m/wakaama-master/core\objects.c ****  * All rights reserved.
   4:g:/iot/IoT_Device_Demo/iot_link/network/lwm2m/wakaama_lwm2m/wakaama-master/core\objects.c ****  * Redistribution and use in source and binary forms, with or without modification,
   5:g:/iot/IoT_Device_Demo/iot_link/network/lwm2m/wakaama_lwm2m/wakaama-master/core\objects.c ****  * are permitted provided that the following conditions are met:
   6:g:/iot/IoT_Device_Demo/iot_link/network/lwm2m/wakaama_lwm2m/wakaama-master/core\objects.c ****  * 1. Redistributions of source code must retain the above copyright notice, this list of
   7:g:/iot/IoT_Device_Demo/iot_link/network/lwm2m/wakaama_lwm2m/wakaama-master/core\objects.c ****  * conditions and the following disclaimer.
   8:g:/iot/IoT_Device_Demo/iot_link/network/lwm2m/wakaama_lwm2m/wakaama-master/core\objects.c ****  * 2. Redistributions in binary form must reproduce the above copyright notice, this list
   9:g:/iot/IoT_Device_Demo/iot_link/network/lwm2m/wakaama_lwm2m/wakaama-master/core\objects.c ****  * of conditions and the following disclaimer in the documentation and/or other materials
  10:g:/iot/IoT_Device_Demo/iot_link/network/lwm2m/wakaama_lwm2m/wakaama-master/core\objects.c ****  * provided with the distribution.
  11:g:/iot/IoT_Device_Demo/iot_link/network/lwm2m/wakaama_lwm2m/wakaama-master/core\objects.c ****  * 3. Neither the name of the copyright holder nor the names of its contributors may be used
  12:g:/iot/IoT_Device_Demo/iot_link/network/lwm2m/wakaama_lwm2m/wakaama-master/core\objects.c ****  * to endorse or promote products derived from this software without specific prior written
  13:g:/iot/IoT_Device_Demo/iot_link/network/lwm2m/wakaama_lwm2m/wakaama-master/core\objects.c ****  * permission.
  14:g:/iot/IoT_Device_Demo/iot_link/network/lwm2m/wakaama_lwm2m/wakaama-master/core\objects.c ****  * THIS SOFTWARE IS PROVIDED BY THE COPYRIGHT HOLDERS AND CONTRIBUTORS
  15:g:/iot/IoT_Device_Demo/iot_link/network/lwm2m/wakaama_lwm2m/wakaama-master/core\objects.c ****  * "AS IS" AND ANY EXPRESS OR IMPLIED WARRANTIES, INCLUDING, BUT NOT LIMITED TO,
  16:g:/iot/IoT_Device_Demo/iot_link/network/lwm2m/wakaama_lwm2m/wakaama-master/core\objects.c ****  * THE IMPLIED WARRANTIES OF MERCHANTABILITY AND FITNESS FOR A PARTICULAR
  17:g:/iot/IoT_Device_Demo/iot_link/network/lwm2m/wakaama_lwm2m/wakaama-master/core\objects.c ****  * PURPOSE ARE DISCLAIMED. IN NO EVENT SHALL THE COPYRIGHT HOLDER OR
  18:g:/iot/IoT_Device_Demo/iot_link/network/lwm2m/wakaama_lwm2m/wakaama-master/core\objects.c ****  * CONTRIBUTORS BE LIABLE FOR ANY DIRECT, INDIRECT, INCIDENTAL, SPECIAL,
  19:g:/iot/IoT_Device_Demo/iot_link/network/lwm2m/wakaama_lwm2m/wakaama-master/core\objects.c ****  * EXEMPLARY, OR CONSEQUENTIAL DAMAGES (INCLUDING, BUT NOT LIMITED TO,
  20:g:/iot/IoT_Device_Demo/iot_link/network/lwm2m/wakaama_lwm2m/wakaama-master/core\objects.c ****  * PROCUREMENT OF SUBSTITUTE GOODS OR SERVICES; LOSS OF USE, DATA, OR PROFITS;
  21:g:/iot/IoT_Device_Demo/iot_link/network/lwm2m/wakaama_lwm2m/wakaama-master/core\objects.c ****  * OR BUSINESS INTERRUPTION) HOWEVER CAUSED AND ON ANY THEORY OF LIABILITY,
  22:g:/iot/IoT_Device_Demo/iot_link/network/lwm2m/wakaama_lwm2m/wakaama-master/core\objects.c ****  * WHETHER IN CONTRACT, STRICT LIABILITY, OR TORT (INCLUDING NEGLIGENCE OR
  23:g:/iot/IoT_Device_Demo/iot_link/network/lwm2m/wakaama_lwm2m/wakaama-master/core\objects.c ****  * OTHERWISE) ARISING IN ANY WAY OUT OF THE USE OF THIS SOFTWARE, EVEN IF
  24:g:/iot/IoT_Device_Demo/iot_link/network/lwm2m/wakaama_lwm2m/wakaama-master/core\objects.c ****  * ADVISED OF THE POSSIBILITY OF SUCH DAMAGE.
  25:g:/iot/IoT_Device_Demo/iot_link/network/lwm2m/wakaama_lwm2m/wakaama-master/core\objects.c ****  *---------------------------------------------------------------------------*/
  26:g:/iot/IoT_Device_Demo/iot_link/network/lwm2m/wakaama_lwm2m/wakaama-master/core\objects.c **** /*----------------------------------------------------------------------------
  27:g:/iot/IoT_Device_Demo/iot_link/network/lwm2m/wakaama_lwm2m/wakaama-master/core\objects.c ****  * Notice of Export Control Law
  28:g:/iot/IoT_Device_Demo/iot_link/network/lwm2m/wakaama_lwm2m/wakaama-master/core\objects.c ****  * ===============================================
  29:g:/iot/IoT_Device_Demo/iot_link/network/lwm2m/wakaama_lwm2m/wakaama-master/core\objects.c ****  * Huawei LiteOS may be subject to applicable export control laws and regulations, which might
  30:g:/iot/IoT_Device_Demo/iot_link/network/lwm2m/wakaama_lwm2m/wakaama-master/core\objects.c ****  * include those applicable to Huawei LiteOS of U.S. and the country in which you are located.
  31:g:/iot/IoT_Device_Demo/iot_link/network/lwm2m/wakaama_lwm2m/wakaama-master/core\objects.c ****  * Import, export and usage of Huawei LiteOS in any manner by you shall be in compliance with such
  32:g:/iot/IoT_Device_Demo/iot_link/network/lwm2m/wakaama_lwm2m/wakaama-master/core\objects.c ****  * applicable export control laws and regulations.
  33:g:/iot/IoT_Device_Demo/iot_link/network/lwm2m/wakaama_lwm2m/wakaama-master/core\objects.c ****  *---------------------------------------------------------------------------*/
  34:g:/iot/IoT_Device_Demo/iot_link/network/lwm2m/wakaama_lwm2m/wakaama-master/core\objects.c **** 
  35:g:/iot/IoT_Device_Demo/iot_link/network/lwm2m/wakaama_lwm2m/wakaama-master/core\objects.c **** /*******************************************************************************
  36:g:/iot/IoT_Device_Demo/iot_link/network/lwm2m/wakaama_lwm2m/wakaama-master/core\objects.c ****  *
  37:g:/iot/IoT_Device_Demo/iot_link/network/lwm2m/wakaama_lwm2m/wakaama-master/core\objects.c ****  * Copyright (c) 2013, 2014 Intel Corporation and others.
  38:g:/iot/IoT_Device_Demo/iot_link/network/lwm2m/wakaama_lwm2m/wakaama-master/core\objects.c ****  * All rights reserved. This program and the accompanying materials
  39:g:/iot/IoT_Device_Demo/iot_link/network/lwm2m/wakaama_lwm2m/wakaama-master/core\objects.c ****  * are made available under the terms of the Eclipse Public License v1.0
  40:g:/iot/IoT_Device_Demo/iot_link/network/lwm2m/wakaama_lwm2m/wakaama-master/core\objects.c ****  * and Eclipse Distribution License v1.0 which accompany this distribution.
  41:g:/iot/IoT_Device_Demo/iot_link/network/lwm2m/wakaama_lwm2m/wakaama-master/core\objects.c ****  *
  42:g:/iot/IoT_Device_Demo/iot_link/network/lwm2m/wakaama_lwm2m/wakaama-master/core\objects.c ****  * The Eclipse Public License is available at
  43:g:/iot/IoT_Device_Demo/iot_link/network/lwm2m/wakaama_lwm2m/wakaama-master/core\objects.c ****  *    http://www.eclipse.org/legal/epl-v10.html
  44:g:/iot/IoT_Device_Demo/iot_link/network/lwm2m/wakaama_lwm2m/wakaama-master/core\objects.c ****  * The Eclipse Distribution License is available at
  45:g:/iot/IoT_Device_Demo/iot_link/network/lwm2m/wakaama_lwm2m/wakaama-master/core\objects.c ****  *    http://www.eclipse.org/org/documents/edl-v10.php.
  46:g:/iot/IoT_Device_Demo/iot_link/network/lwm2m/wakaama_lwm2m/wakaama-master/core\objects.c ****  *
  47:g:/iot/IoT_Device_Demo/iot_link/network/lwm2m/wakaama_lwm2m/wakaama-master/core\objects.c ****  * Contributors:
  48:g:/iot/IoT_Device_Demo/iot_link/network/lwm2m/wakaama_lwm2m/wakaama-master/core\objects.c ****  *    David Navarro, Intel Corporation - initial API and implementation
  49:g:/iot/IoT_Device_Demo/iot_link/network/lwm2m/wakaama_lwm2m/wakaama-master/core\objects.c ****  *    Fabien Fleutot - Please refer to git log
  50:g:/iot/IoT_Device_Demo/iot_link/network/lwm2m/wakaama_lwm2m/wakaama-master/core\objects.c ****  *    Toby Jaffey - Please refer to git log
  51:g:/iot/IoT_Device_Demo/iot_link/network/lwm2m/wakaama_lwm2m/wakaama-master/core\objects.c ****  *    Benjamin Cabe? - Please refer to git log
  52:g:/iot/IoT_Device_Demo/iot_link/network/lwm2m/wakaama_lwm2m/wakaama-master/core\objects.c ****  *    Bosch Software Innovations GmbH - Please refer to git log
  53:g:/iot/IoT_Device_Demo/iot_link/network/lwm2m/wakaama_lwm2m/wakaama-master/core\objects.c ****  *    Pascal Rieux - Please refer to git log
  54:g:/iot/IoT_Device_Demo/iot_link/network/lwm2m/wakaama_lwm2m/wakaama-master/core\objects.c ****  *    Scott Bertin - Please refer to git log
  55:g:/iot/IoT_Device_Demo/iot_link/network/lwm2m/wakaama_lwm2m/wakaama-master/core\objects.c ****  *
  56:g:/iot/IoT_Device_Demo/iot_link/network/lwm2m/wakaama_lwm2m/wakaama-master/core\objects.c ****  *******************************************************************************/
  57:g:/iot/IoT_Device_Demo/iot_link/network/lwm2m/wakaama_lwm2m/wakaama-master/core\objects.c **** 
  58:g:/iot/IoT_Device_Demo/iot_link/network/lwm2m/wakaama_lwm2m/wakaama-master/core\objects.c **** /*
ARM GAS  C:\Users\ADMINI~1\AppData\Local\Temp\ccpcHGeL.s 			page 3


  59:g:/iot/IoT_Device_Demo/iot_link/network/lwm2m/wakaama_lwm2m/wakaama-master/core\objects.c ****  Copyright (c) 2013, 2014 Intel Corporation
  60:g:/iot/IoT_Device_Demo/iot_link/network/lwm2m/wakaama_lwm2m/wakaama-master/core\objects.c **** 
  61:g:/iot/IoT_Device_Demo/iot_link/network/lwm2m/wakaama_lwm2m/wakaama-master/core\objects.c ****  Redistribution and use in source and binary forms, with or without modification,
  62:g:/iot/IoT_Device_Demo/iot_link/network/lwm2m/wakaama_lwm2m/wakaama-master/core\objects.c ****  are permitted provided that the following conditions are met:
  63:g:/iot/IoT_Device_Demo/iot_link/network/lwm2m/wakaama_lwm2m/wakaama-master/core\objects.c **** 
  64:g:/iot/IoT_Device_Demo/iot_link/network/lwm2m/wakaama_lwm2m/wakaama-master/core\objects.c ****      * Redistributions of source code must retain the above copyright notice,
  65:g:/iot/IoT_Device_Demo/iot_link/network/lwm2m/wakaama_lwm2m/wakaama-master/core\objects.c ****        this list of conditions and the following disclaimer.
  66:g:/iot/IoT_Device_Demo/iot_link/network/lwm2m/wakaama_lwm2m/wakaama-master/core\objects.c ****      * Redistributions in binary form must reproduce the above copyright notice,
  67:g:/iot/IoT_Device_Demo/iot_link/network/lwm2m/wakaama_lwm2m/wakaama-master/core\objects.c ****        this list of conditions and the following disclaimer in the documentation
  68:g:/iot/IoT_Device_Demo/iot_link/network/lwm2m/wakaama_lwm2m/wakaama-master/core\objects.c ****        and/or other materials provided with the distribution.
  69:g:/iot/IoT_Device_Demo/iot_link/network/lwm2m/wakaama_lwm2m/wakaama-master/core\objects.c ****      * Neither the name of Intel Corporation nor the names of its contributors
  70:g:/iot/IoT_Device_Demo/iot_link/network/lwm2m/wakaama_lwm2m/wakaama-master/core\objects.c ****        may be used to endorse or promote products derived from this software
  71:g:/iot/IoT_Device_Demo/iot_link/network/lwm2m/wakaama_lwm2m/wakaama-master/core\objects.c ****        without specific prior written permission.
  72:g:/iot/IoT_Device_Demo/iot_link/network/lwm2m/wakaama_lwm2m/wakaama-master/core\objects.c **** 
  73:g:/iot/IoT_Device_Demo/iot_link/network/lwm2m/wakaama_lwm2m/wakaama-master/core\objects.c ****  THIS SOFTWARE IS PROVIDED BY THE COPYRIGHT HOLDERS AND CONTRIBUTORS "AS IS" AND
  74:g:/iot/IoT_Device_Demo/iot_link/network/lwm2m/wakaama_lwm2m/wakaama-master/core\objects.c ****  ANY EXPRESS OR IMPLIED WARRANTIES, INCLUDING, BUT NOT LIMITED TO, THE IMPLIED
  75:g:/iot/IoT_Device_Demo/iot_link/network/lwm2m/wakaama_lwm2m/wakaama-master/core\objects.c ****  WARRANTIES OF MERCHANTABILITY AND FITNESS FOR A PARTICULAR PURPOSE ARE DISCLAIMED.
  76:g:/iot/IoT_Device_Demo/iot_link/network/lwm2m/wakaama_lwm2m/wakaama-master/core\objects.c ****  IN NO EVENT SHALL THE COPYRIGHT OWNER OR CONTRIBUTORS BE LIABLE FOR ANY DIRECT,
  77:g:/iot/IoT_Device_Demo/iot_link/network/lwm2m/wakaama_lwm2m/wakaama-master/core\objects.c ****  INDIRECT, INCIDENTAL, SPECIAL, EXEMPLARY, OR CONSEQUENTIAL DAMAGES (INCLUDING,
  78:g:/iot/IoT_Device_Demo/iot_link/network/lwm2m/wakaama_lwm2m/wakaama-master/core\objects.c ****  BUT NOT LIMITED TO, PROCUREMENT OF SUBSTITUTE GOODS OR SERVICES; LOSS OF USE,
  79:g:/iot/IoT_Device_Demo/iot_link/network/lwm2m/wakaama_lwm2m/wakaama-master/core\objects.c ****  DATA, OR PROFITS; OR BUSINESS INTERRUPTION) HOWEVER CAUSED AND ON ANY THEORY OF
  80:g:/iot/IoT_Device_Demo/iot_link/network/lwm2m/wakaama_lwm2m/wakaama-master/core\objects.c ****  LIABILITY, WHETHER IN CONTRACT, STRICT LIABILITY, OR TORT (INCLUDING NEGLIGENCE OR
  81:g:/iot/IoT_Device_Demo/iot_link/network/lwm2m/wakaama_lwm2m/wakaama-master/core\objects.c ****  OTHERWISE) ARISING IN ANY WAY OUT OF THE USE OF THIS SOFTWARE, EVEN IF ADVISED OF
  82:g:/iot/IoT_Device_Demo/iot_link/network/lwm2m/wakaama_lwm2m/wakaama-master/core\objects.c ****  THE POSSIBILITY OF SUCH DAMAGE.
  83:g:/iot/IoT_Device_Demo/iot_link/network/lwm2m/wakaama_lwm2m/wakaama-master/core\objects.c **** 
  84:g:/iot/IoT_Device_Demo/iot_link/network/lwm2m/wakaama_lwm2m/wakaama-master/core\objects.c ****  David Navarro <david.navarro@intel.com>
  85:g:/iot/IoT_Device_Demo/iot_link/network/lwm2m/wakaama_lwm2m/wakaama-master/core\objects.c **** 
  86:g:/iot/IoT_Device_Demo/iot_link/network/lwm2m/wakaama_lwm2m/wakaama-master/core\objects.c **** */
  87:g:/iot/IoT_Device_Demo/iot_link/network/lwm2m/wakaama_lwm2m/wakaama-master/core\objects.c **** #include "internals.h"
  88:g:/iot/IoT_Device_Demo/iot_link/network/lwm2m/wakaama_lwm2m/wakaama-master/core\objects.c **** 
  89:g:/iot/IoT_Device_Demo/iot_link/network/lwm2m/wakaama_lwm2m/wakaama-master/core\objects.c **** #ifdef LWM2M_CLIENT_MODE
  90:g:/iot/IoT_Device_Demo/iot_link/network/lwm2m/wakaama_lwm2m/wakaama-master/core\objects.c **** 
  91:g:/iot/IoT_Device_Demo/iot_link/network/lwm2m/wakaama_lwm2m/wakaama-master/core\objects.c **** 
  92:g:/iot/IoT_Device_Demo/iot_link/network/lwm2m/wakaama_lwm2m/wakaama-master/core\objects.c **** #include <stdlib.h>
  93:g:/iot/IoT_Device_Demo/iot_link/network/lwm2m/wakaama_lwm2m/wakaama-master/core\objects.c **** #include <string.h>
  94:g:/iot/IoT_Device_Demo/iot_link/network/lwm2m/wakaama_lwm2m/wakaama-master/core\objects.c **** #include <stdio.h>
  95:g:/iot/IoT_Device_Demo/iot_link/network/lwm2m/wakaama_lwm2m/wakaama-master/core\objects.c **** #include "object_comm.h"
  96:g:/iot/IoT_Device_Demo/iot_link/network/lwm2m/wakaama_lwm2m/wakaama-master/core\objects.c **** 
  97:g:/iot/IoT_Device_Demo/iot_link/network/lwm2m/wakaama_lwm2m/wakaama-master/core\objects.c **** uint8_t object_checkReadable(lwm2m_context_t *contextP,
  98:g:/iot/IoT_Device_Demo/iot_link/network/lwm2m/wakaama_lwm2m/wakaama-master/core\objects.c ****                              lwm2m_uri_t *uriP)
  99:g:/iot/IoT_Device_Demo/iot_link/network/lwm2m/wakaama_lwm2m/wakaama-master/core\objects.c **** {
  42              		.loc 1 99 1
  43              		.cfi_startproc
  44              		@ args = 0, pretend = 0, frame = 24
  45              		@ frame_needed = 1, uses_anonymous_args = 0
  46 0000 90B5     		push	{r4, r7, lr}
  47              	.LCFI0:
  48              		.cfi_def_cfa_offset 12
  49              		.cfi_offset 4, -12
  50              		.cfi_offset 7, -8
  51              		.cfi_offset 14, -4
  52 0002 8BB0     		sub	sp, sp, #44
  53              	.LCFI1:
  54              		.cfi_def_cfa_offset 56
  55 0004 04AF     		add	r7, sp, #16
  56              	.LCFI2:
  57              		.cfi_def_cfa 7, 40
ARM GAS  C:\Users\ADMINI~1\AppData\Local\Temp\ccpcHGeL.s 			page 4


  58 0006 7860     		str	r0, [r7, #4]
  59 0008 3960     		str	r1, [r7]
 100:g:/iot/IoT_Device_Demo/iot_link/network/lwm2m/wakaama_lwm2m/wakaama-master/core\objects.c ****     uint8_t result;
 101:g:/iot/IoT_Device_Demo/iot_link/network/lwm2m/wakaama_lwm2m/wakaama-master/core\objects.c ****     lwm2m_object_t *targetP;
 102:g:/iot/IoT_Device_Demo/iot_link/network/lwm2m/wakaama_lwm2m/wakaama-master/core\objects.c ****     lwm2m_data_t *dataP = NULL;
  60              		.loc 1 102 19
  61 000a 0023     		movs	r3, #0
  62 000c FB60     		str	r3, [r7, #12]
 103:g:/iot/IoT_Device_Demo/iot_link/network/lwm2m/wakaama_lwm2m/wakaama-master/core\objects.c ****     int size;
 104:g:/iot/IoT_Device_Demo/iot_link/network/lwm2m/wakaama_lwm2m/wakaama-master/core\objects.c **** 
 105:g:/iot/IoT_Device_Demo/iot_link/network/lwm2m/wakaama_lwm2m/wakaama-master/core\objects.c ****     LOG_URI(uriP);
  63              		.loc 1 105 5
  64 000e 3B68     		ldr	r3, [r7]
  65 0010 002B     		cmp	r3, #0
  66 0012 18D1     		bne	.L2
  67              		.loc 1 105 5 is_stmt 0 discriminator 1
  68 0014 FFF7FEFF 		bl	link_log_level_get
  69 0018 0346     		mov	r3, r0
  70 001a 012B     		cmp	r3, #1
  71 001c 7CD8     		bhi	.L3
  72              		.loc 1 105 5 discriminator 3
  73 001e 0120     		movs	r0, #1
  74 0020 FFF7FEFF 		bl	link_log_level_name
  75 0024 0446     		mov	r4, r0
  76 0026 FFF7FEFF 		bl	osal_sys_time
  77 002a 0246     		mov	r2, r0
  78 002c 0B46     		mov	r3, r1
  79 002e 6923     		movs	r3, #105
  80 0030 0293     		str	r3, [sp, #8]
  81 0032 664B     		ldr	r3, .L15
  82 0034 0193     		str	r3, [sp, #4]
  83 0036 6923     		movs	r3, #105
  84 0038 0093     		str	r3, [sp]
  85 003a 654B     		ldr	r3, .L15+4
  86 003c 2146     		mov	r1, r4
  87 003e 6548     		ldr	r0, .L15+8
  88 0040 FFF7FEFF 		bl	printf
  89 0044 68E0     		b	.L3
  90              	.L2:
  91              		.loc 1 105 5 discriminator 2
  92 0046 FFF7FEFF 		bl	link_log_level_get
  93 004a 0346     		mov	r3, r0
  94 004c 012B     		cmp	r3, #1
  95 004e 15D8     		bhi	.L4
  96              		.loc 1 105 5 discriminator 4
  97 0050 0120     		movs	r0, #1
  98 0052 FFF7FEFF 		bl	link_log_level_name
  99 0056 0446     		mov	r4, r0
 100 0058 FFF7FEFF 		bl	osal_sys_time
 101 005c 0246     		mov	r2, r0
 102 005e 0B46     		mov	r3, r1
 103 0060 3B68     		ldr	r3, [r7]
 104 0062 5B88     		ldrh	r3, [r3, #2]
 105 0064 0393     		str	r3, [sp, #12]
 106 0066 6923     		movs	r3, #105
 107 0068 0293     		str	r3, [sp, #8]
 108 006a 584B     		ldr	r3, .L15
ARM GAS  C:\Users\ADMINI~1\AppData\Local\Temp\ccpcHGeL.s 			page 5


 109 006c 0193     		str	r3, [sp, #4]
 110 006e 6923     		movs	r3, #105
 111 0070 0093     		str	r3, [sp]
 112 0072 574B     		ldr	r3, .L15+4
 113 0074 2146     		mov	r1, r4
 114 0076 5848     		ldr	r0, .L15+12
 115 0078 FFF7FEFF 		bl	printf
 116              	.L4:
 117              		.loc 1 105 5 discriminator 6
 118 007c 3B68     		ldr	r3, [r7]
 119 007e 1B78     		ldrb	r3, [r3]	@ zero_extendqisi2
 120 0080 03F00203 		and	r3, r3, #2
 121 0084 002B     		cmp	r3, #0
 122 0086 16D0     		beq	.L5
 123              		.loc 1 105 5 discriminator 7
 124 0088 FFF7FEFF 		bl	link_log_level_get
 125 008c 0346     		mov	r3, r0
 126 008e 012B     		cmp	r3, #1
 127 0090 11D8     		bhi	.L5
 128              		.loc 1 105 5 discriminator 9
 129 0092 0120     		movs	r0, #1
 130 0094 FFF7FEFF 		bl	link_log_level_name
 131 0098 0446     		mov	r4, r0
 132 009a FFF7FEFF 		bl	osal_sys_time
 133 009e 0246     		mov	r2, r0
 134 00a0 0B46     		mov	r3, r1
 135 00a2 3B68     		ldr	r3, [r7]
 136 00a4 9B88     		ldrh	r3, [r3, #4]
 137 00a6 0193     		str	r3, [sp, #4]
 138 00a8 6923     		movs	r3, #105
 139 00aa 0093     		str	r3, [sp]
 140 00ac 484B     		ldr	r3, .L15+4
 141 00ae 2146     		mov	r1, r4
 142 00b0 4A48     		ldr	r0, .L15+16
 143 00b2 FFF7FEFF 		bl	printf
 144              	.L5:
 145              		.loc 1 105 5 discriminator 11
 146 00b6 3B68     		ldr	r3, [r7]
 147 00b8 1B78     		ldrb	r3, [r3]	@ zero_extendqisi2
 148 00ba 03F00103 		and	r3, r3, #1
 149 00be 002B     		cmp	r3, #0
 150 00c0 16D0     		beq	.L6
 151              		.loc 1 105 5 discriminator 12
 152 00c2 FFF7FEFF 		bl	link_log_level_get
 153 00c6 0346     		mov	r3, r0
 154 00c8 012B     		cmp	r3, #1
 155 00ca 11D8     		bhi	.L6
 156              		.loc 1 105 5 discriminator 14
 157 00cc 0120     		movs	r0, #1
 158 00ce FFF7FEFF 		bl	link_log_level_name
 159 00d2 0446     		mov	r4, r0
 160 00d4 FFF7FEFF 		bl	osal_sys_time
 161 00d8 0246     		mov	r2, r0
 162 00da 0B46     		mov	r3, r1
 163 00dc 3B68     		ldr	r3, [r7]
 164 00de DB88     		ldrh	r3, [r3, #6]
 165 00e0 0193     		str	r3, [sp, #4]
ARM GAS  C:\Users\ADMINI~1\AppData\Local\Temp\ccpcHGeL.s 			page 6


 166 00e2 6923     		movs	r3, #105
 167 00e4 0093     		str	r3, [sp]
 168 00e6 3A4B     		ldr	r3, .L15+4
 169 00e8 2146     		mov	r1, r4
 170 00ea 3C48     		ldr	r0, .L15+16
 171 00ec FFF7FEFF 		bl	printf
 172              	.L6:
 173              		.loc 1 105 5 discriminator 16
 174 00f0 FFF7FEFF 		bl	link_log_level_get
 175 00f4 0346     		mov	r3, r0
 176 00f6 012B     		cmp	r3, #1
 177 00f8 0ED8     		bhi	.L3
 178              		.loc 1 105 5 discriminator 17
 179 00fa 0120     		movs	r0, #1
 180 00fc FFF7FEFF 		bl	link_log_level_name
 181 0100 0446     		mov	r4, r0
 182 0102 FFF7FEFF 		bl	osal_sys_time
 183 0106 0246     		mov	r2, r0
 184 0108 0B46     		mov	r3, r1
 185 010a 6923     		movs	r3, #105
 186 010c 0093     		str	r3, [sp]
 187 010e 304B     		ldr	r3, .L15+4
 188 0110 2146     		mov	r1, r4
 189 0112 3348     		ldr	r0, .L15+20
 190 0114 FFF7FEFF 		bl	printf
 191              	.L3:
 106:g:/iot/IoT_Device_Demo/iot_link/network/lwm2m/wakaama_lwm2m/wakaama-master/core\objects.c ****     targetP = (lwm2m_object_t *)LWM2M_LIST_FIND(contextP->objectList, uriP->objectId);
 192              		.loc 1 106 33 is_stmt 1
 193 0118 7B68     		ldr	r3, [r7, #4]
 194 011a 9A69     		ldr	r2, [r3, #24]
 195 011c 3B68     		ldr	r3, [r7]
 196 011e 5B88     		ldrh	r3, [r3, #2]
 197 0120 1946     		mov	r1, r3
 198 0122 1046     		mov	r0, r2
 199 0124 FFF7FEFF 		bl	lwm2m_list_find
 200 0128 7861     		str	r0, [r7, #20]
 107:g:/iot/IoT_Device_Demo/iot_link/network/lwm2m/wakaama_lwm2m/wakaama-master/core\objects.c ****     if (NULL == targetP) return COAP_404_NOT_FOUND;
 201              		.loc 1 107 8
 202 012a 7B69     		ldr	r3, [r7, #20]
 203 012c 002B     		cmp	r3, #0
 204 012e 01D1     		bne	.L7
 205              		.loc 1 107 33 discriminator 1
 206 0130 8423     		movs	r3, #132
 207 0132 46E0     		b	.L14
 208              	.L7:
 108:g:/iot/IoT_Device_Demo/iot_link/network/lwm2m/wakaama_lwm2m/wakaama-master/core\objects.c ****     if (NULL == targetP->readFunc) return COAP_405_METHOD_NOT_ALLOWED;
 209              		.loc 1 108 24
 210 0134 7B69     		ldr	r3, [r7, #20]
 211 0136 DB68     		ldr	r3, [r3, #12]
 212              		.loc 1 108 8
 213 0138 002B     		cmp	r3, #0
 214 013a 01D1     		bne	.L9
 215              		.loc 1 108 43 discriminator 1
 216 013c 8523     		movs	r3, #133
 217 013e 40E0     		b	.L14
 218              	.L9:
 109:g:/iot/IoT_Device_Demo/iot_link/network/lwm2m/wakaama_lwm2m/wakaama-master/core\objects.c **** 
ARM GAS  C:\Users\ADMINI~1\AppData\Local\Temp\ccpcHGeL.s 			page 7


 110:g:/iot/IoT_Device_Demo/iot_link/network/lwm2m/wakaama_lwm2m/wakaama-master/core\objects.c ****     if (!LWM2M_URI_IS_SET_INSTANCE(uriP)) return COAP_205_CONTENT;
 219              		.loc 1 110 10
 220 0140 3B68     		ldr	r3, [r7]
 221 0142 1B78     		ldrb	r3, [r3]	@ zero_extendqisi2
 222 0144 03F00203 		and	r3, r3, #2
 223              		.loc 1 110 8
 224 0148 002B     		cmp	r3, #0
 225 014a 01D1     		bne	.L10
 226              		.loc 1 110 50 discriminator 1
 227 014c 4523     		movs	r3, #69
 228 014e 38E0     		b	.L14
 229              	.L10:
 111:g:/iot/IoT_Device_Demo/iot_link/network/lwm2m/wakaama_lwm2m/wakaama-master/core\objects.c **** 
 112:g:/iot/IoT_Device_Demo/iot_link/network/lwm2m/wakaama_lwm2m/wakaama-master/core\objects.c ****     if (NULL == lwm2m_list_find(targetP->instanceList, uriP->instanceId)) return COAP_404_NOT_FOUND
 230              		.loc 1 112 17
 231 0150 7B69     		ldr	r3, [r7, #20]
 232 0152 9A68     		ldr	r2, [r3, #8]
 233 0154 3B68     		ldr	r3, [r7]
 234 0156 9B88     		ldrh	r3, [r3, #4]
 235 0158 1946     		mov	r1, r3
 236 015a 1046     		mov	r0, r2
 237 015c FFF7FEFF 		bl	lwm2m_list_find
 238 0160 0346     		mov	r3, r0
 239              		.loc 1 112 8
 240 0162 002B     		cmp	r3, #0
 241 0164 01D1     		bne	.L11
 242              		.loc 1 112 82 discriminator 1
 243 0166 8423     		movs	r3, #132
 244 0168 2BE0     		b	.L14
 245              	.L11:
 113:g:/iot/IoT_Device_Demo/iot_link/network/lwm2m/wakaama_lwm2m/wakaama-master/core\objects.c **** 
 114:g:/iot/IoT_Device_Demo/iot_link/network/lwm2m/wakaama_lwm2m/wakaama-master/core\objects.c ****     if (!LWM2M_URI_IS_SET_RESOURCE(uriP)) return COAP_205_CONTENT;
 246              		.loc 1 114 10
 247 016a 3B68     		ldr	r3, [r7]
 248 016c 1B78     		ldrb	r3, [r3]	@ zero_extendqisi2
 249 016e 03F00103 		and	r3, r3, #1
 250              		.loc 1 114 8
 251 0172 002B     		cmp	r3, #0
 252 0174 01D1     		bne	.L12
 253              		.loc 1 114 50 discriminator 1
 254 0176 4523     		movs	r3, #69
 255 0178 23E0     		b	.L14
 256              	.L12:
 115:g:/iot/IoT_Device_Demo/iot_link/network/lwm2m/wakaama_lwm2m/wakaama-master/core\objects.c **** 
 116:g:/iot/IoT_Device_Demo/iot_link/network/lwm2m/wakaama_lwm2m/wakaama-master/core\objects.c ****     size = 1;
 257              		.loc 1 116 10
 258 017a 0123     		movs	r3, #1
 259 017c BB60     		str	r3, [r7, #8]
 117:g:/iot/IoT_Device_Demo/iot_link/network/lwm2m/wakaama_lwm2m/wakaama-master/core\objects.c ****     dataP = lwm2m_data_new(1);
 260              		.loc 1 117 13
 261 017e 0120     		movs	r0, #1
 262 0180 FFF7FEFF 		bl	lwm2m_data_new
 263 0184 0346     		mov	r3, r0
 264              		.loc 1 117 11
 265 0186 FB60     		str	r3, [r7, #12]
 118:g:/iot/IoT_Device_Demo/iot_link/network/lwm2m/wakaama_lwm2m/wakaama-master/core\objects.c ****     if (dataP == NULL) return COAP_500_INTERNAL_SERVER_ERROR;
 266              		.loc 1 118 15
ARM GAS  C:\Users\ADMINI~1\AppData\Local\Temp\ccpcHGeL.s 			page 8


 267 0188 FB68     		ldr	r3, [r7, #12]
 268              		.loc 1 118 8
 269 018a 002B     		cmp	r3, #0
 270 018c 01D1     		bne	.L13
 271              		.loc 1 118 31 discriminator 1
 272 018e A023     		movs	r3, #160
 273 0190 17E0     		b	.L14
 274              	.L13:
 119:g:/iot/IoT_Device_Demo/iot_link/network/lwm2m/wakaama_lwm2m/wakaama-master/core\objects.c **** 
 120:g:/iot/IoT_Device_Demo/iot_link/network/lwm2m/wakaama_lwm2m/wakaama-master/core\objects.c ****     dataP->id = uriP->resourceId;
 275              		.loc 1 120 10
 276 0192 FB68     		ldr	r3, [r7, #12]
 277              		.loc 1 120 21
 278 0194 3A68     		ldr	r2, [r7]
 279 0196 D288     		ldrh	r2, [r2, #6]
 280              		.loc 1 120 15
 281 0198 5A80     		strh	r2, [r3, #2]	@ movhi
 121:g:/iot/IoT_Device_Demo/iot_link/network/lwm2m/wakaama_lwm2m/wakaama-master/core\objects.c **** 
 122:g:/iot/IoT_Device_Demo/iot_link/network/lwm2m/wakaama_lwm2m/wakaama-master/core\objects.c ****     result = targetP->readFunc(uriP->instanceId, &size, &dataP, NULL, targetP);
 282              		.loc 1 122 21
 283 019a 7B69     		ldr	r3, [r7, #20]
 284 019c DC68     		ldr	r4, [r3, #12]
 285              		.loc 1 122 14
 286 019e 3B68     		ldr	r3, [r7]
 287 01a0 9888     		ldrh	r0, [r3, #4]
 288 01a2 07F10C02 		add	r2, r7, #12
 289 01a6 07F10801 		add	r1, r7, #8
 290 01aa 7B69     		ldr	r3, [r7, #20]
 291 01ac 0093     		str	r3, [sp]
 292 01ae 0023     		movs	r3, #0
 293 01b0 A047     		blx	r4
 294              	.LVL0:
 295 01b2 0346     		mov	r3, r0
 296 01b4 FB74     		strb	r3, [r7, #19]
 123:g:/iot/IoT_Device_Demo/iot_link/network/lwm2m/wakaama_lwm2m/wakaama-master/core\objects.c ****     lwm2m_data_free(1, dataP);
 297              		.loc 1 123 5
 298 01b6 FB68     		ldr	r3, [r7, #12]
 299 01b8 1946     		mov	r1, r3
 300 01ba 0120     		movs	r0, #1
 301 01bc FFF7FEFF 		bl	lwm2m_data_free
 124:g:/iot/IoT_Device_Demo/iot_link/network/lwm2m/wakaama_lwm2m/wakaama-master/core\objects.c **** 
 125:g:/iot/IoT_Device_Demo/iot_link/network/lwm2m/wakaama_lwm2m/wakaama-master/core\objects.c ****     return result;
 302              		.loc 1 125 12
 303 01c0 FB7C     		ldrb	r3, [r7, #19]	@ zero_extendqisi2
 304              	.L14:
 126:g:/iot/IoT_Device_Demo/iot_link/network/lwm2m/wakaama_lwm2m/wakaama-master/core\objects.c **** }
 305              		.loc 1 126 1 discriminator 1
 306 01c2 1846     		mov	r0, r3
 307 01c4 1C37     		adds	r7, r7, #28
 308              	.LCFI3:
 309              		.cfi_def_cfa_offset 12
 310 01c6 BD46     		mov	sp, r7
 311              	.LCFI4:
 312              		.cfi_def_cfa_register 13
 313              		@ sp needed
 314 01c8 90BD     		pop	{r4, r7, pc}
 315              	.L16:
ARM GAS  C:\Users\ADMINI~1\AppData\Local\Temp\ccpcHGeL.s 			page 9


 316 01ca 00BF     		.align	2
 317              	.L15:
 318 01cc 00000000 		.word	__func__.9099
 319 01d0 00000000 		.word	__FUNCTION__.9098
 320 01d4 00000000 		.word	.LC0
 321 01d8 24000000 		.word	.LC1
 322 01dc 44000000 		.word	.LC2
 323 01e0 5C000000 		.word	.LC3
 324              		.cfi_endproc
 325              	.LFE12:
 327              		.section	.text.object_checkNumeric,"ax",%progbits
 328              		.align	1
 329              		.global	object_checkNumeric
 330              		.syntax unified
 331              		.thumb
 332              		.thumb_func
 333              		.fpu fpv4-sp-d16
 335              	object_checkNumeric:
 336              	.LFB13:
 127:g:/iot/IoT_Device_Demo/iot_link/network/lwm2m/wakaama_lwm2m/wakaama-master/core\objects.c **** 
 128:g:/iot/IoT_Device_Demo/iot_link/network/lwm2m/wakaama_lwm2m/wakaama-master/core\objects.c **** uint8_t object_checkNumeric(lwm2m_context_t *contextP,
 129:g:/iot/IoT_Device_Demo/iot_link/network/lwm2m/wakaama_lwm2m/wakaama-master/core\objects.c ****                             lwm2m_uri_t *uriP)
 130:g:/iot/IoT_Device_Demo/iot_link/network/lwm2m/wakaama_lwm2m/wakaama-master/core\objects.c **** {
 337              		.loc 1 130 1
 338              		.cfi_startproc
 339              		@ args = 0, pretend = 0, frame = 24
 340              		@ frame_needed = 1, uses_anonymous_args = 0
 341 0000 90B5     		push	{r4, r7, lr}
 342              	.LCFI5:
 343              		.cfi_def_cfa_offset 12
 344              		.cfi_offset 4, -12
 345              		.cfi_offset 7, -8
 346              		.cfi_offset 14, -4
 347 0002 8BB0     		sub	sp, sp, #44
 348              	.LCFI6:
 349              		.cfi_def_cfa_offset 56
 350 0004 04AF     		add	r7, sp, #16
 351              	.LCFI7:
 352              		.cfi_def_cfa 7, 40
 353 0006 7860     		str	r0, [r7, #4]
 354 0008 3960     		str	r1, [r7]
 131:g:/iot/IoT_Device_Demo/iot_link/network/lwm2m/wakaama_lwm2m/wakaama-master/core\objects.c ****     uint8_t result;
 132:g:/iot/IoT_Device_Demo/iot_link/network/lwm2m/wakaama_lwm2m/wakaama-master/core\objects.c ****     lwm2m_object_t *targetP;
 133:g:/iot/IoT_Device_Demo/iot_link/network/lwm2m/wakaama_lwm2m/wakaama-master/core\objects.c ****     lwm2m_data_t *dataP = NULL;
 355              		.loc 1 133 19
 356 000a 0023     		movs	r3, #0
 357 000c FB60     		str	r3, [r7, #12]
 134:g:/iot/IoT_Device_Demo/iot_link/network/lwm2m/wakaama_lwm2m/wakaama-master/core\objects.c ****     int size;
 135:g:/iot/IoT_Device_Demo/iot_link/network/lwm2m/wakaama_lwm2m/wakaama-master/core\objects.c **** 
 136:g:/iot/IoT_Device_Demo/iot_link/network/lwm2m/wakaama_lwm2m/wakaama-master/core\objects.c ****     LOG_URI(uriP);
 358              		.loc 1 136 5
 359 000e 3B68     		ldr	r3, [r7]
 360 0010 002B     		cmp	r3, #0
 361 0012 18D1     		bne	.L18
 362              		.loc 1 136 5 is_stmt 0 discriminator 1
 363 0014 FFF7FEFF 		bl	link_log_level_get
 364 0018 0346     		mov	r3, r0
ARM GAS  C:\Users\ADMINI~1\AppData\Local\Temp\ccpcHGeL.s 			page 10


 365 001a 012B     		cmp	r3, #1
 366 001c 7CD8     		bhi	.L19
 367              		.loc 1 136 5 discriminator 3
 368 001e 0120     		movs	r0, #1
 369 0020 FFF7FEFF 		bl	link_log_level_name
 370 0024 0446     		mov	r4, r0
 371 0026 FFF7FEFF 		bl	osal_sys_time
 372 002a 0246     		mov	r2, r0
 373 002c 0B46     		mov	r3, r1
 374 002e 8823     		movs	r3, #136
 375 0030 0293     		str	r3, [sp, #8]
 376 0032 624B     		ldr	r3, .L33
 377 0034 0193     		str	r3, [sp, #4]
 378 0036 8823     		movs	r3, #136
 379 0038 0093     		str	r3, [sp]
 380 003a 614B     		ldr	r3, .L33+4
 381 003c 2146     		mov	r1, r4
 382 003e 6148     		ldr	r0, .L33+8
 383 0040 FFF7FEFF 		bl	printf
 384 0044 68E0     		b	.L19
 385              	.L18:
 386              		.loc 1 136 5 discriminator 2
 387 0046 FFF7FEFF 		bl	link_log_level_get
 388 004a 0346     		mov	r3, r0
 389 004c 012B     		cmp	r3, #1
 390 004e 15D8     		bhi	.L20
 391              		.loc 1 136 5 discriminator 4
 392 0050 0120     		movs	r0, #1
 393 0052 FFF7FEFF 		bl	link_log_level_name
 394 0056 0446     		mov	r4, r0
 395 0058 FFF7FEFF 		bl	osal_sys_time
 396 005c 0246     		mov	r2, r0
 397 005e 0B46     		mov	r3, r1
 398 0060 3B68     		ldr	r3, [r7]
 399 0062 5B88     		ldrh	r3, [r3, #2]
 400 0064 0393     		str	r3, [sp, #12]
 401 0066 8823     		movs	r3, #136
 402 0068 0293     		str	r3, [sp, #8]
 403 006a 544B     		ldr	r3, .L33
 404 006c 0193     		str	r3, [sp, #4]
 405 006e 8823     		movs	r3, #136
 406 0070 0093     		str	r3, [sp]
 407 0072 534B     		ldr	r3, .L33+4
 408 0074 2146     		mov	r1, r4
 409 0076 5448     		ldr	r0, .L33+12
 410 0078 FFF7FEFF 		bl	printf
 411              	.L20:
 412              		.loc 1 136 5 discriminator 6
 413 007c 3B68     		ldr	r3, [r7]
 414 007e 1B78     		ldrb	r3, [r3]	@ zero_extendqisi2
 415 0080 03F00203 		and	r3, r3, #2
 416 0084 002B     		cmp	r3, #0
 417 0086 16D0     		beq	.L21
 418              		.loc 1 136 5 discriminator 7
 419 0088 FFF7FEFF 		bl	link_log_level_get
 420 008c 0346     		mov	r3, r0
 421 008e 012B     		cmp	r3, #1
ARM GAS  C:\Users\ADMINI~1\AppData\Local\Temp\ccpcHGeL.s 			page 11


 422 0090 11D8     		bhi	.L21
 423              		.loc 1 136 5 discriminator 9
 424 0092 0120     		movs	r0, #1
 425 0094 FFF7FEFF 		bl	link_log_level_name
 426 0098 0446     		mov	r4, r0
 427 009a FFF7FEFF 		bl	osal_sys_time
 428 009e 0246     		mov	r2, r0
 429 00a0 0B46     		mov	r3, r1
 430 00a2 3B68     		ldr	r3, [r7]
 431 00a4 9B88     		ldrh	r3, [r3, #4]
 432 00a6 0193     		str	r3, [sp, #4]
 433 00a8 8823     		movs	r3, #136
 434 00aa 0093     		str	r3, [sp]
 435 00ac 444B     		ldr	r3, .L33+4
 436 00ae 2146     		mov	r1, r4
 437 00b0 4648     		ldr	r0, .L33+16
 438 00b2 FFF7FEFF 		bl	printf
 439              	.L21:
 440              		.loc 1 136 5 discriminator 11
 441 00b6 3B68     		ldr	r3, [r7]
 442 00b8 1B78     		ldrb	r3, [r3]	@ zero_extendqisi2
 443 00ba 03F00103 		and	r3, r3, #1
 444 00be 002B     		cmp	r3, #0
 445 00c0 16D0     		beq	.L22
 446              		.loc 1 136 5 discriminator 12
 447 00c2 FFF7FEFF 		bl	link_log_level_get
 448 00c6 0346     		mov	r3, r0
 449 00c8 012B     		cmp	r3, #1
 450 00ca 11D8     		bhi	.L22
 451              		.loc 1 136 5 discriminator 14
 452 00cc 0120     		movs	r0, #1
 453 00ce FFF7FEFF 		bl	link_log_level_name
 454 00d2 0446     		mov	r4, r0
 455 00d4 FFF7FEFF 		bl	osal_sys_time
 456 00d8 0246     		mov	r2, r0
 457 00da 0B46     		mov	r3, r1
 458 00dc 3B68     		ldr	r3, [r7]
 459 00de DB88     		ldrh	r3, [r3, #6]
 460 00e0 0193     		str	r3, [sp, #4]
 461 00e2 8823     		movs	r3, #136
 462 00e4 0093     		str	r3, [sp]
 463 00e6 364B     		ldr	r3, .L33+4
 464 00e8 2146     		mov	r1, r4
 465 00ea 3848     		ldr	r0, .L33+16
 466 00ec FFF7FEFF 		bl	printf
 467              	.L22:
 468              		.loc 1 136 5 discriminator 16
 469 00f0 FFF7FEFF 		bl	link_log_level_get
 470 00f4 0346     		mov	r3, r0
 471 00f6 012B     		cmp	r3, #1
 472 00f8 0ED8     		bhi	.L19
 473              		.loc 1 136 5 discriminator 17
 474 00fa 0120     		movs	r0, #1
 475 00fc FFF7FEFF 		bl	link_log_level_name
 476 0100 0446     		mov	r4, r0
 477 0102 FFF7FEFF 		bl	osal_sys_time
 478 0106 0246     		mov	r2, r0
ARM GAS  C:\Users\ADMINI~1\AppData\Local\Temp\ccpcHGeL.s 			page 12


 479 0108 0B46     		mov	r3, r1
 480 010a 8823     		movs	r3, #136
 481 010c 0093     		str	r3, [sp]
 482 010e 2C4B     		ldr	r3, .L33+4
 483 0110 2146     		mov	r1, r4
 484 0112 2F48     		ldr	r0, .L33+20
 485 0114 FFF7FEFF 		bl	printf
 486              	.L19:
 137:g:/iot/IoT_Device_Demo/iot_link/network/lwm2m/wakaama_lwm2m/wakaama-master/core\objects.c ****     if (!LWM2M_URI_IS_SET_RESOURCE(uriP)) return COAP_405_METHOD_NOT_ALLOWED;
 487              		.loc 1 137 10 is_stmt 1
 488 0118 3B68     		ldr	r3, [r7]
 489 011a 1B78     		ldrb	r3, [r3]	@ zero_extendqisi2
 490 011c 03F00103 		and	r3, r3, #1
 491              		.loc 1 137 8
 492 0120 002B     		cmp	r3, #0
 493 0122 01D1     		bne	.L23
 494              		.loc 1 137 50 discriminator 1
 495 0124 8523     		movs	r3, #133
 496 0126 45E0     		b	.L30
 497              	.L23:
 138:g:/iot/IoT_Device_Demo/iot_link/network/lwm2m/wakaama_lwm2m/wakaama-master/core\objects.c **** 
 139:g:/iot/IoT_Device_Demo/iot_link/network/lwm2m/wakaama_lwm2m/wakaama-master/core\objects.c ****     targetP = (lwm2m_object_t *)LWM2M_LIST_FIND(contextP->objectList, uriP->objectId);
 498              		.loc 1 139 33
 499 0128 7B68     		ldr	r3, [r7, #4]
 500 012a 9A69     		ldr	r2, [r3, #24]
 501 012c 3B68     		ldr	r3, [r7]
 502 012e 5B88     		ldrh	r3, [r3, #2]
 503 0130 1946     		mov	r1, r3
 504 0132 1046     		mov	r0, r2
 505 0134 FFF7FEFF 		bl	lwm2m_list_find
 506 0138 3861     		str	r0, [r7, #16]
 140:g:/iot/IoT_Device_Demo/iot_link/network/lwm2m/wakaama_lwm2m/wakaama-master/core\objects.c ****     if (NULL == targetP) return COAP_404_NOT_FOUND;
 507              		.loc 1 140 8
 508 013a 3B69     		ldr	r3, [r7, #16]
 509 013c 002B     		cmp	r3, #0
 510 013e 01D1     		bne	.L25
 511              		.loc 1 140 33 discriminator 1
 512 0140 8423     		movs	r3, #132
 513 0142 37E0     		b	.L30
 514              	.L25:
 141:g:/iot/IoT_Device_Demo/iot_link/network/lwm2m/wakaama_lwm2m/wakaama-master/core\objects.c ****     if (NULL == targetP->readFunc) return COAP_405_METHOD_NOT_ALLOWED;
 515              		.loc 1 141 24
 516 0144 3B69     		ldr	r3, [r7, #16]
 517 0146 DB68     		ldr	r3, [r3, #12]
 518              		.loc 1 141 8
 519 0148 002B     		cmp	r3, #0
 520 014a 01D1     		bne	.L26
 521              		.loc 1 141 43 discriminator 1
 522 014c 8523     		movs	r3, #133
 523 014e 31E0     		b	.L30
 524              	.L26:
 142:g:/iot/IoT_Device_Demo/iot_link/network/lwm2m/wakaama_lwm2m/wakaama-master/core\objects.c **** 
 143:g:/iot/IoT_Device_Demo/iot_link/network/lwm2m/wakaama_lwm2m/wakaama-master/core\objects.c ****     size = 1;
 525              		.loc 1 143 10
 526 0150 0123     		movs	r3, #1
 527 0152 BB60     		str	r3, [r7, #8]
 144:g:/iot/IoT_Device_Demo/iot_link/network/lwm2m/wakaama_lwm2m/wakaama-master/core\objects.c ****     dataP = lwm2m_data_new(1);
ARM GAS  C:\Users\ADMINI~1\AppData\Local\Temp\ccpcHGeL.s 			page 13


 528              		.loc 1 144 13
 529 0154 0120     		movs	r0, #1
 530 0156 FFF7FEFF 		bl	lwm2m_data_new
 531 015a 0346     		mov	r3, r0
 532              		.loc 1 144 11
 533 015c FB60     		str	r3, [r7, #12]
 145:g:/iot/IoT_Device_Demo/iot_link/network/lwm2m/wakaama_lwm2m/wakaama-master/core\objects.c ****     if (dataP == NULL) return COAP_500_INTERNAL_SERVER_ERROR;
 534              		.loc 1 145 15
 535 015e FB68     		ldr	r3, [r7, #12]
 536              		.loc 1 145 8
 537 0160 002B     		cmp	r3, #0
 538 0162 01D1     		bne	.L27
 539              		.loc 1 145 31 discriminator 1
 540 0164 A023     		movs	r3, #160
 541 0166 25E0     		b	.L30
 542              	.L27:
 146:g:/iot/IoT_Device_Demo/iot_link/network/lwm2m/wakaama_lwm2m/wakaama-master/core\objects.c **** 
 147:g:/iot/IoT_Device_Demo/iot_link/network/lwm2m/wakaama_lwm2m/wakaama-master/core\objects.c ****     dataP->id = uriP->resourceId;
 543              		.loc 1 147 10
 544 0168 FB68     		ldr	r3, [r7, #12]
 545              		.loc 1 147 21
 546 016a 3A68     		ldr	r2, [r7]
 547 016c D288     		ldrh	r2, [r2, #6]
 548              		.loc 1 147 15
 549 016e 5A80     		strh	r2, [r3, #2]	@ movhi
 148:g:/iot/IoT_Device_Demo/iot_link/network/lwm2m/wakaama_lwm2m/wakaama-master/core\objects.c **** 
 149:g:/iot/IoT_Device_Demo/iot_link/network/lwm2m/wakaama_lwm2m/wakaama-master/core\objects.c ****     result = targetP->readFunc(uriP->instanceId, &size, &dataP, NULL, targetP);
 550              		.loc 1 149 21
 551 0170 3B69     		ldr	r3, [r7, #16]
 552 0172 DC68     		ldr	r4, [r3, #12]
 553              		.loc 1 149 14
 554 0174 3B68     		ldr	r3, [r7]
 555 0176 9888     		ldrh	r0, [r3, #4]
 556 0178 07F10C02 		add	r2, r7, #12
 557 017c 07F10801 		add	r1, r7, #8
 558 0180 3B69     		ldr	r3, [r7, #16]
 559 0182 0093     		str	r3, [sp]
 560 0184 0023     		movs	r3, #0
 561 0186 A047     		blx	r4
 562              	.LVL1:
 563 0188 0346     		mov	r3, r0
 564 018a FB75     		strb	r3, [r7, #23]
 150:g:/iot/IoT_Device_Demo/iot_link/network/lwm2m/wakaama_lwm2m/wakaama-master/core\objects.c ****     if (result == COAP_205_CONTENT)
 565              		.loc 1 150 8
 566 018c FB7D     		ldrb	r3, [r7, #23]	@ zero_extendqisi2
 567 018e 452B     		cmp	r3, #69
 568 0190 07D1     		bne	.L31
 151:g:/iot/IoT_Device_Demo/iot_link/network/lwm2m/wakaama_lwm2m/wakaama-master/core\objects.c ****     {
 152:g:/iot/IoT_Device_Demo/iot_link/network/lwm2m/wakaama_lwm2m/wakaama-master/core\objects.c ****         switch (dataP->type)
 569              		.loc 1 152 22
 570 0192 FB68     		ldr	r3, [r7, #12]
 571 0194 1B78     		ldrb	r3, [r3]	@ zero_extendqisi2
 572 0196 063B     		subs	r3, r3, #6
 573              		.loc 1 152 9
 574 0198 012B     		cmp	r3, #1
 575 019a 04D9     		bls	.L32
 153:g:/iot/IoT_Device_Demo/iot_link/network/lwm2m/wakaama_lwm2m/wakaama-master/core\objects.c ****         {
ARM GAS  C:\Users\ADMINI~1\AppData\Local\Temp\ccpcHGeL.s 			page 14


 154:g:/iot/IoT_Device_Demo/iot_link/network/lwm2m/wakaama_lwm2m/wakaama-master/core\objects.c ****         case LWM2M_TYPE_INTEGER:
 155:g:/iot/IoT_Device_Demo/iot_link/network/lwm2m/wakaama_lwm2m/wakaama-master/core\objects.c ****         case LWM2M_TYPE_FLOAT:
 156:g:/iot/IoT_Device_Demo/iot_link/network/lwm2m/wakaama_lwm2m/wakaama-master/core\objects.c ****             break;
 157:g:/iot/IoT_Device_Demo/iot_link/network/lwm2m/wakaama_lwm2m/wakaama-master/core\objects.c ****         default:
 158:g:/iot/IoT_Device_Demo/iot_link/network/lwm2m/wakaama_lwm2m/wakaama-master/core\objects.c ****             result = COAP_405_METHOD_NOT_ALLOWED;
 576              		.loc 1 158 20
 577 019c 8523     		movs	r3, #133
 578 019e FB75     		strb	r3, [r7, #23]
 579 01a0 02E0     		b	.L28
 580              	.L31:
 159:g:/iot/IoT_Device_Demo/iot_link/network/lwm2m/wakaama_lwm2m/wakaama-master/core\objects.c ****         }
 160:g:/iot/IoT_Device_Demo/iot_link/network/lwm2m/wakaama_lwm2m/wakaama-master/core\objects.c ****     }
 581              		.loc 1 160 5
 582 01a2 00BF     		nop
 583 01a4 00E0     		b	.L28
 584              	.L32:
 156:g:/iot/IoT_Device_Demo/iot_link/network/lwm2m/wakaama_lwm2m/wakaama-master/core\objects.c ****         default:
 585              		.loc 1 156 13
 586 01a6 00BF     		nop
 587              	.L28:
 161:g:/iot/IoT_Device_Demo/iot_link/network/lwm2m/wakaama_lwm2m/wakaama-master/core\objects.c **** 
 162:g:/iot/IoT_Device_Demo/iot_link/network/lwm2m/wakaama_lwm2m/wakaama-master/core\objects.c ****     lwm2m_data_free(1, dataP);
 588              		.loc 1 162 5
 589 01a8 FB68     		ldr	r3, [r7, #12]
 590 01aa 1946     		mov	r1, r3
 591 01ac 0120     		movs	r0, #1
 592 01ae FFF7FEFF 		bl	lwm2m_data_free
 163:g:/iot/IoT_Device_Demo/iot_link/network/lwm2m/wakaama_lwm2m/wakaama-master/core\objects.c **** 
 164:g:/iot/IoT_Device_Demo/iot_link/network/lwm2m/wakaama_lwm2m/wakaama-master/core\objects.c ****     return result;
 593              		.loc 1 164 12
 594 01b2 FB7D     		ldrb	r3, [r7, #23]	@ zero_extendqisi2
 595              	.L30:
 165:g:/iot/IoT_Device_Demo/iot_link/network/lwm2m/wakaama_lwm2m/wakaama-master/core\objects.c **** }
 596              		.loc 1 165 1 discriminator 1
 597 01b4 1846     		mov	r0, r3
 598 01b6 1C37     		adds	r7, r7, #28
 599              	.LCFI8:
 600              		.cfi_def_cfa_offset 12
 601 01b8 BD46     		mov	sp, r7
 602              	.LCFI9:
 603              		.cfi_def_cfa_register 13
 604              		@ sp needed
 605 01ba 90BD     		pop	{r4, r7, pc}
 606              	.L34:
 607              		.align	2
 608              	.L33:
 609 01bc 00000000 		.word	__func__.9109
 610 01c0 00000000 		.word	__FUNCTION__.9108
 611 01c4 00000000 		.word	.LC0
 612 01c8 24000000 		.word	.LC1
 613 01cc 44000000 		.word	.LC2
 614 01d0 5C000000 		.word	.LC3
 615              		.cfi_endproc
 616              	.LFE13:
 618              		.section	.text.prv_init_forbidden,"ax",%progbits
 619              		.align	1
 620              		.syntax unified
ARM GAS  C:\Users\ADMINI~1\AppData\Local\Temp\ccpcHGeL.s 			page 15


 621              		.thumb
 622              		.thumb_func
 623              		.fpu fpv4-sp-d16
 625              	prv_init_forbidden:
 626              	.LFB14:
 166:g:/iot/IoT_Device_Demo/iot_link/network/lwm2m/wakaama_lwm2m/wakaama-master/core\objects.c **** 
 167:g:/iot/IoT_Device_Demo/iot_link/network/lwm2m/wakaama_lwm2m/wakaama-master/core\objects.c **** static uint8_t prv_init_forbidden(lwm2m_context_t *contextP,
 168:g:/iot/IoT_Device_Demo/iot_link/network/lwm2m/wakaama_lwm2m/wakaama-master/core\objects.c ****                                   lwm2m_object_t *targetP,
 169:g:/iot/IoT_Device_Demo/iot_link/network/lwm2m/wakaama_lwm2m/wakaama-master/core\objects.c ****                                   uint16_t objId,
 170:g:/iot/IoT_Device_Demo/iot_link/network/lwm2m/wakaama_lwm2m/wakaama-master/core\objects.c ****                                   uint16_t serverId,
 171:g:/iot/IoT_Device_Demo/iot_link/network/lwm2m/wakaama_lwm2m/wakaama-master/core\objects.c ****                                   int *sizeP,
 172:g:/iot/IoT_Device_Demo/iot_link/network/lwm2m/wakaama_lwm2m/wakaama-master/core\objects.c ****                                   uint8_t **forbidden)
 173:g:/iot/IoT_Device_Demo/iot_link/network/lwm2m/wakaama_lwm2m/wakaama-master/core\objects.c **** {
 627              		.loc 1 173 1
 628              		.cfi_startproc
 629              		@ args = 8, pretend = 0, frame = 32
 630              		@ frame_needed = 1, uses_anonymous_args = 0
 631 0000 80B5     		push	{r7, lr}
 632              	.LCFI10:
 633              		.cfi_def_cfa_offset 8
 634              		.cfi_offset 7, -8
 635              		.cfi_offset 14, -4
 636 0002 88B0     		sub	sp, sp, #32
 637              	.LCFI11:
 638              		.cfi_def_cfa_offset 40
 639 0004 00AF     		add	r7, sp, #0
 640              	.LCFI12:
 641              		.cfi_def_cfa_register 7
 642 0006 F860     		str	r0, [r7, #12]
 643 0008 B960     		str	r1, [r7, #8]
 644 000a 1146     		mov	r1, r2
 645 000c 1A46     		mov	r2, r3
 646 000e 0B46     		mov	r3, r1	@ movhi
 647 0010 FB80     		strh	r3, [r7, #6]	@ movhi
 648 0012 1346     		mov	r3, r2	@ movhi
 649 0014 BB80     		strh	r3, [r7, #4]	@ movhi
 174:g:/iot/IoT_Device_Demo/iot_link/network/lwm2m/wakaama_lwm2m/wakaama-master/core\objects.c ****     lwm2m_list_t *instanceP;
 175:g:/iot/IoT_Device_Demo/iot_link/network/lwm2m/wakaama_lwm2m/wakaama-master/core\objects.c ****     lwm2m_uri_t uriP;
 176:g:/iot/IoT_Device_Demo/iot_link/network/lwm2m/wakaama_lwm2m/wakaama-master/core\objects.c ****     int i;
 177:g:/iot/IoT_Device_Demo/iot_link/network/lwm2m/wakaama_lwm2m/wakaama-master/core\objects.c **** 
 178:g:/iot/IoT_Device_Demo/iot_link/network/lwm2m/wakaama_lwm2m/wakaama-master/core\objects.c ****     uriP.flag = LWM2M_URI_FLAG_INSTANCE_ID;
 650              		.loc 1 178 15
 651 0016 0223     		movs	r3, #2
 652 0018 3B74     		strb	r3, [r7, #16]
 179:g:/iot/IoT_Device_Demo/iot_link/network/lwm2m/wakaama_lwm2m/wakaama-master/core\objects.c ****     uriP.objectId = objId;
 653              		.loc 1 179 19
 654 001a FB88     		ldrh	r3, [r7, #6]	@ movhi
 655 001c 7B82     		strh	r3, [r7, #18]	@ movhi
 180:g:/iot/IoT_Device_Demo/iot_link/network/lwm2m/wakaama_lwm2m/wakaama-master/core\objects.c **** 
 181:g:/iot/IoT_Device_Demo/iot_link/network/lwm2m/wakaama_lwm2m/wakaama-master/core\objects.c ****     i = 0;
 656              		.loc 1 181 7
 657 001e 0023     		movs	r3, #0
 658 0020 BB61     		str	r3, [r7, #24]
 182:g:/iot/IoT_Device_Demo/iot_link/network/lwm2m/wakaama_lwm2m/wakaama-master/core\objects.c ****     *forbidden = (uint8_t *)lwm2m_malloc(*sizeP);
 659              		.loc 1 182 42
 660 0022 BB6A     		ldr	r3, [r7, #40]
 661 0024 1B68     		ldr	r3, [r3]
ARM GAS  C:\Users\ADMINI~1\AppData\Local\Temp\ccpcHGeL.s 			page 16


 662              		.loc 1 182 29
 663 0026 1846     		mov	r0, r3
 664 0028 FFF7FEFF 		bl	lwm2m_malloc
 665 002c 0246     		mov	r2, r0
 666              		.loc 1 182 16
 667 002e FB6A     		ldr	r3, [r7, #44]
 668 0030 1A60     		str	r2, [r3]
 183:g:/iot/IoT_Device_Demo/iot_link/network/lwm2m/wakaama_lwm2m/wakaama-master/core\objects.c ****     if (*forbidden == NULL)
 669              		.loc 1 183 9
 670 0032 FB6A     		ldr	r3, [r7, #44]
 671 0034 1B68     		ldr	r3, [r3]
 672              		.loc 1 183 8
 673 0036 002B     		cmp	r3, #0
 674 0038 01D1     		bne	.L36
 184:g:/iot/IoT_Device_Demo/iot_link/network/lwm2m/wakaama_lwm2m/wakaama-master/core\objects.c ****     {
 185:g:/iot/IoT_Device_Demo/iot_link/network/lwm2m/wakaama_lwm2m/wakaama-master/core\objects.c ****         return COAP_500_INTERNAL_SERVER_ERROR;
 675              		.loc 1 185 16
 676 003a A023     		movs	r3, #160
 677 003c 38E0     		b	.L42
 678              	.L36:
 186:g:/iot/IoT_Device_Demo/iot_link/network/lwm2m/wakaama_lwm2m/wakaama-master/core\objects.c ****     }
 187:g:/iot/IoT_Device_Demo/iot_link/network/lwm2m/wakaama_lwm2m/wakaama-master/core\objects.c ****     memset(*forbidden, 0, *sizeP);
 679              		.loc 1 187 5
 680 003e FB6A     		ldr	r3, [r7, #44]
 681 0040 1868     		ldr	r0, [r3]
 682              		.loc 1 187 27
 683 0042 BB6A     		ldr	r3, [r7, #40]
 684 0044 1B68     		ldr	r3, [r3]
 685              		.loc 1 187 5
 686 0046 1A46     		mov	r2, r3
 687 0048 0021     		movs	r1, #0
 688 004a FFF7FEFF 		bl	memset
 188:g:/iot/IoT_Device_Demo/iot_link/network/lwm2m/wakaama_lwm2m/wakaama-master/core\objects.c ****     for (instanceP = targetP->instanceList; instanceP != NULL ; instanceP = instanceP->next)
 689              		.loc 1 188 20
 690 004e BB68     		ldr	r3, [r7, #8]
 691 0050 9B68     		ldr	r3, [r3, #8]
 692 0052 FB61     		str	r3, [r7, #28]
 693              		.loc 1 188 5
 694 0054 1DE0     		b	.L38
 695              	.L40:
 189:g:/iot/IoT_Device_Demo/iot_link/network/lwm2m/wakaama_lwm2m/wakaama-master/core\objects.c ****     {
 190:g:/iot/IoT_Device_Demo/iot_link/network/lwm2m/wakaama_lwm2m/wakaama-master/core\objects.c ****         uriP.instanceId = instanceP->id;
 696              		.loc 1 190 36
 697 0056 FB69     		ldr	r3, [r7, #28]
 698 0058 9B88     		ldrh	r3, [r3, #4]
 699              		.loc 1 190 25
 700 005a BB82     		strh	r3, [r7, #20]	@ movhi
 191:g:/iot/IoT_Device_Demo/iot_link/network/lwm2m/wakaama_lwm2m/wakaama-master/core\objects.c ****         if (acc_auth_operate(contextP, &uriP, OBJ_ACC_READ, serverId) != COAP_NO_ERROR)
 701              		.loc 1 191 13
 702 005c BB88     		ldrh	r3, [r7, #4]
 703 005e 07F11001 		add	r1, r7, #16
 704 0062 0022     		movs	r2, #0
 705 0064 F868     		ldr	r0, [r7, #12]
 706 0066 FFF7FEFF 		bl	acc_auth_operate
 707 006a 0346     		mov	r3, r0
 708              		.loc 1 191 12
 709 006c 002B     		cmp	r3, #0
ARM GAS  C:\Users\ADMINI~1\AppData\Local\Temp\ccpcHGeL.s 			page 17


 710 006e 0AD0     		beq	.L39
 192:g:/iot/IoT_Device_Demo/iot_link/network/lwm2m/wakaama_lwm2m/wakaama-master/core\objects.c ****         {
 193:g:/iot/IoT_Device_Demo/iot_link/network/lwm2m/wakaama_lwm2m/wakaama-master/core\objects.c ****             (*sizeP)--;
 711              		.loc 1 193 14
 712 0070 BB6A     		ldr	r3, [r7, #40]
 713 0072 1B68     		ldr	r3, [r3]
 714              		.loc 1 193 21
 715 0074 5A1E     		subs	r2, r3, #1
 716 0076 BB6A     		ldr	r3, [r7, #40]
 717 0078 1A60     		str	r2, [r3]
 194:g:/iot/IoT_Device_Demo/iot_link/network/lwm2m/wakaama_lwm2m/wakaama-master/core\objects.c ****             (*forbidden)[i] = 1;
 718              		.loc 1 194 14
 719 007a FB6A     		ldr	r3, [r7, #44]
 720 007c 1A68     		ldr	r2, [r3]
 721              		.loc 1 194 25
 722 007e BB69     		ldr	r3, [r7, #24]
 723 0080 1344     		add	r3, r3, r2
 724              		.loc 1 194 29
 725 0082 0122     		movs	r2, #1
 726 0084 1A70     		strb	r2, [r3]
 727              	.L39:
 195:g:/iot/IoT_Device_Demo/iot_link/network/lwm2m/wakaama_lwm2m/wakaama-master/core\objects.c ****         }
 196:g:/iot/IoT_Device_Demo/iot_link/network/lwm2m/wakaama_lwm2m/wakaama-master/core\objects.c ****         ++i;
 728              		.loc 1 196 9 discriminator 2
 729 0086 BB69     		ldr	r3, [r7, #24]
 730 0088 0133     		adds	r3, r3, #1
 731 008a BB61     		str	r3, [r7, #24]
 188:g:/iot/IoT_Device_Demo/iot_link/network/lwm2m/wakaama_lwm2m/wakaama-master/core\objects.c ****     {
 732              		.loc 1 188 75 discriminator 2
 733 008c FB69     		ldr	r3, [r7, #28]
 734 008e 1B68     		ldr	r3, [r3]
 735 0090 FB61     		str	r3, [r7, #28]
 736              	.L38:
 188:g:/iot/IoT_Device_Demo/iot_link/network/lwm2m/wakaama_lwm2m/wakaama-master/core\objects.c ****     {
 737              		.loc 1 188 5 discriminator 1
 738 0092 FB69     		ldr	r3, [r7, #28]
 739 0094 002B     		cmp	r3, #0
 740 0096 DED1     		bne	.L40
 197:g:/iot/IoT_Device_Demo/iot_link/network/lwm2m/wakaama_lwm2m/wakaama-master/core\objects.c ****     }
 198:g:/iot/IoT_Device_Demo/iot_link/network/lwm2m/wakaama_lwm2m/wakaama-master/core\objects.c **** 
 199:g:/iot/IoT_Device_Demo/iot_link/network/lwm2m/wakaama_lwm2m/wakaama-master/core\objects.c ****     if (*sizeP == 0)
 741              		.loc 1 199 9
 742 0098 BB6A     		ldr	r3, [r7, #40]
 743 009a 1B68     		ldr	r3, [r3]
 744              		.loc 1 199 8
 745 009c 002B     		cmp	r3, #0
 746 009e 06D1     		bne	.L41
 200:g:/iot/IoT_Device_Demo/iot_link/network/lwm2m/wakaama_lwm2m/wakaama-master/core\objects.c ****     {
 201:g:/iot/IoT_Device_Demo/iot_link/network/lwm2m/wakaama_lwm2m/wakaama-master/core\objects.c ****         lwm2m_free(*forbidden);
 747              		.loc 1 201 9
 748 00a0 FB6A     		ldr	r3, [r7, #44]
 749 00a2 1B68     		ldr	r3, [r3]
 750 00a4 1846     		mov	r0, r3
 751 00a6 FFF7FEFF 		bl	lwm2m_free
 202:g:/iot/IoT_Device_Demo/iot_link/network/lwm2m/wakaama_lwm2m/wakaama-master/core\objects.c ****         return COAP_500_INTERNAL_SERVER_ERROR;
 752              		.loc 1 202 16
 753 00aa A023     		movs	r3, #160
ARM GAS  C:\Users\ADMINI~1\AppData\Local\Temp\ccpcHGeL.s 			page 18


 754 00ac 00E0     		b	.L42
 755              	.L41:
 203:g:/iot/IoT_Device_Demo/iot_link/network/lwm2m/wakaama_lwm2m/wakaama-master/core\objects.c ****     }
 204:g:/iot/IoT_Device_Demo/iot_link/network/lwm2m/wakaama_lwm2m/wakaama-master/core\objects.c **** 
 205:g:/iot/IoT_Device_Demo/iot_link/network/lwm2m/wakaama_lwm2m/wakaama-master/core\objects.c ****     return COAP_NO_ERROR;
 756              		.loc 1 205 12
 757 00ae 0023     		movs	r3, #0
 758              	.L42:
 206:g:/iot/IoT_Device_Demo/iot_link/network/lwm2m/wakaama_lwm2m/wakaama-master/core\objects.c **** }
 759              		.loc 1 206 1 discriminator 1
 760 00b0 1846     		mov	r0, r3
 761 00b2 2037     		adds	r7, r7, #32
 762              	.LCFI13:
 763              		.cfi_def_cfa_offset 8
 764 00b4 BD46     		mov	sp, r7
 765              	.LCFI14:
 766              		.cfi_def_cfa_register 13
 767              		@ sp needed
 768 00b6 80BD     		pop	{r7, pc}
 769              		.cfi_endproc
 770              	.LFE14:
 772              		.section	.rodata
 773 0071 000000   		.align	2
 774              	.LC4:
 775 0074 5B25735D 		.ascii	"[%s][%u][%s:%d] [%d][%s:%d] result: %u.%2u, size: %"
 775      5B25755D 
 775      5B25733A 
 775      25645D20 
 775      5B25645D 
 776 00a7 640D0A0D 		.ascii	"d\015\012\015\012\000"
 776      0A00
 777              		.section	.text.object_readData,"ax",%progbits
 778              		.align	1
 779              		.global	object_readData
 780              		.syntax unified
 781              		.thumb
 782              		.thumb_func
 783              		.fpu fpv4-sp-d16
 785              	object_readData:
 786              	.LFB15:
 207:g:/iot/IoT_Device_Demo/iot_link/network/lwm2m/wakaama_lwm2m/wakaama-master/core\objects.c **** 
 208:g:/iot/IoT_Device_Demo/iot_link/network/lwm2m/wakaama_lwm2m/wakaama-master/core\objects.c **** uint8_t object_readData(lwm2m_context_t *contextP,
 209:g:/iot/IoT_Device_Demo/iot_link/network/lwm2m/wakaama_lwm2m/wakaama-master/core\objects.c ****                         lwm2m_uri_t *uriP,
 210:g:/iot/IoT_Device_Demo/iot_link/network/lwm2m/wakaama_lwm2m/wakaama-master/core\objects.c ****                         int *sizeP,
 211:g:/iot/IoT_Device_Demo/iot_link/network/lwm2m/wakaama_lwm2m/wakaama-master/core\objects.c ****                         lwm2m_data_t **dataP,
 212:g:/iot/IoT_Device_Demo/iot_link/network/lwm2m/wakaama_lwm2m/wakaama-master/core\objects.c ****                         lwm2m_data_cfg_t *cfg,
 213:g:/iot/IoT_Device_Demo/iot_link/network/lwm2m/wakaama_lwm2m/wakaama-master/core\objects.c ****                         uint16_t serverId)
 214:g:/iot/IoT_Device_Demo/iot_link/network/lwm2m/wakaama_lwm2m/wakaama-master/core\objects.c **** {
 787              		.loc 1 214 1
 788              		.cfi_startproc
 789              		@ args = 8, pretend = 0, frame = 40
 790              		@ frame_needed = 1, uses_anonymous_args = 0
 791 0000 B0B5     		push	{r4, r5, r7, lr}
 792              	.LCFI15:
 793              		.cfi_def_cfa_offset 16
 794              		.cfi_offset 4, -16
 795              		.cfi_offset 5, -12
ARM GAS  C:\Users\ADMINI~1\AppData\Local\Temp\ccpcHGeL.s 			page 19


 796              		.cfi_offset 7, -8
 797              		.cfi_offset 14, -4
 798 0002 92B0     		sub	sp, sp, #72
 799              	.LCFI16:
 800              		.cfi_def_cfa_offset 88
 801 0004 08AF     		add	r7, sp, #32
 802              	.LCFI17:
 803              		.cfi_def_cfa 7, 56
 804 0006 F860     		str	r0, [r7, #12]
 805 0008 B960     		str	r1, [r7, #8]
 806 000a 7A60     		str	r2, [r7, #4]
 807 000c 3B60     		str	r3, [r7]
 215:g:/iot/IoT_Device_Demo/iot_link/network/lwm2m/wakaama_lwm2m/wakaama-master/core\objects.c ****     uint8_t result;
 216:g:/iot/IoT_Device_Demo/iot_link/network/lwm2m/wakaama_lwm2m/wakaama-master/core\objects.c ****     lwm2m_object_t *targetP;
 217:g:/iot/IoT_Device_Demo/iot_link/network/lwm2m/wakaama_lwm2m/wakaama-master/core\objects.c **** 
 218:g:/iot/IoT_Device_Demo/iot_link/network/lwm2m/wakaama_lwm2m/wakaama-master/core\objects.c ****     LOG_URI(uriP);
 808              		.loc 1 218 5
 809 000e BB68     		ldr	r3, [r7, #8]
 810 0010 002B     		cmp	r3, #0
 811 0012 18D1     		bne	.L44
 812              		.loc 1 218 5 is_stmt 0 discriminator 1
 813 0014 FFF7FEFF 		bl	link_log_level_get
 814 0018 0346     		mov	r3, r0
 815 001a 012B     		cmp	r3, #1
 816 001c 7CD8     		bhi	.L45
 817              		.loc 1 218 5 discriminator 3
 818 001e 0120     		movs	r0, #1
 819 0020 FFF7FEFF 		bl	link_log_level_name
 820 0024 0446     		mov	r4, r0
 821 0026 FFF7FEFF 		bl	osal_sys_time
 822 002a 0246     		mov	r2, r0
 823 002c 0B46     		mov	r3, r1
 824 002e DA23     		movs	r3, #218
 825 0030 0293     		str	r3, [sp, #8]
 826 0032 8D4B     		ldr	r3, .L70
 827 0034 0193     		str	r3, [sp, #4]
 828 0036 DA23     		movs	r3, #218
 829 0038 0093     		str	r3, [sp]
 830 003a 8C4B     		ldr	r3, .L70+4
 831 003c 2146     		mov	r1, r4
 832 003e 8C48     		ldr	r0, .L70+8
 833 0040 FFF7FEFF 		bl	printf
 834 0044 68E0     		b	.L45
 835              	.L44:
 836              		.loc 1 218 5 discriminator 2
 837 0046 FFF7FEFF 		bl	link_log_level_get
 838 004a 0346     		mov	r3, r0
 839 004c 012B     		cmp	r3, #1
 840 004e 15D8     		bhi	.L46
 841              		.loc 1 218 5 discriminator 4
 842 0050 0120     		movs	r0, #1
 843 0052 FFF7FEFF 		bl	link_log_level_name
 844 0056 0446     		mov	r4, r0
 845 0058 FFF7FEFF 		bl	osal_sys_time
 846 005c 0246     		mov	r2, r0
 847 005e 0B46     		mov	r3, r1
 848 0060 BB68     		ldr	r3, [r7, #8]
ARM GAS  C:\Users\ADMINI~1\AppData\Local\Temp\ccpcHGeL.s 			page 20


 849 0062 5B88     		ldrh	r3, [r3, #2]
 850 0064 0393     		str	r3, [sp, #12]
 851 0066 DA23     		movs	r3, #218
 852 0068 0293     		str	r3, [sp, #8]
 853 006a 7F4B     		ldr	r3, .L70
 854 006c 0193     		str	r3, [sp, #4]
 855 006e DA23     		movs	r3, #218
 856 0070 0093     		str	r3, [sp]
 857 0072 7E4B     		ldr	r3, .L70+4
 858 0074 2146     		mov	r1, r4
 859 0076 7F48     		ldr	r0, .L70+12
 860 0078 FFF7FEFF 		bl	printf
 861              	.L46:
 862              		.loc 1 218 5 discriminator 6
 863 007c BB68     		ldr	r3, [r7, #8]
 864 007e 1B78     		ldrb	r3, [r3]	@ zero_extendqisi2
 865 0080 03F00203 		and	r3, r3, #2
 866 0084 002B     		cmp	r3, #0
 867 0086 16D0     		beq	.L47
 868              		.loc 1 218 5 discriminator 7
 869 0088 FFF7FEFF 		bl	link_log_level_get
 870 008c 0346     		mov	r3, r0
 871 008e 012B     		cmp	r3, #1
 872 0090 11D8     		bhi	.L47
 873              		.loc 1 218 5 discriminator 9
 874 0092 0120     		movs	r0, #1
 875 0094 FFF7FEFF 		bl	link_log_level_name
 876 0098 0446     		mov	r4, r0
 877 009a FFF7FEFF 		bl	osal_sys_time
 878 009e 0246     		mov	r2, r0
 879 00a0 0B46     		mov	r3, r1
 880 00a2 BB68     		ldr	r3, [r7, #8]
 881 00a4 9B88     		ldrh	r3, [r3, #4]
 882 00a6 0193     		str	r3, [sp, #4]
 883 00a8 DA23     		movs	r3, #218
 884 00aa 0093     		str	r3, [sp]
 885 00ac 6F4B     		ldr	r3, .L70+4
 886 00ae 2146     		mov	r1, r4
 887 00b0 7148     		ldr	r0, .L70+16
 888 00b2 FFF7FEFF 		bl	printf
 889              	.L47:
 890              		.loc 1 218 5 discriminator 11
 891 00b6 BB68     		ldr	r3, [r7, #8]
 892 00b8 1B78     		ldrb	r3, [r3]	@ zero_extendqisi2
 893 00ba 03F00103 		and	r3, r3, #1
 894 00be 002B     		cmp	r3, #0
 895 00c0 16D0     		beq	.L48
 896              		.loc 1 218 5 discriminator 12
 897 00c2 FFF7FEFF 		bl	link_log_level_get
 898 00c6 0346     		mov	r3, r0
 899 00c8 012B     		cmp	r3, #1
 900 00ca 11D8     		bhi	.L48
 901              		.loc 1 218 5 discriminator 14
 902 00cc 0120     		movs	r0, #1
 903 00ce FFF7FEFF 		bl	link_log_level_name
 904 00d2 0446     		mov	r4, r0
 905 00d4 FFF7FEFF 		bl	osal_sys_time
ARM GAS  C:\Users\ADMINI~1\AppData\Local\Temp\ccpcHGeL.s 			page 21


 906 00d8 0246     		mov	r2, r0
 907 00da 0B46     		mov	r3, r1
 908 00dc BB68     		ldr	r3, [r7, #8]
 909 00de DB88     		ldrh	r3, [r3, #6]
 910 00e0 0193     		str	r3, [sp, #4]
 911 00e2 DA23     		movs	r3, #218
 912 00e4 0093     		str	r3, [sp]
 913 00e6 614B     		ldr	r3, .L70+4
 914 00e8 2146     		mov	r1, r4
 915 00ea 6348     		ldr	r0, .L70+16
 916 00ec FFF7FEFF 		bl	printf
 917              	.L48:
 918              		.loc 1 218 5 discriminator 16
 919 00f0 FFF7FEFF 		bl	link_log_level_get
 920 00f4 0346     		mov	r3, r0
 921 00f6 012B     		cmp	r3, #1
 922 00f8 0ED8     		bhi	.L45
 923              		.loc 1 218 5 discriminator 17
 924 00fa 0120     		movs	r0, #1
 925 00fc FFF7FEFF 		bl	link_log_level_name
 926 0100 0446     		mov	r4, r0
 927 0102 FFF7FEFF 		bl	osal_sys_time
 928 0106 0246     		mov	r2, r0
 929 0108 0B46     		mov	r3, r1
 930 010a DA23     		movs	r3, #218
 931 010c 0093     		str	r3, [sp]
 932 010e 574B     		ldr	r3, .L70+4
 933 0110 2146     		mov	r1, r4
 934 0112 5A48     		ldr	r0, .L70+20
 935 0114 FFF7FEFF 		bl	printf
 936              	.L45:
 219:g:/iot/IoT_Device_Demo/iot_link/network/lwm2m/wakaama_lwm2m/wakaama-master/core\objects.c ****     targetP = (lwm2m_object_t *)LWM2M_LIST_FIND(contextP->objectList, uriP->objectId);
 937              		.loc 1 219 33 is_stmt 1
 938 0118 FB68     		ldr	r3, [r7, #12]
 939 011a 9A69     		ldr	r2, [r3, #24]
 940 011c BB68     		ldr	r3, [r7, #8]
 941 011e 5B88     		ldrh	r3, [r3, #2]
 942 0120 1946     		mov	r1, r3
 943 0122 1046     		mov	r0, r2
 944 0124 FFF7FEFF 		bl	lwm2m_list_find
 945 0128 7861     		str	r0, [r7, #20]
 220:g:/iot/IoT_Device_Demo/iot_link/network/lwm2m/wakaama_lwm2m/wakaama-master/core\objects.c ****     if (NULL == targetP) return COAP_404_NOT_FOUND;
 946              		.loc 1 220 8
 947 012a 7B69     		ldr	r3, [r7, #20]
 948 012c 002B     		cmp	r3, #0
 949 012e 01D1     		bne	.L49
 950              		.loc 1 220 33 discriminator 1
 951 0130 8423     		movs	r3, #132
 952 0132 1CE1     		b	.L50
 953              	.L49:
 221:g:/iot/IoT_Device_Demo/iot_link/network/lwm2m/wakaama_lwm2m/wakaama-master/core\objects.c ****     if (NULL == targetP->readFunc) return COAP_405_METHOD_NOT_ALLOWED;
 954              		.loc 1 221 24
 955 0134 7B69     		ldr	r3, [r7, #20]
 956 0136 DB68     		ldr	r3, [r3, #12]
 957              		.loc 1 221 8
 958 0138 002B     		cmp	r3, #0
 959 013a 01D1     		bne	.L51
ARM GAS  C:\Users\ADMINI~1\AppData\Local\Temp\ccpcHGeL.s 			page 22


 960              		.loc 1 221 43 discriminator 1
 961 013c 8523     		movs	r3, #133
 962 013e 16E1     		b	.L50
 963              	.L51:
 222:g:/iot/IoT_Device_Demo/iot_link/network/lwm2m/wakaama_lwm2m/wakaama-master/core\objects.c **** 
 223:g:/iot/IoT_Device_Demo/iot_link/network/lwm2m/wakaama_lwm2m/wakaama-master/core\objects.c ****     if (LWM2M_URI_IS_SET_INSTANCE(uriP))
 964              		.loc 1 223 9
 965 0140 BB68     		ldr	r3, [r7, #8]
 966 0142 1B78     		ldrb	r3, [r3]	@ zero_extendqisi2
 967 0144 03F00203 		and	r3, r3, #2
 968              		.loc 1 223 8
 969 0148 002B     		cmp	r3, #0
 970 014a 36D0     		beq	.L52
 224:g:/iot/IoT_Device_Demo/iot_link/network/lwm2m/wakaama_lwm2m/wakaama-master/core\objects.c ****     {
 225:g:/iot/IoT_Device_Demo/iot_link/network/lwm2m/wakaama_lwm2m/wakaama-master/core\objects.c ****         if (NULL == lwm2m_list_find(targetP->instanceList, uriP->instanceId)) return COAP_404_NOT_F
 971              		.loc 1 225 21
 972 014c 7B69     		ldr	r3, [r7, #20]
 973 014e 9A68     		ldr	r2, [r3, #8]
 974 0150 BB68     		ldr	r3, [r7, #8]
 975 0152 9B88     		ldrh	r3, [r3, #4]
 976 0154 1946     		mov	r1, r3
 977 0156 1046     		mov	r0, r2
 978 0158 FFF7FEFF 		bl	lwm2m_list_find
 979 015c 0346     		mov	r3, r0
 980              		.loc 1 225 12
 981 015e 002B     		cmp	r3, #0
 982 0160 01D1     		bne	.L53
 983              		.loc 1 225 86 discriminator 1
 984 0162 8423     		movs	r3, #132
 985 0164 03E1     		b	.L50
 986              	.L53:
 226:g:/iot/IoT_Device_Demo/iot_link/network/lwm2m/wakaama_lwm2m/wakaama-master/core\objects.c **** 
 227:g:/iot/IoT_Device_Demo/iot_link/network/lwm2m/wakaama_lwm2m/wakaama-master/core\objects.c ****         // single instance read
 228:g:/iot/IoT_Device_Demo/iot_link/network/lwm2m/wakaama_lwm2m/wakaama-master/core\objects.c ****         if (LWM2M_URI_IS_SET_RESOURCE(uriP))
 987              		.loc 1 228 13
 988 0166 BB68     		ldr	r3, [r7, #8]
 989 0168 1B78     		ldrb	r3, [r3]	@ zero_extendqisi2
 990 016a 03F00103 		and	r3, r3, #1
 991              		.loc 1 228 12
 992 016e 002B     		cmp	r3, #0
 993 0170 15D0     		beq	.L54
 229:g:/iot/IoT_Device_Demo/iot_link/network/lwm2m/wakaama_lwm2m/wakaama-master/core\objects.c ****         {
 230:g:/iot/IoT_Device_Demo/iot_link/network/lwm2m/wakaama_lwm2m/wakaama-master/core\objects.c ****             *sizeP = 1;
 994              		.loc 1 230 20
 995 0172 7B68     		ldr	r3, [r7, #4]
 996 0174 0122     		movs	r2, #1
 997 0176 1A60     		str	r2, [r3]
 231:g:/iot/IoT_Device_Demo/iot_link/network/lwm2m/wakaama_lwm2m/wakaama-master/core\objects.c ****             *dataP = lwm2m_data_new(*sizeP);
 998              		.loc 1 231 22
 999 0178 7B68     		ldr	r3, [r7, #4]
 1000 017a 1B68     		ldr	r3, [r3]
 1001 017c 1846     		mov	r0, r3
 1002 017e FFF7FEFF 		bl	lwm2m_data_new
 1003 0182 0246     		mov	r2, r0
 1004              		.loc 1 231 20
 1005 0184 3B68     		ldr	r3, [r7]
 1006 0186 1A60     		str	r2, [r3]
ARM GAS  C:\Users\ADMINI~1\AppData\Local\Temp\ccpcHGeL.s 			page 23


 232:g:/iot/IoT_Device_Demo/iot_link/network/lwm2m/wakaama_lwm2m/wakaama-master/core\objects.c ****             if (*dataP == NULL) return COAP_500_INTERNAL_SERVER_ERROR;
 1007              		.loc 1 232 17
 1008 0188 3B68     		ldr	r3, [r7]
 1009 018a 1B68     		ldr	r3, [r3]
 1010              		.loc 1 232 16
 1011 018c 002B     		cmp	r3, #0
 1012 018e 01D1     		bne	.L55
 1013              		.loc 1 232 40 discriminator 1
 1014 0190 A023     		movs	r3, #160
 1015 0192 ECE0     		b	.L50
 1016              	.L55:
 233:g:/iot/IoT_Device_Demo/iot_link/network/lwm2m/wakaama_lwm2m/wakaama-master/core\objects.c **** 
 234:g:/iot/IoT_Device_Demo/iot_link/network/lwm2m/wakaama_lwm2m/wakaama-master/core\objects.c ****             (*dataP)->id = uriP->resourceId;
 1017              		.loc 1 234 14
 1018 0194 3B68     		ldr	r3, [r7]
 1019 0196 1B68     		ldr	r3, [r3]
 1020              		.loc 1 234 32
 1021 0198 BA68     		ldr	r2, [r7, #8]
 1022 019a D288     		ldrh	r2, [r2, #6]
 1023              		.loc 1 234 26
 1024 019c 5A80     		strh	r2, [r3, #2]	@ movhi
 1025              	.L54:
 235:g:/iot/IoT_Device_Demo/iot_link/network/lwm2m/wakaama_lwm2m/wakaama-master/core\objects.c ****         }
 236:g:/iot/IoT_Device_Demo/iot_link/network/lwm2m/wakaama_lwm2m/wakaama-master/core\objects.c **** 
 237:g:/iot/IoT_Device_Demo/iot_link/network/lwm2m/wakaama_lwm2m/wakaama-master/core\objects.c ****         result = targetP->readFunc(uriP->instanceId, sizeP, dataP, cfg, targetP);
 1026              		.loc 1 237 25
 1027 019e 7B69     		ldr	r3, [r7, #20]
 1028 01a0 DC68     		ldr	r4, [r3, #12]
 1029              		.loc 1 237 18
 1030 01a2 BB68     		ldr	r3, [r7, #8]
 1031 01a4 9888     		ldrh	r0, [r3, #4]
 1032 01a6 7B69     		ldr	r3, [r7, #20]
 1033 01a8 0093     		str	r3, [sp]
 1034 01aa BB6B     		ldr	r3, [r7, #56]
 1035 01ac 3A68     		ldr	r2, [r7]
 1036 01ae 7968     		ldr	r1, [r7, #4]
 1037 01b0 A047     		blx	r4
 1038              	.LVL2:
 1039 01b2 0346     		mov	r3, r0
 1040 01b4 87F82730 		strb	r3, [r7, #39]
 1041 01b8 A7E0     		b	.L56
 1042              	.L52:
 1043              	.LBB2:
 238:g:/iot/IoT_Device_Demo/iot_link/network/lwm2m/wakaama_lwm2m/wakaama-master/core\objects.c ****     }
 239:g:/iot/IoT_Device_Demo/iot_link/network/lwm2m/wakaama_lwm2m/wakaama-master/core\objects.c ****     else
 240:g:/iot/IoT_Device_Demo/iot_link/network/lwm2m/wakaama_lwm2m/wakaama-master/core\objects.c ****     {
 241:g:/iot/IoT_Device_Demo/iot_link/network/lwm2m/wakaama_lwm2m/wakaama-master/core\objects.c ****         // multiple object instances read
 242:g:/iot/IoT_Device_Demo/iot_link/network/lwm2m/wakaama_lwm2m/wakaama-master/core\objects.c ****         lwm2m_list_t *instanceP;
 243:g:/iot/IoT_Device_Demo/iot_link/network/lwm2m/wakaama_lwm2m/wakaama-master/core\objects.c ****         uint8_t *forbidden = NULL;
 1044              		.loc 1 243 18
 1045 01ba 0023     		movs	r3, #0
 1046 01bc 3B61     		str	r3, [r7, #16]
 244:g:/iot/IoT_Device_Demo/iot_link/network/lwm2m/wakaama_lwm2m/wakaama-master/core\objects.c ****         int i;
 245:g:/iot/IoT_Device_Demo/iot_link/network/lwm2m/wakaama_lwm2m/wakaama-master/core\objects.c ****         int j;
 246:g:/iot/IoT_Device_Demo/iot_link/network/lwm2m/wakaama_lwm2m/wakaama-master/core\objects.c **** 
 247:g:/iot/IoT_Device_Demo/iot_link/network/lwm2m/wakaama_lwm2m/wakaama-master/core\objects.c ****         result = COAP_205_CONTENT;
 1047              		.loc 1 247 16
ARM GAS  C:\Users\ADMINI~1\AppData\Local\Temp\ccpcHGeL.s 			page 24


 1048 01be 4523     		movs	r3, #69
 1049 01c0 87F82730 		strb	r3, [r7, #39]
 248:g:/iot/IoT_Device_Demo/iot_link/network/lwm2m/wakaama_lwm2m/wakaama-master/core\objects.c **** 
 249:g:/iot/IoT_Device_Demo/iot_link/network/lwm2m/wakaama_lwm2m/wakaama-master/core\objects.c ****         *sizeP = 0;
 1050              		.loc 1 249 16
 1051 01c4 7B68     		ldr	r3, [r7, #4]
 1052 01c6 0022     		movs	r2, #0
 1053 01c8 1A60     		str	r2, [r3]
 250:g:/iot/IoT_Device_Demo/iot_link/network/lwm2m/wakaama_lwm2m/wakaama-master/core\objects.c ****         for (instanceP = targetP->instanceList; instanceP != NULL ; instanceP = instanceP->next)
 1054              		.loc 1 250 24
 1055 01ca 7B69     		ldr	r3, [r7, #20]
 1056 01cc 9B68     		ldr	r3, [r3, #8]
 1057 01ce 3B62     		str	r3, [r7, #32]
 1058              		.loc 1 250 9
 1059 01d0 07E0     		b	.L57
 1060              	.L58:
 251:g:/iot/IoT_Device_Demo/iot_link/network/lwm2m/wakaama_lwm2m/wakaama-master/core\objects.c ****         {
 252:g:/iot/IoT_Device_Demo/iot_link/network/lwm2m/wakaama_lwm2m/wakaama-master/core\objects.c ****             (*sizeP)++;
 1061              		.loc 1 252 14 discriminator 3
 1062 01d2 7B68     		ldr	r3, [r7, #4]
 1063 01d4 1B68     		ldr	r3, [r3]
 1064              		.loc 1 252 21 discriminator 3
 1065 01d6 5A1C     		adds	r2, r3, #1
 1066 01d8 7B68     		ldr	r3, [r7, #4]
 1067 01da 1A60     		str	r2, [r3]
 250:g:/iot/IoT_Device_Demo/iot_link/network/lwm2m/wakaama_lwm2m/wakaama-master/core\objects.c ****         for (instanceP = targetP->instanceList; instanceP != NULL ; instanceP = instanceP->next)
 1068              		.loc 1 250 79 discriminator 3
 1069 01dc 3B6A     		ldr	r3, [r7, #32]
 1070 01de 1B68     		ldr	r3, [r3]
 1071 01e0 3B62     		str	r3, [r7, #32]
 1072              	.L57:
 250:g:/iot/IoT_Device_Demo/iot_link/network/lwm2m/wakaama_lwm2m/wakaama-master/core\objects.c ****         for (instanceP = targetP->instanceList; instanceP != NULL ; instanceP = instanceP->next)
 1073              		.loc 1 250 9 discriminator 1
 1074 01e2 3B6A     		ldr	r3, [r7, #32]
 1075 01e4 002B     		cmp	r3, #0
 1076 01e6 F4D1     		bne	.L58
 253:g:/iot/IoT_Device_Demo/iot_link/network/lwm2m/wakaama_lwm2m/wakaama-master/core\objects.c ****         }
 254:g:/iot/IoT_Device_Demo/iot_link/network/lwm2m/wakaama_lwm2m/wakaama-master/core\objects.c **** 
 255:g:/iot/IoT_Device_Demo/iot_link/network/lwm2m/wakaama_lwm2m/wakaama-master/core\objects.c ****         if (*sizeP == 0)
 1077              		.loc 1 255 13
 1078 01e8 7B68     		ldr	r3, [r7, #4]
 1079 01ea 1B68     		ldr	r3, [r3]
 1080              		.loc 1 255 12
 1081 01ec 002B     		cmp	r3, #0
 1082 01ee 03D1     		bne	.L59
 256:g:/iot/IoT_Device_Demo/iot_link/network/lwm2m/wakaama_lwm2m/wakaama-master/core\objects.c ****         {
 257:g:/iot/IoT_Device_Demo/iot_link/network/lwm2m/wakaama_lwm2m/wakaama-master/core\objects.c ****             *dataP = NULL;
 1083              		.loc 1 257 20
 1084 01f0 3B68     		ldr	r3, [r7]
 1085 01f2 0022     		movs	r2, #0
 1086 01f4 1A60     		str	r2, [r3]
 1087 01f6 81E0     		b	.L60
 1088              	.L59:
 258:g:/iot/IoT_Device_Demo/iot_link/network/lwm2m/wakaama_lwm2m/wakaama-master/core\objects.c ****         }
 259:g:/iot/IoT_Device_Demo/iot_link/network/lwm2m/wakaama_lwm2m/wakaama-master/core\objects.c ****         else
 260:g:/iot/IoT_Device_Demo/iot_link/network/lwm2m/wakaama_lwm2m/wakaama-master/core\objects.c ****         {
 261:g:/iot/IoT_Device_Demo/iot_link/network/lwm2m/wakaama_lwm2m/wakaama-master/core\objects.c ****             if ((result = prv_init_forbidden(contextP, targetP,
ARM GAS  C:\Users\ADMINI~1\AppData\Local\Temp\ccpcHGeL.s 			page 25


 1089              		.loc 1 261 27
 1090 01f8 BB68     		ldr	r3, [r7, #8]
 1091 01fa 5A88     		ldrh	r2, [r3, #2]
 1092 01fc B98F     		ldrh	r1, [r7, #60]
 1093 01fe 07F11003 		add	r3, r7, #16
 1094 0202 0193     		str	r3, [sp, #4]
 1095 0204 7B68     		ldr	r3, [r7, #4]
 1096 0206 0093     		str	r3, [sp]
 1097 0208 0B46     		mov	r3, r1
 1098 020a 7969     		ldr	r1, [r7, #20]
 1099 020c F868     		ldr	r0, [r7, #12]
 1100 020e FFF7FEFF 		bl	prv_init_forbidden
 1101 0212 0346     		mov	r3, r0
 1102 0214 87F82730 		strb	r3, [r7, #39]
 1103              		.loc 1 261 16
 1104 0218 97F82730 		ldrb	r3, [r7, #39]	@ zero_extendqisi2
 1105 021c 002B     		cmp	r3, #0
 1106 021e 05D0     		beq	.L61
 262:g:/iot/IoT_Device_Demo/iot_link/network/lwm2m/wakaama_lwm2m/wakaama-master/core\objects.c ****                                              uriP->objectId, serverId, sizeP, &forbidden)) != COAP_
 263:g:/iot/IoT_Device_Demo/iot_link/network/lwm2m/wakaama_lwm2m/wakaama-master/core\objects.c ****             {
 264:g:/iot/IoT_Device_Demo/iot_link/network/lwm2m/wakaama_lwm2m/wakaama-master/core\objects.c ****                 *dataP = NULL;
 1107              		.loc 1 264 24
 1108 0220 3B68     		ldr	r3, [r7]
 1109 0222 0022     		movs	r2, #0
 1110 0224 1A60     		str	r2, [r3]
 265:g:/iot/IoT_Device_Demo/iot_link/network/lwm2m/wakaama_lwm2m/wakaama-master/core\objects.c ****                 return result;
 1111              		.loc 1 265 24
 1112 0226 97F82730 		ldrb	r3, [r7, #39]	@ zero_extendqisi2
 1113 022a A0E0     		b	.L50
 1114              	.L61:
 266:g:/iot/IoT_Device_Demo/iot_link/network/lwm2m/wakaama_lwm2m/wakaama-master/core\objects.c ****             }
 267:g:/iot/IoT_Device_Demo/iot_link/network/lwm2m/wakaama_lwm2m/wakaama-master/core\objects.c **** 
 268:g:/iot/IoT_Device_Demo/iot_link/network/lwm2m/wakaama_lwm2m/wakaama-master/core\objects.c ****             *dataP = lwm2m_data_new(*sizeP);
 1115              		.loc 1 268 22
 1116 022c 7B68     		ldr	r3, [r7, #4]
 1117 022e 1B68     		ldr	r3, [r3]
 1118 0230 1846     		mov	r0, r3
 1119 0232 FFF7FEFF 		bl	lwm2m_data_new
 1120 0236 0246     		mov	r2, r0
 1121              		.loc 1 268 20
 1122 0238 3B68     		ldr	r3, [r7]
 1123 023a 1A60     		str	r2, [r3]
 269:g:/iot/IoT_Device_Demo/iot_link/network/lwm2m/wakaama_lwm2m/wakaama-master/core\objects.c ****             if (*dataP == NULL)
 1124              		.loc 1 269 17
 1125 023c 3B68     		ldr	r3, [r7]
 1126 023e 1B68     		ldr	r3, [r3]
 1127              		.loc 1 269 16
 1128 0240 002B     		cmp	r3, #0
 1129 0242 08D1     		bne	.L63
 270:g:/iot/IoT_Device_Demo/iot_link/network/lwm2m/wakaama_lwm2m/wakaama-master/core\objects.c ****             {
 271:g:/iot/IoT_Device_Demo/iot_link/network/lwm2m/wakaama_lwm2m/wakaama-master/core\objects.c ****                 if (forbidden != NULL)
 1130              		.loc 1 271 31
 1131 0244 3B69     		ldr	r3, [r7, #16]
 1132              		.loc 1 271 20
 1133 0246 002B     		cmp	r3, #0
 1134 0248 03D0     		beq	.L64
 272:g:/iot/IoT_Device_Demo/iot_link/network/lwm2m/wakaama_lwm2m/wakaama-master/core\objects.c ****                 {
ARM GAS  C:\Users\ADMINI~1\AppData\Local\Temp\ccpcHGeL.s 			page 26


 273:g:/iot/IoT_Device_Demo/iot_link/network/lwm2m/wakaama_lwm2m/wakaama-master/core\objects.c ****                     lwm2m_free(forbidden);
 1135              		.loc 1 273 21
 1136 024a 3B69     		ldr	r3, [r7, #16]
 1137 024c 1846     		mov	r0, r3
 1138 024e FFF7FEFF 		bl	lwm2m_free
 1139              	.L64:
 274:g:/iot/IoT_Device_Demo/iot_link/network/lwm2m/wakaama_lwm2m/wakaama-master/core\objects.c ****                 }
 275:g:/iot/IoT_Device_Demo/iot_link/network/lwm2m/wakaama_lwm2m/wakaama-master/core\objects.c ****                 return COAP_500_INTERNAL_SERVER_ERROR;
 1140              		.loc 1 275 24
 1141 0252 A023     		movs	r3, #160
 1142 0254 8BE0     		b	.L50
 1143              	.L63:
 276:g:/iot/IoT_Device_Demo/iot_link/network/lwm2m/wakaama_lwm2m/wakaama-master/core\objects.c ****             }
 277:g:/iot/IoT_Device_Demo/iot_link/network/lwm2m/wakaama_lwm2m/wakaama-master/core\objects.c **** 
 278:g:/iot/IoT_Device_Demo/iot_link/network/lwm2m/wakaama_lwm2m/wakaama-master/core\objects.c ****             instanceP = targetP->instanceList;
 1144              		.loc 1 278 23
 1145 0256 7B69     		ldr	r3, [r7, #20]
 1146 0258 9B68     		ldr	r3, [r3, #8]
 1147 025a 3B62     		str	r3, [r7, #32]
 279:g:/iot/IoT_Device_Demo/iot_link/network/lwm2m/wakaama_lwm2m/wakaama-master/core\objects.c ****             i = 0;
 1148              		.loc 1 279 15
 1149 025c 0023     		movs	r3, #0
 1150 025e FB61     		str	r3, [r7, #28]
 280:g:/iot/IoT_Device_Demo/iot_link/network/lwm2m/wakaama_lwm2m/wakaama-master/core\objects.c ****             j = 0;
 1151              		.loc 1 280 15
 1152 0260 0023     		movs	r3, #0
 1153 0262 BB61     		str	r3, [r7, #24]
 281:g:/iot/IoT_Device_Demo/iot_link/network/lwm2m/wakaama_lwm2m/wakaama-master/core\objects.c ****             while (instanceP != NULL && result == COAP_205_CONTENT)
 1154              		.loc 1 281 19
 1155 0264 43E0     		b	.L65
 1156              	.L71:
 1157 0266 00BF     		.align	2
 1158              	.L70:
 1159 0268 00000000 		.word	__func__.9139
 1160 026c 00000000 		.word	__FUNCTION__.9138
 1161 0270 00000000 		.word	.LC0
 1162 0274 24000000 		.word	.LC1
 1163 0278 44000000 		.word	.LC2
 1164 027c 5C000000 		.word	.LC3
 1165              	.L67:
 282:g:/iot/IoT_Device_Demo/iot_link/network/lwm2m/wakaama_lwm2m/wakaama-master/core\objects.c ****             {
 283:g:/iot/IoT_Device_Demo/iot_link/network/lwm2m/wakaama_lwm2m/wakaama-master/core\objects.c ****                 if (forbidden[i] == 0)
 1166              		.loc 1 283 30
 1167 0280 3A69     		ldr	r2, [r7, #16]
 1168 0282 FB69     		ldr	r3, [r7, #28]
 1169 0284 1344     		add	r3, r3, r2
 1170 0286 1B78     		ldrb	r3, [r3]	@ zero_extendqisi2
 1171              		.loc 1 283 20
 1172 0288 002B     		cmp	r3, #0
 1173 028a 2AD1     		bne	.L66
 284:g:/iot/IoT_Device_Demo/iot_link/network/lwm2m/wakaama_lwm2m/wakaama-master/core\objects.c ****                 {
 285:g:/iot/IoT_Device_Demo/iot_link/network/lwm2m/wakaama_lwm2m/wakaama-master/core\objects.c ****                     result = targetP->readFunc(instanceP->id, (int *) & ((*dataP)[j].value.asChildr
 1174              		.loc 1 285 37
 1175 028c 7B69     		ldr	r3, [r7, #20]
 1176 028e DC68     		ldr	r4, [r3, #12]
 1177              		.loc 1 285 30
 1178 0290 3B6A     		ldr	r3, [r7, #32]
ARM GAS  C:\Users\ADMINI~1\AppData\Local\Temp\ccpcHGeL.s 			page 27


 1179 0292 9888     		ldrh	r0, [r3, #4]
 1180              		.loc 1 285 75
 1181 0294 3B68     		ldr	r3, [r7]
 1182 0296 1A68     		ldr	r2, [r3]
 1183              		.loc 1 285 82
 1184 0298 BB69     		ldr	r3, [r7, #24]
 1185 029a 1B01     		lsls	r3, r3, #4
 1186 029c 1344     		add	r3, r3, r2
 1187              		.loc 1 285 71
 1188 029e 03F10801 		add	r1, r3, #8
 1189              		.loc 1 285 114
 1190 02a2 3B68     		ldr	r3, [r7]
 1191 02a4 1A68     		ldr	r2, [r3]
 1192              		.loc 1 285 121
 1193 02a6 BB69     		ldr	r3, [r7, #24]
 1194 02a8 1B01     		lsls	r3, r3, #4
 1195 02aa 1344     		add	r3, r3, r2
 1196              		.loc 1 285 30
 1197 02ac 03F10C02 		add	r2, r3, #12
 1198 02b0 7B69     		ldr	r3, [r7, #20]
 1199 02b2 0093     		str	r3, [sp]
 1200 02b4 BB6B     		ldr	r3, [r7, #56]
 1201 02b6 A047     		blx	r4
 1202              	.LVL3:
 1203 02b8 0346     		mov	r3, r0
 1204 02ba 87F82730 		strb	r3, [r7, #39]
 286:g:/iot/IoT_Device_Demo/iot_link/network/lwm2m/wakaama_lwm2m/wakaama-master/core\objects.c ****                     (*dataP)[j].type = LWM2M_TYPE_OBJECT_INSTANCE;
 1205              		.loc 1 286 22
 1206 02be 3B68     		ldr	r3, [r7]
 1207 02c0 1A68     		ldr	r2, [r3]
 1208              		.loc 1 286 29
 1209 02c2 BB69     		ldr	r3, [r7, #24]
 1210 02c4 1B01     		lsls	r3, r3, #4
 1211 02c6 1344     		add	r3, r3, r2
 1212              		.loc 1 286 38
 1213 02c8 0222     		movs	r2, #2
 1214 02ca 1A70     		strb	r2, [r3]
 287:g:/iot/IoT_Device_Demo/iot_link/network/lwm2m/wakaama_lwm2m/wakaama-master/core\objects.c ****                     (*dataP)[j].id = instanceP->id;
 1215              		.loc 1 287 22
 1216 02cc 3B68     		ldr	r3, [r7]
 1217 02ce 1A68     		ldr	r2, [r3]
 1218              		.loc 1 287 29
 1219 02d0 BB69     		ldr	r3, [r7, #24]
 1220 02d2 1B01     		lsls	r3, r3, #4
 1221 02d4 1344     		add	r3, r3, r2
 1222              		.loc 1 287 47
 1223 02d6 3A6A     		ldr	r2, [r7, #32]
 1224 02d8 9288     		ldrh	r2, [r2, #4]
 1225              		.loc 1 287 36
 1226 02da 5A80     		strh	r2, [r3, #2]	@ movhi
 288:g:/iot/IoT_Device_Demo/iot_link/network/lwm2m/wakaama_lwm2m/wakaama-master/core\objects.c ****                     j++;
 1227              		.loc 1 288 22
 1228 02dc BB69     		ldr	r3, [r7, #24]
 1229 02de 0133     		adds	r3, r3, #1
 1230 02e0 BB61     		str	r3, [r7, #24]
 1231              	.L66:
 289:g:/iot/IoT_Device_Demo/iot_link/network/lwm2m/wakaama_lwm2m/wakaama-master/core\objects.c ****                 }
ARM GAS  C:\Users\ADMINI~1\AppData\Local\Temp\ccpcHGeL.s 			page 28


 290:g:/iot/IoT_Device_Demo/iot_link/network/lwm2m/wakaama_lwm2m/wakaama-master/core\objects.c ****                 instanceP = instanceP->next;
 1232              		.loc 1 290 27
 1233 02e2 3B6A     		ldr	r3, [r7, #32]
 1234 02e4 1B68     		ldr	r3, [r3]
 1235 02e6 3B62     		str	r3, [r7, #32]
 291:g:/iot/IoT_Device_Demo/iot_link/network/lwm2m/wakaama_lwm2m/wakaama-master/core\objects.c ****                 i++;
 1236              		.loc 1 291 18
 1237 02e8 FB69     		ldr	r3, [r7, #28]
 1238 02ea 0133     		adds	r3, r3, #1
 1239 02ec FB61     		str	r3, [r7, #28]
 1240              	.L65:
 281:g:/iot/IoT_Device_Demo/iot_link/network/lwm2m/wakaama_lwm2m/wakaama-master/core\objects.c ****             {
 1241              		.loc 1 281 19
 1242 02ee 3B6A     		ldr	r3, [r7, #32]
 1243 02f0 002B     		cmp	r3, #0
 1244 02f2 03D0     		beq	.L60
 281:g:/iot/IoT_Device_Demo/iot_link/network/lwm2m/wakaama_lwm2m/wakaama-master/core\objects.c ****             {
 1245              		.loc 1 281 38 discriminator 1
 1246 02f4 97F82730 		ldrb	r3, [r7, #39]	@ zero_extendqisi2
 1247 02f8 452B     		cmp	r3, #69
 1248 02fa C1D0     		beq	.L67
 1249              	.L60:
 292:g:/iot/IoT_Device_Demo/iot_link/network/lwm2m/wakaama_lwm2m/wakaama-master/core\objects.c ****             }
 293:g:/iot/IoT_Device_Demo/iot_link/network/lwm2m/wakaama_lwm2m/wakaama-master/core\objects.c ****         }
 294:g:/iot/IoT_Device_Demo/iot_link/network/lwm2m/wakaama_lwm2m/wakaama-master/core\objects.c ****         if (forbidden != NULL)
 1250              		.loc 1 294 23
 1251 02fc 3B69     		ldr	r3, [r7, #16]
 1252              		.loc 1 294 12
 1253 02fe 002B     		cmp	r3, #0
 1254 0300 03D0     		beq	.L56
 295:g:/iot/IoT_Device_Demo/iot_link/network/lwm2m/wakaama_lwm2m/wakaama-master/core\objects.c ****         {
 296:g:/iot/IoT_Device_Demo/iot_link/network/lwm2m/wakaama_lwm2m/wakaama-master/core\objects.c ****             lwm2m_free(forbidden);
 1255              		.loc 1 296 13
 1256 0302 3B69     		ldr	r3, [r7, #16]
 1257 0304 1846     		mov	r0, r3
 1258 0306 FFF7FEFF 		bl	lwm2m_free
 1259              	.L56:
 1260              	.LBE2:
 297:g:/iot/IoT_Device_Demo/iot_link/network/lwm2m/wakaama_lwm2m/wakaama-master/core\objects.c ****         }
 298:g:/iot/IoT_Device_Demo/iot_link/network/lwm2m/wakaama_lwm2m/wakaama-master/core\objects.c ****     }
 299:g:/iot/IoT_Device_Demo/iot_link/network/lwm2m/wakaama_lwm2m/wakaama-master/core\objects.c **** 
 300:g:/iot/IoT_Device_Demo/iot_link/network/lwm2m/wakaama_lwm2m/wakaama-master/core\objects.c ****     LOG_ARG("result: %u.%2u, size: %d", (result & 0xFF) >> 5, (result & 0x1F), *sizeP);
 1261              		.loc 1 300 5
 1262 030a FFF7FEFF 		bl	link_log_level_get
 1263 030e 0346     		mov	r3, r0
 1264 0310 012B     		cmp	r3, #1
 1265 0312 2AD8     		bhi	.L69
 1266              		.loc 1 300 5 is_stmt 0 discriminator 1
 1267 0314 0120     		movs	r0, #1
 1268 0316 FFF7FEFF 		bl	link_log_level_name
 1269 031a 0446     		mov	r4, r0
 1270 031c FFF7FEFF 		bl	osal_sys_time
 1271 0320 0246     		mov	r2, r0
 1272 0322 0B46     		mov	r3, r1
 1273 0324 1546     		mov	r5, r2
 1274 0326 FFF7FEFF 		bl	lwm2m_gettime
 1275 032a 0246     		mov	r2, r0
ARM GAS  C:\Users\ADMINI~1\AppData\Local\Temp\ccpcHGeL.s 			page 29


 1276 032c 0B46     		mov	r3, r1
 1277 032e 1146     		mov	r1, r2
 1278 0330 97F82730 		ldrb	r3, [r7, #39]	@ zero_extendqisi2
 1279 0334 5B09     		lsrs	r3, r3, #5
 1280 0336 DBB2     		uxtb	r3, r3
 1281 0338 1846     		mov	r0, r3
 1282 033a 97F82730 		ldrb	r3, [r7, #39]	@ zero_extendqisi2
 1283 033e 03F01F03 		and	r3, r3, #31
 1284 0342 7A68     		ldr	r2, [r7, #4]
 1285 0344 1268     		ldr	r2, [r2]
 1286 0346 0692     		str	r2, [sp, #24]
 1287 0348 0593     		str	r3, [sp, #20]
 1288 034a 0490     		str	r0, [sp, #16]
 1289 034c 4FF49673 		mov	r3, #300
 1290 0350 0393     		str	r3, [sp, #12]
 1291 0352 094B     		ldr	r3, .L72
 1292 0354 0293     		str	r3, [sp, #8]
 1293 0356 0191     		str	r1, [sp, #4]
 1294 0358 4FF49673 		mov	r3, #300
 1295 035c 0093     		str	r3, [sp]
 1296 035e 074B     		ldr	r3, .L72+4
 1297 0360 2A46     		mov	r2, r5
 1298 0362 2146     		mov	r1, r4
 1299 0364 0648     		ldr	r0, .L72+8
 1300 0366 FFF7FEFF 		bl	printf
 1301              	.L69:
 301:g:/iot/IoT_Device_Demo/iot_link/network/lwm2m/wakaama_lwm2m/wakaama-master/core\objects.c ****     return result;
 1302              		.loc 1 301 12 is_stmt 1
 1303 036a 97F82730 		ldrb	r3, [r7, #39]	@ zero_extendqisi2
 1304              	.L50:
 302:g:/iot/IoT_Device_Demo/iot_link/network/lwm2m/wakaama_lwm2m/wakaama-master/core\objects.c **** }
 1305              		.loc 1 302 1
 1306 036e 1846     		mov	r0, r3
 1307 0370 2837     		adds	r7, r7, #40
 1308              	.LCFI18:
 1309              		.cfi_def_cfa_offset 16
 1310 0372 BD46     		mov	sp, r7
 1311              	.LCFI19:
 1312              		.cfi_def_cfa_register 13
 1313              		@ sp needed
 1314 0374 B0BD     		pop	{r4, r5, r7, pc}
 1315              	.L73:
 1316 0376 00BF     		.align	2
 1317              	.L72:
 1318 0378 00000000 		.word	__func__.9139
 1319 037c 00000000 		.word	__FUNCTION__.9138
 1320 0380 74000000 		.word	.LC4
 1321              		.cfi_endproc
 1322              	.LFE15:
 1324              		.section	.rodata
 1325 00ad 000000   		.align	2
 1326              	.LC5:
 1327 00b0 5B25735D 		.ascii	"[%s][%u][%s:%d] [%d][%s:%d] result: %u.%2u, length:"
 1327      5B25755D 
 1327      5B25733A 
 1327      25645D20 
 1327      5B25645D 
ARM GAS  C:\Users\ADMINI~1\AppData\Local\Temp\ccpcHGeL.s 			page 30


 1328 00e3 2025640D 		.ascii	" %d\015\012\015\012\000"
 1328      0A0D0A00 
 1329              		.section	.text.object_read,"ax",%progbits
 1330              		.align	1
 1331              		.global	object_read
 1332              		.syntax unified
 1333              		.thumb
 1334              		.thumb_func
 1335              		.fpu fpv4-sp-d16
 1337              	object_read:
 1338              	.LFB16:
 303:g:/iot/IoT_Device_Demo/iot_link/network/lwm2m/wakaama_lwm2m/wakaama-master/core\objects.c **** 
 304:g:/iot/IoT_Device_Demo/iot_link/network/lwm2m/wakaama_lwm2m/wakaama-master/core\objects.c **** 
 305:g:/iot/IoT_Device_Demo/iot_link/network/lwm2m/wakaama_lwm2m/wakaama-master/core\objects.c **** uint8_t object_read(lwm2m_context_t *contextP,
 306:g:/iot/IoT_Device_Demo/iot_link/network/lwm2m/wakaama_lwm2m/wakaama-master/core\objects.c ****                     lwm2m_uri_t *uriP,
 307:g:/iot/IoT_Device_Demo/iot_link/network/lwm2m/wakaama_lwm2m/wakaama-master/core\objects.c ****                     lwm2m_media_type_t *formatP,
 308:g:/iot/IoT_Device_Demo/iot_link/network/lwm2m/wakaama_lwm2m/wakaama-master/core\objects.c ****                     uint8_t **bufferP,
 309:g:/iot/IoT_Device_Demo/iot_link/network/lwm2m/wakaama_lwm2m/wakaama-master/core\objects.c ****                     size_t *lengthP,
 310:g:/iot/IoT_Device_Demo/iot_link/network/lwm2m/wakaama_lwm2m/wakaama-master/core\objects.c ****                     uint16_t serverId)
 311:g:/iot/IoT_Device_Demo/iot_link/network/lwm2m/wakaama_lwm2m/wakaama-master/core\objects.c **** {
 1339              		.loc 1 311 1
 1340              		.cfi_startproc
 1341              		@ args = 8, pretend = 0, frame = 32
 1342              		@ frame_needed = 1, uses_anonymous_args = 0
 1343 0000 B0B5     		push	{r4, r5, r7, lr}
 1344              	.LCFI20:
 1345              		.cfi_def_cfa_offset 16
 1346              		.cfi_offset 4, -16
 1347              		.cfi_offset 5, -12
 1348              		.cfi_offset 7, -8
 1349              		.cfi_offset 14, -4
 1350 0002 90B0     		sub	sp, sp, #64
 1351              	.LCFI21:
 1352              		.cfi_def_cfa_offset 80
 1353 0004 08AF     		add	r7, sp, #32
 1354              	.LCFI22:
 1355              		.cfi_def_cfa 7, 48
 1356 0006 F860     		str	r0, [r7, #12]
 1357 0008 B960     		str	r1, [r7, #8]
 1358 000a 7A60     		str	r2, [r7, #4]
 1359 000c 3B60     		str	r3, [r7]
 312:g:/iot/IoT_Device_Demo/iot_link/network/lwm2m/wakaama_lwm2m/wakaama-master/core\objects.c ****     uint8_t result;
 313:g:/iot/IoT_Device_Demo/iot_link/network/lwm2m/wakaama_lwm2m/wakaama-master/core\objects.c ****     lwm2m_data_t *dataP = NULL;
 1360              		.loc 1 313 19
 1361 000e 0023     		movs	r3, #0
 1362 0010 7B61     		str	r3, [r7, #20]
 314:g:/iot/IoT_Device_Demo/iot_link/network/lwm2m/wakaama_lwm2m/wakaama-master/core\objects.c ****     int size = 0;
 1363              		.loc 1 314 9
 1364 0012 0023     		movs	r3, #0
 1365 0014 3B61     		str	r3, [r7, #16]
 315:g:/iot/IoT_Device_Demo/iot_link/network/lwm2m/wakaama_lwm2m/wakaama-master/core\objects.c ****     int res;
 316:g:/iot/IoT_Device_Demo/iot_link/network/lwm2m/wakaama_lwm2m/wakaama-master/core\objects.c **** 
 317:g:/iot/IoT_Device_Demo/iot_link/network/lwm2m/wakaama_lwm2m/wakaama-master/core\objects.c ****     LOG_URI(uriP);
 1366              		.loc 1 317 5
 1367 0016 BB68     		ldr	r3, [r7, #8]
 1368 0018 002B     		cmp	r3, #0
 1369 001a 1BD1     		bne	.L75
ARM GAS  C:\Users\ADMINI~1\AppData\Local\Temp\ccpcHGeL.s 			page 31


 1370              		.loc 1 317 5 is_stmt 0 discriminator 1
 1371 001c FFF7FEFF 		bl	link_log_level_get
 1372 0020 0346     		mov	r3, r0
 1373 0022 012B     		cmp	r3, #1
 1374 0024 00F28480 		bhi	.L76
 1375              		.loc 1 317 5 discriminator 3
 1376 0028 0120     		movs	r0, #1
 1377 002a FFF7FEFF 		bl	link_log_level_name
 1378 002e 0446     		mov	r4, r0
 1379 0030 FFF7FEFF 		bl	osal_sys_time
 1380 0034 0246     		mov	r2, r0
 1381 0036 0B46     		mov	r3, r1
 1382 0038 40F23D13 		movw	r3, #317
 1383 003c 0293     		str	r3, [sp, #8]
 1384 003e 6B4B     		ldr	r3, .L84
 1385 0040 0193     		str	r3, [sp, #4]
 1386 0042 40F23D13 		movw	r3, #317
 1387 0046 0093     		str	r3, [sp]
 1388 0048 694B     		ldr	r3, .L84+4
 1389 004a 2146     		mov	r1, r4
 1390 004c 6948     		ldr	r0, .L84+8
 1391 004e FFF7FEFF 		bl	printf
 1392 0052 6DE0     		b	.L76
 1393              	.L75:
 1394              		.loc 1 317 5 discriminator 2
 1395 0054 FFF7FEFF 		bl	link_log_level_get
 1396 0058 0346     		mov	r3, r0
 1397 005a 012B     		cmp	r3, #1
 1398 005c 17D8     		bhi	.L77
 1399              		.loc 1 317 5 discriminator 4
 1400 005e 0120     		movs	r0, #1
 1401 0060 FFF7FEFF 		bl	link_log_level_name
 1402 0064 0446     		mov	r4, r0
 1403 0066 FFF7FEFF 		bl	osal_sys_time
 1404 006a 0246     		mov	r2, r0
 1405 006c 0B46     		mov	r3, r1
 1406 006e BB68     		ldr	r3, [r7, #8]
 1407 0070 5B88     		ldrh	r3, [r3, #2]
 1408 0072 0393     		str	r3, [sp, #12]
 1409 0074 40F23D13 		movw	r3, #317
 1410 0078 0293     		str	r3, [sp, #8]
 1411 007a 5C4B     		ldr	r3, .L84
 1412 007c 0193     		str	r3, [sp, #4]
 1413 007e 40F23D13 		movw	r3, #317
 1414 0082 0093     		str	r3, [sp]
 1415 0084 5A4B     		ldr	r3, .L84+4
 1416 0086 2146     		mov	r1, r4
 1417 0088 5B48     		ldr	r0, .L84+12
 1418 008a FFF7FEFF 		bl	printf
 1419              	.L77:
 1420              		.loc 1 317 5 discriminator 6
 1421 008e BB68     		ldr	r3, [r7, #8]
 1422 0090 1B78     		ldrb	r3, [r3]	@ zero_extendqisi2
 1423 0092 03F00203 		and	r3, r3, #2
 1424 0096 002B     		cmp	r3, #0
 1425 0098 17D0     		beq	.L78
 1426              		.loc 1 317 5 discriminator 7
ARM GAS  C:\Users\ADMINI~1\AppData\Local\Temp\ccpcHGeL.s 			page 32


 1427 009a FFF7FEFF 		bl	link_log_level_get
 1428 009e 0346     		mov	r3, r0
 1429 00a0 012B     		cmp	r3, #1
 1430 00a2 12D8     		bhi	.L78
 1431              		.loc 1 317 5 discriminator 9
 1432 00a4 0120     		movs	r0, #1
 1433 00a6 FFF7FEFF 		bl	link_log_level_name
 1434 00aa 0446     		mov	r4, r0
 1435 00ac FFF7FEFF 		bl	osal_sys_time
 1436 00b0 0246     		mov	r2, r0
 1437 00b2 0B46     		mov	r3, r1
 1438 00b4 BB68     		ldr	r3, [r7, #8]
 1439 00b6 9B88     		ldrh	r3, [r3, #4]
 1440 00b8 0193     		str	r3, [sp, #4]
 1441 00ba 40F23D13 		movw	r3, #317
 1442 00be 0093     		str	r3, [sp]
 1443 00c0 4B4B     		ldr	r3, .L84+4
 1444 00c2 2146     		mov	r1, r4
 1445 00c4 4D48     		ldr	r0, .L84+16
 1446 00c6 FFF7FEFF 		bl	printf
 1447              	.L78:
 1448              		.loc 1 317 5 discriminator 11
 1449 00ca BB68     		ldr	r3, [r7, #8]
 1450 00cc 1B78     		ldrb	r3, [r3]	@ zero_extendqisi2
 1451 00ce 03F00103 		and	r3, r3, #1
 1452 00d2 002B     		cmp	r3, #0
 1453 00d4 17D0     		beq	.L79
 1454              		.loc 1 317 5 discriminator 12
 1455 00d6 FFF7FEFF 		bl	link_log_level_get
 1456 00da 0346     		mov	r3, r0
 1457 00dc 012B     		cmp	r3, #1
 1458 00de 12D8     		bhi	.L79
 1459              		.loc 1 317 5 discriminator 14
 1460 00e0 0120     		movs	r0, #1
 1461 00e2 FFF7FEFF 		bl	link_log_level_name
 1462 00e6 0446     		mov	r4, r0
 1463 00e8 FFF7FEFF 		bl	osal_sys_time
 1464 00ec 0246     		mov	r2, r0
 1465 00ee 0B46     		mov	r3, r1
 1466 00f0 BB68     		ldr	r3, [r7, #8]
 1467 00f2 DB88     		ldrh	r3, [r3, #6]
 1468 00f4 0193     		str	r3, [sp, #4]
 1469 00f6 40F23D13 		movw	r3, #317
 1470 00fa 0093     		str	r3, [sp]
 1471 00fc 3C4B     		ldr	r3, .L84+4
 1472 00fe 2146     		mov	r1, r4
 1473 0100 3E48     		ldr	r0, .L84+16
 1474 0102 FFF7FEFF 		bl	printf
 1475              	.L79:
 1476              		.loc 1 317 5 discriminator 16
 1477 0106 FFF7FEFF 		bl	link_log_level_get
 1478 010a 0346     		mov	r3, r0
 1479 010c 012B     		cmp	r3, #1
 1480 010e 0FD8     		bhi	.L76
 1481              		.loc 1 317 5 discriminator 17
 1482 0110 0120     		movs	r0, #1
 1483 0112 FFF7FEFF 		bl	link_log_level_name
ARM GAS  C:\Users\ADMINI~1\AppData\Local\Temp\ccpcHGeL.s 			page 33


 1484 0116 0446     		mov	r4, r0
 1485 0118 FFF7FEFF 		bl	osal_sys_time
 1486 011c 0246     		mov	r2, r0
 1487 011e 0B46     		mov	r3, r1
 1488 0120 40F23D13 		movw	r3, #317
 1489 0124 0093     		str	r3, [sp]
 1490 0126 324B     		ldr	r3, .L84+4
 1491 0128 2146     		mov	r1, r4
 1492 012a 3548     		ldr	r0, .L84+20
 1493 012c FFF7FEFF 		bl	printf
 1494              	.L76:
 318:g:/iot/IoT_Device_Demo/iot_link/network/lwm2m/wakaama_lwm2m/wakaama-master/core\objects.c ****     result = object_readData(contextP, uriP, &size, &dataP, NULL, serverId);
 1495              		.loc 1 318 14 is_stmt 1
 1496 0130 07F11401 		add	r1, r7, #20
 1497 0134 07F11002 		add	r2, r7, #16
 1498 0138 BB8E     		ldrh	r3, [r7, #52]
 1499 013a 0193     		str	r3, [sp, #4]
 1500 013c 0023     		movs	r3, #0
 1501 013e 0093     		str	r3, [sp]
 1502 0140 0B46     		mov	r3, r1
 1503 0142 B968     		ldr	r1, [r7, #8]
 1504 0144 F868     		ldr	r0, [r7, #12]
 1505 0146 FFF7FEFF 		bl	object_readData
 1506 014a 0346     		mov	r3, r0
 1507 014c FB77     		strb	r3, [r7, #31]
 319:g:/iot/IoT_Device_Demo/iot_link/network/lwm2m/wakaama_lwm2m/wakaama-master/core\objects.c **** 
 320:g:/iot/IoT_Device_Demo/iot_link/network/lwm2m/wakaama_lwm2m/wakaama-master/core\objects.c ****     if (result == COAP_205_CONTENT)
 1508              		.loc 1 320 8
 1509 014e FB7F     		ldrb	r3, [r7, #31]	@ zero_extendqisi2
 1510 0150 452B     		cmp	r3, #69
 1511 0152 11D1     		bne	.L80
 321:g:/iot/IoT_Device_Demo/iot_link/network/lwm2m/wakaama_lwm2m/wakaama-master/core\objects.c ****     {
 322:g:/iot/IoT_Device_Demo/iot_link/network/lwm2m/wakaama_lwm2m/wakaama-master/core\objects.c ****         res = lwm2m_data_serialize(uriP, size, dataP, formatP, bufferP);
 1512              		.loc 1 322 15
 1513 0154 3969     		ldr	r1, [r7, #16]
 1514 0156 7A69     		ldr	r2, [r7, #20]
 1515 0158 3B68     		ldr	r3, [r7]
 1516 015a 0093     		str	r3, [sp]
 1517 015c 7B68     		ldr	r3, [r7, #4]
 1518 015e B868     		ldr	r0, [r7, #8]
 1519 0160 FFF7FEFF 		bl	lwm2m_data_serialize
 1520 0164 B861     		str	r0, [r7, #24]
 323:g:/iot/IoT_Device_Demo/iot_link/network/lwm2m/wakaama_lwm2m/wakaama-master/core\objects.c ****         if (res < 0)
 1521              		.loc 1 323 12
 1522 0166 BB69     		ldr	r3, [r7, #24]
 1523 0168 002B     		cmp	r3, #0
 1524 016a 02DA     		bge	.L81
 324:g:/iot/IoT_Device_Demo/iot_link/network/lwm2m/wakaama_lwm2m/wakaama-master/core\objects.c ****         {
 325:g:/iot/IoT_Device_Demo/iot_link/network/lwm2m/wakaama_lwm2m/wakaama-master/core\objects.c ****             result = COAP_500_INTERNAL_SERVER_ERROR;
 1525              		.loc 1 325 20
 1526 016c A023     		movs	r3, #160
 1527 016e FB77     		strb	r3, [r7, #31]
 1528 0170 02E0     		b	.L80
 1529              	.L81:
 326:g:/iot/IoT_Device_Demo/iot_link/network/lwm2m/wakaama_lwm2m/wakaama-master/core\objects.c ****         }
 327:g:/iot/IoT_Device_Demo/iot_link/network/lwm2m/wakaama_lwm2m/wakaama-master/core\objects.c ****         else
 328:g:/iot/IoT_Device_Demo/iot_link/network/lwm2m/wakaama_lwm2m/wakaama-master/core\objects.c ****         {
ARM GAS  C:\Users\ADMINI~1\AppData\Local\Temp\ccpcHGeL.s 			page 34


 329:g:/iot/IoT_Device_Demo/iot_link/network/lwm2m/wakaama_lwm2m/wakaama-master/core\objects.c ****             *lengthP = (size_t)res;
 1530              		.loc 1 329 24
 1531 0172 BA69     		ldr	r2, [r7, #24]
 1532              		.loc 1 329 22
 1533 0174 3B6B     		ldr	r3, [r7, #48]
 1534 0176 1A60     		str	r2, [r3]
 1535              	.L80:
 330:g:/iot/IoT_Device_Demo/iot_link/network/lwm2m/wakaama_lwm2m/wakaama-master/core\objects.c ****         }
 331:g:/iot/IoT_Device_Demo/iot_link/network/lwm2m/wakaama_lwm2m/wakaama-master/core\objects.c ****     }
 332:g:/iot/IoT_Device_Demo/iot_link/network/lwm2m/wakaama_lwm2m/wakaama-master/core\objects.c ****     lwm2m_data_free(size, dataP);
 1536              		.loc 1 332 5
 1537 0178 3B69     		ldr	r3, [r7, #16]
 1538 017a 7A69     		ldr	r2, [r7, #20]
 1539 017c 1146     		mov	r1, r2
 1540 017e 1846     		mov	r0, r3
 1541 0180 FFF7FEFF 		bl	lwm2m_data_free
 333:g:/iot/IoT_Device_Demo/iot_link/network/lwm2m/wakaama_lwm2m/wakaama-master/core\objects.c **** 
 334:g:/iot/IoT_Device_Demo/iot_link/network/lwm2m/wakaama_lwm2m/wakaama-master/core\objects.c ****     LOG_ARG("result: %u.%2u, length: %d", (result & 0xFF) >> 5, (result & 0x1F), *lengthP);
 1542              		.loc 1 334 5
 1543 0184 FFF7FEFF 		bl	link_log_level_get
 1544 0188 0346     		mov	r3, r0
 1545 018a 012B     		cmp	r3, #1
 1546 018c 28D8     		bhi	.L82
 1547              		.loc 1 334 5 is_stmt 0 discriminator 1
 1548 018e 0120     		movs	r0, #1
 1549 0190 FFF7FEFF 		bl	link_log_level_name
 1550 0194 0446     		mov	r4, r0
 1551 0196 FFF7FEFF 		bl	osal_sys_time
 1552 019a 0246     		mov	r2, r0
 1553 019c 0B46     		mov	r3, r1
 1554 019e 1546     		mov	r5, r2
 1555 01a0 FFF7FEFF 		bl	lwm2m_gettime
 1556 01a4 0246     		mov	r2, r0
 1557 01a6 0B46     		mov	r3, r1
 1558 01a8 1146     		mov	r1, r2
 1559 01aa FB7F     		ldrb	r3, [r7, #31]	@ zero_extendqisi2
 1560 01ac 5B09     		lsrs	r3, r3, #5
 1561 01ae DBB2     		uxtb	r3, r3
 1562 01b0 1846     		mov	r0, r3
 1563 01b2 FB7F     		ldrb	r3, [r7, #31]	@ zero_extendqisi2
 1564 01b4 03F01F03 		and	r3, r3, #31
 1565 01b8 3A6B     		ldr	r2, [r7, #48]
 1566 01ba 1268     		ldr	r2, [r2]
 1567 01bc 0692     		str	r2, [sp, #24]
 1568 01be 0593     		str	r3, [sp, #20]
 1569 01c0 0490     		str	r0, [sp, #16]
 1570 01c2 4FF4A773 		mov	r3, #334
 1571 01c6 0393     		str	r3, [sp, #12]
 1572 01c8 084B     		ldr	r3, .L84
 1573 01ca 0293     		str	r3, [sp, #8]
 1574 01cc 0191     		str	r1, [sp, #4]
 1575 01ce 4FF4A773 		mov	r3, #334
 1576 01d2 0093     		str	r3, [sp]
 1577 01d4 064B     		ldr	r3, .L84+4
 1578 01d6 2A46     		mov	r2, r5
 1579 01d8 2146     		mov	r1, r4
 1580 01da 0A48     		ldr	r0, .L84+24
ARM GAS  C:\Users\ADMINI~1\AppData\Local\Temp\ccpcHGeL.s 			page 35


 1581 01dc FFF7FEFF 		bl	printf
 1582              	.L82:
 335:g:/iot/IoT_Device_Demo/iot_link/network/lwm2m/wakaama_lwm2m/wakaama-master/core\objects.c **** 
 336:g:/iot/IoT_Device_Demo/iot_link/network/lwm2m/wakaama_lwm2m/wakaama-master/core\objects.c ****     return result;
 1583              		.loc 1 336 12 is_stmt 1
 1584 01e0 FB7F     		ldrb	r3, [r7, #31]	@ zero_extendqisi2
 337:g:/iot/IoT_Device_Demo/iot_link/network/lwm2m/wakaama_lwm2m/wakaama-master/core\objects.c **** }
 1585              		.loc 1 337 1
 1586 01e2 1846     		mov	r0, r3
 1587 01e4 2037     		adds	r7, r7, #32
 1588              	.LCFI23:
 1589              		.cfi_def_cfa_offset 16
 1590 01e6 BD46     		mov	sp, r7
 1591              	.LCFI24:
 1592              		.cfi_def_cfa_register 13
 1593              		@ sp needed
 1594 01e8 B0BD     		pop	{r4, r5, r7, pc}
 1595              	.L85:
 1596 01ea 00BF     		.align	2
 1597              	.L84:
 1598 01ec 00000000 		.word	__func__.9163
 1599 01f0 00000000 		.word	__FUNCTION__.9162
 1600 01f4 00000000 		.word	.LC0
 1601 01f8 24000000 		.word	.LC1
 1602 01fc 44000000 		.word	.LC2
 1603 0200 5C000000 		.word	.LC3
 1604 0204 B0000000 		.word	.LC5
 1605              		.cfi_endproc
 1606              	.LFE16:
 1608              		.section	.rodata
 1609 00eb 00       		.align	2
 1610              	.LC6:
 1611 00ec 5B25735D 		.ascii	"[%s][%u][%s:%d] [%d][%s:%d] result: %u.%2u\015\012\015"
 1611      5B25755D 
 1611      5B25733A 
 1611      25645D20 
 1611      5B25645D 
 1612 0119 0A00     		.ascii	"\012\000"
 1613              		.section	.text.object_write,"ax",%progbits
 1614              		.align	1
 1615              		.global	object_write
 1616              		.syntax unified
 1617              		.thumb
 1618              		.thumb_func
 1619              		.fpu fpv4-sp-d16
 1621              	object_write:
 1622              	.LFB17:
 338:g:/iot/IoT_Device_Demo/iot_link/network/lwm2m/wakaama_lwm2m/wakaama-master/core\objects.c **** 
 339:g:/iot/IoT_Device_Demo/iot_link/network/lwm2m/wakaama_lwm2m/wakaama-master/core\objects.c **** uint8_t object_write(lwm2m_context_t *contextP,
 340:g:/iot/IoT_Device_Demo/iot_link/network/lwm2m/wakaama_lwm2m/wakaama-master/core\objects.c ****                      lwm2m_uri_t *uriP,
 341:g:/iot/IoT_Device_Demo/iot_link/network/lwm2m/wakaama_lwm2m/wakaama-master/core\objects.c ****                      lwm2m_media_type_t format,
 342:g:/iot/IoT_Device_Demo/iot_link/network/lwm2m/wakaama_lwm2m/wakaama-master/core\objects.c ****                      uint8_t *buffer,
 343:g:/iot/IoT_Device_Demo/iot_link/network/lwm2m/wakaama_lwm2m/wakaama-master/core\objects.c ****                      size_t length)
 344:g:/iot/IoT_Device_Demo/iot_link/network/lwm2m/wakaama_lwm2m/wakaama-master/core\objects.c **** {
 1623              		.loc 1 344 1
 1624              		.cfi_startproc
 1625              		@ args = 4, pretend = 0, frame = 32
ARM GAS  C:\Users\ADMINI~1\AppData\Local\Temp\ccpcHGeL.s 			page 36


 1626              		@ frame_needed = 1, uses_anonymous_args = 0
 1627 0000 B0B5     		push	{r4, r5, r7, lr}
 1628              	.LCFI25:
 1629              		.cfi_def_cfa_offset 16
 1630              		.cfi_offset 4, -16
 1631              		.cfi_offset 5, -12
 1632              		.cfi_offset 7, -8
 1633              		.cfi_offset 14, -4
 1634 0002 8EB0     		sub	sp, sp, #56
 1635              	.LCFI26:
 1636              		.cfi_def_cfa_offset 72
 1637 0004 06AF     		add	r7, sp, #24
 1638              	.LCFI27:
 1639              		.cfi_def_cfa 7, 48
 1640 0006 F860     		str	r0, [r7, #12]
 1641 0008 B960     		str	r1, [r7, #8]
 1642 000a 3B60     		str	r3, [r7]
 1643 000c 1346     		mov	r3, r2	@ movhi
 1644 000e FB80     		strh	r3, [r7, #6]	@ movhi
 345:g:/iot/IoT_Device_Demo/iot_link/network/lwm2m/wakaama_lwm2m/wakaama-master/core\objects.c ****     uint8_t result = NO_ERROR;
 1645              		.loc 1 345 13
 1646 0010 0023     		movs	r3, #0
 1647 0012 FB77     		strb	r3, [r7, #31]
 346:g:/iot/IoT_Device_Demo/iot_link/network/lwm2m/wakaama_lwm2m/wakaama-master/core\objects.c ****     lwm2m_object_t *targetP;
 347:g:/iot/IoT_Device_Demo/iot_link/network/lwm2m/wakaama_lwm2m/wakaama-master/core\objects.c ****     lwm2m_data_t *dataP = NULL;
 1648              		.loc 1 347 19
 1649 0014 0023     		movs	r3, #0
 1650 0016 3B61     		str	r3, [r7, #16]
 348:g:/iot/IoT_Device_Demo/iot_link/network/lwm2m/wakaama_lwm2m/wakaama-master/core\objects.c ****     int size = 0;
 1651              		.loc 1 348 9
 1652 0018 0023     		movs	r3, #0
 1653 001a BB61     		str	r3, [r7, #24]
 349:g:/iot/IoT_Device_Demo/iot_link/network/lwm2m/wakaama_lwm2m/wakaama-master/core\objects.c **** 
 350:g:/iot/IoT_Device_Demo/iot_link/network/lwm2m/wakaama_lwm2m/wakaama-master/core\objects.c ****     LOG_URI(uriP);
 1654              		.loc 1 350 5
 1655 001c BB68     		ldr	r3, [r7, #8]
 1656 001e 002B     		cmp	r3, #0
 1657 0020 1BD1     		bne	.L87
 1658              		.loc 1 350 5 is_stmt 0 discriminator 1
 1659 0022 FFF7FEFF 		bl	link_log_level_get
 1660 0026 0346     		mov	r3, r0
 1661 0028 012B     		cmp	r3, #1
 1662 002a 00F28480 		bhi	.L88
 1663              		.loc 1 350 5 discriminator 3
 1664 002e 0120     		movs	r0, #1
 1665 0030 FFF7FEFF 		bl	link_log_level_name
 1666 0034 0446     		mov	r4, r0
 1667 0036 FFF7FEFF 		bl	osal_sys_time
 1668 003a 0246     		mov	r2, r0
 1669 003c 0B46     		mov	r3, r1
 1670 003e 4FF4AF73 		mov	r3, #350
 1671 0042 0293     		str	r3, [sp, #8]
 1672 0044 6F4B     		ldr	r3, .L98
 1673 0046 0193     		str	r3, [sp, #4]
 1674 0048 4FF4AF73 		mov	r3, #350
 1675 004c 0093     		str	r3, [sp]
 1676 004e 6E4B     		ldr	r3, .L98+4
ARM GAS  C:\Users\ADMINI~1\AppData\Local\Temp\ccpcHGeL.s 			page 37


 1677 0050 2146     		mov	r1, r4
 1678 0052 6E48     		ldr	r0, .L98+8
 1679 0054 FFF7FEFF 		bl	printf
 1680 0058 6DE0     		b	.L88
 1681              	.L87:
 1682              		.loc 1 350 5 discriminator 2
 1683 005a FFF7FEFF 		bl	link_log_level_get
 1684 005e 0346     		mov	r3, r0
 1685 0060 012B     		cmp	r3, #1
 1686 0062 17D8     		bhi	.L89
 1687              		.loc 1 350 5 discriminator 4
 1688 0064 0120     		movs	r0, #1
 1689 0066 FFF7FEFF 		bl	link_log_level_name
 1690 006a 0446     		mov	r4, r0
 1691 006c FFF7FEFF 		bl	osal_sys_time
 1692 0070 0246     		mov	r2, r0
 1693 0072 0B46     		mov	r3, r1
 1694 0074 BB68     		ldr	r3, [r7, #8]
 1695 0076 5B88     		ldrh	r3, [r3, #2]
 1696 0078 0393     		str	r3, [sp, #12]
 1697 007a 4FF4AF73 		mov	r3, #350
 1698 007e 0293     		str	r3, [sp, #8]
 1699 0080 604B     		ldr	r3, .L98
 1700 0082 0193     		str	r3, [sp, #4]
 1701 0084 4FF4AF73 		mov	r3, #350
 1702 0088 0093     		str	r3, [sp]
 1703 008a 5F4B     		ldr	r3, .L98+4
 1704 008c 2146     		mov	r1, r4
 1705 008e 6048     		ldr	r0, .L98+12
 1706 0090 FFF7FEFF 		bl	printf
 1707              	.L89:
 1708              		.loc 1 350 5 discriminator 6
 1709 0094 BB68     		ldr	r3, [r7, #8]
 1710 0096 1B78     		ldrb	r3, [r3]	@ zero_extendqisi2
 1711 0098 03F00203 		and	r3, r3, #2
 1712 009c 002B     		cmp	r3, #0
 1713 009e 17D0     		beq	.L90
 1714              		.loc 1 350 5 discriminator 7
 1715 00a0 FFF7FEFF 		bl	link_log_level_get
 1716 00a4 0346     		mov	r3, r0
 1717 00a6 012B     		cmp	r3, #1
 1718 00a8 12D8     		bhi	.L90
 1719              		.loc 1 350 5 discriminator 9
 1720 00aa 0120     		movs	r0, #1
 1721 00ac FFF7FEFF 		bl	link_log_level_name
 1722 00b0 0446     		mov	r4, r0
 1723 00b2 FFF7FEFF 		bl	osal_sys_time
 1724 00b6 0246     		mov	r2, r0
 1725 00b8 0B46     		mov	r3, r1
 1726 00ba BB68     		ldr	r3, [r7, #8]
 1727 00bc 9B88     		ldrh	r3, [r3, #4]
 1728 00be 0193     		str	r3, [sp, #4]
 1729 00c0 4FF4AF73 		mov	r3, #350
 1730 00c4 0093     		str	r3, [sp]
 1731 00c6 504B     		ldr	r3, .L98+4
 1732 00c8 2146     		mov	r1, r4
 1733 00ca 5248     		ldr	r0, .L98+16
ARM GAS  C:\Users\ADMINI~1\AppData\Local\Temp\ccpcHGeL.s 			page 38


 1734 00cc FFF7FEFF 		bl	printf
 1735              	.L90:
 1736              		.loc 1 350 5 discriminator 11
 1737 00d0 BB68     		ldr	r3, [r7, #8]
 1738 00d2 1B78     		ldrb	r3, [r3]	@ zero_extendqisi2
 1739 00d4 03F00103 		and	r3, r3, #1
 1740 00d8 002B     		cmp	r3, #0
 1741 00da 17D0     		beq	.L91
 1742              		.loc 1 350 5 discriminator 12
 1743 00dc FFF7FEFF 		bl	link_log_level_get
 1744 00e0 0346     		mov	r3, r0
 1745 00e2 012B     		cmp	r3, #1
 1746 00e4 12D8     		bhi	.L91
 1747              		.loc 1 350 5 discriminator 14
 1748 00e6 0120     		movs	r0, #1
 1749 00e8 FFF7FEFF 		bl	link_log_level_name
 1750 00ec 0446     		mov	r4, r0
 1751 00ee FFF7FEFF 		bl	osal_sys_time
 1752 00f2 0246     		mov	r2, r0
 1753 00f4 0B46     		mov	r3, r1
 1754 00f6 BB68     		ldr	r3, [r7, #8]
 1755 00f8 DB88     		ldrh	r3, [r3, #6]
 1756 00fa 0193     		str	r3, [sp, #4]
 1757 00fc 4FF4AF73 		mov	r3, #350
 1758 0100 0093     		str	r3, [sp]
 1759 0102 414B     		ldr	r3, .L98+4
 1760 0104 2146     		mov	r1, r4
 1761 0106 4348     		ldr	r0, .L98+16
 1762 0108 FFF7FEFF 		bl	printf
 1763              	.L91:
 1764              		.loc 1 350 5 discriminator 16
 1765 010c FFF7FEFF 		bl	link_log_level_get
 1766 0110 0346     		mov	r3, r0
 1767 0112 012B     		cmp	r3, #1
 1768 0114 0FD8     		bhi	.L88
 1769              		.loc 1 350 5 discriminator 17
 1770 0116 0120     		movs	r0, #1
 1771 0118 FFF7FEFF 		bl	link_log_level_name
 1772 011c 0446     		mov	r4, r0
 1773 011e FFF7FEFF 		bl	osal_sys_time
 1774 0122 0246     		mov	r2, r0
 1775 0124 0B46     		mov	r3, r1
 1776 0126 4FF4AF73 		mov	r3, #350
 1777 012a 0093     		str	r3, [sp]
 1778 012c 364B     		ldr	r3, .L98+4
 1779 012e 2146     		mov	r1, r4
 1780 0130 3948     		ldr	r0, .L98+20
 1781 0132 FFF7FEFF 		bl	printf
 1782              	.L88:
 351:g:/iot/IoT_Device_Demo/iot_link/network/lwm2m/wakaama_lwm2m/wakaama-master/core\objects.c ****     targetP = (lwm2m_object_t *)LWM2M_LIST_FIND(contextP->objectList, uriP->objectId);
 1783              		.loc 1 351 33 is_stmt 1
 1784 0136 FB68     		ldr	r3, [r7, #12]
 1785 0138 9A69     		ldr	r2, [r3, #24]
 1786 013a BB68     		ldr	r3, [r7, #8]
 1787 013c 5B88     		ldrh	r3, [r3, #2]
 1788 013e 1946     		mov	r1, r3
 1789 0140 1046     		mov	r0, r2
ARM GAS  C:\Users\ADMINI~1\AppData\Local\Temp\ccpcHGeL.s 			page 39


 1790 0142 FFF7FEFF 		bl	lwm2m_list_find
 1791 0146 7861     		str	r0, [r7, #20]
 352:g:/iot/IoT_Device_Demo/iot_link/network/lwm2m/wakaama_lwm2m/wakaama-master/core\objects.c ****     if (NULL == targetP)
 1792              		.loc 1 352 8
 1793 0148 7B69     		ldr	r3, [r7, #20]
 1794 014a 002B     		cmp	r3, #0
 1795 014c 02D1     		bne	.L92
 353:g:/iot/IoT_Device_Demo/iot_link/network/lwm2m/wakaama_lwm2m/wakaama-master/core\objects.c ****     {
 354:g:/iot/IoT_Device_Demo/iot_link/network/lwm2m/wakaama_lwm2m/wakaama-master/core\objects.c ****         result = COAP_404_NOT_FOUND;
 1796              		.loc 1 354 16
 1797 014e 8423     		movs	r3, #132
 1798 0150 FB77     		strb	r3, [r7, #31]
 1799 0152 16E0     		b	.L93
 1800              	.L92:
 355:g:/iot/IoT_Device_Demo/iot_link/network/lwm2m/wakaama_lwm2m/wakaama-master/core\objects.c ****     }
 356:g:/iot/IoT_Device_Demo/iot_link/network/lwm2m/wakaama_lwm2m/wakaama-master/core\objects.c ****     else if (NULL == targetP->writeFunc)
 1801              		.loc 1 356 29
 1802 0154 7B69     		ldr	r3, [r7, #20]
 1803 0156 1B69     		ldr	r3, [r3, #16]
 1804              		.loc 1 356 13
 1805 0158 002B     		cmp	r3, #0
 1806 015a 02D1     		bne	.L94
 357:g:/iot/IoT_Device_Demo/iot_link/network/lwm2m/wakaama_lwm2m/wakaama-master/core\objects.c ****     {
 358:g:/iot/IoT_Device_Demo/iot_link/network/lwm2m/wakaama_lwm2m/wakaama-master/core\objects.c ****         result = COAP_405_METHOD_NOT_ALLOWED;
 1807              		.loc 1 358 16
 1808 015c 8523     		movs	r3, #133
 1809 015e FB77     		strb	r3, [r7, #31]
 1810 0160 0FE0     		b	.L93
 1811              	.L94:
 359:g:/iot/IoT_Device_Demo/iot_link/network/lwm2m/wakaama_lwm2m/wakaama-master/core\objects.c ****     }
 360:g:/iot/IoT_Device_Demo/iot_link/network/lwm2m/wakaama_lwm2m/wakaama-master/core\objects.c ****     else
 361:g:/iot/IoT_Device_Demo/iot_link/network/lwm2m/wakaama_lwm2m/wakaama-master/core\objects.c ****     {
 362:g:/iot/IoT_Device_Demo/iot_link/network/lwm2m/wakaama_lwm2m/wakaama-master/core\objects.c ****         size = lwm2m_data_parse(uriP, buffer, length, format, &dataP);
 1812              		.loc 1 362 16
 1813 0162 FA88     		ldrh	r2, [r7, #6]
 1814 0164 07F11003 		add	r3, r7, #16
 1815 0168 0093     		str	r3, [sp]
 1816 016a 1346     		mov	r3, r2
 1817 016c 3A6B     		ldr	r2, [r7, #48]
 1818 016e 3968     		ldr	r1, [r7]
 1819 0170 B868     		ldr	r0, [r7, #8]
 1820 0172 FFF7FEFF 		bl	lwm2m_data_parse
 1821 0176 B861     		str	r0, [r7, #24]
 363:g:/iot/IoT_Device_Demo/iot_link/network/lwm2m/wakaama_lwm2m/wakaama-master/core\objects.c ****         if (size == 0)
 1822              		.loc 1 363 12
 1823 0178 BB69     		ldr	r3, [r7, #24]
 1824 017a 002B     		cmp	r3, #0
 1825 017c 01D1     		bne	.L93
 364:g:/iot/IoT_Device_Demo/iot_link/network/lwm2m/wakaama_lwm2m/wakaama-master/core\objects.c ****         {
 365:g:/iot/IoT_Device_Demo/iot_link/network/lwm2m/wakaama_lwm2m/wakaama-master/core\objects.c ****             result = COAP_406_NOT_ACCEPTABLE;
 1826              		.loc 1 365 20
 1827 017e 8623     		movs	r3, #134
 1828 0180 FB77     		strb	r3, [r7, #31]
 1829              	.L93:
 366:g:/iot/IoT_Device_Demo/iot_link/network/lwm2m/wakaama_lwm2m/wakaama-master/core\objects.c ****         }
 367:g:/iot/IoT_Device_Demo/iot_link/network/lwm2m/wakaama_lwm2m/wakaama-master/core\objects.c ****     }
 368:g:/iot/IoT_Device_Demo/iot_link/network/lwm2m/wakaama_lwm2m/wakaama-master/core\objects.c ****     if (result == NO_ERROR)
ARM GAS  C:\Users\ADMINI~1\AppData\Local\Temp\ccpcHGeL.s 			page 40


 1830              		.loc 1 368 8
 1831 0182 FB7F     		ldrb	r3, [r7, #31]	@ zero_extendqisi2
 1832 0184 002B     		cmp	r3, #0
 1833 0186 0ED1     		bne	.L95
 369:g:/iot/IoT_Device_Demo/iot_link/network/lwm2m/wakaama_lwm2m/wakaama-master/core\objects.c ****     {
 370:g:/iot/IoT_Device_Demo/iot_link/network/lwm2m/wakaama_lwm2m/wakaama-master/core\objects.c ****         result = targetP->writeFunc(uriP->instanceId, size, dataP, targetP);
 1834              		.loc 1 370 25
 1835 0188 7B69     		ldr	r3, [r7, #20]
 1836 018a 1C69     		ldr	r4, [r3, #16]
 1837              		.loc 1 370 18
 1838 018c BB68     		ldr	r3, [r7, #8]
 1839 018e 9888     		ldrh	r0, [r3, #4]
 1840 0190 3A69     		ldr	r2, [r7, #16]
 1841 0192 7B69     		ldr	r3, [r7, #20]
 1842 0194 B969     		ldr	r1, [r7, #24]
 1843 0196 A047     		blx	r4
 1844              	.LVL4:
 1845 0198 0346     		mov	r3, r0
 1846 019a FB77     		strb	r3, [r7, #31]
 371:g:/iot/IoT_Device_Demo/iot_link/network/lwm2m/wakaama_lwm2m/wakaama-master/core\objects.c ****         lwm2m_data_free(size, dataP);
 1847              		.loc 1 371 9
 1848 019c 3B69     		ldr	r3, [r7, #16]
 1849 019e 1946     		mov	r1, r3
 1850 01a0 B869     		ldr	r0, [r7, #24]
 1851 01a2 FFF7FEFF 		bl	lwm2m_data_free
 1852              	.L95:
 372:g:/iot/IoT_Device_Demo/iot_link/network/lwm2m/wakaama_lwm2m/wakaama-master/core\objects.c ****     }
 373:g:/iot/IoT_Device_Demo/iot_link/network/lwm2m/wakaama_lwm2m/wakaama-master/core\objects.c **** 
 374:g:/iot/IoT_Device_Demo/iot_link/network/lwm2m/wakaama_lwm2m/wakaama-master/core\objects.c ****     LOG_ARG("result: %u.%2u", (result & 0xFF) >> 5, (result & 0x1F));
 1853              		.loc 1 374 5
 1854 01a6 FFF7FEFF 		bl	link_log_level_get
 1855 01aa 0346     		mov	r3, r0
 1856 01ac 012B     		cmp	r3, #1
 1857 01ae 24D8     		bhi	.L96
 1858              		.loc 1 374 5 is_stmt 0 discriminator 1
 1859 01b0 0120     		movs	r0, #1
 1860 01b2 FFF7FEFF 		bl	link_log_level_name
 1861 01b6 0446     		mov	r4, r0
 1862 01b8 FFF7FEFF 		bl	osal_sys_time
 1863 01bc 0246     		mov	r2, r0
 1864 01be 0B46     		mov	r3, r1
 1865 01c0 1546     		mov	r5, r2
 1866 01c2 FFF7FEFF 		bl	lwm2m_gettime
 1867 01c6 0246     		mov	r2, r0
 1868 01c8 0B46     		mov	r3, r1
 1869 01ca FB7F     		ldrb	r3, [r7, #31]	@ zero_extendqisi2
 1870 01cc 5B09     		lsrs	r3, r3, #5
 1871 01ce DBB2     		uxtb	r3, r3
 1872 01d0 1946     		mov	r1, r3
 1873 01d2 FB7F     		ldrb	r3, [r7, #31]	@ zero_extendqisi2
 1874 01d4 03F01F03 		and	r3, r3, #31
 1875 01d8 0593     		str	r3, [sp, #20]
 1876 01da 0491     		str	r1, [sp, #16]
 1877 01dc 4FF4BB73 		mov	r3, #374
 1878 01e0 0393     		str	r3, [sp, #12]
 1879 01e2 084B     		ldr	r3, .L98
 1880 01e4 0293     		str	r3, [sp, #8]
ARM GAS  C:\Users\ADMINI~1\AppData\Local\Temp\ccpcHGeL.s 			page 41


 1881 01e6 0192     		str	r2, [sp, #4]
 1882 01e8 4FF4BB73 		mov	r3, #374
 1883 01ec 0093     		str	r3, [sp]
 1884 01ee 064B     		ldr	r3, .L98+4
 1885 01f0 2A46     		mov	r2, r5
 1886 01f2 2146     		mov	r1, r4
 1887 01f4 0948     		ldr	r0, .L98+24
 1888 01f6 FFF7FEFF 		bl	printf
 1889              	.L96:
 375:g:/iot/IoT_Device_Demo/iot_link/network/lwm2m/wakaama_lwm2m/wakaama-master/core\objects.c **** 
 376:g:/iot/IoT_Device_Demo/iot_link/network/lwm2m/wakaama_lwm2m/wakaama-master/core\objects.c ****     return result;
 1890              		.loc 1 376 12 is_stmt 1
 1891 01fa FB7F     		ldrb	r3, [r7, #31]	@ zero_extendqisi2
 377:g:/iot/IoT_Device_Demo/iot_link/network/lwm2m/wakaama_lwm2m/wakaama-master/core\objects.c **** }
 1892              		.loc 1 377 1
 1893 01fc 1846     		mov	r0, r3
 1894 01fe 2037     		adds	r7, r7, #32
 1895              	.LCFI28:
 1896              		.cfi_def_cfa_offset 16
 1897 0200 BD46     		mov	sp, r7
 1898              	.LCFI29:
 1899              		.cfi_def_cfa_register 13
 1900              		@ sp needed
 1901 0202 B0BD     		pop	{r4, r5, r7, pc}
 1902              	.L99:
 1903              		.align	2
 1904              	.L98:
 1905 0204 00000000 		.word	__func__.9176
 1906 0208 00000000 		.word	__FUNCTION__.9175
 1907 020c 00000000 		.word	.LC0
 1908 0210 24000000 		.word	.LC1
 1909 0214 44000000 		.word	.LC2
 1910 0218 5C000000 		.word	.LC3
 1911 021c EC000000 		.word	.LC6
 1912              		.cfi_endproc
 1913              	.LFE17:
 1915              		.section	.text.object_execute,"ax",%progbits
 1916              		.align	1
 1917              		.global	object_execute
 1918              		.syntax unified
 1919              		.thumb
 1920              		.thumb_func
 1921              		.fpu fpv4-sp-d16
 1923              	object_execute:
 1924              	.LFB18:
 378:g:/iot/IoT_Device_Demo/iot_link/network/lwm2m/wakaama_lwm2m/wakaama-master/core\objects.c **** 
 379:g:/iot/IoT_Device_Demo/iot_link/network/lwm2m/wakaama_lwm2m/wakaama-master/core\objects.c **** uint8_t object_execute(lwm2m_context_t *contextP,
 380:g:/iot/IoT_Device_Demo/iot_link/network/lwm2m/wakaama_lwm2m/wakaama-master/core\objects.c ****                        lwm2m_uri_t *uriP,
 381:g:/iot/IoT_Device_Demo/iot_link/network/lwm2m/wakaama_lwm2m/wakaama-master/core\objects.c ****                        uint8_t *buffer,
 382:g:/iot/IoT_Device_Demo/iot_link/network/lwm2m/wakaama_lwm2m/wakaama-master/core\objects.c ****                        size_t length)
 383:g:/iot/IoT_Device_Demo/iot_link/network/lwm2m/wakaama_lwm2m/wakaama-master/core\objects.c **** {
 1925              		.loc 1 383 1
 1926              		.cfi_startproc
 1927              		@ args = 0, pretend = 0, frame = 24
 1928              		@ frame_needed = 1, uses_anonymous_args = 0
 1929 0000 90B5     		push	{r4, r7, lr}
 1930              	.LCFI30:
ARM GAS  C:\Users\ADMINI~1\AppData\Local\Temp\ccpcHGeL.s 			page 42


 1931              		.cfi_def_cfa_offset 12
 1932              		.cfi_offset 4, -12
 1933              		.cfi_offset 7, -8
 1934              		.cfi_offset 14, -4
 1935 0002 8BB0     		sub	sp, sp, #44
 1936              	.LCFI31:
 1937              		.cfi_def_cfa_offset 56
 1938 0004 04AF     		add	r7, sp, #16
 1939              	.LCFI32:
 1940              		.cfi_def_cfa 7, 40
 1941 0006 F860     		str	r0, [r7, #12]
 1942 0008 B960     		str	r1, [r7, #8]
 1943 000a 7A60     		str	r2, [r7, #4]
 1944 000c 3B60     		str	r3, [r7]
 384:g:/iot/IoT_Device_Demo/iot_link/network/lwm2m/wakaama_lwm2m/wakaama-master/core\objects.c ****     lwm2m_object_t *targetP;
 385:g:/iot/IoT_Device_Demo/iot_link/network/lwm2m/wakaama_lwm2m/wakaama-master/core\objects.c **** 
 386:g:/iot/IoT_Device_Demo/iot_link/network/lwm2m/wakaama_lwm2m/wakaama-master/core\objects.c ****     LOG_URI(uriP);
 1945              		.loc 1 386 5
 1946 000e BB68     		ldr	r3, [r7, #8]
 1947 0010 002B     		cmp	r3, #0
 1948 0012 1BD1     		bne	.L101
 1949              		.loc 1 386 5 is_stmt 0 discriminator 1
 1950 0014 FFF7FEFF 		bl	link_log_level_get
 1951 0018 0346     		mov	r3, r0
 1952 001a 012B     		cmp	r3, #1
 1953 001c 00F28480 		bhi	.L102
 1954              		.loc 1 386 5 discriminator 3
 1955 0020 0120     		movs	r0, #1
 1956 0022 FFF7FEFF 		bl	link_log_level_name
 1957 0026 0446     		mov	r4, r0
 1958 0028 FFF7FEFF 		bl	osal_sys_time
 1959 002c 0246     		mov	r2, r0
 1960 002e 0B46     		mov	r3, r1
 1961 0030 4FF4C173 		mov	r3, #386
 1962 0034 0293     		str	r3, [sp, #8]
 1963 0036 554B     		ldr	r3, .L110
 1964 0038 0193     		str	r3, [sp, #4]
 1965 003a 4FF4C173 		mov	r3, #386
 1966 003e 0093     		str	r3, [sp]
 1967 0040 534B     		ldr	r3, .L110+4
 1968 0042 2146     		mov	r1, r4
 1969 0044 5348     		ldr	r0, .L110+8
 1970 0046 FFF7FEFF 		bl	printf
 1971 004a 6DE0     		b	.L102
 1972              	.L101:
 1973              		.loc 1 386 5 discriminator 2
 1974 004c FFF7FEFF 		bl	link_log_level_get
 1975 0050 0346     		mov	r3, r0
 1976 0052 012B     		cmp	r3, #1
 1977 0054 17D8     		bhi	.L103
 1978              		.loc 1 386 5 discriminator 4
 1979 0056 0120     		movs	r0, #1
 1980 0058 FFF7FEFF 		bl	link_log_level_name
 1981 005c 0446     		mov	r4, r0
 1982 005e FFF7FEFF 		bl	osal_sys_time
 1983 0062 0246     		mov	r2, r0
 1984 0064 0B46     		mov	r3, r1
ARM GAS  C:\Users\ADMINI~1\AppData\Local\Temp\ccpcHGeL.s 			page 43


 1985 0066 BB68     		ldr	r3, [r7, #8]
 1986 0068 5B88     		ldrh	r3, [r3, #2]
 1987 006a 0393     		str	r3, [sp, #12]
 1988 006c 4FF4C173 		mov	r3, #386
 1989 0070 0293     		str	r3, [sp, #8]
 1990 0072 464B     		ldr	r3, .L110
 1991 0074 0193     		str	r3, [sp, #4]
 1992 0076 4FF4C173 		mov	r3, #386
 1993 007a 0093     		str	r3, [sp]
 1994 007c 444B     		ldr	r3, .L110+4
 1995 007e 2146     		mov	r1, r4
 1996 0080 4548     		ldr	r0, .L110+12
 1997 0082 FFF7FEFF 		bl	printf
 1998              	.L103:
 1999              		.loc 1 386 5 discriminator 6
 2000 0086 BB68     		ldr	r3, [r7, #8]
 2001 0088 1B78     		ldrb	r3, [r3]	@ zero_extendqisi2
 2002 008a 03F00203 		and	r3, r3, #2
 2003 008e 002B     		cmp	r3, #0
 2004 0090 17D0     		beq	.L104
 2005              		.loc 1 386 5 discriminator 7
 2006 0092 FFF7FEFF 		bl	link_log_level_get
 2007 0096 0346     		mov	r3, r0
 2008 0098 012B     		cmp	r3, #1
 2009 009a 12D8     		bhi	.L104
 2010              		.loc 1 386 5 discriminator 9
 2011 009c 0120     		movs	r0, #1
 2012 009e FFF7FEFF 		bl	link_log_level_name
 2013 00a2 0446     		mov	r4, r0
 2014 00a4 FFF7FEFF 		bl	osal_sys_time
 2015 00a8 0246     		mov	r2, r0
 2016 00aa 0B46     		mov	r3, r1
 2017 00ac BB68     		ldr	r3, [r7, #8]
 2018 00ae 9B88     		ldrh	r3, [r3, #4]
 2019 00b0 0193     		str	r3, [sp, #4]
 2020 00b2 4FF4C173 		mov	r3, #386
 2021 00b6 0093     		str	r3, [sp]
 2022 00b8 354B     		ldr	r3, .L110+4
 2023 00ba 2146     		mov	r1, r4
 2024 00bc 3748     		ldr	r0, .L110+16
 2025 00be FFF7FEFF 		bl	printf
 2026              	.L104:
 2027              		.loc 1 386 5 discriminator 11
 2028 00c2 BB68     		ldr	r3, [r7, #8]
 2029 00c4 1B78     		ldrb	r3, [r3]	@ zero_extendqisi2
 2030 00c6 03F00103 		and	r3, r3, #1
 2031 00ca 002B     		cmp	r3, #0
 2032 00cc 17D0     		beq	.L105
 2033              		.loc 1 386 5 discriminator 12
 2034 00ce FFF7FEFF 		bl	link_log_level_get
 2035 00d2 0346     		mov	r3, r0
 2036 00d4 012B     		cmp	r3, #1
 2037 00d6 12D8     		bhi	.L105
 2038              		.loc 1 386 5 discriminator 14
 2039 00d8 0120     		movs	r0, #1
 2040 00da FFF7FEFF 		bl	link_log_level_name
 2041 00de 0446     		mov	r4, r0
ARM GAS  C:\Users\ADMINI~1\AppData\Local\Temp\ccpcHGeL.s 			page 44


 2042 00e0 FFF7FEFF 		bl	osal_sys_time
 2043 00e4 0246     		mov	r2, r0
 2044 00e6 0B46     		mov	r3, r1
 2045 00e8 BB68     		ldr	r3, [r7, #8]
 2046 00ea DB88     		ldrh	r3, [r3, #6]
 2047 00ec 0193     		str	r3, [sp, #4]
 2048 00ee 4FF4C173 		mov	r3, #386
 2049 00f2 0093     		str	r3, [sp]
 2050 00f4 264B     		ldr	r3, .L110+4
 2051 00f6 2146     		mov	r1, r4
 2052 00f8 2848     		ldr	r0, .L110+16
 2053 00fa FFF7FEFF 		bl	printf
 2054              	.L105:
 2055              		.loc 1 386 5 discriminator 16
 2056 00fe FFF7FEFF 		bl	link_log_level_get
 2057 0102 0346     		mov	r3, r0
 2058 0104 012B     		cmp	r3, #1
 2059 0106 0FD8     		bhi	.L102
 2060              		.loc 1 386 5 discriminator 17
 2061 0108 0120     		movs	r0, #1
 2062 010a FFF7FEFF 		bl	link_log_level_name
 2063 010e 0446     		mov	r4, r0
 2064 0110 FFF7FEFF 		bl	osal_sys_time
 2065 0114 0246     		mov	r2, r0
 2066 0116 0B46     		mov	r3, r1
 2067 0118 4FF4C173 		mov	r3, #386
 2068 011c 0093     		str	r3, [sp]
 2069 011e 1C4B     		ldr	r3, .L110+4
 2070 0120 2146     		mov	r1, r4
 2071 0122 1F48     		ldr	r0, .L110+20
 2072 0124 FFF7FEFF 		bl	printf
 2073              	.L102:
 387:g:/iot/IoT_Device_Demo/iot_link/network/lwm2m/wakaama_lwm2m/wakaama-master/core\objects.c ****     targetP = (lwm2m_object_t *)LWM2M_LIST_FIND(contextP->objectList, uriP->objectId);
 2074              		.loc 1 387 33 is_stmt 1
 2075 0128 FB68     		ldr	r3, [r7, #12]
 2076 012a 9A69     		ldr	r2, [r3, #24]
 2077 012c BB68     		ldr	r3, [r7, #8]
 2078 012e 5B88     		ldrh	r3, [r3, #2]
 2079 0130 1946     		mov	r1, r3
 2080 0132 1046     		mov	r0, r2
 2081 0134 FFF7FEFF 		bl	lwm2m_list_find
 2082 0138 7861     		str	r0, [r7, #20]
 388:g:/iot/IoT_Device_Demo/iot_link/network/lwm2m/wakaama_lwm2m/wakaama-master/core\objects.c ****     if (NULL == targetP) return COAP_404_NOT_FOUND;
 2083              		.loc 1 388 8
 2084 013a 7B69     		ldr	r3, [r7, #20]
 2085 013c 002B     		cmp	r3, #0
 2086 013e 01D1     		bne	.L106
 2087              		.loc 1 388 33 discriminator 1
 2088 0140 8423     		movs	r3, #132
 2089 0142 1FE0     		b	.L107
 2090              	.L106:
 389:g:/iot/IoT_Device_Demo/iot_link/network/lwm2m/wakaama_lwm2m/wakaama-master/core\objects.c ****     if (NULL == targetP->executeFunc) return COAP_405_METHOD_NOT_ALLOWED;
 2091              		.loc 1 389 24
 2092 0144 7B69     		ldr	r3, [r7, #20]
 2093 0146 5B69     		ldr	r3, [r3, #20]
 2094              		.loc 1 389 8
 2095 0148 002B     		cmp	r3, #0
ARM GAS  C:\Users\ADMINI~1\AppData\Local\Temp\ccpcHGeL.s 			page 45


 2096 014a 01D1     		bne	.L108
 2097              		.loc 1 389 46 discriminator 1
 2098 014c 8523     		movs	r3, #133
 2099 014e 19E0     		b	.L107
 2100              	.L108:
 390:g:/iot/IoT_Device_Demo/iot_link/network/lwm2m/wakaama_lwm2m/wakaama-master/core\objects.c ****     if (NULL == lwm2m_list_find(targetP->instanceList, uriP->instanceId)) return COAP_404_NOT_FOUND
 2101              		.loc 1 390 17
 2102 0150 7B69     		ldr	r3, [r7, #20]
 2103 0152 9A68     		ldr	r2, [r3, #8]
 2104 0154 BB68     		ldr	r3, [r7, #8]
 2105 0156 9B88     		ldrh	r3, [r3, #4]
 2106 0158 1946     		mov	r1, r3
 2107 015a 1046     		mov	r0, r2
 2108 015c FFF7FEFF 		bl	lwm2m_list_find
 2109 0160 0346     		mov	r3, r0
 2110              		.loc 1 390 8
 2111 0162 002B     		cmp	r3, #0
 2112 0164 01D1     		bne	.L109
 2113              		.loc 1 390 82 discriminator 1
 2114 0166 8423     		movs	r3, #132
 2115 0168 0CE0     		b	.L107
 2116              	.L109:
 391:g:/iot/IoT_Device_Demo/iot_link/network/lwm2m/wakaama_lwm2m/wakaama-master/core\objects.c **** 
 392:g:/iot/IoT_Device_Demo/iot_link/network/lwm2m/wakaama_lwm2m/wakaama-master/core\objects.c ****     return targetP->executeFunc(uriP->instanceId, uriP->resourceId, buffer, length, targetP);
 2117              		.loc 1 392 19
 2118 016a 7B69     		ldr	r3, [r7, #20]
 2119 016c 5C69     		ldr	r4, [r3, #20]
 2120              		.loc 1 392 12
 2121 016e BB68     		ldr	r3, [r7, #8]
 2122 0170 9888     		ldrh	r0, [r3, #4]
 2123 0172 BB68     		ldr	r3, [r7, #8]
 2124 0174 D988     		ldrh	r1, [r3, #6]
 2125 0176 3A68     		ldr	r2, [r7]
 2126 0178 7B69     		ldr	r3, [r7, #20]
 2127 017a 0093     		str	r3, [sp]
 2128 017c 1346     		mov	r3, r2
 2129 017e 7A68     		ldr	r2, [r7, #4]
 2130 0180 A047     		blx	r4
 2131              	.LVL5:
 2132 0182 0346     		mov	r3, r0
 2133              	.L107:
 393:g:/iot/IoT_Device_Demo/iot_link/network/lwm2m/wakaama_lwm2m/wakaama-master/core\objects.c **** }
 2134              		.loc 1 393 1
 2135 0184 1846     		mov	r0, r3
 2136 0186 1C37     		adds	r7, r7, #28
 2137              	.LCFI33:
 2138              		.cfi_def_cfa_offset 12
 2139 0188 BD46     		mov	sp, r7
 2140              	.LCFI34:
 2141              		.cfi_def_cfa_register 13
 2142              		@ sp needed
 2143 018a 90BD     		pop	{r4, r7, pc}
 2144              	.L111:
 2145              		.align	2
 2146              	.L110:
 2147 018c 00000000 		.word	__func__.9185
 2148 0190 00000000 		.word	__FUNCTION__.9184
ARM GAS  C:\Users\ADMINI~1\AppData\Local\Temp\ccpcHGeL.s 			page 46


 2149 0194 00000000 		.word	.LC0
 2150 0198 24000000 		.word	.LC1
 2151 019c 44000000 		.word	.LC2
 2152 01a0 5C000000 		.word	.LC3
 2153              		.cfi_endproc
 2154              	.LFE18:
 2156              		.section	.text.object_create,"ax",%progbits
 2157              		.align	1
 2158              		.global	object_create
 2159              		.syntax unified
 2160              		.thumb
 2161              		.thumb_func
 2162              		.fpu fpv4-sp-d16
 2164              	object_create:
 2165              	.LFB19:
 394:g:/iot/IoT_Device_Demo/iot_link/network/lwm2m/wakaama_lwm2m/wakaama-master/core\objects.c **** 
 395:g:/iot/IoT_Device_Demo/iot_link/network/lwm2m/wakaama_lwm2m/wakaama-master/core\objects.c **** uint8_t object_create(lwm2m_context_t *contextP,
 396:g:/iot/IoT_Device_Demo/iot_link/network/lwm2m/wakaama_lwm2m/wakaama-master/core\objects.c ****                       lwm2m_uri_t *uriP,
 397:g:/iot/IoT_Device_Demo/iot_link/network/lwm2m/wakaama_lwm2m/wakaama-master/core\objects.c ****                       lwm2m_media_type_t format,
 398:g:/iot/IoT_Device_Demo/iot_link/network/lwm2m/wakaama_lwm2m/wakaama-master/core\objects.c ****                       uint8_t *buffer,
 399:g:/iot/IoT_Device_Demo/iot_link/network/lwm2m/wakaama_lwm2m/wakaama-master/core\objects.c ****                       size_t length)
 400:g:/iot/IoT_Device_Demo/iot_link/network/lwm2m/wakaama_lwm2m/wakaama-master/core\objects.c **** {
 2166              		.loc 1 400 1
 2167              		.cfi_startproc
 2168              		@ args = 4, pretend = 0, frame = 32
 2169              		@ frame_needed = 1, uses_anonymous_args = 0
 2170 0000 B0B5     		push	{r4, r5, r7, lr}
 2171              	.LCFI35:
 2172              		.cfi_def_cfa_offset 16
 2173              		.cfi_offset 4, -16
 2174              		.cfi_offset 5, -12
 2175              		.cfi_offset 7, -8
 2176              		.cfi_offset 14, -4
 2177 0002 8EB0     		sub	sp, sp, #56
 2178              	.LCFI36:
 2179              		.cfi_def_cfa_offset 72
 2180 0004 06AF     		add	r7, sp, #24
 2181              	.LCFI37:
 2182              		.cfi_def_cfa 7, 48
 2183 0006 F860     		str	r0, [r7, #12]
 2184 0008 B960     		str	r1, [r7, #8]
 2185 000a 3B60     		str	r3, [r7]
 2186 000c 1346     		mov	r3, r2	@ movhi
 2187 000e FB80     		strh	r3, [r7, #6]	@ movhi
 401:g:/iot/IoT_Device_Demo/iot_link/network/lwm2m/wakaama_lwm2m/wakaama-master/core\objects.c ****     lwm2m_object_t *targetP;
 402:g:/iot/IoT_Device_Demo/iot_link/network/lwm2m/wakaama_lwm2m/wakaama-master/core\objects.c ****     lwm2m_data_t *dataP = NULL;
 2188              		.loc 1 402 19
 2189 0010 0023     		movs	r3, #0
 2190 0012 3B61     		str	r3, [r7, #16]
 403:g:/iot/IoT_Device_Demo/iot_link/network/lwm2m/wakaama_lwm2m/wakaama-master/core\objects.c ****     int size = 0;
 2191              		.loc 1 403 9
 2192 0014 0023     		movs	r3, #0
 2193 0016 BB61     		str	r3, [r7, #24]
 404:g:/iot/IoT_Device_Demo/iot_link/network/lwm2m/wakaama_lwm2m/wakaama-master/core\objects.c ****     uint8_t result;
 405:g:/iot/IoT_Device_Demo/iot_link/network/lwm2m/wakaama_lwm2m/wakaama-master/core\objects.c **** 
 406:g:/iot/IoT_Device_Demo/iot_link/network/lwm2m/wakaama_lwm2m/wakaama-master/core\objects.c ****     LOG_URI(uriP);
 2194              		.loc 1 406 5
ARM GAS  C:\Users\ADMINI~1\AppData\Local\Temp\ccpcHGeL.s 			page 47


 2195 0018 BB68     		ldr	r3, [r7, #8]
 2196 001a 002B     		cmp	r3, #0
 2197 001c 1BD1     		bne	.L113
 2198              		.loc 1 406 5 is_stmt 0 discriminator 1
 2199 001e FFF7FEFF 		bl	link_log_level_get
 2200 0022 0346     		mov	r3, r0
 2201 0024 012B     		cmp	r3, #1
 2202 0026 00F28480 		bhi	.L114
 2203              		.loc 1 406 5 discriminator 3
 2204 002a 0120     		movs	r0, #1
 2205 002c FFF7FEFF 		bl	link_log_level_name
 2206 0030 0446     		mov	r4, r0
 2207 0032 FFF7FEFF 		bl	osal_sys_time
 2208 0036 0246     		mov	r2, r0
 2209 0038 0B46     		mov	r3, r1
 2210 003a 4FF4CB73 		mov	r3, #406
 2211 003e 0293     		str	r3, [sp, #8]
 2212 0040 984B     		ldr	r3, .L134
 2213 0042 0193     		str	r3, [sp, #4]
 2214 0044 4FF4CB73 		mov	r3, #406
 2215 0048 0093     		str	r3, [sp]
 2216 004a 974B     		ldr	r3, .L134+4
 2217 004c 2146     		mov	r1, r4
 2218 004e 9748     		ldr	r0, .L134+8
 2219 0050 FFF7FEFF 		bl	printf
 2220 0054 6DE0     		b	.L114
 2221              	.L113:
 2222              		.loc 1 406 5 discriminator 2
 2223 0056 FFF7FEFF 		bl	link_log_level_get
 2224 005a 0346     		mov	r3, r0
 2225 005c 012B     		cmp	r3, #1
 2226 005e 17D8     		bhi	.L115
 2227              		.loc 1 406 5 discriminator 4
 2228 0060 0120     		movs	r0, #1
 2229 0062 FFF7FEFF 		bl	link_log_level_name
 2230 0066 0446     		mov	r4, r0
 2231 0068 FFF7FEFF 		bl	osal_sys_time
 2232 006c 0246     		mov	r2, r0
 2233 006e 0B46     		mov	r3, r1
 2234 0070 BB68     		ldr	r3, [r7, #8]
 2235 0072 5B88     		ldrh	r3, [r3, #2]
 2236 0074 0393     		str	r3, [sp, #12]
 2237 0076 4FF4CB73 		mov	r3, #406
 2238 007a 0293     		str	r3, [sp, #8]
 2239 007c 894B     		ldr	r3, .L134
 2240 007e 0193     		str	r3, [sp, #4]
 2241 0080 4FF4CB73 		mov	r3, #406
 2242 0084 0093     		str	r3, [sp]
 2243 0086 884B     		ldr	r3, .L134+4
 2244 0088 2146     		mov	r1, r4
 2245 008a 8948     		ldr	r0, .L134+12
 2246 008c FFF7FEFF 		bl	printf
 2247              	.L115:
 2248              		.loc 1 406 5 discriminator 6
 2249 0090 BB68     		ldr	r3, [r7, #8]
 2250 0092 1B78     		ldrb	r3, [r3]	@ zero_extendqisi2
 2251 0094 03F00203 		and	r3, r3, #2
ARM GAS  C:\Users\ADMINI~1\AppData\Local\Temp\ccpcHGeL.s 			page 48


 2252 0098 002B     		cmp	r3, #0
 2253 009a 17D0     		beq	.L116
 2254              		.loc 1 406 5 discriminator 7
 2255 009c FFF7FEFF 		bl	link_log_level_get
 2256 00a0 0346     		mov	r3, r0
 2257 00a2 012B     		cmp	r3, #1
 2258 00a4 12D8     		bhi	.L116
 2259              		.loc 1 406 5 discriminator 9
 2260 00a6 0120     		movs	r0, #1
 2261 00a8 FFF7FEFF 		bl	link_log_level_name
 2262 00ac 0446     		mov	r4, r0
 2263 00ae FFF7FEFF 		bl	osal_sys_time
 2264 00b2 0246     		mov	r2, r0
 2265 00b4 0B46     		mov	r3, r1
 2266 00b6 BB68     		ldr	r3, [r7, #8]
 2267 00b8 9B88     		ldrh	r3, [r3, #4]
 2268 00ba 0193     		str	r3, [sp, #4]
 2269 00bc 4FF4CB73 		mov	r3, #406
 2270 00c0 0093     		str	r3, [sp]
 2271 00c2 794B     		ldr	r3, .L134+4
 2272 00c4 2146     		mov	r1, r4
 2273 00c6 7B48     		ldr	r0, .L134+16
 2274 00c8 FFF7FEFF 		bl	printf
 2275              	.L116:
 2276              		.loc 1 406 5 discriminator 11
 2277 00cc BB68     		ldr	r3, [r7, #8]
 2278 00ce 1B78     		ldrb	r3, [r3]	@ zero_extendqisi2
 2279 00d0 03F00103 		and	r3, r3, #1
 2280 00d4 002B     		cmp	r3, #0
 2281 00d6 17D0     		beq	.L117
 2282              		.loc 1 406 5 discriminator 12
 2283 00d8 FFF7FEFF 		bl	link_log_level_get
 2284 00dc 0346     		mov	r3, r0
 2285 00de 012B     		cmp	r3, #1
 2286 00e0 12D8     		bhi	.L117
 2287              		.loc 1 406 5 discriminator 14
 2288 00e2 0120     		movs	r0, #1
 2289 00e4 FFF7FEFF 		bl	link_log_level_name
 2290 00e8 0446     		mov	r4, r0
 2291 00ea FFF7FEFF 		bl	osal_sys_time
 2292 00ee 0246     		mov	r2, r0
 2293 00f0 0B46     		mov	r3, r1
 2294 00f2 BB68     		ldr	r3, [r7, #8]
 2295 00f4 DB88     		ldrh	r3, [r3, #6]
 2296 00f6 0193     		str	r3, [sp, #4]
 2297 00f8 4FF4CB73 		mov	r3, #406
 2298 00fc 0093     		str	r3, [sp]
 2299 00fe 6A4B     		ldr	r3, .L134+4
 2300 0100 2146     		mov	r1, r4
 2301 0102 6C48     		ldr	r0, .L134+16
 2302 0104 FFF7FEFF 		bl	printf
 2303              	.L117:
 2304              		.loc 1 406 5 discriminator 16
 2305 0108 FFF7FEFF 		bl	link_log_level_get
 2306 010c 0346     		mov	r3, r0
 2307 010e 012B     		cmp	r3, #1
 2308 0110 0FD8     		bhi	.L114
ARM GAS  C:\Users\ADMINI~1\AppData\Local\Temp\ccpcHGeL.s 			page 49


 2309              		.loc 1 406 5 discriminator 17
 2310 0112 0120     		movs	r0, #1
 2311 0114 FFF7FEFF 		bl	link_log_level_name
 2312 0118 0446     		mov	r4, r0
 2313 011a FFF7FEFF 		bl	osal_sys_time
 2314 011e 0246     		mov	r2, r0
 2315 0120 0B46     		mov	r3, r1
 2316 0122 4FF4CB73 		mov	r3, #406
 2317 0126 0093     		str	r3, [sp]
 2318 0128 5F4B     		ldr	r3, .L134+4
 2319 012a 2146     		mov	r1, r4
 2320 012c 6248     		ldr	r0, .L134+20
 2321 012e FFF7FEFF 		bl	printf
 2322              	.L114:
 407:g:/iot/IoT_Device_Demo/iot_link/network/lwm2m/wakaama_lwm2m/wakaama-master/core\objects.c **** 
 408:g:/iot/IoT_Device_Demo/iot_link/network/lwm2m/wakaama_lwm2m/wakaama-master/core\objects.c ****     if (length == 0 || buffer == 0)
 2323              		.loc 1 408 8 is_stmt 1
 2324 0132 3B6B     		ldr	r3, [r7, #48]
 2325 0134 002B     		cmp	r3, #0
 2326 0136 02D0     		beq	.L118
 2327              		.loc 1 408 21 discriminator 1
 2328 0138 3B68     		ldr	r3, [r7]
 2329 013a 002B     		cmp	r3, #0
 2330 013c 01D1     		bne	.L119
 2331              	.L118:
 409:g:/iot/IoT_Device_Demo/iot_link/network/lwm2m/wakaama_lwm2m/wakaama-master/core\objects.c ****     {
 410:g:/iot/IoT_Device_Demo/iot_link/network/lwm2m/wakaama_lwm2m/wakaama-master/core\objects.c ****         return COAP_400_BAD_REQUEST;
 2332              		.loc 1 410 16
 2333 013e 8023     		movs	r3, #128
 2334 0140 ABE0     		b	.L132
 2335              	.L119:
 411:g:/iot/IoT_Device_Demo/iot_link/network/lwm2m/wakaama_lwm2m/wakaama-master/core\objects.c ****     }
 412:g:/iot/IoT_Device_Demo/iot_link/network/lwm2m/wakaama_lwm2m/wakaama-master/core\objects.c **** 
 413:g:/iot/IoT_Device_Demo/iot_link/network/lwm2m/wakaama_lwm2m/wakaama-master/core\objects.c ****     targetP = (lwm2m_object_t *)LWM2M_LIST_FIND(contextP->objectList, uriP->objectId);
 2336              		.loc 1 413 33
 2337 0142 FB68     		ldr	r3, [r7, #12]
 2338 0144 9A69     		ldr	r2, [r3, #24]
 2339 0146 BB68     		ldr	r3, [r7, #8]
 2340 0148 5B88     		ldrh	r3, [r3, #2]
 2341 014a 1946     		mov	r1, r3
 2342 014c 1046     		mov	r0, r2
 2343 014e FFF7FEFF 		bl	lwm2m_list_find
 2344 0152 7861     		str	r0, [r7, #20]
 414:g:/iot/IoT_Device_Demo/iot_link/network/lwm2m/wakaama_lwm2m/wakaama-master/core\objects.c ****     if (NULL == targetP) return COAP_404_NOT_FOUND;
 2345              		.loc 1 414 8
 2346 0154 7B69     		ldr	r3, [r7, #20]
 2347 0156 002B     		cmp	r3, #0
 2348 0158 01D1     		bne	.L121
 2349              		.loc 1 414 33 discriminator 1
 2350 015a 8423     		movs	r3, #132
 2351 015c 9DE0     		b	.L132
 2352              	.L121:
 415:g:/iot/IoT_Device_Demo/iot_link/network/lwm2m/wakaama_lwm2m/wakaama-master/core\objects.c ****     if (NULL == targetP->createFunc) return COAP_405_METHOD_NOT_ALLOWED;
 2353              		.loc 1 415 24
 2354 015e 7B69     		ldr	r3, [r7, #20]
 2355 0160 DB69     		ldr	r3, [r3, #28]
 2356              		.loc 1 415 8
ARM GAS  C:\Users\ADMINI~1\AppData\Local\Temp\ccpcHGeL.s 			page 50


 2357 0162 002B     		cmp	r3, #0
 2358 0164 01D1     		bne	.L122
 2359              		.loc 1 415 45 discriminator 1
 2360 0166 8523     		movs	r3, #133
 2361 0168 97E0     		b	.L132
 2362              	.L122:
 416:g:/iot/IoT_Device_Demo/iot_link/network/lwm2m/wakaama_lwm2m/wakaama-master/core\objects.c **** 
 417:g:/iot/IoT_Device_Demo/iot_link/network/lwm2m/wakaama_lwm2m/wakaama-master/core\objects.c ****     size = lwm2m_data_parse(uriP, buffer, length, format, &dataP);
 2363              		.loc 1 417 12
 2364 016a FA88     		ldrh	r2, [r7, #6]
 2365 016c 07F11003 		add	r3, r7, #16
 2366 0170 0093     		str	r3, [sp]
 2367 0172 1346     		mov	r3, r2
 2368 0174 3A6B     		ldr	r2, [r7, #48]
 2369 0176 3968     		ldr	r1, [r7]
 2370 0178 B868     		ldr	r0, [r7, #8]
 2371 017a FFF7FEFF 		bl	lwm2m_data_parse
 2372 017e B861     		str	r0, [r7, #24]
 418:g:/iot/IoT_Device_Demo/iot_link/network/lwm2m/wakaama_lwm2m/wakaama-master/core\objects.c ****     if (size <= 0) return COAP_400_BAD_REQUEST;
 2373              		.loc 1 418 8
 2374 0180 BB69     		ldr	r3, [r7, #24]
 2375 0182 002B     		cmp	r3, #0
 2376 0184 01DC     		bgt	.L123
 2377              		.loc 1 418 27 discriminator 1
 2378 0186 8023     		movs	r3, #128
 2379 0188 87E0     		b	.L132
 2380              	.L123:
 419:g:/iot/IoT_Device_Demo/iot_link/network/lwm2m/wakaama_lwm2m/wakaama-master/core\objects.c **** 
 420:g:/iot/IoT_Device_Demo/iot_link/network/lwm2m/wakaama_lwm2m/wakaama-master/core\objects.c ****     switch (dataP[0].type)
 2381              		.loc 1 420 18
 2382 018a 3B69     		ldr	r3, [r7, #16]
 2383              		.loc 1 420 21
 2384 018c 1B78     		ldrb	r3, [r3]	@ zero_extendqisi2
 2385              		.loc 1 420 5
 2386 018e 012B     		cmp	r3, #1
 2387 0190 02D0     		beq	.L124
 2388 0192 022B     		cmp	r3, #2
 2389 0194 03D0     		beq	.L125
 2390 0196 2FE0     		b	.L133
 2391              	.L124:
 421:g:/iot/IoT_Device_Demo/iot_link/network/lwm2m/wakaama_lwm2m/wakaama-master/core\objects.c ****     {
 422:g:/iot/IoT_Device_Demo/iot_link/network/lwm2m/wakaama_lwm2m/wakaama-master/core\objects.c ****     case LWM2M_TYPE_OBJECT:
 423:g:/iot/IoT_Device_Demo/iot_link/network/lwm2m/wakaama_lwm2m/wakaama-master/core\objects.c ****         result = COAP_400_BAD_REQUEST;
 2392              		.loc 1 423 16
 2393 0198 8023     		movs	r3, #128
 2394 019a FB77     		strb	r3, [r7, #31]
 424:g:/iot/IoT_Device_Demo/iot_link/network/lwm2m/wakaama_lwm2m/wakaama-master/core\objects.c ****         goto exit;
 2395              		.loc 1 424 9
 2396 019c 4DE0     		b	.L127
 2397              	.L125:
 425:g:/iot/IoT_Device_Demo/iot_link/network/lwm2m/wakaama_lwm2m/wakaama-master/core\objects.c **** 
 426:g:/iot/IoT_Device_Demo/iot_link/network/lwm2m/wakaama_lwm2m/wakaama-master/core\objects.c ****     case LWM2M_TYPE_OBJECT_INSTANCE:
 427:g:/iot/IoT_Device_Demo/iot_link/network/lwm2m/wakaama_lwm2m/wakaama-master/core\objects.c ****         if (size != 1)
 2398              		.loc 1 427 12
 2399 019e BB69     		ldr	r3, [r7, #24]
 2400 01a0 012B     		cmp	r3, #1
 2401 01a2 02D0     		beq	.L128
ARM GAS  C:\Users\ADMINI~1\AppData\Local\Temp\ccpcHGeL.s 			page 51


 428:g:/iot/IoT_Device_Demo/iot_link/network/lwm2m/wakaama_lwm2m/wakaama-master/core\objects.c ****         {
 429:g:/iot/IoT_Device_Demo/iot_link/network/lwm2m/wakaama_lwm2m/wakaama-master/core\objects.c ****             result = COAP_400_BAD_REQUEST;
 2402              		.loc 1 429 20
 2403 01a4 8023     		movs	r3, #128
 2404 01a6 FB77     		strb	r3, [r7, #31]
 430:g:/iot/IoT_Device_Demo/iot_link/network/lwm2m/wakaama_lwm2m/wakaama-master/core\objects.c ****             goto exit;
 2405              		.loc 1 430 13
 2406 01a8 47E0     		b	.L127
 2407              	.L128:
 431:g:/iot/IoT_Device_Demo/iot_link/network/lwm2m/wakaama_lwm2m/wakaama-master/core\objects.c ****         }
 432:g:/iot/IoT_Device_Demo/iot_link/network/lwm2m/wakaama_lwm2m/wakaama-master/core\objects.c ****         if (NULL != lwm2m_list_find(targetP->instanceList, dataP[0].id))
 2408              		.loc 1 432 21
 2409 01aa 7B69     		ldr	r3, [r7, #20]
 2410 01ac 9A68     		ldr	r2, [r3, #8]
 2411              		.loc 1 432 65
 2412 01ae 3B69     		ldr	r3, [r7, #16]
 2413              		.loc 1 432 21
 2414 01b0 5B88     		ldrh	r3, [r3, #2]
 2415 01b2 1946     		mov	r1, r3
 2416 01b4 1046     		mov	r0, r2
 2417 01b6 FFF7FEFF 		bl	lwm2m_list_find
 2418 01ba 0346     		mov	r3, r0
 2419              		.loc 1 432 12
 2420 01bc 002B     		cmp	r3, #0
 2421 01be 02D0     		beq	.L129
 433:g:/iot/IoT_Device_Demo/iot_link/network/lwm2m/wakaama_lwm2m/wakaama-master/core\objects.c ****         {
 434:g:/iot/IoT_Device_Demo/iot_link/network/lwm2m/wakaama_lwm2m/wakaama-master/core\objects.c ****             // Instance already exists
 435:g:/iot/IoT_Device_Demo/iot_link/network/lwm2m/wakaama_lwm2m/wakaama-master/core\objects.c ****             result = COAP_406_NOT_ACCEPTABLE;
 2422              		.loc 1 435 20
 2423 01c0 8623     		movs	r3, #134
 2424 01c2 FB77     		strb	r3, [r7, #31]
 436:g:/iot/IoT_Device_Demo/iot_link/network/lwm2m/wakaama_lwm2m/wakaama-master/core\objects.c ****             goto exit;
 2425              		.loc 1 436 13
 2426 01c4 39E0     		b	.L127
 2427              	.L129:
 437:g:/iot/IoT_Device_Demo/iot_link/network/lwm2m/wakaama_lwm2m/wakaama-master/core\objects.c ****         }
 438:g:/iot/IoT_Device_Demo/iot_link/network/lwm2m/wakaama_lwm2m/wakaama-master/core\objects.c ****         result = targetP->createFunc(dataP[0].id, dataP[0].value.asChildren.count, dataP[0].value.a
 2428              		.loc 1 438 25
 2429 01c6 7B69     		ldr	r3, [r7, #20]
 2430 01c8 DC69     		ldr	r4, [r3, #28]
 2431              		.loc 1 438 43
 2432 01ca 3B69     		ldr	r3, [r7, #16]
 2433              		.loc 1 438 18
 2434 01cc 5888     		ldrh	r0, [r3, #2]
 2435              		.loc 1 438 56
 2436 01ce 3B69     		ldr	r3, [r7, #16]
 2437              		.loc 1 438 76
 2438 01d0 9B68     		ldr	r3, [r3, #8]
 2439              		.loc 1 438 18
 2440 01d2 1946     		mov	r1, r3
 2441              		.loc 1 438 89
 2442 01d4 3B69     		ldr	r3, [r7, #16]
 2443              		.loc 1 438 18
 2444 01d6 DA68     		ldr	r2, [r3, #12]
 2445 01d8 7B69     		ldr	r3, [r7, #20]
 2446 01da A047     		blx	r4
 2447              	.LVL6:
ARM GAS  C:\Users\ADMINI~1\AppData\Local\Temp\ccpcHGeL.s 			page 52


 2448 01dc 0346     		mov	r3, r0
 2449 01de FB77     		strb	r3, [r7, #31]
 439:g:/iot/IoT_Device_Demo/iot_link/network/lwm2m/wakaama_lwm2m/wakaama-master/core\objects.c ****         uriP->instanceId = dataP[0].id;
 2450              		.loc 1 439 33
 2451 01e0 3B69     		ldr	r3, [r7, #16]
 2452              		.loc 1 439 36
 2453 01e2 5A88     		ldrh	r2, [r3, #2]
 2454              		.loc 1 439 26
 2455 01e4 BB68     		ldr	r3, [r7, #8]
 2456 01e6 9A80     		strh	r2, [r3, #4]	@ movhi
 440:g:/iot/IoT_Device_Demo/iot_link/network/lwm2m/wakaama_lwm2m/wakaama-master/core\objects.c ****         uriP->flag |= LWM2M_URI_FLAG_INSTANCE_ID;
 2457              		.loc 1 440 20
 2458 01e8 BB68     		ldr	r3, [r7, #8]
 2459 01ea 1B78     		ldrb	r3, [r3]	@ zero_extendqisi2
 2460 01ec 43F00203 		orr	r3, r3, #2
 2461 01f0 DAB2     		uxtb	r2, r3
 2462 01f2 BB68     		ldr	r3, [r7, #8]
 2463 01f4 1A70     		strb	r2, [r3]
 441:g:/iot/IoT_Device_Demo/iot_link/network/lwm2m/wakaama_lwm2m/wakaama-master/core\objects.c ****         break;
 2464              		.loc 1 441 9
 2465 01f6 20E0     		b	.L127
 2466              	.L133:
 442:g:/iot/IoT_Device_Demo/iot_link/network/lwm2m/wakaama_lwm2m/wakaama-master/core\objects.c **** 
 443:g:/iot/IoT_Device_Demo/iot_link/network/lwm2m/wakaama_lwm2m/wakaama-master/core\objects.c ****     default:
 444:g:/iot/IoT_Device_Demo/iot_link/network/lwm2m/wakaama_lwm2m/wakaama-master/core\objects.c ****         if (!LWM2M_URI_IS_SET_INSTANCE(uriP))
 2467              		.loc 1 444 14
 2468 01f8 BB68     		ldr	r3, [r7, #8]
 2469 01fa 1B78     		ldrb	r3, [r3]	@ zero_extendqisi2
 2470 01fc 03F00203 		and	r3, r3, #2
 2471              		.loc 1 444 12
 2472 0200 002B     		cmp	r3, #0
 2473 0202 0FD1     		bne	.L130
 445:g:/iot/IoT_Device_Demo/iot_link/network/lwm2m/wakaama_lwm2m/wakaama-master/core\objects.c ****         {
 446:g:/iot/IoT_Device_Demo/iot_link/network/lwm2m/wakaama_lwm2m/wakaama-master/core\objects.c ****             uriP->instanceId = lwm2m_list_newId(targetP->instanceList);
 2474              		.loc 1 446 32
 2475 0204 7B69     		ldr	r3, [r7, #20]
 2476 0206 9B68     		ldr	r3, [r3, #8]
 2477 0208 1846     		mov	r0, r3
 2478 020a FFF7FEFF 		bl	lwm2m_list_newId
 2479 020e 0346     		mov	r3, r0
 2480 0210 1A46     		mov	r2, r3
 2481              		.loc 1 446 30
 2482 0212 BB68     		ldr	r3, [r7, #8]
 2483 0214 9A80     		strh	r2, [r3, #4]	@ movhi
 447:g:/iot/IoT_Device_Demo/iot_link/network/lwm2m/wakaama_lwm2m/wakaama-master/core\objects.c ****             uriP->flag |= LWM2M_URI_FLAG_INSTANCE_ID;
 2484              		.loc 1 447 24
 2485 0216 BB68     		ldr	r3, [r7, #8]
 2486 0218 1B78     		ldrb	r3, [r3]	@ zero_extendqisi2
 2487 021a 43F00203 		orr	r3, r3, #2
 2488 021e DAB2     		uxtb	r2, r3
 2489 0220 BB68     		ldr	r3, [r7, #8]
 2490 0222 1A70     		strb	r2, [r3]
 2491              	.L130:
 448:g:/iot/IoT_Device_Demo/iot_link/network/lwm2m/wakaama_lwm2m/wakaama-master/core\objects.c ****         }
 449:g:/iot/IoT_Device_Demo/iot_link/network/lwm2m/wakaama_lwm2m/wakaama-master/core\objects.c ****         result = targetP->createFunc(uriP->instanceId, size, dataP, targetP);
 2492              		.loc 1 449 25
 2493 0224 7B69     		ldr	r3, [r7, #20]
ARM GAS  C:\Users\ADMINI~1\AppData\Local\Temp\ccpcHGeL.s 			page 53


 2494 0226 DC69     		ldr	r4, [r3, #28]
 2495              		.loc 1 449 18
 2496 0228 BB68     		ldr	r3, [r7, #8]
 2497 022a 9888     		ldrh	r0, [r3, #4]
 2498 022c 3A69     		ldr	r2, [r7, #16]
 2499 022e 7B69     		ldr	r3, [r7, #20]
 2500 0230 B969     		ldr	r1, [r7, #24]
 2501 0232 A047     		blx	r4
 2502              	.LVL7:
 2503 0234 0346     		mov	r3, r0
 2504 0236 FB77     		strb	r3, [r7, #31]
 450:g:/iot/IoT_Device_Demo/iot_link/network/lwm2m/wakaama_lwm2m/wakaama-master/core\objects.c ****         break;
 2505              		.loc 1 450 9
 2506 0238 00BF     		nop
 2507              	.L127:
 451:g:/iot/IoT_Device_Demo/iot_link/network/lwm2m/wakaama_lwm2m/wakaama-master/core\objects.c ****     }
 452:g:/iot/IoT_Device_Demo/iot_link/network/lwm2m/wakaama_lwm2m/wakaama-master/core\objects.c **** 
 453:g:/iot/IoT_Device_Demo/iot_link/network/lwm2m/wakaama_lwm2m/wakaama-master/core\objects.c **** exit:
 454:g:/iot/IoT_Device_Demo/iot_link/network/lwm2m/wakaama_lwm2m/wakaama-master/core\objects.c ****     lwm2m_data_free(size, dataP);
 2508              		.loc 1 454 5
 2509 023a 3B69     		ldr	r3, [r7, #16]
 2510 023c 1946     		mov	r1, r3
 2511 023e B869     		ldr	r0, [r7, #24]
 2512 0240 FFF7FEFF 		bl	lwm2m_data_free
 455:g:/iot/IoT_Device_Demo/iot_link/network/lwm2m/wakaama_lwm2m/wakaama-master/core\objects.c **** 
 456:g:/iot/IoT_Device_Demo/iot_link/network/lwm2m/wakaama_lwm2m/wakaama-master/core\objects.c ****     LOG_ARG("result: %u.%2u", (result & 0xFF) >> 5, (result & 0x1F));
 2513              		.loc 1 456 5
 2514 0244 FFF7FEFF 		bl	link_log_level_get
 2515 0248 0346     		mov	r3, r0
 2516 024a 012B     		cmp	r3, #1
 2517 024c 24D8     		bhi	.L131
 2518              		.loc 1 456 5 is_stmt 0 discriminator 1
 2519 024e 0120     		movs	r0, #1
 2520 0250 FFF7FEFF 		bl	link_log_level_name
 2521 0254 0446     		mov	r4, r0
 2522 0256 FFF7FEFF 		bl	osal_sys_time
 2523 025a 0246     		mov	r2, r0
 2524 025c 0B46     		mov	r3, r1
 2525 025e 1546     		mov	r5, r2
 2526 0260 FFF7FEFF 		bl	lwm2m_gettime
 2527 0264 0246     		mov	r2, r0
 2528 0266 0B46     		mov	r3, r1
 2529 0268 FB7F     		ldrb	r3, [r7, #31]	@ zero_extendqisi2
 2530 026a 5B09     		lsrs	r3, r3, #5
 2531 026c DBB2     		uxtb	r3, r3
 2532 026e 1946     		mov	r1, r3
 2533 0270 FB7F     		ldrb	r3, [r7, #31]	@ zero_extendqisi2
 2534 0272 03F01F03 		and	r3, r3, #31
 2535 0276 0593     		str	r3, [sp, #20]
 2536 0278 0491     		str	r1, [sp, #16]
 2537 027a 4FF4E473 		mov	r3, #456
 2538 027e 0393     		str	r3, [sp, #12]
 2539 0280 084B     		ldr	r3, .L134
 2540 0282 0293     		str	r3, [sp, #8]
 2541 0284 0192     		str	r2, [sp, #4]
 2542 0286 4FF4E473 		mov	r3, #456
 2543 028a 0093     		str	r3, [sp]
ARM GAS  C:\Users\ADMINI~1\AppData\Local\Temp\ccpcHGeL.s 			page 54


 2544 028c 064B     		ldr	r3, .L134+4
 2545 028e 2A46     		mov	r2, r5
 2546 0290 2146     		mov	r1, r4
 2547 0292 0A48     		ldr	r0, .L134+24
 2548 0294 FFF7FEFF 		bl	printf
 2549              	.L131:
 457:g:/iot/IoT_Device_Demo/iot_link/network/lwm2m/wakaama_lwm2m/wakaama-master/core\objects.c **** 
 458:g:/iot/IoT_Device_Demo/iot_link/network/lwm2m/wakaama_lwm2m/wakaama-master/core\objects.c ****     return result;
 2550              		.loc 1 458 12 is_stmt 1
 2551 0298 FB7F     		ldrb	r3, [r7, #31]	@ zero_extendqisi2
 2552              	.L132:
 459:g:/iot/IoT_Device_Demo/iot_link/network/lwm2m/wakaama_lwm2m/wakaama-master/core\objects.c **** }
 2553              		.loc 1 459 1 discriminator 1
 2554 029a 1846     		mov	r0, r3
 2555 029c 2037     		adds	r7, r7, #32
 2556              	.LCFI38:
 2557              		.cfi_def_cfa_offset 16
 2558 029e BD46     		mov	sp, r7
 2559              	.LCFI39:
 2560              		.cfi_def_cfa_register 13
 2561              		@ sp needed
 2562 02a0 B0BD     		pop	{r4, r5, r7, pc}
 2563              	.L135:
 2564 02a2 00BF     		.align	2
 2565              	.L134:
 2566 02a4 00000000 		.word	__func__.9198
 2567 02a8 00000000 		.word	__FUNCTION__.9197
 2568 02ac 00000000 		.word	.LC0
 2569 02b0 24000000 		.word	.LC1
 2570 02b4 44000000 		.word	.LC2
 2571 02b8 5C000000 		.word	.LC3
 2572 02bc EC000000 		.word	.LC6
 2573              		.cfi_endproc
 2574              	.LFE19:
 2576              		.section	.rodata
 2577 011b 00       		.align	2
 2578              	.LC7:
 2579 011c 5B25735D 		.ascii	"[%s][%u][%s:%d] [%d][%s:%d] Entering\015\012\015\012"
 2579      5B25755D 
 2579      5B25733A 
 2579      25645D20 
 2579      5B25645D 
 2580 0144 00       		.ascii	"\000"
 2581              		.section	.text.object_delete,"ax",%progbits
 2582              		.align	1
 2583              		.global	object_delete
 2584              		.syntax unified
 2585              		.thumb
 2586              		.thumb_func
 2587              		.fpu fpv4-sp-d16
 2589              	object_delete:
 2590              	.LFB20:
 460:g:/iot/IoT_Device_Demo/iot_link/network/lwm2m/wakaama_lwm2m/wakaama-master/core\objects.c **** 
 461:g:/iot/IoT_Device_Demo/iot_link/network/lwm2m/wakaama_lwm2m/wakaama-master/core\objects.c **** uint8_t object_delete(lwm2m_context_t *contextP,
 462:g:/iot/IoT_Device_Demo/iot_link/network/lwm2m/wakaama_lwm2m/wakaama-master/core\objects.c ****                       lwm2m_uri_t *uriP)
 463:g:/iot/IoT_Device_Demo/iot_link/network/lwm2m/wakaama_lwm2m/wakaama-master/core\objects.c **** {
 2591              		.loc 1 463 1
ARM GAS  C:\Users\ADMINI~1\AppData\Local\Temp\ccpcHGeL.s 			page 55


 2592              		.cfi_startproc
 2593              		@ args = 0, pretend = 0, frame = 24
 2594              		@ frame_needed = 1, uses_anonymous_args = 0
 2595 0000 B0B5     		push	{r4, r5, r7, lr}
 2596              	.LCFI40:
 2597              		.cfi_def_cfa_offset 16
 2598              		.cfi_offset 4, -16
 2599              		.cfi_offset 5, -12
 2600              		.cfi_offset 7, -8
 2601              		.cfi_offset 14, -4
 2602 0002 8CB0     		sub	sp, sp, #48
 2603              	.LCFI41:
 2604              		.cfi_def_cfa_offset 64
 2605 0004 06AF     		add	r7, sp, #24
 2606              	.LCFI42:
 2607              		.cfi_def_cfa 7, 40
 2608 0006 7860     		str	r0, [r7, #4]
 2609 0008 3960     		str	r1, [r7]
 464:g:/iot/IoT_Device_Demo/iot_link/network/lwm2m/wakaama_lwm2m/wakaama-master/core\objects.c ****     lwm2m_object_t *objectP;
 465:g:/iot/IoT_Device_Demo/iot_link/network/lwm2m/wakaama_lwm2m/wakaama-master/core\objects.c ****     uint8_t result;
 466:g:/iot/IoT_Device_Demo/iot_link/network/lwm2m/wakaama_lwm2m/wakaama-master/core\objects.c **** 
 467:g:/iot/IoT_Device_Demo/iot_link/network/lwm2m/wakaama_lwm2m/wakaama-master/core\objects.c ****     LOG_URI(uriP);
 2610              		.loc 1 467 5
 2611 000a 3B68     		ldr	r3, [r7]
 2612 000c 002B     		cmp	r3, #0
 2613 000e 1BD1     		bne	.L137
 2614              		.loc 1 467 5 is_stmt 0 discriminator 1
 2615 0010 FFF7FEFF 		bl	link_log_level_get
 2616 0014 0346     		mov	r3, r0
 2617 0016 012B     		cmp	r3, #1
 2618 0018 00F28480 		bhi	.L138
 2619              		.loc 1 467 5 discriminator 3
 2620 001c 0120     		movs	r0, #1
 2621 001e FFF7FEFF 		bl	link_log_level_name
 2622 0022 0446     		mov	r4, r0
 2623 0024 FFF7FEFF 		bl	osal_sys_time
 2624 0028 0246     		mov	r2, r0
 2625 002a 0B46     		mov	r3, r1
 2626 002c 40F2D313 		movw	r3, #467
 2627 0030 0293     		str	r3, [sp, #8]
 2628 0032 924B     		ldr	r3, .L152
 2629 0034 0193     		str	r3, [sp, #4]
 2630 0036 40F2D313 		movw	r3, #467
 2631 003a 0093     		str	r3, [sp]
 2632 003c 904B     		ldr	r3, .L152+4
 2633 003e 2146     		mov	r1, r4
 2634 0040 9048     		ldr	r0, .L152+8
 2635 0042 FFF7FEFF 		bl	printf
 2636 0046 6DE0     		b	.L138
 2637              	.L137:
 2638              		.loc 1 467 5 discriminator 2
 2639 0048 FFF7FEFF 		bl	link_log_level_get
 2640 004c 0346     		mov	r3, r0
 2641 004e 012B     		cmp	r3, #1
 2642 0050 17D8     		bhi	.L139
 2643              		.loc 1 467 5 discriminator 4
 2644 0052 0120     		movs	r0, #1
ARM GAS  C:\Users\ADMINI~1\AppData\Local\Temp\ccpcHGeL.s 			page 56


 2645 0054 FFF7FEFF 		bl	link_log_level_name
 2646 0058 0446     		mov	r4, r0
 2647 005a FFF7FEFF 		bl	osal_sys_time
 2648 005e 0246     		mov	r2, r0
 2649 0060 0B46     		mov	r3, r1
 2650 0062 3B68     		ldr	r3, [r7]
 2651 0064 5B88     		ldrh	r3, [r3, #2]
 2652 0066 0393     		str	r3, [sp, #12]
 2653 0068 40F2D313 		movw	r3, #467
 2654 006c 0293     		str	r3, [sp, #8]
 2655 006e 834B     		ldr	r3, .L152
 2656 0070 0193     		str	r3, [sp, #4]
 2657 0072 40F2D313 		movw	r3, #467
 2658 0076 0093     		str	r3, [sp]
 2659 0078 814B     		ldr	r3, .L152+4
 2660 007a 2146     		mov	r1, r4
 2661 007c 8248     		ldr	r0, .L152+12
 2662 007e FFF7FEFF 		bl	printf
 2663              	.L139:
 2664              		.loc 1 467 5 discriminator 6
 2665 0082 3B68     		ldr	r3, [r7]
 2666 0084 1B78     		ldrb	r3, [r3]	@ zero_extendqisi2
 2667 0086 03F00203 		and	r3, r3, #2
 2668 008a 002B     		cmp	r3, #0
 2669 008c 17D0     		beq	.L140
 2670              		.loc 1 467 5 discriminator 7
 2671 008e FFF7FEFF 		bl	link_log_level_get
 2672 0092 0346     		mov	r3, r0
 2673 0094 012B     		cmp	r3, #1
 2674 0096 12D8     		bhi	.L140
 2675              		.loc 1 467 5 discriminator 9
 2676 0098 0120     		movs	r0, #1
 2677 009a FFF7FEFF 		bl	link_log_level_name
 2678 009e 0446     		mov	r4, r0
 2679 00a0 FFF7FEFF 		bl	osal_sys_time
 2680 00a4 0246     		mov	r2, r0
 2681 00a6 0B46     		mov	r3, r1
 2682 00a8 3B68     		ldr	r3, [r7]
 2683 00aa 9B88     		ldrh	r3, [r3, #4]
 2684 00ac 0193     		str	r3, [sp, #4]
 2685 00ae 40F2D313 		movw	r3, #467
 2686 00b2 0093     		str	r3, [sp]
 2687 00b4 724B     		ldr	r3, .L152+4
 2688 00b6 2146     		mov	r1, r4
 2689 00b8 7448     		ldr	r0, .L152+16
 2690 00ba FFF7FEFF 		bl	printf
 2691              	.L140:
 2692              		.loc 1 467 5 discriminator 11
 2693 00be 3B68     		ldr	r3, [r7]
 2694 00c0 1B78     		ldrb	r3, [r3]	@ zero_extendqisi2
 2695 00c2 03F00103 		and	r3, r3, #1
 2696 00c6 002B     		cmp	r3, #0
 2697 00c8 17D0     		beq	.L141
 2698              		.loc 1 467 5 discriminator 12
 2699 00ca FFF7FEFF 		bl	link_log_level_get
 2700 00ce 0346     		mov	r3, r0
 2701 00d0 012B     		cmp	r3, #1
ARM GAS  C:\Users\ADMINI~1\AppData\Local\Temp\ccpcHGeL.s 			page 57


 2702 00d2 12D8     		bhi	.L141
 2703              		.loc 1 467 5 discriminator 14
 2704 00d4 0120     		movs	r0, #1
 2705 00d6 FFF7FEFF 		bl	link_log_level_name
 2706 00da 0446     		mov	r4, r0
 2707 00dc FFF7FEFF 		bl	osal_sys_time
 2708 00e0 0246     		mov	r2, r0
 2709 00e2 0B46     		mov	r3, r1
 2710 00e4 3B68     		ldr	r3, [r7]
 2711 00e6 DB88     		ldrh	r3, [r3, #6]
 2712 00e8 0193     		str	r3, [sp, #4]
 2713 00ea 40F2D313 		movw	r3, #467
 2714 00ee 0093     		str	r3, [sp]
 2715 00f0 634B     		ldr	r3, .L152+4
 2716 00f2 2146     		mov	r1, r4
 2717 00f4 6548     		ldr	r0, .L152+16
 2718 00f6 FFF7FEFF 		bl	printf
 2719              	.L141:
 2720              		.loc 1 467 5 discriminator 16
 2721 00fa FFF7FEFF 		bl	link_log_level_get
 2722 00fe 0346     		mov	r3, r0
 2723 0100 012B     		cmp	r3, #1
 2724 0102 0FD8     		bhi	.L138
 2725              		.loc 1 467 5 discriminator 17
 2726 0104 0120     		movs	r0, #1
 2727 0106 FFF7FEFF 		bl	link_log_level_name
 2728 010a 0446     		mov	r4, r0
 2729 010c FFF7FEFF 		bl	osal_sys_time
 2730 0110 0246     		mov	r2, r0
 2731 0112 0B46     		mov	r3, r1
 2732 0114 40F2D313 		movw	r3, #467
 2733 0118 0093     		str	r3, [sp]
 2734 011a 594B     		ldr	r3, .L152+4
 2735 011c 2146     		mov	r1, r4
 2736 011e 5C48     		ldr	r0, .L152+20
 2737 0120 FFF7FEFF 		bl	printf
 2738              	.L138:
 468:g:/iot/IoT_Device_Demo/iot_link/network/lwm2m/wakaama_lwm2m/wakaama-master/core\objects.c ****     objectP = (lwm2m_object_t *)LWM2M_LIST_FIND(contextP->objectList, uriP->objectId);
 2739              		.loc 1 468 33 is_stmt 1
 2740 0124 7B68     		ldr	r3, [r7, #4]
 2741 0126 9A69     		ldr	r2, [r3, #24]
 2742 0128 3B68     		ldr	r3, [r7]
 2743 012a 5B88     		ldrh	r3, [r3, #2]
 2744 012c 1946     		mov	r1, r3
 2745 012e 1046     		mov	r0, r2
 2746 0130 FFF7FEFF 		bl	lwm2m_list_find
 2747 0134 F860     		str	r0, [r7, #12]
 469:g:/iot/IoT_Device_Demo/iot_link/network/lwm2m/wakaama_lwm2m/wakaama-master/core\objects.c ****     if (NULL == objectP) return COAP_404_NOT_FOUND;
 2748              		.loc 1 469 8
 2749 0136 FB68     		ldr	r3, [r7, #12]
 2750 0138 002B     		cmp	r3, #0
 2751 013a 01D1     		bne	.L142
 2752              		.loc 1 469 33 discriminator 1
 2753 013c 8423     		movs	r3, #132
 2754 013e 99E0     		b	.L143
 2755              	.L142:
 470:g:/iot/IoT_Device_Demo/iot_link/network/lwm2m/wakaama_lwm2m/wakaama-master/core\objects.c ****     if (NULL == objectP->deleteFunc) return COAP_405_METHOD_NOT_ALLOWED;
ARM GAS  C:\Users\ADMINI~1\AppData\Local\Temp\ccpcHGeL.s 			page 58


 2756              		.loc 1 470 24
 2757 0140 FB68     		ldr	r3, [r7, #12]
 2758 0142 1B6A     		ldr	r3, [r3, #32]
 2759              		.loc 1 470 8
 2760 0144 002B     		cmp	r3, #0
 2761 0146 01D1     		bne	.L144
 2762              		.loc 1 470 45 discriminator 1
 2763 0148 8523     		movs	r3, #133
 2764 014a 93E0     		b	.L143
 2765              	.L144:
 471:g:/iot/IoT_Device_Demo/iot_link/network/lwm2m/wakaama_lwm2m/wakaama-master/core\objects.c **** 
 472:g:/iot/IoT_Device_Demo/iot_link/network/lwm2m/wakaama_lwm2m/wakaama-master/core\objects.c ****     LOG("Entering");
 2766              		.loc 1 472 5
 2767 014c FFF7FEFF 		bl	link_log_level_get
 2768 0150 0346     		mov	r3, r0
 2769 0152 012B     		cmp	r3, #1
 2770 0154 1BD8     		bhi	.L145
 2771              		.loc 1 472 5 is_stmt 0 discriminator 1
 2772 0156 0120     		movs	r0, #1
 2773 0158 FFF7FEFF 		bl	link_log_level_name
 2774 015c 0446     		mov	r4, r0
 2775 015e FFF7FEFF 		bl	osal_sys_time
 2776 0162 0246     		mov	r2, r0
 2777 0164 0B46     		mov	r3, r1
 2778 0166 1546     		mov	r5, r2
 2779 0168 FFF7FEFF 		bl	lwm2m_gettime
 2780 016c 0246     		mov	r2, r0
 2781 016e 0B46     		mov	r3, r1
 2782 0170 4FF4EC73 		mov	r3, #472
 2783 0174 0393     		str	r3, [sp, #12]
 2784 0176 414B     		ldr	r3, .L152
 2785 0178 0293     		str	r3, [sp, #8]
 2786 017a 0192     		str	r2, [sp, #4]
 2787 017c 4FF4EC73 		mov	r3, #472
 2788 0180 0093     		str	r3, [sp]
 2789 0182 3F4B     		ldr	r3, .L152+4
 2790 0184 2A46     		mov	r2, r5
 2791 0186 2146     		mov	r1, r4
 2792 0188 4248     		ldr	r0, .L152+24
 2793 018a FFF7FEFF 		bl	printf
 2794              	.L145:
 473:g:/iot/IoT_Device_Demo/iot_link/network/lwm2m/wakaama_lwm2m/wakaama-master/core\objects.c **** 
 474:g:/iot/IoT_Device_Demo/iot_link/network/lwm2m/wakaama_lwm2m/wakaama-master/core\objects.c ****     if (LWM2M_URI_IS_SET_INSTANCE(uriP))
 2795              		.loc 1 474 9 is_stmt 1
 2796 018e 3B68     		ldr	r3, [r7]
 2797 0190 1B78     		ldrb	r3, [r3]	@ zero_extendqisi2
 2798 0192 03F00203 		and	r3, r3, #2
 2799              		.loc 1 474 8
 2800 0196 002B     		cmp	r3, #0
 2801 0198 10D0     		beq	.L146
 475:g:/iot/IoT_Device_Demo/iot_link/network/lwm2m/wakaama_lwm2m/wakaama-master/core\objects.c ****     {
 476:g:/iot/IoT_Device_Demo/iot_link/network/lwm2m/wakaama_lwm2m/wakaama-master/core\objects.c ****         result = objectP->deleteFunc(uriP->instanceId, objectP);
 2802              		.loc 1 476 25
 2803 019a FB68     		ldr	r3, [r7, #12]
 2804 019c 1B6A     		ldr	r3, [r3, #32]
 2805              		.loc 1 476 18
 2806 019e 3A68     		ldr	r2, [r7]
ARM GAS  C:\Users\ADMINI~1\AppData\Local\Temp\ccpcHGeL.s 			page 59


 2807 01a0 9288     		ldrh	r2, [r2, #4]
 2808 01a2 F968     		ldr	r1, [r7, #12]
 2809 01a4 1046     		mov	r0, r2
 2810 01a6 9847     		blx	r3
 2811              	.LVL8:
 2812 01a8 0346     		mov	r3, r0
 2813 01aa FB75     		strb	r3, [r7, #23]
 477:g:/iot/IoT_Device_Demo/iot_link/network/lwm2m/wakaama_lwm2m/wakaama-master/core\objects.c ****         if (result == COAP_202_DELETED)
 2814              		.loc 1 477 12
 2815 01ac FB7D     		ldrb	r3, [r7, #23]	@ zero_extendqisi2
 2816 01ae 422B     		cmp	r3, #66
 2817 01b0 35D1     		bne	.L147
 478:g:/iot/IoT_Device_Demo/iot_link/network/lwm2m/wakaama_lwm2m/wakaama-master/core\objects.c ****         {
 479:g:/iot/IoT_Device_Demo/iot_link/network/lwm2m/wakaama_lwm2m/wakaama-master/core\objects.c ****             observe_clear(contextP, uriP);
 2818              		.loc 1 479 13
 2819 01b2 3968     		ldr	r1, [r7]
 2820 01b4 7868     		ldr	r0, [r7, #4]
 2821 01b6 FFF7FEFF 		bl	observe_clear
 2822 01ba 30E0     		b	.L147
 2823              	.L146:
 2824              	.LBB3:
 480:g:/iot/IoT_Device_Demo/iot_link/network/lwm2m/wakaama_lwm2m/wakaama-master/core\objects.c ****         }
 481:g:/iot/IoT_Device_Demo/iot_link/network/lwm2m/wakaama_lwm2m/wakaama-master/core\objects.c ****     }
 482:g:/iot/IoT_Device_Demo/iot_link/network/lwm2m/wakaama_lwm2m/wakaama-master/core\objects.c ****     else
 483:g:/iot/IoT_Device_Demo/iot_link/network/lwm2m/wakaama_lwm2m/wakaama-master/core\objects.c ****     {
 484:g:/iot/IoT_Device_Demo/iot_link/network/lwm2m/wakaama_lwm2m/wakaama-master/core\objects.c ****         lwm2m_list_t *instanceP;
 485:g:/iot/IoT_Device_Demo/iot_link/network/lwm2m/wakaama_lwm2m/wakaama-master/core\objects.c **** 
 486:g:/iot/IoT_Device_Demo/iot_link/network/lwm2m/wakaama_lwm2m/wakaama-master/core\objects.c ****         result = COAP_202_DELETED;
 2825              		.loc 1 486 16
 2826 01bc 4223     		movs	r3, #66
 2827 01be FB75     		strb	r3, [r7, #23]
 487:g:/iot/IoT_Device_Demo/iot_link/network/lwm2m/wakaama_lwm2m/wakaama-master/core\objects.c ****         instanceP = objectP->instanceList;
 2828              		.loc 1 487 19
 2829 01c0 FB68     		ldr	r3, [r7, #12]
 2830 01c2 9B68     		ldr	r3, [r3, #8]
 2831 01c4 3B61     		str	r3, [r7, #16]
 488:g:/iot/IoT_Device_Demo/iot_link/network/lwm2m/wakaama_lwm2m/wakaama-master/core\objects.c ****         while (NULL != instanceP
 2832              		.loc 1 488 15
 2833 01c6 24E0     		b	.L148
 2834              	.L150:
 489:g:/iot/IoT_Device_Demo/iot_link/network/lwm2m/wakaama_lwm2m/wakaama-master/core\objects.c ****                 && result == COAP_202_DELETED)
 490:g:/iot/IoT_Device_Demo/iot_link/network/lwm2m/wakaama_lwm2m/wakaama-master/core\objects.c ****         {
 491:g:/iot/IoT_Device_Demo/iot_link/network/lwm2m/wakaama_lwm2m/wakaama-master/core\objects.c ****             uriP->instanceId = instanceP->id;
 2835              		.loc 1 491 41
 2836 01c8 3B69     		ldr	r3, [r7, #16]
 2837 01ca 9A88     		ldrh	r2, [r3, #4]
 2838              		.loc 1 491 30
 2839 01cc 3B68     		ldr	r3, [r7]
 2840 01ce 9A80     		strh	r2, [r3, #4]	@ movhi
 492:g:/iot/IoT_Device_Demo/iot_link/network/lwm2m/wakaama_lwm2m/wakaama-master/core\objects.c ****             result = objectP->deleteFunc(instanceP->id, objectP);
 2841              		.loc 1 492 29
 2842 01d0 FB68     		ldr	r3, [r7, #12]
 2843 01d2 1B6A     		ldr	r3, [r3, #32]
 2844              		.loc 1 492 22
 2845 01d4 3A69     		ldr	r2, [r7, #16]
 2846 01d6 9288     		ldrh	r2, [r2, #4]
 2847 01d8 F968     		ldr	r1, [r7, #12]
ARM GAS  C:\Users\ADMINI~1\AppData\Local\Temp\ccpcHGeL.s 			page 60


 2848 01da 1046     		mov	r0, r2
 2849 01dc 9847     		blx	r3
 2850              	.LVL9:
 2851 01de 0346     		mov	r3, r0
 2852 01e0 FB75     		strb	r3, [r7, #23]
 493:g:/iot/IoT_Device_Demo/iot_link/network/lwm2m/wakaama_lwm2m/wakaama-master/core\objects.c ****             if (result == COAP_202_DELETED)
 2853              		.loc 1 493 16
 2854 01e2 FB7D     		ldrb	r3, [r7, #23]	@ zero_extendqisi2
 2855 01e4 422B     		cmp	r3, #66
 2856 01e6 11D1     		bne	.L149
 494:g:/iot/IoT_Device_Demo/iot_link/network/lwm2m/wakaama_lwm2m/wakaama-master/core\objects.c ****             {
 495:g:/iot/IoT_Device_Demo/iot_link/network/lwm2m/wakaama_lwm2m/wakaama-master/core\objects.c ****                 uriP->flag |= LWM2M_URI_FLAG_INSTANCE_ID;
 2857              		.loc 1 495 28
 2858 01e8 3B68     		ldr	r3, [r7]
 2859 01ea 1B78     		ldrb	r3, [r3]	@ zero_extendqisi2
 2860 01ec 43F00203 		orr	r3, r3, #2
 2861 01f0 DAB2     		uxtb	r2, r3
 2862 01f2 3B68     		ldr	r3, [r7]
 2863 01f4 1A70     		strb	r2, [r3]
 496:g:/iot/IoT_Device_Demo/iot_link/network/lwm2m/wakaama_lwm2m/wakaama-master/core\objects.c ****                 observe_clear(contextP, uriP);
 2864              		.loc 1 496 17
 2865 01f6 3968     		ldr	r1, [r7]
 2866 01f8 7868     		ldr	r0, [r7, #4]
 2867 01fa FFF7FEFF 		bl	observe_clear
 497:g:/iot/IoT_Device_Demo/iot_link/network/lwm2m/wakaama_lwm2m/wakaama-master/core\objects.c ****                 uriP->flag &= ~LWM2M_URI_FLAG_INSTANCE_ID;
 2868              		.loc 1 497 28
 2869 01fe 3B68     		ldr	r3, [r7]
 2870 0200 1B78     		ldrb	r3, [r3]	@ zero_extendqisi2
 2871 0202 23F00203 		bic	r3, r3, #2
 2872 0206 DAB2     		uxtb	r2, r3
 2873 0208 3B68     		ldr	r3, [r7]
 2874 020a 1A70     		strb	r2, [r3]
 2875              	.L149:
 498:g:/iot/IoT_Device_Demo/iot_link/network/lwm2m/wakaama_lwm2m/wakaama-master/core\objects.c ****             }
 499:g:/iot/IoT_Device_Demo/iot_link/network/lwm2m/wakaama_lwm2m/wakaama-master/core\objects.c ****             instanceP = objectP->instanceList;
 2876              		.loc 1 499 23
 2877 020c FB68     		ldr	r3, [r7, #12]
 2878 020e 9B68     		ldr	r3, [r3, #8]
 2879 0210 3B61     		str	r3, [r7, #16]
 2880              	.L148:
 488:g:/iot/IoT_Device_Demo/iot_link/network/lwm2m/wakaama_lwm2m/wakaama-master/core\objects.c ****                 && result == COAP_202_DELETED)
 2881              		.loc 1 488 15
 2882 0212 3B69     		ldr	r3, [r7, #16]
 2883 0214 002B     		cmp	r3, #0
 2884 0216 02D0     		beq	.L147
 489:g:/iot/IoT_Device_Demo/iot_link/network/lwm2m/wakaama_lwm2m/wakaama-master/core\objects.c ****         {
 2885              		.loc 1 489 17
 2886 0218 FB7D     		ldrb	r3, [r7, #23]	@ zero_extendqisi2
 2887 021a 422B     		cmp	r3, #66
 2888 021c D4D0     		beq	.L150
 2889              	.L147:
 2890              	.LBE3:
 500:g:/iot/IoT_Device_Demo/iot_link/network/lwm2m/wakaama_lwm2m/wakaama-master/core\objects.c ****         }
 501:g:/iot/IoT_Device_Demo/iot_link/network/lwm2m/wakaama_lwm2m/wakaama-master/core\objects.c ****     }
 502:g:/iot/IoT_Device_Demo/iot_link/network/lwm2m/wakaama_lwm2m/wakaama-master/core\objects.c **** 
 503:g:/iot/IoT_Device_Demo/iot_link/network/lwm2m/wakaama_lwm2m/wakaama-master/core\objects.c ****     LOG_ARG("result: %u.%2u", (result & 0xFF) >> 5, (result & 0x1F));
 2891              		.loc 1 503 5
ARM GAS  C:\Users\ADMINI~1\AppData\Local\Temp\ccpcHGeL.s 			page 61


 2892 021e FFF7FEFF 		bl	link_log_level_get
 2893 0222 0346     		mov	r3, r0
 2894 0224 012B     		cmp	r3, #1
 2895 0226 24D8     		bhi	.L151
 2896              		.loc 1 503 5 is_stmt 0 discriminator 1
 2897 0228 0120     		movs	r0, #1
 2898 022a FFF7FEFF 		bl	link_log_level_name
 2899 022e 0446     		mov	r4, r0
 2900 0230 FFF7FEFF 		bl	osal_sys_time
 2901 0234 0246     		mov	r2, r0
 2902 0236 0B46     		mov	r3, r1
 2903 0238 1546     		mov	r5, r2
 2904 023a FFF7FEFF 		bl	lwm2m_gettime
 2905 023e 0246     		mov	r2, r0
 2906 0240 0B46     		mov	r3, r1
 2907 0242 FB7D     		ldrb	r3, [r7, #23]	@ zero_extendqisi2
 2908 0244 5B09     		lsrs	r3, r3, #5
 2909 0246 DBB2     		uxtb	r3, r3
 2910 0248 1946     		mov	r1, r3
 2911 024a FB7D     		ldrb	r3, [r7, #23]	@ zero_extendqisi2
 2912 024c 03F01F03 		and	r3, r3, #31
 2913 0250 0593     		str	r3, [sp, #20]
 2914 0252 0491     		str	r1, [sp, #16]
 2915 0254 40F2F713 		movw	r3, #503
 2916 0258 0393     		str	r3, [sp, #12]
 2917 025a 084B     		ldr	r3, .L152
 2918 025c 0293     		str	r3, [sp, #8]
 2919 025e 0192     		str	r2, [sp, #4]
 2920 0260 40F2F713 		movw	r3, #503
 2921 0264 0093     		str	r3, [sp]
 2922 0266 064B     		ldr	r3, .L152+4
 2923 0268 2A46     		mov	r2, r5
 2924 026a 2146     		mov	r1, r4
 2925 026c 0A48     		ldr	r0, .L152+28
 2926 026e FFF7FEFF 		bl	printf
 2927              	.L151:
 504:g:/iot/IoT_Device_Demo/iot_link/network/lwm2m/wakaama_lwm2m/wakaama-master/core\objects.c **** 
 505:g:/iot/IoT_Device_Demo/iot_link/network/lwm2m/wakaama_lwm2m/wakaama-master/core\objects.c ****     return result;
 2928              		.loc 1 505 12 is_stmt 1
 2929 0272 FB7D     		ldrb	r3, [r7, #23]	@ zero_extendqisi2
 2930              	.L143:
 506:g:/iot/IoT_Device_Demo/iot_link/network/lwm2m/wakaama_lwm2m/wakaama-master/core\objects.c **** }
 2931              		.loc 1 506 1
 2932 0274 1846     		mov	r0, r3
 2933 0276 1837     		adds	r7, r7, #24
 2934              	.LCFI43:
 2935              		.cfi_def_cfa_offset 16
 2936 0278 BD46     		mov	sp, r7
 2937              	.LCFI44:
 2938              		.cfi_def_cfa_register 13
 2939              		@ sp needed
 2940 027a B0BD     		pop	{r4, r5, r7, pc}
 2941              	.L153:
 2942              		.align	2
 2943              	.L152:
 2944 027c 00000000 		.word	__func__.9211
 2945 0280 00000000 		.word	__FUNCTION__.9210
ARM GAS  C:\Users\ADMINI~1\AppData\Local\Temp\ccpcHGeL.s 			page 62


 2946 0284 00000000 		.word	.LC0
 2947 0288 24000000 		.word	.LC1
 2948 028c 44000000 		.word	.LC2
 2949 0290 5C000000 		.word	.LC3
 2950 0294 1C010000 		.word	.LC7
 2951 0298 EC000000 		.word	.LC6
 2952              		.cfi_endproc
 2953              	.LFE20:
 2955              		.section	.text.object_discover,"ax",%progbits
 2956              		.align	1
 2957              		.global	object_discover
 2958              		.syntax unified
 2959              		.thumb
 2960              		.thumb_func
 2961              		.fpu fpv4-sp-d16
 2963              	object_discover:
 2964              	.LFB21:
 507:g:/iot/IoT_Device_Demo/iot_link/network/lwm2m/wakaama_lwm2m/wakaama-master/core\objects.c **** 
 508:g:/iot/IoT_Device_Demo/iot_link/network/lwm2m/wakaama_lwm2m/wakaama-master/core\objects.c **** uint8_t object_discover(lwm2m_context_t *contextP,
 509:g:/iot/IoT_Device_Demo/iot_link/network/lwm2m/wakaama_lwm2m/wakaama-master/core\objects.c ****                         lwm2m_uri_t *uriP,
 510:g:/iot/IoT_Device_Demo/iot_link/network/lwm2m/wakaama_lwm2m/wakaama-master/core\objects.c ****                         lwm2m_server_t *serverP,
 511:g:/iot/IoT_Device_Demo/iot_link/network/lwm2m/wakaama_lwm2m/wakaama-master/core\objects.c ****                         uint8_t **bufferP,
 512:g:/iot/IoT_Device_Demo/iot_link/network/lwm2m/wakaama_lwm2m/wakaama-master/core\objects.c ****                         size_t *lengthP)
 513:g:/iot/IoT_Device_Demo/iot_link/network/lwm2m/wakaama_lwm2m/wakaama-master/core\objects.c **** {
 2965              		.loc 1 513 1
 2966              		.cfi_startproc
 2967              		@ args = 4, pretend = 0, frame = 48
 2968              		@ frame_needed = 1, uses_anonymous_args = 0
 2969 0000 B0B5     		push	{r4, r5, r7, lr}
 2970              	.LCFI45:
 2971              		.cfi_def_cfa_offset 16
 2972              		.cfi_offset 4, -16
 2973              		.cfi_offset 5, -12
 2974              		.cfi_offset 7, -8
 2975              		.cfi_offset 14, -4
 2976 0002 92B0     		sub	sp, sp, #72
 2977              	.LCFI46:
 2978              		.cfi_def_cfa_offset 88
 2979 0004 06AF     		add	r7, sp, #24
 2980              	.LCFI47:
 2981              		.cfi_def_cfa 7, 64
 2982 0006 F860     		str	r0, [r7, #12]
 2983 0008 B960     		str	r1, [r7, #8]
 2984 000a 7A60     		str	r2, [r7, #4]
 2985 000c 3B60     		str	r3, [r7]
 514:g:/iot/IoT_Device_Demo/iot_link/network/lwm2m/wakaama_lwm2m/wakaama-master/core\objects.c ****     uint8_t result;
 515:g:/iot/IoT_Device_Demo/iot_link/network/lwm2m/wakaama_lwm2m/wakaama-master/core\objects.c ****     lwm2m_object_t *targetP;
 516:g:/iot/IoT_Device_Demo/iot_link/network/lwm2m/wakaama_lwm2m/wakaama-master/core\objects.c ****     lwm2m_data_t *dataP = NULL;
 2986              		.loc 1 516 19
 2987 000e 0023     		movs	r3, #0
 2988 0010 BB61     		str	r3, [r7, #24]
 517:g:/iot/IoT_Device_Demo/iot_link/network/lwm2m/wakaama_lwm2m/wakaama-master/core\objects.c ****     int size = 0;
 2989              		.loc 1 517 9
 2990 0012 0023     		movs	r3, #0
 2991 0014 7B61     		str	r3, [r7, #20]
 518:g:/iot/IoT_Device_Demo/iot_link/network/lwm2m/wakaama_lwm2m/wakaama-master/core\objects.c **** 
 519:g:/iot/IoT_Device_Demo/iot_link/network/lwm2m/wakaama_lwm2m/wakaama-master/core\objects.c ****     LOG_URI(uriP);
ARM GAS  C:\Users\ADMINI~1\AppData\Local\Temp\ccpcHGeL.s 			page 63


 2992              		.loc 1 519 5
 2993 0016 BB68     		ldr	r3, [r7, #8]
 2994 0018 002B     		cmp	r3, #0
 2995 001a 1BD1     		bne	.L155
 2996              		.loc 1 519 5 is_stmt 0 discriminator 1
 2997 001c FFF7FEFF 		bl	link_log_level_get
 2998 0020 0346     		mov	r3, r0
 2999 0022 012B     		cmp	r3, #1
 3000 0024 00F28480 		bhi	.L156
 3001              		.loc 1 519 5 discriminator 3
 3002 0028 0120     		movs	r0, #1
 3003 002a FFF7FEFF 		bl	link_log_level_name
 3004 002e 0446     		mov	r4, r0
 3005 0030 FFF7FEFF 		bl	osal_sys_time
 3006 0034 0246     		mov	r2, r0
 3007 0036 0B46     		mov	r3, r1
 3008 0038 40F20723 		movw	r3, #519
 3009 003c 0293     		str	r3, [sp, #8]
 3010 003e 984B     		ldr	r3, .L177
 3011 0040 0193     		str	r3, [sp, #4]
 3012 0042 40F20723 		movw	r3, #519
 3013 0046 0093     		str	r3, [sp]
 3014 0048 964B     		ldr	r3, .L177+4
 3015 004a 2146     		mov	r1, r4
 3016 004c 9648     		ldr	r0, .L177+8
 3017 004e FFF7FEFF 		bl	printf
 3018 0052 6DE0     		b	.L156
 3019              	.L155:
 3020              		.loc 1 519 5 discriminator 2
 3021 0054 FFF7FEFF 		bl	link_log_level_get
 3022 0058 0346     		mov	r3, r0
 3023 005a 012B     		cmp	r3, #1
 3024 005c 17D8     		bhi	.L157
 3025              		.loc 1 519 5 discriminator 4
 3026 005e 0120     		movs	r0, #1
 3027 0060 FFF7FEFF 		bl	link_log_level_name
 3028 0064 0446     		mov	r4, r0
 3029 0066 FFF7FEFF 		bl	osal_sys_time
 3030 006a 0246     		mov	r2, r0
 3031 006c 0B46     		mov	r3, r1
 3032 006e BB68     		ldr	r3, [r7, #8]
 3033 0070 5B88     		ldrh	r3, [r3, #2]
 3034 0072 0393     		str	r3, [sp, #12]
 3035 0074 40F20723 		movw	r3, #519
 3036 0078 0293     		str	r3, [sp, #8]
 3037 007a 894B     		ldr	r3, .L177
 3038 007c 0193     		str	r3, [sp, #4]
 3039 007e 40F20723 		movw	r3, #519
 3040 0082 0093     		str	r3, [sp]
 3041 0084 874B     		ldr	r3, .L177+4
 3042 0086 2146     		mov	r1, r4
 3043 0088 8848     		ldr	r0, .L177+12
 3044 008a FFF7FEFF 		bl	printf
 3045              	.L157:
 3046              		.loc 1 519 5 discriminator 6
 3047 008e BB68     		ldr	r3, [r7, #8]
 3048 0090 1B78     		ldrb	r3, [r3]	@ zero_extendqisi2
ARM GAS  C:\Users\ADMINI~1\AppData\Local\Temp\ccpcHGeL.s 			page 64


 3049 0092 03F00203 		and	r3, r3, #2
 3050 0096 002B     		cmp	r3, #0
 3051 0098 17D0     		beq	.L158
 3052              		.loc 1 519 5 discriminator 7
 3053 009a FFF7FEFF 		bl	link_log_level_get
 3054 009e 0346     		mov	r3, r0
 3055 00a0 012B     		cmp	r3, #1
 3056 00a2 12D8     		bhi	.L158
 3057              		.loc 1 519 5 discriminator 9
 3058 00a4 0120     		movs	r0, #1
 3059 00a6 FFF7FEFF 		bl	link_log_level_name
 3060 00aa 0446     		mov	r4, r0
 3061 00ac FFF7FEFF 		bl	osal_sys_time
 3062 00b0 0246     		mov	r2, r0
 3063 00b2 0B46     		mov	r3, r1
 3064 00b4 BB68     		ldr	r3, [r7, #8]
 3065 00b6 9B88     		ldrh	r3, [r3, #4]
 3066 00b8 0193     		str	r3, [sp, #4]
 3067 00ba 40F20723 		movw	r3, #519
 3068 00be 0093     		str	r3, [sp]
 3069 00c0 784B     		ldr	r3, .L177+4
 3070 00c2 2146     		mov	r1, r4
 3071 00c4 7A48     		ldr	r0, .L177+16
 3072 00c6 FFF7FEFF 		bl	printf
 3073              	.L158:
 3074              		.loc 1 519 5 discriminator 11
 3075 00ca BB68     		ldr	r3, [r7, #8]
 3076 00cc 1B78     		ldrb	r3, [r3]	@ zero_extendqisi2
 3077 00ce 03F00103 		and	r3, r3, #1
 3078 00d2 002B     		cmp	r3, #0
 3079 00d4 17D0     		beq	.L159
 3080              		.loc 1 519 5 discriminator 12
 3081 00d6 FFF7FEFF 		bl	link_log_level_get
 3082 00da 0346     		mov	r3, r0
 3083 00dc 012B     		cmp	r3, #1
 3084 00de 12D8     		bhi	.L159
 3085              		.loc 1 519 5 discriminator 14
 3086 00e0 0120     		movs	r0, #1
 3087 00e2 FFF7FEFF 		bl	link_log_level_name
 3088 00e6 0446     		mov	r4, r0
 3089 00e8 FFF7FEFF 		bl	osal_sys_time
 3090 00ec 0246     		mov	r2, r0
 3091 00ee 0B46     		mov	r3, r1
 3092 00f0 BB68     		ldr	r3, [r7, #8]
 3093 00f2 DB88     		ldrh	r3, [r3, #6]
 3094 00f4 0193     		str	r3, [sp, #4]
 3095 00f6 40F20723 		movw	r3, #519
 3096 00fa 0093     		str	r3, [sp]
 3097 00fc 694B     		ldr	r3, .L177+4
 3098 00fe 2146     		mov	r1, r4
 3099 0100 6B48     		ldr	r0, .L177+16
 3100 0102 FFF7FEFF 		bl	printf
 3101              	.L159:
 3102              		.loc 1 519 5 discriminator 16
 3103 0106 FFF7FEFF 		bl	link_log_level_get
 3104 010a 0346     		mov	r3, r0
 3105 010c 012B     		cmp	r3, #1
ARM GAS  C:\Users\ADMINI~1\AppData\Local\Temp\ccpcHGeL.s 			page 65


 3106 010e 0FD8     		bhi	.L156
 3107              		.loc 1 519 5 discriminator 17
 3108 0110 0120     		movs	r0, #1
 3109 0112 FFF7FEFF 		bl	link_log_level_name
 3110 0116 0446     		mov	r4, r0
 3111 0118 FFF7FEFF 		bl	osal_sys_time
 3112 011c 0246     		mov	r2, r0
 3113 011e 0B46     		mov	r3, r1
 3114 0120 40F20723 		movw	r3, #519
 3115 0124 0093     		str	r3, [sp]
 3116 0126 5F4B     		ldr	r3, .L177+4
 3117 0128 2146     		mov	r1, r4
 3118 012a 6248     		ldr	r0, .L177+20
 3119 012c FFF7FEFF 		bl	printf
 3120              	.L156:
 520:g:/iot/IoT_Device_Demo/iot_link/network/lwm2m/wakaama_lwm2m/wakaama-master/core\objects.c ****     targetP = (lwm2m_object_t *)LWM2M_LIST_FIND(contextP->objectList, uriP->objectId);
 3121              		.loc 1 520 33 is_stmt 1
 3122 0130 FB68     		ldr	r3, [r7, #12]
 3123 0132 9A69     		ldr	r2, [r3, #24]
 3124 0134 BB68     		ldr	r3, [r7, #8]
 3125 0136 5B88     		ldrh	r3, [r3, #2]
 3126 0138 1946     		mov	r1, r3
 3127 013a 1046     		mov	r0, r2
 3128 013c FFF7FEFF 		bl	lwm2m_list_find
 3129 0140 3862     		str	r0, [r7, #32]
 521:g:/iot/IoT_Device_Demo/iot_link/network/lwm2m/wakaama_lwm2m/wakaama-master/core\objects.c ****     if (NULL == targetP) return COAP_404_NOT_FOUND;
 3130              		.loc 1 521 8
 3131 0142 3B6A     		ldr	r3, [r7, #32]
 3132 0144 002B     		cmp	r3, #0
 3133 0146 01D1     		bne	.L160
 3134              		.loc 1 521 33 discriminator 1
 3135 0148 8423     		movs	r3, #132
 3136 014a ECE0     		b	.L176
 3137              	.L160:
 522:g:/iot/IoT_Device_Demo/iot_link/network/lwm2m/wakaama_lwm2m/wakaama-master/core\objects.c ****     if (NULL == targetP->discoverFunc) return COAP_501_NOT_IMPLEMENTED;
 3138              		.loc 1 522 24
 3139 014c 3B6A     		ldr	r3, [r7, #32]
 3140 014e 5B6A     		ldr	r3, [r3, #36]
 3141              		.loc 1 522 8
 3142 0150 002B     		cmp	r3, #0
 3143 0152 01D1     		bne	.L162
 3144              		.loc 1 522 47 discriminator 1
 3145 0154 A123     		movs	r3, #161
 3146 0156 E6E0     		b	.L176
 3147              	.L162:
 523:g:/iot/IoT_Device_Demo/iot_link/network/lwm2m/wakaama_lwm2m/wakaama-master/core\objects.c **** 
 524:g:/iot/IoT_Device_Demo/iot_link/network/lwm2m/wakaama_lwm2m/wakaama-master/core\objects.c ****     if (LWM2M_URI_IS_SET_INSTANCE(uriP))
 3148              		.loc 1 524 9
 3149 0158 BB68     		ldr	r3, [r7, #8]
 3150 015a 1B78     		ldrb	r3, [r3]	@ zero_extendqisi2
 3151 015c 03F00203 		and	r3, r3, #2
 3152              		.loc 1 524 8
 3153 0160 002B     		cmp	r3, #0
 3154 0162 31D0     		beq	.L163
 525:g:/iot/IoT_Device_Demo/iot_link/network/lwm2m/wakaama_lwm2m/wakaama-master/core\objects.c ****     {
 526:g:/iot/IoT_Device_Demo/iot_link/network/lwm2m/wakaama_lwm2m/wakaama-master/core\objects.c ****         if (NULL == lwm2m_list_find(targetP->instanceList, uriP->instanceId)) return COAP_404_NOT_F
 3155              		.loc 1 526 21
ARM GAS  C:\Users\ADMINI~1\AppData\Local\Temp\ccpcHGeL.s 			page 66


 3156 0164 3B6A     		ldr	r3, [r7, #32]
 3157 0166 9A68     		ldr	r2, [r3, #8]
 3158 0168 BB68     		ldr	r3, [r7, #8]
 3159 016a 9B88     		ldrh	r3, [r3, #4]
 3160 016c 1946     		mov	r1, r3
 3161 016e 1046     		mov	r0, r2
 3162 0170 FFF7FEFF 		bl	lwm2m_list_find
 3163 0174 0346     		mov	r3, r0
 3164              		.loc 1 526 12
 3165 0176 002B     		cmp	r3, #0
 3166 0178 01D1     		bne	.L164
 3167              		.loc 1 526 86 discriminator 1
 3168 017a 8423     		movs	r3, #132
 3169 017c D3E0     		b	.L176
 3170              	.L164:
 527:g:/iot/IoT_Device_Demo/iot_link/network/lwm2m/wakaama_lwm2m/wakaama-master/core\objects.c **** 
 528:g:/iot/IoT_Device_Demo/iot_link/network/lwm2m/wakaama_lwm2m/wakaama-master/core\objects.c ****         // single instance read
 529:g:/iot/IoT_Device_Demo/iot_link/network/lwm2m/wakaama_lwm2m/wakaama-master/core\objects.c ****         if (LWM2M_URI_IS_SET_RESOURCE(uriP))
 3171              		.loc 1 529 13
 3172 017e BB68     		ldr	r3, [r7, #8]
 3173 0180 1B78     		ldrb	r3, [r3]	@ zero_extendqisi2
 3174 0182 03F00103 		and	r3, r3, #1
 3175              		.loc 1 529 12
 3176 0186 002B     		cmp	r3, #0
 3177 0188 10D0     		beq	.L165
 530:g:/iot/IoT_Device_Demo/iot_link/network/lwm2m/wakaama_lwm2m/wakaama-master/core\objects.c ****         {
 531:g:/iot/IoT_Device_Demo/iot_link/network/lwm2m/wakaama_lwm2m/wakaama-master/core\objects.c ****             size = 1;
 3178              		.loc 1 531 18
 3179 018a 0123     		movs	r3, #1
 3180 018c 7B61     		str	r3, [r7, #20]
 532:g:/iot/IoT_Device_Demo/iot_link/network/lwm2m/wakaama_lwm2m/wakaama-master/core\objects.c ****             dataP = lwm2m_data_new(size);
 3181              		.loc 1 532 21
 3182 018e 7B69     		ldr	r3, [r7, #20]
 3183 0190 1846     		mov	r0, r3
 3184 0192 FFF7FEFF 		bl	lwm2m_data_new
 3185 0196 0346     		mov	r3, r0
 3186              		.loc 1 532 19
 3187 0198 BB61     		str	r3, [r7, #24]
 533:g:/iot/IoT_Device_Demo/iot_link/network/lwm2m/wakaama_lwm2m/wakaama-master/core\objects.c ****             if (dataP == NULL) return COAP_500_INTERNAL_SERVER_ERROR;
 3188              		.loc 1 533 23
 3189 019a BB69     		ldr	r3, [r7, #24]
 3190              		.loc 1 533 16
 3191 019c 002B     		cmp	r3, #0
 3192 019e 01D1     		bne	.L166
 3193              		.loc 1 533 39 discriminator 1
 3194 01a0 A023     		movs	r3, #160
 3195 01a2 C0E0     		b	.L176
 3196              	.L166:
 534:g:/iot/IoT_Device_Demo/iot_link/network/lwm2m/wakaama_lwm2m/wakaama-master/core\objects.c **** 
 535:g:/iot/IoT_Device_Demo/iot_link/network/lwm2m/wakaama_lwm2m/wakaama-master/core\objects.c ****             dataP->id = uriP->resourceId;
 3197              		.loc 1 535 18
 3198 01a4 BB69     		ldr	r3, [r7, #24]
 3199              		.loc 1 535 29
 3200 01a6 BA68     		ldr	r2, [r7, #8]
 3201 01a8 D288     		ldrh	r2, [r2, #6]
 3202              		.loc 1 535 23
 3203 01aa 5A80     		strh	r2, [r3, #2]	@ movhi
ARM GAS  C:\Users\ADMINI~1\AppData\Local\Temp\ccpcHGeL.s 			page 67


 3204              	.L165:
 536:g:/iot/IoT_Device_Demo/iot_link/network/lwm2m/wakaama_lwm2m/wakaama-master/core\objects.c ****         }
 537:g:/iot/IoT_Device_Demo/iot_link/network/lwm2m/wakaama_lwm2m/wakaama-master/core\objects.c **** 
 538:g:/iot/IoT_Device_Demo/iot_link/network/lwm2m/wakaama_lwm2m/wakaama-master/core\objects.c ****         result = targetP->discoverFunc(uriP->instanceId, &size, &dataP, targetP);
 3205              		.loc 1 538 25
 3206 01ac 3B6A     		ldr	r3, [r7, #32]
 3207 01ae 5C6A     		ldr	r4, [r3, #36]
 3208              		.loc 1 538 18
 3209 01b0 BB68     		ldr	r3, [r7, #8]
 3210 01b2 9888     		ldrh	r0, [r3, #4]
 3211 01b4 07F11802 		add	r2, r7, #24
 3212 01b8 07F11401 		add	r1, r7, #20
 3213 01bc 3B6A     		ldr	r3, [r7, #32]
 3214 01be A047     		blx	r4
 3215              	.LVL10:
 3216 01c0 0346     		mov	r3, r0
 3217 01c2 87F82F30 		strb	r3, [r7, #47]
 3218 01c6 54E0     		b	.L167
 3219              	.L163:
 3220              	.LBB4:
 539:g:/iot/IoT_Device_Demo/iot_link/network/lwm2m/wakaama_lwm2m/wakaama-master/core\objects.c ****     }
 540:g:/iot/IoT_Device_Demo/iot_link/network/lwm2m/wakaama_lwm2m/wakaama-master/core\objects.c ****     else
 541:g:/iot/IoT_Device_Demo/iot_link/network/lwm2m/wakaama_lwm2m/wakaama-master/core\objects.c ****     {
 542:g:/iot/IoT_Device_Demo/iot_link/network/lwm2m/wakaama_lwm2m/wakaama-master/core\objects.c ****         // multiple object instances read
 543:g:/iot/IoT_Device_Demo/iot_link/network/lwm2m/wakaama_lwm2m/wakaama-master/core\objects.c ****         lwm2m_list_t *instanceP;
 544:g:/iot/IoT_Device_Demo/iot_link/network/lwm2m/wakaama_lwm2m/wakaama-master/core\objects.c ****         int i;
 545:g:/iot/IoT_Device_Demo/iot_link/network/lwm2m/wakaama_lwm2m/wakaama-master/core\objects.c **** 
 546:g:/iot/IoT_Device_Demo/iot_link/network/lwm2m/wakaama_lwm2m/wakaama-master/core\objects.c ****         result = COAP_205_CONTENT;
 3221              		.loc 1 546 16
 3222 01c8 4523     		movs	r3, #69
 3223 01ca 87F82F30 		strb	r3, [r7, #47]
 547:g:/iot/IoT_Device_Demo/iot_link/network/lwm2m/wakaama_lwm2m/wakaama-master/core\objects.c **** 
 548:g:/iot/IoT_Device_Demo/iot_link/network/lwm2m/wakaama_lwm2m/wakaama-master/core\objects.c ****         size = 0;
 3224              		.loc 1 548 14
 3225 01ce 0023     		movs	r3, #0
 3226 01d0 7B61     		str	r3, [r7, #20]
 549:g:/iot/IoT_Device_Demo/iot_link/network/lwm2m/wakaama_lwm2m/wakaama-master/core\objects.c ****         for (instanceP = targetP->instanceList; instanceP != NULL ; instanceP = instanceP->next)
 3227              		.loc 1 549 24
 3228 01d2 3B6A     		ldr	r3, [r7, #32]
 3229 01d4 9B68     		ldr	r3, [r3, #8]
 3230 01d6 BB62     		str	r3, [r7, #40]
 3231              		.loc 1 549 9
 3232 01d8 05E0     		b	.L168
 3233              	.L169:
 550:g:/iot/IoT_Device_Demo/iot_link/network/lwm2m/wakaama_lwm2m/wakaama-master/core\objects.c ****         {
 551:g:/iot/IoT_Device_Demo/iot_link/network/lwm2m/wakaama_lwm2m/wakaama-master/core\objects.c ****             size++;
 3234              		.loc 1 551 17 discriminator 3
 3235 01da 7B69     		ldr	r3, [r7, #20]
 3236 01dc 0133     		adds	r3, r3, #1
 3237 01de 7B61     		str	r3, [r7, #20]
 549:g:/iot/IoT_Device_Demo/iot_link/network/lwm2m/wakaama_lwm2m/wakaama-master/core\objects.c ****         for (instanceP = targetP->instanceList; instanceP != NULL ; instanceP = instanceP->next)
 3238              		.loc 1 549 79 discriminator 3
 3239 01e0 BB6A     		ldr	r3, [r7, #40]
 3240 01e2 1B68     		ldr	r3, [r3]
 3241 01e4 BB62     		str	r3, [r7, #40]
 3242              	.L168:
 549:g:/iot/IoT_Device_Demo/iot_link/network/lwm2m/wakaama_lwm2m/wakaama-master/core\objects.c ****         for (instanceP = targetP->instanceList; instanceP != NULL ; instanceP = instanceP->next)
ARM GAS  C:\Users\ADMINI~1\AppData\Local\Temp\ccpcHGeL.s 			page 68


 3243              		.loc 1 549 9 discriminator 1
 3244 01e6 BB6A     		ldr	r3, [r7, #40]
 3245 01e8 002B     		cmp	r3, #0
 3246 01ea F6D1     		bne	.L169
 552:g:/iot/IoT_Device_Demo/iot_link/network/lwm2m/wakaama_lwm2m/wakaama-master/core\objects.c ****         }
 553:g:/iot/IoT_Device_Demo/iot_link/network/lwm2m/wakaama_lwm2m/wakaama-master/core\objects.c **** 
 554:g:/iot/IoT_Device_Demo/iot_link/network/lwm2m/wakaama_lwm2m/wakaama-master/core\objects.c ****         if (size != 0)
 3247              		.loc 1 554 18
 3248 01ec 7B69     		ldr	r3, [r7, #20]
 3249              		.loc 1 554 12
 3250 01ee 002B     		cmp	r3, #0
 3251 01f0 3FD0     		beq	.L167
 555:g:/iot/IoT_Device_Demo/iot_link/network/lwm2m/wakaama_lwm2m/wakaama-master/core\objects.c ****         {
 556:g:/iot/IoT_Device_Demo/iot_link/network/lwm2m/wakaama_lwm2m/wakaama-master/core\objects.c ****             dataP = lwm2m_data_new(size);
 3252              		.loc 1 556 21
 3253 01f2 7B69     		ldr	r3, [r7, #20]
 3254 01f4 1846     		mov	r0, r3
 3255 01f6 FFF7FEFF 		bl	lwm2m_data_new
 3256 01fa 0346     		mov	r3, r0
 3257              		.loc 1 556 19
 3258 01fc BB61     		str	r3, [r7, #24]
 557:g:/iot/IoT_Device_Demo/iot_link/network/lwm2m/wakaama_lwm2m/wakaama-master/core\objects.c ****             if (dataP == NULL) return COAP_500_INTERNAL_SERVER_ERROR;
 3259              		.loc 1 557 23
 3260 01fe BB69     		ldr	r3, [r7, #24]
 3261              		.loc 1 557 16
 3262 0200 002B     		cmp	r3, #0
 3263 0202 01D1     		bne	.L170
 3264              		.loc 1 557 39 discriminator 1
 3265 0204 A023     		movs	r3, #160
 3266 0206 8EE0     		b	.L176
 3267              	.L170:
 558:g:/iot/IoT_Device_Demo/iot_link/network/lwm2m/wakaama_lwm2m/wakaama-master/core\objects.c **** 
 559:g:/iot/IoT_Device_Demo/iot_link/network/lwm2m/wakaama_lwm2m/wakaama-master/core\objects.c ****             instanceP = targetP->instanceList;
 3268              		.loc 1 559 23
 3269 0208 3B6A     		ldr	r3, [r7, #32]
 3270 020a 9B68     		ldr	r3, [r3, #8]
 3271 020c BB62     		str	r3, [r7, #40]
 560:g:/iot/IoT_Device_Demo/iot_link/network/lwm2m/wakaama_lwm2m/wakaama-master/core\objects.c ****             i = 0;
 3272              		.loc 1 560 15
 3273 020e 0023     		movs	r3, #0
 3274 0210 7B62     		str	r3, [r7, #36]
 561:g:/iot/IoT_Device_Demo/iot_link/network/lwm2m/wakaama_lwm2m/wakaama-master/core\objects.c ****             while (instanceP != NULL && result == COAP_205_CONTENT)
 3275              		.loc 1 561 19
 3276 0212 27E0     		b	.L171
 3277              	.L172:
 562:g:/iot/IoT_Device_Demo/iot_link/network/lwm2m/wakaama_lwm2m/wakaama-master/core\objects.c ****             {
 563:g:/iot/IoT_Device_Demo/iot_link/network/lwm2m/wakaama_lwm2m/wakaama-master/core\objects.c ****                 result = targetP->discoverFunc(instanceP->id, (int *) & (dataP[i].value.asChildren.
 3278              		.loc 1 563 33
 3279 0214 3B6A     		ldr	r3, [r7, #32]
 3280 0216 5C6A     		ldr	r4, [r3, #36]
 3281              		.loc 1 563 26
 3282 0218 BB6A     		ldr	r3, [r7, #40]
 3283 021a 9888     		ldrh	r0, [r3, #4]
 3284              		.loc 1 563 79
 3285 021c BA69     		ldr	r2, [r7, #24]
 3286 021e 7B6A     		ldr	r3, [r7, #36]
 3287 0220 1B01     		lsls	r3, r3, #4
ARM GAS  C:\Users\ADMINI~1\AppData\Local\Temp\ccpcHGeL.s 			page 69


 3288 0222 1344     		add	r3, r3, r2
 3289              		.loc 1 563 71
 3290 0224 03F10801 		add	r1, r3, #8
 3291              		.loc 1 563 115
 3292 0228 BA69     		ldr	r2, [r7, #24]
 3293 022a 7B6A     		ldr	r3, [r7, #36]
 3294 022c 1B01     		lsls	r3, r3, #4
 3295 022e 1344     		add	r3, r3, r2
 3296              		.loc 1 563 26
 3297 0230 03F10C02 		add	r2, r3, #12
 3298 0234 3B6A     		ldr	r3, [r7, #32]
 3299 0236 A047     		blx	r4
 3300              	.LVL11:
 3301 0238 0346     		mov	r3, r0
 3302 023a 87F82F30 		strb	r3, [r7, #47]
 564:g:/iot/IoT_Device_Demo/iot_link/network/lwm2m/wakaama_lwm2m/wakaama-master/core\objects.c ****                 dataP[i].type = LWM2M_TYPE_OBJECT_INSTANCE;
 3303              		.loc 1 564 22
 3304 023e BA69     		ldr	r2, [r7, #24]
 3305 0240 7B6A     		ldr	r3, [r7, #36]
 3306 0242 1B01     		lsls	r3, r3, #4
 3307 0244 1344     		add	r3, r3, r2
 3308              		.loc 1 564 31
 3309 0246 0222     		movs	r2, #2
 3310 0248 1A70     		strb	r2, [r3]
 565:g:/iot/IoT_Device_Demo/iot_link/network/lwm2m/wakaama_lwm2m/wakaama-master/core\objects.c ****                 dataP[i].id = instanceP->id;
 3311              		.loc 1 565 22
 3312 024a BA69     		ldr	r2, [r7, #24]
 3313 024c 7B6A     		ldr	r3, [r7, #36]
 3314 024e 1B01     		lsls	r3, r3, #4
 3315 0250 1344     		add	r3, r3, r2
 3316              		.loc 1 565 40
 3317 0252 BA6A     		ldr	r2, [r7, #40]
 3318 0254 9288     		ldrh	r2, [r2, #4]
 3319              		.loc 1 565 29
 3320 0256 5A80     		strh	r2, [r3, #2]	@ movhi
 566:g:/iot/IoT_Device_Demo/iot_link/network/lwm2m/wakaama_lwm2m/wakaama-master/core\objects.c ****                 i++;
 3321              		.loc 1 566 18
 3322 0258 7B6A     		ldr	r3, [r7, #36]
 3323 025a 0133     		adds	r3, r3, #1
 3324 025c 7B62     		str	r3, [r7, #36]
 567:g:/iot/IoT_Device_Demo/iot_link/network/lwm2m/wakaama_lwm2m/wakaama-master/core\objects.c ****                 instanceP = instanceP->next;
 3325              		.loc 1 567 27
 3326 025e BB6A     		ldr	r3, [r7, #40]
 3327 0260 1B68     		ldr	r3, [r3]
 3328 0262 BB62     		str	r3, [r7, #40]
 3329              	.L171:
 561:g:/iot/IoT_Device_Demo/iot_link/network/lwm2m/wakaama_lwm2m/wakaama-master/core\objects.c ****             {
 3330              		.loc 1 561 19
 3331 0264 BB6A     		ldr	r3, [r7, #40]
 3332 0266 002B     		cmp	r3, #0
 3333 0268 03D0     		beq	.L167
 561:g:/iot/IoT_Device_Demo/iot_link/network/lwm2m/wakaama_lwm2m/wakaama-master/core\objects.c ****             {
 3334              		.loc 1 561 38 discriminator 1
 3335 026a 97F82F30 		ldrb	r3, [r7, #47]	@ zero_extendqisi2
 3336 026e 452B     		cmp	r3, #69
 3337 0270 D0D0     		beq	.L172
 3338              	.L167:
ARM GAS  C:\Users\ADMINI~1\AppData\Local\Temp\ccpcHGeL.s 			page 70


 3339              	.LBE4:
 568:g:/iot/IoT_Device_Demo/iot_link/network/lwm2m/wakaama_lwm2m/wakaama-master/core\objects.c ****             }
 569:g:/iot/IoT_Device_Demo/iot_link/network/lwm2m/wakaama_lwm2m/wakaama-master/core\objects.c ****         }
 570:g:/iot/IoT_Device_Demo/iot_link/network/lwm2m/wakaama_lwm2m/wakaama-master/core\objects.c ****     }
 571:g:/iot/IoT_Device_Demo/iot_link/network/lwm2m/wakaama_lwm2m/wakaama-master/core\objects.c **** 
 572:g:/iot/IoT_Device_Demo/iot_link/network/lwm2m/wakaama_lwm2m/wakaama-master/core\objects.c ****     if (result == COAP_205_CONTENT)
 3340              		.loc 1 572 8
 3341 0272 97F82F30 		ldrb	r3, [r7, #47]	@ zero_extendqisi2
 3342 0276 452B     		cmp	r3, #69
 3343 0278 21D1     		bne	.L173
 3344              	.LBB5:
 573:g:/iot/IoT_Device_Demo/iot_link/network/lwm2m/wakaama_lwm2m/wakaama-master/core\objects.c ****     {
 574:g:/iot/IoT_Device_Demo/iot_link/network/lwm2m/wakaama_lwm2m/wakaama-master/core\objects.c ****         int len;
 575:g:/iot/IoT_Device_Demo/iot_link/network/lwm2m/wakaama_lwm2m/wakaama-master/core\objects.c **** 
 576:g:/iot/IoT_Device_Demo/iot_link/network/lwm2m/wakaama_lwm2m/wakaama-master/core\objects.c ****         len = discover_serialize(contextP, uriP, serverP, size, dataP, bufferP);
 3345              		.loc 1 576 15
 3346 027a 7969     		ldr	r1, [r7, #20]
 3347 027c BB69     		ldr	r3, [r7, #24]
 3348 027e 3A68     		ldr	r2, [r7]
 3349 0280 0192     		str	r2, [sp, #4]
 3350 0282 0093     		str	r3, [sp]
 3351 0284 0B46     		mov	r3, r1
 3352 0286 7A68     		ldr	r2, [r7, #4]
 3353 0288 B968     		ldr	r1, [r7, #8]
 3354 028a F868     		ldr	r0, [r7, #12]
 3355 028c FFF7FEFF 		bl	discover_serialize
 3356 0290 F861     		str	r0, [r7, #28]
 577:g:/iot/IoT_Device_Demo/iot_link/network/lwm2m/wakaama_lwm2m/wakaama-master/core\objects.c ****         if (len <= 0) result = COAP_500_INTERNAL_SERVER_ERROR;
 3357              		.loc 1 577 12
 3358 0292 FB69     		ldr	r3, [r7, #28]
 3359 0294 002B     		cmp	r3, #0
 3360 0296 0FDC     		bgt	.L174
 3361              		.loc 1 577 30 discriminator 1
 3362 0298 A023     		movs	r3, #160
 3363 029a 87F82F30 		strb	r3, [r7, #47]
 3364 029e 0EE0     		b	.L173
 3365              	.L178:
 3366              		.align	2
 3367              	.L177:
 3368 02a0 00000000 		.word	__func__.9228
 3369 02a4 00000000 		.word	__FUNCTION__.9227
 3370 02a8 00000000 		.word	.LC0
 3371 02ac 24000000 		.word	.LC1
 3372 02b0 44000000 		.word	.LC2
 3373 02b4 5C000000 		.word	.LC3
 3374              	.L174:
 578:g:/iot/IoT_Device_Demo/iot_link/network/lwm2m/wakaama_lwm2m/wakaama-master/core\objects.c ****         else *lengthP = len;
 3375              		.loc 1 578 23
 3376 02b8 FA69     		ldr	r2, [r7, #28]
 3377 02ba 3B6C     		ldr	r3, [r7, #64]
 3378 02bc 1A60     		str	r2, [r3]
 3379              	.L173:
 3380              	.LBE5:
 579:g:/iot/IoT_Device_Demo/iot_link/network/lwm2m/wakaama_lwm2m/wakaama-master/core\objects.c ****     }
 580:g:/iot/IoT_Device_Demo/iot_link/network/lwm2m/wakaama_lwm2m/wakaama-master/core\objects.c ****     lwm2m_data_free(size, dataP);
 3381              		.loc 1 580 5
 3382 02be 7B69     		ldr	r3, [r7, #20]
ARM GAS  C:\Users\ADMINI~1\AppData\Local\Temp\ccpcHGeL.s 			page 71


 3383 02c0 BA69     		ldr	r2, [r7, #24]
 3384 02c2 1146     		mov	r1, r2
 3385 02c4 1846     		mov	r0, r3
 3386 02c6 FFF7FEFF 		bl	lwm2m_data_free
 581:g:/iot/IoT_Device_Demo/iot_link/network/lwm2m/wakaama_lwm2m/wakaama-master/core\objects.c **** 
 582:g:/iot/IoT_Device_Demo/iot_link/network/lwm2m/wakaama_lwm2m/wakaama-master/core\objects.c ****     LOG_ARG("result: %u.%2u", (result & 0xFF) >> 5, (result & 0x1F));
 3387              		.loc 1 582 5
 3388 02ca FFF7FEFF 		bl	link_log_level_get
 3389 02ce 0346     		mov	r3, r0
 3390 02d0 012B     		cmp	r3, #1
 3391 02d2 26D8     		bhi	.L175
 3392              		.loc 1 582 5 is_stmt 0 discriminator 1
 3393 02d4 0120     		movs	r0, #1
 3394 02d6 FFF7FEFF 		bl	link_log_level_name
 3395 02da 0446     		mov	r4, r0
 3396 02dc FFF7FEFF 		bl	osal_sys_time
 3397 02e0 0246     		mov	r2, r0
 3398 02e2 0B46     		mov	r3, r1
 3399 02e4 1546     		mov	r5, r2
 3400 02e6 FFF7FEFF 		bl	lwm2m_gettime
 3401 02ea 0246     		mov	r2, r0
 3402 02ec 0B46     		mov	r3, r1
 3403 02ee 97F82F30 		ldrb	r3, [r7, #47]	@ zero_extendqisi2
 3404 02f2 5B09     		lsrs	r3, r3, #5
 3405 02f4 DBB2     		uxtb	r3, r3
 3406 02f6 1946     		mov	r1, r3
 3407 02f8 97F82F30 		ldrb	r3, [r7, #47]	@ zero_extendqisi2
 3408 02fc 03F01F03 		and	r3, r3, #31
 3409 0300 0593     		str	r3, [sp, #20]
 3410 0302 0491     		str	r1, [sp, #16]
 3411 0304 40F24623 		movw	r3, #582
 3412 0308 0393     		str	r3, [sp, #12]
 3413 030a 094B     		ldr	r3, .L179
 3414 030c 0293     		str	r3, [sp, #8]
 3415 030e 0192     		str	r2, [sp, #4]
 3416 0310 40F24623 		movw	r3, #582
 3417 0314 0093     		str	r3, [sp]
 3418 0316 074B     		ldr	r3, .L179+4
 3419 0318 2A46     		mov	r2, r5
 3420 031a 2146     		mov	r1, r4
 3421 031c 0648     		ldr	r0, .L179+8
 3422 031e FFF7FEFF 		bl	printf
 3423              	.L175:
 583:g:/iot/IoT_Device_Demo/iot_link/network/lwm2m/wakaama_lwm2m/wakaama-master/core\objects.c **** 
 584:g:/iot/IoT_Device_Demo/iot_link/network/lwm2m/wakaama_lwm2m/wakaama-master/core\objects.c ****     return result;
 3424              		.loc 1 584 12 is_stmt 1
 3425 0322 97F82F30 		ldrb	r3, [r7, #47]	@ zero_extendqisi2
 3426              	.L176:
 585:g:/iot/IoT_Device_Demo/iot_link/network/lwm2m/wakaama_lwm2m/wakaama-master/core\objects.c **** }
 3427              		.loc 1 585 1 discriminator 1
 3428 0326 1846     		mov	r0, r3
 3429 0328 3037     		adds	r7, r7, #48
 3430              	.LCFI48:
 3431              		.cfi_def_cfa_offset 16
 3432 032a BD46     		mov	sp, r7
 3433              	.LCFI49:
 3434              		.cfi_def_cfa_register 13
ARM GAS  C:\Users\ADMINI~1\AppData\Local\Temp\ccpcHGeL.s 			page 72


 3435              		@ sp needed
 3436 032c B0BD     		pop	{r4, r5, r7, pc}
 3437              	.L180:
 3438 032e 00BF     		.align	2
 3439              	.L179:
 3440 0330 00000000 		.word	__func__.9228
 3441 0334 00000000 		.word	__FUNCTION__.9227
 3442 0338 EC000000 		.word	.LC6
 3443              		.cfi_endproc
 3444              	.LFE21:
 3446              		.section	.text.object_isInstanceNew,"ax",%progbits
 3447              		.align	1
 3448              		.global	object_isInstanceNew
 3449              		.syntax unified
 3450              		.thumb
 3451              		.thumb_func
 3452              		.fpu fpv4-sp-d16
 3454              	object_isInstanceNew:
 3455              	.LFB22:
 586:g:/iot/IoT_Device_Demo/iot_link/network/lwm2m/wakaama_lwm2m/wakaama-master/core\objects.c **** 
 587:g:/iot/IoT_Device_Demo/iot_link/network/lwm2m/wakaama_lwm2m/wakaama-master/core\objects.c **** bool object_isInstanceNew(lwm2m_context_t *contextP,
 588:g:/iot/IoT_Device_Demo/iot_link/network/lwm2m/wakaama_lwm2m/wakaama-master/core\objects.c ****                           uint16_t objectId,
 589:g:/iot/IoT_Device_Demo/iot_link/network/lwm2m/wakaama_lwm2m/wakaama-master/core\objects.c ****                           uint16_t instanceId)
 590:g:/iot/IoT_Device_Demo/iot_link/network/lwm2m/wakaama_lwm2m/wakaama-master/core\objects.c **** {
 3456              		.loc 1 590 1
 3457              		.cfi_startproc
 3458              		@ args = 0, pretend = 0, frame = 16
 3459              		@ frame_needed = 1, uses_anonymous_args = 0
 3460 0000 B0B5     		push	{r4, r5, r7, lr}
 3461              	.LCFI50:
 3462              		.cfi_def_cfa_offset 16
 3463              		.cfi_offset 4, -16
 3464              		.cfi_offset 5, -12
 3465              		.cfi_offset 7, -8
 3466              		.cfi_offset 14, -4
 3467 0002 88B0     		sub	sp, sp, #32
 3468              	.LCFI51:
 3469              		.cfi_def_cfa_offset 48
 3470 0004 04AF     		add	r7, sp, #16
 3471              	.LCFI52:
 3472              		.cfi_def_cfa 7, 32
 3473 0006 7860     		str	r0, [r7, #4]
 3474 0008 0B46     		mov	r3, r1
 3475 000a 7B80     		strh	r3, [r7, #2]	@ movhi
 3476 000c 1346     		mov	r3, r2	@ movhi
 3477 000e 3B80     		strh	r3, [r7]	@ movhi
 591:g:/iot/IoT_Device_Demo/iot_link/network/lwm2m/wakaama_lwm2m/wakaama-master/core\objects.c ****     lwm2m_object_t *targetP;
 592:g:/iot/IoT_Device_Demo/iot_link/network/lwm2m/wakaama_lwm2m/wakaama-master/core\objects.c **** 
 593:g:/iot/IoT_Device_Demo/iot_link/network/lwm2m/wakaama_lwm2m/wakaama-master/core\objects.c ****     LOG("Entering");
 3478              		.loc 1 593 5
 3479 0010 FFF7FEFF 		bl	link_log_level_get
 3480 0014 0346     		mov	r3, r0
 3481 0016 012B     		cmp	r3, #1
 3482 0018 1BD8     		bhi	.L182
 3483              		.loc 1 593 5 is_stmt 0 discriminator 1
 3484 001a 0120     		movs	r0, #1
 3485 001c FFF7FEFF 		bl	link_log_level_name
ARM GAS  C:\Users\ADMINI~1\AppData\Local\Temp\ccpcHGeL.s 			page 73


 3486 0020 0446     		mov	r4, r0
 3487 0022 FFF7FEFF 		bl	osal_sys_time
 3488 0026 0246     		mov	r2, r0
 3489 0028 0B46     		mov	r3, r1
 3490 002a 1546     		mov	r5, r2
 3491 002c FFF7FEFF 		bl	lwm2m_gettime
 3492 0030 0246     		mov	r2, r0
 3493 0032 0B46     		mov	r3, r1
 3494 0034 40F25123 		movw	r3, #593
 3495 0038 0393     		str	r3, [sp, #12]
 3496 003a 144B     		ldr	r3, .L185
 3497 003c 0293     		str	r3, [sp, #8]
 3498 003e 0192     		str	r2, [sp, #4]
 3499 0040 40F25123 		movw	r3, #593
 3500 0044 0093     		str	r3, [sp]
 3501 0046 124B     		ldr	r3, .L185+4
 3502 0048 2A46     		mov	r2, r5
 3503 004a 2146     		mov	r1, r4
 3504 004c 1148     		ldr	r0, .L185+8
 3505 004e FFF7FEFF 		bl	printf
 3506              	.L182:
 594:g:/iot/IoT_Device_Demo/iot_link/network/lwm2m/wakaama_lwm2m/wakaama-master/core\objects.c ****     targetP = (lwm2m_object_t *)LWM2M_LIST_FIND(contextP->objectList, objectId);
 3507              		.loc 1 594 33 is_stmt 1
 3508 0052 7B68     		ldr	r3, [r7, #4]
 3509 0054 9B69     		ldr	r3, [r3, #24]
 3510 0056 7A88     		ldrh	r2, [r7, #2]
 3511 0058 1146     		mov	r1, r2
 3512 005a 1846     		mov	r0, r3
 3513 005c FFF7FEFF 		bl	lwm2m_list_find
 3514 0060 F860     		str	r0, [r7, #12]
 595:g:/iot/IoT_Device_Demo/iot_link/network/lwm2m/wakaama_lwm2m/wakaama-master/core\objects.c ****     if (targetP != NULL)
 3515              		.loc 1 595 8
 3516 0062 FB68     		ldr	r3, [r7, #12]
 3517 0064 002B     		cmp	r3, #0
 3518 0066 0BD0     		beq	.L183
 596:g:/iot/IoT_Device_Demo/iot_link/network/lwm2m/wakaama_lwm2m/wakaama-master/core\objects.c ****     {
 597:g:/iot/IoT_Device_Demo/iot_link/network/lwm2m/wakaama_lwm2m/wakaama-master/core\objects.c ****         if (NULL != lwm2m_list_find(targetP->instanceList, instanceId))
 3519              		.loc 1 597 21
 3520 0068 FB68     		ldr	r3, [r7, #12]
 3521 006a 9B68     		ldr	r3, [r3, #8]
 3522 006c 3A88     		ldrh	r2, [r7]
 3523 006e 1146     		mov	r1, r2
 3524 0070 1846     		mov	r0, r3
 3525 0072 FFF7FEFF 		bl	lwm2m_list_find
 3526 0076 0346     		mov	r3, r0
 3527              		.loc 1 597 12
 3528 0078 002B     		cmp	r3, #0
 3529 007a 01D0     		beq	.L183
 598:g:/iot/IoT_Device_Demo/iot_link/network/lwm2m/wakaama_lwm2m/wakaama-master/core\objects.c ****         {
 599:g:/iot/IoT_Device_Demo/iot_link/network/lwm2m/wakaama_lwm2m/wakaama-master/core\objects.c ****             return false;
 3530              		.loc 1 599 20
 3531 007c 0023     		movs	r3, #0
 3532 007e 00E0     		b	.L184
 3533              	.L183:
 600:g:/iot/IoT_Device_Demo/iot_link/network/lwm2m/wakaama_lwm2m/wakaama-master/core\objects.c ****         }
 601:g:/iot/IoT_Device_Demo/iot_link/network/lwm2m/wakaama_lwm2m/wakaama-master/core\objects.c ****     }
 602:g:/iot/IoT_Device_Demo/iot_link/network/lwm2m/wakaama_lwm2m/wakaama-master/core\objects.c **** 
ARM GAS  C:\Users\ADMINI~1\AppData\Local\Temp\ccpcHGeL.s 			page 74


 603:g:/iot/IoT_Device_Demo/iot_link/network/lwm2m/wakaama_lwm2m/wakaama-master/core\objects.c ****     return true;
 3534              		.loc 1 603 12
 3535 0080 0123     		movs	r3, #1
 3536              	.L184:
 604:g:/iot/IoT_Device_Demo/iot_link/network/lwm2m/wakaama_lwm2m/wakaama-master/core\objects.c **** }
 3537              		.loc 1 604 1
 3538 0082 1846     		mov	r0, r3
 3539 0084 1037     		adds	r7, r7, #16
 3540              	.LCFI53:
 3541              		.cfi_def_cfa_offset 16
 3542 0086 BD46     		mov	sp, r7
 3543              	.LCFI54:
 3544              		.cfi_def_cfa_register 13
 3545              		@ sp needed
 3546 0088 B0BD     		pop	{r4, r5, r7, pc}
 3547              	.L186:
 3548 008a 00BF     		.align	2
 3549              	.L185:
 3550 008c 00000000 		.word	__func__.9245
 3551 0090 00000000 		.word	__FUNCTION__.9244
 3552 0094 1C010000 		.word	.LC7
 3553              		.cfi_endproc
 3554              	.LFE22:
 3556              		.section	.text.prv_getObjectTemplate,"ax",%progbits
 3557              		.align	1
 3558              		.syntax unified
 3559              		.thumb
 3560              		.thumb_func
 3561              		.fpu fpv4-sp-d16
 3563              	prv_getObjectTemplate:
 3564              	.LFB23:
 605:g:/iot/IoT_Device_Demo/iot_link/network/lwm2m/wakaama_lwm2m/wakaama-master/core\objects.c **** 
 606:g:/iot/IoT_Device_Demo/iot_link/network/lwm2m/wakaama_lwm2m/wakaama-master/core\objects.c **** static int prv_getObjectTemplate(uint8_t *buffer,
 607:g:/iot/IoT_Device_Demo/iot_link/network/lwm2m/wakaama_lwm2m/wakaama-master/core\objects.c ****                                  size_t length,
 608:g:/iot/IoT_Device_Demo/iot_link/network/lwm2m/wakaama_lwm2m/wakaama-master/core\objects.c ****                                  uint16_t id)
 609:g:/iot/IoT_Device_Demo/iot_link/network/lwm2m/wakaama_lwm2m/wakaama-master/core\objects.c **** {
 3565              		.loc 1 609 1
 3566              		.cfi_startproc
 3567              		@ args = 0, pretend = 0, frame = 24
 3568              		@ frame_needed = 1, uses_anonymous_args = 0
 3569 0000 90B5     		push	{r4, r7, lr}
 3570              	.LCFI55:
 3571              		.cfi_def_cfa_offset 12
 3572              		.cfi_offset 4, -12
 3573              		.cfi_offset 7, -8
 3574              		.cfi_offset 14, -4
 3575 0002 87B0     		sub	sp, sp, #28
 3576              	.LCFI56:
 3577              		.cfi_def_cfa_offset 40
 3578 0004 00AF     		add	r7, sp, #0
 3579              	.LCFI57:
 3580              		.cfi_def_cfa_register 7
 3581 0006 F860     		str	r0, [r7, #12]
 3582 0008 B960     		str	r1, [r7, #8]
 3583 000a 1346     		mov	r3, r2
 3584 000c FB80     		strh	r3, [r7, #6]	@ movhi
 610:g:/iot/IoT_Device_Demo/iot_link/network/lwm2m/wakaama_lwm2m/wakaama-master/core\objects.c ****     int index;
ARM GAS  C:\Users\ADMINI~1\AppData\Local\Temp\ccpcHGeL.s 			page 75


 611:g:/iot/IoT_Device_Demo/iot_link/network/lwm2m/wakaama_lwm2m/wakaama-master/core\objects.c ****     int result;
 612:g:/iot/IoT_Device_Demo/iot_link/network/lwm2m/wakaama_lwm2m/wakaama-master/core\objects.c **** 
 613:g:/iot/IoT_Device_Demo/iot_link/network/lwm2m/wakaama_lwm2m/wakaama-master/core\objects.c ****     if (length < REG_OBJECT_MIN_LEN) return -1;
 3585              		.loc 1 613 8
 3586 000e BB68     		ldr	r3, [r7, #8]
 3587 0010 042B     		cmp	r3, #4
 3588 0012 02D8     		bhi	.L188
 3589              		.loc 1 613 45 discriminator 1
 3590 0014 4FF0FF33 		mov	r3, #-1
 3591 0018 31E0     		b	.L189
 3592              	.L188:
 614:g:/iot/IoT_Device_Demo/iot_link/network/lwm2m/wakaama_lwm2m/wakaama-master/core\objects.c **** 
 615:g:/iot/IoT_Device_Demo/iot_link/network/lwm2m/wakaama_lwm2m/wakaama-master/core\objects.c ****     buffer[0] = '<';
 3593              		.loc 1 615 15
 3594 001a FB68     		ldr	r3, [r7, #12]
 3595 001c 3C22     		movs	r2, #60
 3596 001e 1A70     		strb	r2, [r3]
 616:g:/iot/IoT_Device_Demo/iot_link/network/lwm2m/wakaama_lwm2m/wakaama-master/core\objects.c ****     buffer[1] = '/';
 3597              		.loc 1 616 11
 3598 0020 FB68     		ldr	r3, [r7, #12]
 3599 0022 0133     		adds	r3, r3, #1
 3600              		.loc 1 616 15
 3601 0024 2F22     		movs	r2, #47
 3602 0026 1A70     		strb	r2, [r3]
 617:g:/iot/IoT_Device_Demo/iot_link/network/lwm2m/wakaama_lwm2m/wakaama-master/core\objects.c ****     index = 2;
 3603              		.loc 1 617 11
 3604 0028 0223     		movs	r3, #2
 3605 002a 7B61     		str	r3, [r7, #20]
 618:g:/iot/IoT_Device_Demo/iot_link/network/lwm2m/wakaama_lwm2m/wakaama-master/core\objects.c **** 
 619:g:/iot/IoT_Device_Demo/iot_link/network/lwm2m/wakaama_lwm2m/wakaama-master/core\objects.c ****     result = utils_intToText(id, buffer + index, length - index);
 3606              		.loc 1 619 14
 3607 002c F888     		ldrh	r0, [r7, #6]
 3608 002e 4FF00001 		mov	r1, #0
 3609 0032 7B69     		ldr	r3, [r7, #20]
 3610 0034 FA68     		ldr	r2, [r7, #12]
 3611 0036 D418     		adds	r4, r2, r3
 3612 0038 7B69     		ldr	r3, [r7, #20]
 3613 003a BA68     		ldr	r2, [r7, #8]
 3614 003c D31A     		subs	r3, r2, r3
 3615 003e 2246     		mov	r2, r4
 3616 0040 FFF7FEFF 		bl	utils_intToText
 3617 0044 0346     		mov	r3, r0
 3618              		.loc 1 619 12
 3619 0046 3B61     		str	r3, [r7, #16]
 620:g:/iot/IoT_Device_Demo/iot_link/network/lwm2m/wakaama_lwm2m/wakaama-master/core\objects.c ****     if (result == 0) return -1;
 3620              		.loc 1 620 8
 3621 0048 3B69     		ldr	r3, [r7, #16]
 3622 004a 002B     		cmp	r3, #0
 3623 004c 02D1     		bne	.L190
 3624              		.loc 1 620 29 discriminator 1
 3625 004e 4FF0FF33 		mov	r3, #-1
 3626 0052 14E0     		b	.L189
 3627              	.L190:
 621:g:/iot/IoT_Device_Demo/iot_link/network/lwm2m/wakaama_lwm2m/wakaama-master/core\objects.c ****     index += result;
 3628              		.loc 1 621 11
 3629 0054 7A69     		ldr	r2, [r7, #20]
 3630 0056 3B69     		ldr	r3, [r7, #16]
ARM GAS  C:\Users\ADMINI~1\AppData\Local\Temp\ccpcHGeL.s 			page 76


 3631 0058 1344     		add	r3, r3, r2
 3632 005a 7B61     		str	r3, [r7, #20]
 622:g:/iot/IoT_Device_Demo/iot_link/network/lwm2m/wakaama_lwm2m/wakaama-master/core\objects.c **** 
 623:g:/iot/IoT_Device_Demo/iot_link/network/lwm2m/wakaama_lwm2m/wakaama-master/core\objects.c ****     if (length - index < REG_OBJECT_MIN_LEN - 3) return -1;
 3633              		.loc 1 623 16
 3634 005c 7B69     		ldr	r3, [r7, #20]
 3635 005e BA68     		ldr	r2, [r7, #8]
 3636 0060 D31A     		subs	r3, r2, r3
 3637              		.loc 1 623 8
 3638 0062 012B     		cmp	r3, #1
 3639 0064 02D8     		bhi	.L191
 3640              		.loc 1 623 57 discriminator 1
 3641 0066 4FF0FF33 		mov	r3, #-1
 3642 006a 08E0     		b	.L189
 3643              	.L191:
 624:g:/iot/IoT_Device_Demo/iot_link/network/lwm2m/wakaama_lwm2m/wakaama-master/core\objects.c ****     buffer[index] = '/';
 3644              		.loc 1 624 11
 3645 006c 7B69     		ldr	r3, [r7, #20]
 3646 006e FA68     		ldr	r2, [r7, #12]
 3647 0070 1344     		add	r3, r3, r2
 3648              		.loc 1 624 19
 3649 0072 2F22     		movs	r2, #47
 3650 0074 1A70     		strb	r2, [r3]
 625:g:/iot/IoT_Device_Demo/iot_link/network/lwm2m/wakaama_lwm2m/wakaama-master/core\objects.c ****     index++;
 3651              		.loc 1 625 10
 3652 0076 7B69     		ldr	r3, [r7, #20]
 3653 0078 0133     		adds	r3, r3, #1
 3654 007a 7B61     		str	r3, [r7, #20]
 626:g:/iot/IoT_Device_Demo/iot_link/network/lwm2m/wakaama_lwm2m/wakaama-master/core\objects.c **** 
 627:g:/iot/IoT_Device_Demo/iot_link/network/lwm2m/wakaama_lwm2m/wakaama-master/core\objects.c ****     return index;
 3655              		.loc 1 627 12
 3656 007c 7B69     		ldr	r3, [r7, #20]
 3657              	.L189:
 628:g:/iot/IoT_Device_Demo/iot_link/network/lwm2m/wakaama_lwm2m/wakaama-master/core\objects.c **** }
 3658              		.loc 1 628 1
 3659 007e 1846     		mov	r0, r3
 3660 0080 1C37     		adds	r7, r7, #28
 3661              	.LCFI58:
 3662              		.cfi_def_cfa_offset 12
 3663 0082 BD46     		mov	sp, r7
 3664              	.LCFI59:
 3665              		.cfi_def_cfa_register 13
 3666              		@ sp needed
 3667 0084 90BD     		pop	{r4, r7, pc}
 3668              		.cfi_endproc
 3669              	.LFE23:
 3671              		.section	.text.object_getRegisterPayloadBufferLength,"ax",%progbits
 3672              		.align	1
 3673              		.global	object_getRegisterPayloadBufferLength
 3674              		.syntax unified
 3675              		.thumb
 3676              		.thumb_func
 3677              		.fpu fpv4-sp-d16
 3679              	object_getRegisterPayloadBufferLength:
 3680              	.LFB24:
 629:g:/iot/IoT_Device_Demo/iot_link/network/lwm2m/wakaama_lwm2m/wakaama-master/core\objects.c **** 
 630:g:/iot/IoT_Device_Demo/iot_link/network/lwm2m/wakaama_lwm2m/wakaama-master/core\objects.c **** int object_getRegisterPayloadBufferLength(lwm2m_context_t *contextP)
ARM GAS  C:\Users\ADMINI~1\AppData\Local\Temp\ccpcHGeL.s 			page 77


 631:g:/iot/IoT_Device_Demo/iot_link/network/lwm2m/wakaama_lwm2m/wakaama-master/core\objects.c **** {
 3681              		.loc 1 631 1
 3682              		.cfi_startproc
 3683              		@ args = 0, pretend = 0, frame = 48
 3684              		@ frame_needed = 1, uses_anonymous_args = 0
 3685 0000 B0B5     		push	{r4, r5, r7, lr}
 3686              	.LCFI60:
 3687              		.cfi_def_cfa_offset 16
 3688              		.cfi_offset 4, -16
 3689              		.cfi_offset 5, -12
 3690              		.cfi_offset 7, -8
 3691              		.cfi_offset 14, -4
 3692 0002 90B0     		sub	sp, sp, #64
 3693              	.LCFI61:
 3694              		.cfi_def_cfa_offset 80
 3695 0004 04AF     		add	r7, sp, #16
 3696              	.LCFI62:
 3697              		.cfi_def_cfa 7, 64
 3698 0006 7860     		str	r0, [r7, #4]
 632:g:/iot/IoT_Device_Demo/iot_link/network/lwm2m/wakaama_lwm2m/wakaama-master/core\objects.c ****     size_t index;
 633:g:/iot/IoT_Device_Demo/iot_link/network/lwm2m/wakaama_lwm2m/wakaama-master/core\objects.c ****     int result;
 634:g:/iot/IoT_Device_Demo/iot_link/network/lwm2m/wakaama_lwm2m/wakaama-master/core\objects.c ****     lwm2m_object_t *objectP;
 635:g:/iot/IoT_Device_Demo/iot_link/network/lwm2m/wakaama_lwm2m/wakaama-master/core\objects.c ****     char buffer[REG_OBJECT_MIN_LEN + 5];
 636:g:/iot/IoT_Device_Demo/iot_link/network/lwm2m/wakaama_lwm2m/wakaama-master/core\objects.c **** 
 637:g:/iot/IoT_Device_Demo/iot_link/network/lwm2m/wakaama_lwm2m/wakaama-master/core\objects.c ****     LOG("Entering");
 3699              		.loc 1 637 5
 3700 0008 FFF7FEFF 		bl	link_log_level_get
 3701 000c 0346     		mov	r3, r0
 3702 000e 012B     		cmp	r3, #1
 3703 0010 1BD8     		bhi	.L193
 3704              		.loc 1 637 5 is_stmt 0 discriminator 1
 3705 0012 0120     		movs	r0, #1
 3706 0014 FFF7FEFF 		bl	link_log_level_name
 3707 0018 0446     		mov	r4, r0
 3708 001a FFF7FEFF 		bl	osal_sys_time
 3709 001e 0246     		mov	r2, r0
 3710 0020 0B46     		mov	r3, r1
 3711 0022 1546     		mov	r5, r2
 3712 0024 FFF7FEFF 		bl	lwm2m_gettime
 3713 0028 0246     		mov	r2, r0
 3714 002a 0B46     		mov	r3, r1
 3715 002c 40F27D23 		movw	r3, #637
 3716 0030 0393     		str	r3, [sp, #12]
 3717 0032 464B     		ldr	r3, .L209
 3718 0034 0293     		str	r3, [sp, #8]
 3719 0036 0192     		str	r2, [sp, #4]
 3720 0038 40F27D23 		movw	r3, #637
 3721 003c 0093     		str	r3, [sp]
 3722 003e 444B     		ldr	r3, .L209+4
 3723 0040 2A46     		mov	r2, r5
 3724 0042 2146     		mov	r1, r4
 3725 0044 4348     		ldr	r0, .L209+8
 3726 0046 FFF7FEFF 		bl	printf
 3727              	.L193:
 638:g:/iot/IoT_Device_Demo/iot_link/network/lwm2m/wakaama_lwm2m/wakaama-master/core\objects.c ****     index = strlen(REG_START);
 3728              		.loc 1 638 11 is_stmt 1
 3729 004a 0123     		movs	r3, #1
ARM GAS  C:\Users\ADMINI~1\AppData\Local\Temp\ccpcHGeL.s 			page 78


 3730 004c FB62     		str	r3, [r7, #44]
 639:g:/iot/IoT_Device_Demo/iot_link/network/lwm2m/wakaama_lwm2m/wakaama-master/core\objects.c **** 
 640:g:/iot/IoT_Device_Demo/iot_link/network/lwm2m/wakaama_lwm2m/wakaama-master/core\objects.c ****     if ((contextP->altPath != NULL)
 3731              		.loc 1 640 18
 3732 004e 7B68     		ldr	r3, [r7, #4]
 3733 0050 DB68     		ldr	r3, [r3, #12]
 3734              		.loc 1 640 8
 3735 0052 002B     		cmp	r3, #0
 3736 0054 0ED0     		beq	.L194
 641:g:/iot/IoT_Device_Demo/iot_link/network/lwm2m/wakaama_lwm2m/wakaama-master/core\objects.c ****             && (contextP->altPath[0] != 0))
 3737              		.loc 1 641 25
 3738 0056 7B68     		ldr	r3, [r7, #4]
 3739 0058 DB68     		ldr	r3, [r3, #12]
 3740              		.loc 1 641 34
 3741 005a 1B78     		ldrb	r3, [r3]	@ zero_extendqisi2
 3742              		.loc 1 641 13
 3743 005c 002B     		cmp	r3, #0
 3744 005e 09D0     		beq	.L194
 642:g:/iot/IoT_Device_Demo/iot_link/network/lwm2m/wakaama_lwm2m/wakaama-master/core\objects.c ****     {
 643:g:/iot/IoT_Device_Demo/iot_link/network/lwm2m/wakaama_lwm2m/wakaama-master/core\objects.c ****         index += strlen(contextP->altPath);
 3745              		.loc 1 643 33
 3746 0060 7B68     		ldr	r3, [r7, #4]
 3747 0062 DB68     		ldr	r3, [r3, #12]
 3748              		.loc 1 643 18
 3749 0064 1846     		mov	r0, r3
 3750 0066 FFF7FEFF 		bl	strlen
 3751 006a 0246     		mov	r2, r0
 3752              		.loc 1 643 15
 3753 006c FB6A     		ldr	r3, [r7, #44]
 3754 006e 1344     		add	r3, r3, r2
 3755 0070 FB62     		str	r3, [r7, #44]
 3756 0072 02E0     		b	.L195
 3757              	.L194:
 644:g:/iot/IoT_Device_Demo/iot_link/network/lwm2m/wakaama_lwm2m/wakaama-master/core\objects.c ****     }
 645:g:/iot/IoT_Device_Demo/iot_link/network/lwm2m/wakaama_lwm2m/wakaama-master/core\objects.c ****     else
 646:g:/iot/IoT_Device_Demo/iot_link/network/lwm2m/wakaama_lwm2m/wakaama-master/core\objects.c ****     {
 647:g:/iot/IoT_Device_Demo/iot_link/network/lwm2m/wakaama_lwm2m/wakaama-master/core\objects.c ****         index += strlen(REG_DEFAULT_PATH); // "/"
 3758              		.loc 1 647 15
 3759 0074 FB6A     		ldr	r3, [r7, #44]
 3760 0076 0133     		adds	r3, r3, #1
 3761 0078 FB62     		str	r3, [r7, #44]
 3762              	.L195:
 648:g:/iot/IoT_Device_Demo/iot_link/network/lwm2m/wakaama_lwm2m/wakaama-master/core\objects.c ****     }
 649:g:/iot/IoT_Device_Demo/iot_link/network/lwm2m/wakaama_lwm2m/wakaama-master/core\objects.c **** 
 650:g:/iot/IoT_Device_Demo/iot_link/network/lwm2m/wakaama_lwm2m/wakaama-master/core\objects.c ****     index += strlen(REG_LWM2M_RESOURCE_TYPE);//">;rt=\"oma.lwm2m\";ct=11543,"
 3763              		.loc 1 650 11
 3764 007a FB6A     		ldr	r3, [r7, #44]
 3765 007c 1133     		adds	r3, r3, #17
 3766 007e FB62     		str	r3, [r7, #44]
 651:g:/iot/IoT_Device_Demo/iot_link/network/lwm2m/wakaama_lwm2m/wakaama-master/core\objects.c **** 
 652:g:/iot/IoT_Device_Demo/iot_link/network/lwm2m/wakaama_lwm2m/wakaama-master/core\objects.c ****     for (objectP = contextP->objectList; objectP != NULL; objectP = objectP->next)
 3767              		.loc 1 652 18
 3768 0080 7B68     		ldr	r3, [r7, #4]
 3769 0082 9B69     		ldr	r3, [r3, #24]
 3770 0084 BB62     		str	r3, [r7, #40]
 3771              		.loc 1 652 5
 3772 0086 55E0     		b	.L196
ARM GAS  C:\Users\ADMINI~1\AppData\Local\Temp\ccpcHGeL.s 			page 79


 3773              	.L206:
 3774              	.LBB6:
 653:g:/iot/IoT_Device_Demo/iot_link/network/lwm2m/wakaama_lwm2m/wakaama-master/core\objects.c ****     {
 654:g:/iot/IoT_Device_Demo/iot_link/network/lwm2m/wakaama_lwm2m/wakaama-master/core\objects.c ****         size_t start;
 655:g:/iot/IoT_Device_Demo/iot_link/network/lwm2m/wakaama_lwm2m/wakaama-master/core\objects.c ****         size_t length;
 656:g:/iot/IoT_Device_Demo/iot_link/network/lwm2m/wakaama_lwm2m/wakaama-master/core\objects.c **** 
 657:g:/iot/IoT_Device_Demo/iot_link/network/lwm2m/wakaama_lwm2m/wakaama-master/core\objects.c ****         if (objectP->objID == LWM2M_SECURITY_OBJECT_ID) continue;
 3775              		.loc 1 657 20
 3776 0088 BB6A     		ldr	r3, [r7, #40]
 3777 008a 9B88     		ldrh	r3, [r3, #4]
 3778              		.loc 1 657 12
 3779 008c 002B     		cmp	r3, #0
 3780 008e 4DD0     		beq	.L208
 658:g:/iot/IoT_Device_Demo/iot_link/network/lwm2m/wakaama_lwm2m/wakaama-master/core\objects.c **** 
 659:g:/iot/IoT_Device_Demo/iot_link/network/lwm2m/wakaama_lwm2m/wakaama-master/core\objects.c ****         start = index;
 3781              		.loc 1 659 15
 3782 0090 FB6A     		ldr	r3, [r7, #44]
 3783 0092 3B62     		str	r3, [r7, #32]
 660:g:/iot/IoT_Device_Demo/iot_link/network/lwm2m/wakaama_lwm2m/wakaama-master/core\objects.c ****         result = prv_getObjectTemplate((uint8_t *)buffer, sizeof(buffer), objectP->objID);
 3784              		.loc 1 660 18
 3785 0094 BB6A     		ldr	r3, [r7, #40]
 3786 0096 9A88     		ldrh	r2, [r3, #4]
 3787 0098 07F10C03 		add	r3, r7, #12
 3788 009c 0A21     		movs	r1, #10
 3789 009e 1846     		mov	r0, r3
 3790 00a0 FFF7FEFF 		bl	prv_getObjectTemplate
 3791 00a4 F861     		str	r0, [r7, #28]
 661:g:/iot/IoT_Device_Demo/iot_link/network/lwm2m/wakaama_lwm2m/wakaama-master/core\objects.c ****         if (result < 0) return 0;
 3792              		.loc 1 661 12
 3793 00a6 FB69     		ldr	r3, [r7, #28]
 3794 00a8 002B     		cmp	r3, #0
 3795 00aa 01DA     		bge	.L199
 3796              		.loc 1 661 32 discriminator 1
 3797 00ac 0023     		movs	r3, #0
 3798 00ae 48E0     		b	.L207
 3799              	.L199:
 662:g:/iot/IoT_Device_Demo/iot_link/network/lwm2m/wakaama_lwm2m/wakaama-master/core\objects.c ****         length = result;
 3800              		.loc 1 662 16
 3801 00b0 FB69     		ldr	r3, [r7, #28]
 3802 00b2 BB61     		str	r3, [r7, #24]
 663:g:/iot/IoT_Device_Demo/iot_link/network/lwm2m/wakaama_lwm2m/wakaama-master/core\objects.c ****         index += length;
 3803              		.loc 1 663 15
 3804 00b4 FA6A     		ldr	r2, [r7, #44]
 3805 00b6 BB69     		ldr	r3, [r7, #24]
 3806 00b8 1344     		add	r3, r3, r2
 3807 00ba FB62     		str	r3, [r7, #44]
 664:g:/iot/IoT_Device_Demo/iot_link/network/lwm2m/wakaama_lwm2m/wakaama-master/core\objects.c **** 
 665:g:/iot/IoT_Device_Demo/iot_link/network/lwm2m/wakaama_lwm2m/wakaama-master/core\objects.c ****         if (objectP->instanceList == NULL)
 3808              		.loc 1 665 20
 3809 00bc BB6A     		ldr	r3, [r7, #40]
 3810 00be 9B68     		ldr	r3, [r3, #8]
 3811              		.loc 1 665 12
 3812 00c0 002B     		cmp	r3, #0
 3813 00c2 06D1     		bne	.L201
 666:g:/iot/IoT_Device_Demo/iot_link/network/lwm2m/wakaama_lwm2m/wakaama-master/core\objects.c ****         {
 667:g:/iot/IoT_Device_Demo/iot_link/network/lwm2m/wakaama_lwm2m/wakaama-master/core\objects.c ****             index -= 1;
 3814              		.loc 1 667 19
ARM GAS  C:\Users\ADMINI~1\AppData\Local\Temp\ccpcHGeL.s 			page 80


 3815 00c4 FB6A     		ldr	r3, [r7, #44]
 3816 00c6 013B     		subs	r3, r3, #1
 3817 00c8 FB62     		str	r3, [r7, #44]
 668:g:/iot/IoT_Device_Demo/iot_link/network/lwm2m/wakaama_lwm2m/wakaama-master/core\objects.c ****             index += strlen(REG_PATH_END); //">,"
 3818              		.loc 1 668 19
 3819 00ca FB6A     		ldr	r3, [r7, #44]
 3820 00cc 0233     		adds	r3, r3, #2
 3821 00ce FB62     		str	r3, [r7, #44]
 3822 00d0 2DE0     		b	.L198
 3823              	.L201:
 3824              	.LBB7:
 669:g:/iot/IoT_Device_Demo/iot_link/network/lwm2m/wakaama_lwm2m/wakaama-master/core\objects.c ****         }
 670:g:/iot/IoT_Device_Demo/iot_link/network/lwm2m/wakaama_lwm2m/wakaama-master/core\objects.c ****         else
 671:g:/iot/IoT_Device_Demo/iot_link/network/lwm2m/wakaama_lwm2m/wakaama-master/core\objects.c ****         {
 672:g:/iot/IoT_Device_Demo/iot_link/network/lwm2m/wakaama_lwm2m/wakaama-master/core\objects.c ****             lwm2m_list_t *targetP;
 673:g:/iot/IoT_Device_Demo/iot_link/network/lwm2m/wakaama_lwm2m/wakaama-master/core\objects.c ****             for (targetP = objectP->instanceList ; targetP != NULL ; targetP = targetP->next)
 3825              		.loc 1 673 26
 3826 00d2 BB6A     		ldr	r3, [r7, #40]
 3827 00d4 9B68     		ldr	r3, [r3, #8]
 3828 00d6 7B62     		str	r3, [r7, #36]
 3829              		.loc 1 673 13
 3830 00d8 24E0     		b	.L202
 3831              	.L205:
 674:g:/iot/IoT_Device_Demo/iot_link/network/lwm2m/wakaama_lwm2m/wakaama-master/core\objects.c ****             {
 675:g:/iot/IoT_Device_Demo/iot_link/network/lwm2m/wakaama_lwm2m/wakaama-master/core\objects.c ****                 if (index != start + length)
 3832              		.loc 1 675 36
 3833 00da 3A6A     		ldr	r2, [r7, #32]
 3834 00dc BB69     		ldr	r3, [r7, #24]
 3835 00de 1344     		add	r3, r3, r2
 3836              		.loc 1 675 20
 3837 00e0 FA6A     		ldr	r2, [r7, #44]
 3838 00e2 9A42     		cmp	r2, r3
 3839 00e4 03D0     		beq	.L203
 676:g:/iot/IoT_Device_Demo/iot_link/network/lwm2m/wakaama_lwm2m/wakaama-master/core\objects.c ****                 {
 677:g:/iot/IoT_Device_Demo/iot_link/network/lwm2m/wakaama_lwm2m/wakaama-master/core\objects.c ****                     index += length;
 3840              		.loc 1 677 27
 3841 00e6 FA6A     		ldr	r2, [r7, #44]
 3842 00e8 BB69     		ldr	r3, [r7, #24]
 3843 00ea 1344     		add	r3, r3, r2
 3844 00ec FB62     		str	r3, [r7, #44]
 3845              	.L203:
 678:g:/iot/IoT_Device_Demo/iot_link/network/lwm2m/wakaama_lwm2m/wakaama-master/core\objects.c ****                 }
 679:g:/iot/IoT_Device_Demo/iot_link/network/lwm2m/wakaama_lwm2m/wakaama-master/core\objects.c **** 
 680:g:/iot/IoT_Device_Demo/iot_link/network/lwm2m/wakaama_lwm2m/wakaama-master/core\objects.c ****                 result = utils_intToText(targetP->id, (uint8_t *)buffer, sizeof(buffer));
 3846              		.loc 1 680 49
 3847 00ee 7B6A     		ldr	r3, [r7, #36]
 3848 00f0 9B88     		ldrh	r3, [r3, #4]
 3849              		.loc 1 680 26
 3850 00f2 98B2     		uxth	r0, r3
 3851 00f4 4FF00001 		mov	r1, #0
 3852 00f8 07F10C02 		add	r2, r7, #12
 3853 00fc 0A23     		movs	r3, #10
 3854 00fe FFF7FEFF 		bl	utils_intToText
 3855 0102 0346     		mov	r3, r0
 3856              		.loc 1 680 24
 3857 0104 FB61     		str	r3, [r7, #28]
 681:g:/iot/IoT_Device_Demo/iot_link/network/lwm2m/wakaama_lwm2m/wakaama-master/core\objects.c ****                 if (result == 0) return 0;
ARM GAS  C:\Users\ADMINI~1\AppData\Local\Temp\ccpcHGeL.s 			page 81


 3858              		.loc 1 681 20
 3859 0106 FB69     		ldr	r3, [r7, #28]
 3860 0108 002B     		cmp	r3, #0
 3861 010a 01D1     		bne	.L204
 3862              		.loc 1 681 41 discriminator 1
 3863 010c 0023     		movs	r3, #0
 3864 010e 18E0     		b	.L207
 3865              	.L204:
 682:g:/iot/IoT_Device_Demo/iot_link/network/lwm2m/wakaama_lwm2m/wakaama-master/core\objects.c ****                 index += result;
 3866              		.loc 1 682 23 discriminator 2
 3867 0110 FB69     		ldr	r3, [r7, #28]
 3868 0112 FA6A     		ldr	r2, [r7, #44]
 3869 0114 1344     		add	r3, r3, r2
 3870 0116 FB62     		str	r3, [r7, #44]
 683:g:/iot/IoT_Device_Demo/iot_link/network/lwm2m/wakaama_lwm2m/wakaama-master/core\objects.c **** 
 684:g:/iot/IoT_Device_Demo/iot_link/network/lwm2m/wakaama_lwm2m/wakaama-master/core\objects.c ****                 index += strlen(REG_PATH_END);
 3871              		.loc 1 684 23 discriminator 2
 3872 0118 FB6A     		ldr	r3, [r7, #44]
 3873 011a 0233     		adds	r3, r3, #2
 3874 011c FB62     		str	r3, [r7, #44]
 673:g:/iot/IoT_Device_Demo/iot_link/network/lwm2m/wakaama_lwm2m/wakaama-master/core\objects.c ****             {
 3875              		.loc 1 673 78 discriminator 2
 3876 011e 7B6A     		ldr	r3, [r7, #36]
 3877 0120 1B68     		ldr	r3, [r3]
 3878 0122 7B62     		str	r3, [r7, #36]
 3879              	.L202:
 673:g:/iot/IoT_Device_Demo/iot_link/network/lwm2m/wakaama_lwm2m/wakaama-master/core\objects.c ****             {
 3880              		.loc 1 673 13 discriminator 1
 3881 0124 7B6A     		ldr	r3, [r7, #36]
 3882 0126 002B     		cmp	r3, #0
 3883 0128 D7D1     		bne	.L205
 3884 012a 00E0     		b	.L198
 3885              	.L208:
 3886              	.LBE7:
 657:g:/iot/IoT_Device_Demo/iot_link/network/lwm2m/wakaama_lwm2m/wakaama-master/core\objects.c **** 
 3887              		.loc 1 657 9
 3888 012c 00BF     		nop
 3889              	.L198:
 3890              	.LBE6:
 652:g:/iot/IoT_Device_Demo/iot_link/network/lwm2m/wakaama_lwm2m/wakaama-master/core\objects.c ****     {
 3891              		.loc 1 652 67 discriminator 2
 3892 012e BB6A     		ldr	r3, [r7, #40]
 3893 0130 1B68     		ldr	r3, [r3]
 3894 0132 BB62     		str	r3, [r7, #40]
 3895              	.L196:
 652:g:/iot/IoT_Device_Demo/iot_link/network/lwm2m/wakaama_lwm2m/wakaama-master/core\objects.c ****     {
 3896              		.loc 1 652 5 discriminator 1
 3897 0134 BB6A     		ldr	r3, [r7, #40]
 3898 0136 002B     		cmp	r3, #0
 3899 0138 A6D1     		bne	.L206
 685:g:/iot/IoT_Device_Demo/iot_link/network/lwm2m/wakaama_lwm2m/wakaama-master/core\objects.c ****             }
 686:g:/iot/IoT_Device_Demo/iot_link/network/lwm2m/wakaama_lwm2m/wakaama-master/core\objects.c ****         }
 687:g:/iot/IoT_Device_Demo/iot_link/network/lwm2m/wakaama_lwm2m/wakaama-master/core\objects.c ****     }
 688:g:/iot/IoT_Device_Demo/iot_link/network/lwm2m/wakaama_lwm2m/wakaama-master/core\objects.c **** 
 689:g:/iot/IoT_Device_Demo/iot_link/network/lwm2m/wakaama_lwm2m/wakaama-master/core\objects.c ****     index += 1;  // account for trailing null
 3900              		.loc 1 689 11
 3901 013a FB6A     		ldr	r3, [r7, #44]
ARM GAS  C:\Users\ADMINI~1\AppData\Local\Temp\ccpcHGeL.s 			page 82


 3902 013c 0133     		adds	r3, r3, #1
 3903 013e FB62     		str	r3, [r7, #44]
 690:g:/iot/IoT_Device_Demo/iot_link/network/lwm2m/wakaama_lwm2m/wakaama-master/core\objects.c **** 
 691:g:/iot/IoT_Device_Demo/iot_link/network/lwm2m/wakaama_lwm2m/wakaama-master/core\objects.c ****     // Note that object_getRegisterPayload() has REG_PATH_END added after each
 692:g:/iot/IoT_Device_Demo/iot_link/network/lwm2m/wakaama_lwm2m/wakaama-master/core\objects.c ****     // object or instance, and then the trailing comma is replaced by null. The
 693:g:/iot/IoT_Device_Demo/iot_link/network/lwm2m/wakaama_lwm2m/wakaama-master/core\objects.c ****     // trailing nulls are not counted as part of the payload length, so this
 694:g:/iot/IoT_Device_Demo/iot_link/network/lwm2m/wakaama_lwm2m/wakaama-master/core\objects.c ****     // will return a size two bytes greater than what
 695:g:/iot/IoT_Device_Demo/iot_link/network/lwm2m/wakaama_lwm2m/wakaama-master/core\objects.c ****     // object_getRegisterPayload() returns.
 696:g:/iot/IoT_Device_Demo/iot_link/network/lwm2m/wakaama_lwm2m/wakaama-master/core\objects.c **** 
 697:g:/iot/IoT_Device_Demo/iot_link/network/lwm2m/wakaama_lwm2m/wakaama-master/core\objects.c ****     return index;
 3904              		.loc 1 697 12
 3905 0140 FB6A     		ldr	r3, [r7, #44]
 3906              	.L207:
 698:g:/iot/IoT_Device_Demo/iot_link/network/lwm2m/wakaama_lwm2m/wakaama-master/core\objects.c **** }
 3907              		.loc 1 698 1 discriminator 1
 3908 0142 1846     		mov	r0, r3
 3909 0144 3037     		adds	r7, r7, #48
 3910              	.LCFI63:
 3911              		.cfi_def_cfa_offset 16
 3912 0146 BD46     		mov	sp, r7
 3913              	.LCFI64:
 3914              		.cfi_def_cfa_register 13
 3915              		@ sp needed
 3916 0148 B0BD     		pop	{r4, r5, r7, pc}
 3917              	.L210:
 3918 014a 00BF     		.align	2
 3919              	.L209:
 3920 014c 00000000 		.word	__func__.9261
 3921 0150 00000000 		.word	__FUNCTION__.9260
 3922 0154 1C010000 		.word	.LC7
 3923              		.cfi_endproc
 3924              	.LFE24:
 3926              		.section	.rodata
 3927 0145 000000   		.align	2
 3928              	.LC8:
 3929 0148 3C00     		.ascii	"<\000"
 3930 014a 0000     		.align	2
 3931              	.LC9:
 3932 014c 2F00     		.ascii	"/\000"
 3933 014e 0000     		.align	2
 3934              	.LC10:
 3935 0150 3E3B7274 		.ascii	">;rt=\"oma.lwm2m\",\000"
 3935      3D226F6D 
 3935      612E6C77 
 3935      6D326D22 
 3935      2C00
 3936 0162 0000     		.align	2
 3937              	.LC11:
 3938 0164 3E2C00   		.ascii	">,\000"
 3939              		.section	.text.object_getRegisterPayload,"ax",%progbits
 3940              		.align	1
 3941              		.global	object_getRegisterPayload
 3942              		.syntax unified
 3943              		.thumb
 3944              		.thumb_func
 3945              		.fpu fpv4-sp-d16
 3947              	object_getRegisterPayload:
