ARM GAS  C:\Users\ADMINI~1\AppData\Local\Temp\ccRMs3cA.s 			page 1


   1              		.cpu cortex-m4
   2              		.eabi_attribute 27, 1
   3              		.eabi_attribute 28, 1
   4              		.eabi_attribute 20, 1
   5              		.eabi_attribute 21, 1
   6              		.eabi_attribute 23, 3
   7              		.eabi_attribute 24, 1
   8              		.eabi_attribute 25, 1
   9              		.eabi_attribute 26, 1
  10              		.eabi_attribute 30, 6
  11              		.eabi_attribute 34, 1
  12              		.eabi_attribute 18, 4
  13              		.file	"registration.c"
  14              		.text
  15              	.Ltext0:
  16              		.cfi_sections	.debug_frame
  17              		.section	.text.prv_getRegistrationQueryLength,"ax",%progbits
  18              		.align	1
  19              		.arch armv7e-m
  20              		.syntax unified
  21              		.thumb
  22              		.thumb_func
  23              		.fpu fpv4-sp-d16
  25              	prv_getRegistrationQueryLength:
  26              	.LFB4:
  27              		.file 1 "g:/iot/IoT_Device_Demo/iot_link/network/lwm2m/wakaama_lwm2m/wakaama-master/core/registrat
   1:g:/iot/IoT_Device_Demo/iot_link/network/lwm2m/wakaama_lwm2m/wakaama-master/core\registration.c **** /*----------------------------------------------------------------------------
   2:g:/iot/IoT_Device_Demo/iot_link/network/lwm2m/wakaama_lwm2m/wakaama-master/core\registration.c ****  * Copyright (c) <2016-2018>, <Huawei Technologies Co., Ltd>
   3:g:/iot/IoT_Device_Demo/iot_link/network/lwm2m/wakaama_lwm2m/wakaama-master/core\registration.c ****  * All rights reserved.
   4:g:/iot/IoT_Device_Demo/iot_link/network/lwm2m/wakaama_lwm2m/wakaama-master/core\registration.c ****  * Redistribution and use in source and binary forms, with or without modification,
   5:g:/iot/IoT_Device_Demo/iot_link/network/lwm2m/wakaama_lwm2m/wakaama-master/core\registration.c ****  * are permitted provided that the following conditions are met:
   6:g:/iot/IoT_Device_Demo/iot_link/network/lwm2m/wakaama_lwm2m/wakaama-master/core\registration.c ****  * 1. Redistributions of source code must retain the above copyright notice, this list of
   7:g:/iot/IoT_Device_Demo/iot_link/network/lwm2m/wakaama_lwm2m/wakaama-master/core\registration.c ****  * conditions and the following disclaimer.
   8:g:/iot/IoT_Device_Demo/iot_link/network/lwm2m/wakaama_lwm2m/wakaama-master/core\registration.c ****  * 2. Redistributions in binary form must reproduce the above copyright notice, this list
   9:g:/iot/IoT_Device_Demo/iot_link/network/lwm2m/wakaama_lwm2m/wakaama-master/core\registration.c ****  * of conditions and the following disclaimer in the documentation and/or other materials
  10:g:/iot/IoT_Device_Demo/iot_link/network/lwm2m/wakaama_lwm2m/wakaama-master/core\registration.c ****  * provided with the distribution.
  11:g:/iot/IoT_Device_Demo/iot_link/network/lwm2m/wakaama_lwm2m/wakaama-master/core\registration.c ****  * 3. Neither the name of the copyright holder nor the names of its contributors may be used
  12:g:/iot/IoT_Device_Demo/iot_link/network/lwm2m/wakaama_lwm2m/wakaama-master/core\registration.c ****  * to endorse or promote products derived from this software without specific prior written
  13:g:/iot/IoT_Device_Demo/iot_link/network/lwm2m/wakaama_lwm2m/wakaama-master/core\registration.c ****  * permission.
  14:g:/iot/IoT_Device_Demo/iot_link/network/lwm2m/wakaama_lwm2m/wakaama-master/core\registration.c ****  * THIS SOFTWARE IS PROVIDED BY THE COPYRIGHT HOLDERS AND CONTRIBUTORS
  15:g:/iot/IoT_Device_Demo/iot_link/network/lwm2m/wakaama_lwm2m/wakaama-master/core\registration.c ****  * "AS IS" AND ANY EXPRESS OR IMPLIED WARRANTIES, INCLUDING, BUT NOT LIMITED TO,
  16:g:/iot/IoT_Device_Demo/iot_link/network/lwm2m/wakaama_lwm2m/wakaama-master/core\registration.c ****  * THE IMPLIED WARRANTIES OF MERCHANTABILITY AND FITNESS FOR A PARTICULAR
  17:g:/iot/IoT_Device_Demo/iot_link/network/lwm2m/wakaama_lwm2m/wakaama-master/core\registration.c ****  * PURPOSE ARE DISCLAIMED. IN NO EVENT SHALL THE COPYRIGHT HOLDER OR
  18:g:/iot/IoT_Device_Demo/iot_link/network/lwm2m/wakaama_lwm2m/wakaama-master/core\registration.c ****  * CONTRIBUTORS BE LIABLE FOR ANY DIRECT, INDIRECT, INCIDENTAL, SPECIAL,
  19:g:/iot/IoT_Device_Demo/iot_link/network/lwm2m/wakaama_lwm2m/wakaama-master/core\registration.c ****  * EXEMPLARY, OR CONSEQUENTIAL DAMAGES (INCLUDING, BUT NOT LIMITED TO,
  20:g:/iot/IoT_Device_Demo/iot_link/network/lwm2m/wakaama_lwm2m/wakaama-master/core\registration.c ****  * PROCUREMENT OF SUBSTITUTE GOODS OR SERVICES; LOSS OF USE, DATA, OR PROFITS;
  21:g:/iot/IoT_Device_Demo/iot_link/network/lwm2m/wakaama_lwm2m/wakaama-master/core\registration.c ****  * OR BUSINESS INTERRUPTION) HOWEVER CAUSED AND ON ANY THEORY OF LIABILITY,
  22:g:/iot/IoT_Device_Demo/iot_link/network/lwm2m/wakaama_lwm2m/wakaama-master/core\registration.c ****  * WHETHER IN CONTRACT, STRICT LIABILITY, OR TORT (INCLUDING NEGLIGENCE OR
  23:g:/iot/IoT_Device_Demo/iot_link/network/lwm2m/wakaama_lwm2m/wakaama-master/core\registration.c ****  * OTHERWISE) ARISING IN ANY WAY OUT OF THE USE OF THIS SOFTWARE, EVEN IF
  24:g:/iot/IoT_Device_Demo/iot_link/network/lwm2m/wakaama_lwm2m/wakaama-master/core\registration.c ****  * ADVISED OF THE POSSIBILITY OF SUCH DAMAGE.
  25:g:/iot/IoT_Device_Demo/iot_link/network/lwm2m/wakaama_lwm2m/wakaama-master/core\registration.c ****  *---------------------------------------------------------------------------*/
  26:g:/iot/IoT_Device_Demo/iot_link/network/lwm2m/wakaama_lwm2m/wakaama-master/core\registration.c **** /*----------------------------------------------------------------------------
  27:g:/iot/IoT_Device_Demo/iot_link/network/lwm2m/wakaama_lwm2m/wakaama-master/core\registration.c ****  * Notice of Export Control Law
  28:g:/iot/IoT_Device_Demo/iot_link/network/lwm2m/wakaama_lwm2m/wakaama-master/core\registration.c ****  * ===============================================
  29:g:/iot/IoT_Device_Demo/iot_link/network/lwm2m/wakaama_lwm2m/wakaama-master/core\registration.c ****  * Huawei LiteOS may be subject to applicable export control laws and regulations, which might
  30:g:/iot/IoT_Device_Demo/iot_link/network/lwm2m/wakaama_lwm2m/wakaama-master/core\registration.c ****  * include those applicable to Huawei LiteOS of U.S. and the country in which you are located.
  31:g:/iot/IoT_Device_Demo/iot_link/network/lwm2m/wakaama_lwm2m/wakaama-master/core\registration.c ****  * Import, export and usage of Huawei LiteOS in any manner by you shall be in compliance with such
ARM GAS  C:\Users\ADMINI~1\AppData\Local\Temp\ccRMs3cA.s 			page 2


  32:g:/iot/IoT_Device_Demo/iot_link/network/lwm2m/wakaama_lwm2m/wakaama-master/core\registration.c ****  * applicable export control laws and regulations.
  33:g:/iot/IoT_Device_Demo/iot_link/network/lwm2m/wakaama_lwm2m/wakaama-master/core\registration.c ****  *---------------------------------------------------------------------------*/
  34:g:/iot/IoT_Device_Demo/iot_link/network/lwm2m/wakaama_lwm2m/wakaama-master/core\registration.c **** 
  35:g:/iot/IoT_Device_Demo/iot_link/network/lwm2m/wakaama_lwm2m/wakaama-master/core\registration.c **** /*******************************************************************************
  36:g:/iot/IoT_Device_Demo/iot_link/network/lwm2m/wakaama_lwm2m/wakaama-master/core\registration.c ****  *
  37:g:/iot/IoT_Device_Demo/iot_link/network/lwm2m/wakaama_lwm2m/wakaama-master/core\registration.c ****  * Copyright (c) 2013, 2014 Intel Corporation and others.
  38:g:/iot/IoT_Device_Demo/iot_link/network/lwm2m/wakaama_lwm2m/wakaama-master/core\registration.c ****  * All rights reserved. This program and the accompanying materials
  39:g:/iot/IoT_Device_Demo/iot_link/network/lwm2m/wakaama_lwm2m/wakaama-master/core\registration.c ****  * are made available under the terms of the Eclipse Public License v1.0
  40:g:/iot/IoT_Device_Demo/iot_link/network/lwm2m/wakaama_lwm2m/wakaama-master/core\registration.c ****  * and Eclipse Distribution License v1.0 which accompany this distribution.
  41:g:/iot/IoT_Device_Demo/iot_link/network/lwm2m/wakaama_lwm2m/wakaama-master/core\registration.c ****  *
  42:g:/iot/IoT_Device_Demo/iot_link/network/lwm2m/wakaama_lwm2m/wakaama-master/core\registration.c ****  * The Eclipse Public License is available at
  43:g:/iot/IoT_Device_Demo/iot_link/network/lwm2m/wakaama_lwm2m/wakaama-master/core\registration.c ****  *    http://www.eclipse.org/legal/epl-v10.html
  44:g:/iot/IoT_Device_Demo/iot_link/network/lwm2m/wakaama_lwm2m/wakaama-master/core\registration.c ****  * The Eclipse Distribution License is available at
  45:g:/iot/IoT_Device_Demo/iot_link/network/lwm2m/wakaama_lwm2m/wakaama-master/core\registration.c ****  *    http://www.eclipse.org/org/documents/edl-v10.php.
  46:g:/iot/IoT_Device_Demo/iot_link/network/lwm2m/wakaama_lwm2m/wakaama-master/core\registration.c ****  *
  47:g:/iot/IoT_Device_Demo/iot_link/network/lwm2m/wakaama_lwm2m/wakaama-master/core\registration.c ****  * Contributors:
  48:g:/iot/IoT_Device_Demo/iot_link/network/lwm2m/wakaama_lwm2m/wakaama-master/core\registration.c ****  *    David Navarro, Intel Corporation - initial API and implementation
  49:g:/iot/IoT_Device_Demo/iot_link/network/lwm2m/wakaama_lwm2m/wakaama-master/core\registration.c ****  *    domedambrosio - Please refer to git log
  50:g:/iot/IoT_Device_Demo/iot_link/network/lwm2m/wakaama_lwm2m/wakaama-master/core\registration.c ****  *    Fabien Fleutot - Please refer to git log
  51:g:/iot/IoT_Device_Demo/iot_link/network/lwm2m/wakaama_lwm2m/wakaama-master/core\registration.c ****  *    Simon Bernard - Please refer to git log
  52:g:/iot/IoT_Device_Demo/iot_link/network/lwm2m/wakaama_lwm2m/wakaama-master/core\registration.c ****  *    Toby Jaffey - Please refer to git log
  53:g:/iot/IoT_Device_Demo/iot_link/network/lwm2m/wakaama_lwm2m/wakaama-master/core\registration.c ****  *    Manuel Sangoi - Please refer to git log
  54:g:/iot/IoT_Device_Demo/iot_link/network/lwm2m/wakaama_lwm2m/wakaama-master/core\registration.c ****  *    Julien Vermillard - Please refer to git log
  55:g:/iot/IoT_Device_Demo/iot_link/network/lwm2m/wakaama_lwm2m/wakaama-master/core\registration.c ****  *    Bosch Software Innovations GmbH - Please refer to git log
  56:g:/iot/IoT_Device_Demo/iot_link/network/lwm2m/wakaama_lwm2m/wakaama-master/core\registration.c ****  *    Pascal Rieux - Please refer to git log
  57:g:/iot/IoT_Device_Demo/iot_link/network/lwm2m/wakaama_lwm2m/wakaama-master/core\registration.c ****  *    Scott Bertin - Please refer to git log
  58:g:/iot/IoT_Device_Demo/iot_link/network/lwm2m/wakaama_lwm2m/wakaama-master/core\registration.c ****  *
  59:g:/iot/IoT_Device_Demo/iot_link/network/lwm2m/wakaama_lwm2m/wakaama-master/core\registration.c ****  *******************************************************************************/
  60:g:/iot/IoT_Device_Demo/iot_link/network/lwm2m/wakaama_lwm2m/wakaama-master/core\registration.c **** 
  61:g:/iot/IoT_Device_Demo/iot_link/network/lwm2m/wakaama_lwm2m/wakaama-master/core\registration.c **** /*
  62:g:/iot/IoT_Device_Demo/iot_link/network/lwm2m/wakaama_lwm2m/wakaama-master/core\registration.c ****  Copyright (c) 2013, 2014 Intel Corporation
  63:g:/iot/IoT_Device_Demo/iot_link/network/lwm2m/wakaama_lwm2m/wakaama-master/core\registration.c **** 
  64:g:/iot/IoT_Device_Demo/iot_link/network/lwm2m/wakaama_lwm2m/wakaama-master/core\registration.c ****  Redistribution and use in source and binary forms, with or without modification,
  65:g:/iot/IoT_Device_Demo/iot_link/network/lwm2m/wakaama_lwm2m/wakaama-master/core\registration.c ****  are permitted provided that the following conditions are met:
  66:g:/iot/IoT_Device_Demo/iot_link/network/lwm2m/wakaama_lwm2m/wakaama-master/core\registration.c **** 
  67:g:/iot/IoT_Device_Demo/iot_link/network/lwm2m/wakaama_lwm2m/wakaama-master/core\registration.c ****      * Redistributions of source code must retain the above copyright notice,
  68:g:/iot/IoT_Device_Demo/iot_link/network/lwm2m/wakaama_lwm2m/wakaama-master/core\registration.c ****        this list of conditions and the following disclaimer.
  69:g:/iot/IoT_Device_Demo/iot_link/network/lwm2m/wakaama_lwm2m/wakaama-master/core\registration.c ****      * Redistributions in binary form must reproduce the above copyright notice,
  70:g:/iot/IoT_Device_Demo/iot_link/network/lwm2m/wakaama_lwm2m/wakaama-master/core\registration.c ****        this list of conditions and the following disclaimer in the documentation
  71:g:/iot/IoT_Device_Demo/iot_link/network/lwm2m/wakaama_lwm2m/wakaama-master/core\registration.c ****        and/or other materials provided with the distribution.
  72:g:/iot/IoT_Device_Demo/iot_link/network/lwm2m/wakaama_lwm2m/wakaama-master/core\registration.c ****      * Neither the name of Intel Corporation nor the names of its contributors
  73:g:/iot/IoT_Device_Demo/iot_link/network/lwm2m/wakaama_lwm2m/wakaama-master/core\registration.c ****        may be used to endorse or promote products derived from this software
  74:g:/iot/IoT_Device_Demo/iot_link/network/lwm2m/wakaama_lwm2m/wakaama-master/core\registration.c ****        without specific prior written permission.
  75:g:/iot/IoT_Device_Demo/iot_link/network/lwm2m/wakaama_lwm2m/wakaama-master/core\registration.c **** 
  76:g:/iot/IoT_Device_Demo/iot_link/network/lwm2m/wakaama_lwm2m/wakaama-master/core\registration.c ****  THIS SOFTWARE IS PROVIDED BY THE COPYRIGHT HOLDERS AND CONTRIBUTORS "AS IS" AND
  77:g:/iot/IoT_Device_Demo/iot_link/network/lwm2m/wakaama_lwm2m/wakaama-master/core\registration.c ****  ANY EXPRESS OR IMPLIED WARRANTIES, INCLUDING, BUT NOT LIMITED TO, THE IMPLIED
  78:g:/iot/IoT_Device_Demo/iot_link/network/lwm2m/wakaama_lwm2m/wakaama-master/core\registration.c ****  WARRANTIES OF MERCHANTABILITY AND FITNESS FOR A PARTICULAR PURPOSE ARE DISCLAIMED.
  79:g:/iot/IoT_Device_Demo/iot_link/network/lwm2m/wakaama_lwm2m/wakaama-master/core\registration.c ****  IN NO EVENT SHALL THE COPYRIGHT OWNER OR CONTRIBUTORS BE LIABLE FOR ANY DIRECT,
  80:g:/iot/IoT_Device_Demo/iot_link/network/lwm2m/wakaama_lwm2m/wakaama-master/core\registration.c ****  INDIRECT, INCIDENTAL, SPECIAL, EXEMPLARY, OR CONSEQUENTIAL DAMAGES (INCLUDING,
  81:g:/iot/IoT_Device_Demo/iot_link/network/lwm2m/wakaama_lwm2m/wakaama-master/core\registration.c ****  BUT NOT LIMITED TO, PROCUREMENT OF SUBSTITUTE GOODS OR SERVICES; LOSS OF USE,
  82:g:/iot/IoT_Device_Demo/iot_link/network/lwm2m/wakaama_lwm2m/wakaama-master/core\registration.c ****  DATA, OR PROFITS; OR BUSINESS INTERRUPTION) HOWEVER CAUSED AND ON ANY THEORY OF
  83:g:/iot/IoT_Device_Demo/iot_link/network/lwm2m/wakaama_lwm2m/wakaama-master/core\registration.c ****  LIABILITY, WHETHER IN CONTRACT, STRICT LIABILITY, OR TORT (INCLUDING NEGLIGENCE OR
  84:g:/iot/IoT_Device_Demo/iot_link/network/lwm2m/wakaama_lwm2m/wakaama-master/core\registration.c ****  OTHERWISE) ARISING IN ANY WAY OUT OF THE USE OF THIS SOFTWARE, EVEN IF ADVISED OF
  85:g:/iot/IoT_Device_Demo/iot_link/network/lwm2m/wakaama_lwm2m/wakaama-master/core\registration.c ****  THE POSSIBILITY OF SUCH DAMAGE.
  86:g:/iot/IoT_Device_Demo/iot_link/network/lwm2m/wakaama_lwm2m/wakaama-master/core\registration.c **** 
  87:g:/iot/IoT_Device_Demo/iot_link/network/lwm2m/wakaama_lwm2m/wakaama-master/core\registration.c ****  David Navarro <david.navarro@intel.com>
  88:g:/iot/IoT_Device_Demo/iot_link/network/lwm2m/wakaama_lwm2m/wakaama-master/core\registration.c **** 
ARM GAS  C:\Users\ADMINI~1\AppData\Local\Temp\ccRMs3cA.s 			page 3


  89:g:/iot/IoT_Device_Demo/iot_link/network/lwm2m/wakaama_lwm2m/wakaama-master/core\registration.c **** */
  90:g:/iot/IoT_Device_Demo/iot_link/network/lwm2m/wakaama_lwm2m/wakaama-master/core\registration.c **** 
  91:g:/iot/IoT_Device_Demo/iot_link/network/lwm2m/wakaama_lwm2m/wakaama-master/core\registration.c **** #include "internals.h"
  92:g:/iot/IoT_Device_Demo/iot_link/network/lwm2m/wakaama_lwm2m/wakaama-master/core\registration.c **** 
  93:g:/iot/IoT_Device_Demo/iot_link/network/lwm2m/wakaama_lwm2m/wakaama-master/core\registration.c **** #include <stdlib.h>
  94:g:/iot/IoT_Device_Demo/iot_link/network/lwm2m/wakaama_lwm2m/wakaama-master/core\registration.c **** #include <string.h>
  95:g:/iot/IoT_Device_Demo/iot_link/network/lwm2m/wakaama_lwm2m/wakaama-master/core\registration.c **** #include <stdio.h>
  96:g:/iot/IoT_Device_Demo/iot_link/network/lwm2m/wakaama_lwm2m/wakaama-master/core\registration.c **** 
  97:g:/iot/IoT_Device_Demo/iot_link/network/lwm2m/wakaama_lwm2m/wakaama-master/core\registration.c **** #define MAX_LOCATION_LENGTH 10      // strlen("/rd/65534") + 1
  98:g:/iot/IoT_Device_Demo/iot_link/network/lwm2m/wakaama_lwm2m/wakaama-master/core\registration.c **** 
  99:g:/iot/IoT_Device_Demo/iot_link/network/lwm2m/wakaama_lwm2m/wakaama-master/core\registration.c **** #ifdef LWM2M_CLIENT_MODE
 100:g:/iot/IoT_Device_Demo/iot_link/network/lwm2m/wakaama_lwm2m/wakaama-master/core\registration.c **** 
 101:g:/iot/IoT_Device_Demo/iot_link/network/lwm2m/wakaama_lwm2m/wakaama-master/core\registration.c **** static int prv_getRegistrationQueryLength(lwm2m_context_t *contextP,
 102:g:/iot/IoT_Device_Demo/iot_link/network/lwm2m/wakaama_lwm2m/wakaama-master/core\registration.c ****         lwm2m_server_t *server)
 103:g:/iot/IoT_Device_Demo/iot_link/network/lwm2m/wakaama_lwm2m/wakaama-master/core\registration.c **** {
  28              		.loc 1 103 1
  29              		.cfi_startproc
  30              		@ args = 0, pretend = 0, frame = 40
  31              		@ frame_needed = 1, uses_anonymous_args = 0
  32 0000 80B5     		push	{r7, lr}
  33              	.LCFI0:
  34              		.cfi_def_cfa_offset 8
  35              		.cfi_offset 7, -8
  36              		.cfi_offset 14, -4
  37 0002 8AB0     		sub	sp, sp, #40
  38              	.LCFI1:
  39              		.cfi_def_cfa_offset 48
  40 0004 00AF     		add	r7, sp, #0
  41              	.LCFI2:
  42              		.cfi_def_cfa_register 7
  43 0006 7860     		str	r0, [r7, #4]
  44 0008 3960     		str	r1, [r7]
 104:g:/iot/IoT_Device_Demo/iot_link/network/lwm2m/wakaama_lwm2m/wakaama-master/core\registration.c ****     int index;
 105:g:/iot/IoT_Device_Demo/iot_link/network/lwm2m/wakaama_lwm2m/wakaama-master/core\registration.c ****     int res;
 106:g:/iot/IoT_Device_Demo/iot_link/network/lwm2m/wakaama_lwm2m/wakaama-master/core\registration.c ****     char buffer[21];
 107:g:/iot/IoT_Device_Demo/iot_link/network/lwm2m/wakaama_lwm2m/wakaama-master/core\registration.c **** 
 108:g:/iot/IoT_Device_Demo/iot_link/network/lwm2m/wakaama_lwm2m/wakaama-master/core\registration.c ****     index = strlen(QUERY_STARTER QUERY_VERSION_FULL QUERY_DELIMITER QUERY_NAME);//?1.0&ep=
  45              		.loc 1 108 11
  46 000a 0E23     		movs	r3, #14
  47 000c 7B62     		str	r3, [r7, #36]
 109:g:/iot/IoT_Device_Demo/iot_link/network/lwm2m/wakaama_lwm2m/wakaama-master/core\registration.c ****     index += strlen(contextP->endpointName);
  48              		.loc 1 109 29
  49 000e 7B68     		ldr	r3, [r7, #4]
  50 0010 5B68     		ldr	r3, [r3, #4]
  51              		.loc 1 109 14
  52 0012 1846     		mov	r0, r3
  53 0014 FFF7FEFF 		bl	strlen
  54 0018 0246     		mov	r2, r0
  55              		.loc 1 109 11
  56 001a 7B6A     		ldr	r3, [r7, #36]
  57 001c 1344     		add	r3, r3, r2
  58 001e 7B62     		str	r3, [r7, #36]
 110:g:/iot/IoT_Device_Demo/iot_link/network/lwm2m/wakaama_lwm2m/wakaama-master/core\registration.c **** 
 111:g:/iot/IoT_Device_Demo/iot_link/network/lwm2m/wakaama_lwm2m/wakaama-master/core\registration.c ****     if (NULL != contextP->msisdn)
  59              		.loc 1 111 25
  60 0020 7B68     		ldr	r3, [r7, #4]
  61 0022 9B68     		ldr	r3, [r3, #8]
ARM GAS  C:\Users\ADMINI~1\AppData\Local\Temp\ccRMs3cA.s 			page 4


  62              		.loc 1 111 8
  63 0024 002B     		cmp	r3, #0
  64 0026 0BD0     		beq	.L2
 112:g:/iot/IoT_Device_Demo/iot_link/network/lwm2m/wakaama_lwm2m/wakaama-master/core\registration.c ****     {
 113:g:/iot/IoT_Device_Demo/iot_link/network/lwm2m/wakaama_lwm2m/wakaama-master/core\registration.c ****         index += strlen(QUERY_DELIMITER QUERY_SMS);
  65              		.loc 1 113 15
  66 0028 7B6A     		ldr	r3, [r7, #36]
  67 002a 0533     		adds	r3, r3, #5
  68 002c 7B62     		str	r3, [r7, #36]
 114:g:/iot/IoT_Device_Demo/iot_link/network/lwm2m/wakaama_lwm2m/wakaama-master/core\registration.c ****         index += strlen(contextP->msisdn);
  69              		.loc 1 114 33
  70 002e 7B68     		ldr	r3, [r7, #4]
  71 0030 9B68     		ldr	r3, [r3, #8]
  72              		.loc 1 114 18
  73 0032 1846     		mov	r0, r3
  74 0034 FFF7FEFF 		bl	strlen
  75 0038 0246     		mov	r2, r0
  76              		.loc 1 114 15
  77 003a 7B6A     		ldr	r3, [r7, #36]
  78 003c 1344     		add	r3, r3, r2
  79 003e 7B62     		str	r3, [r7, #36]
  80              	.L2:
 115:g:/iot/IoT_Device_Demo/iot_link/network/lwm2m/wakaama_lwm2m/wakaama-master/core\registration.c ****     }
 116:g:/iot/IoT_Device_Demo/iot_link/network/lwm2m/wakaama_lwm2m/wakaama-master/core\registration.c **** 
 117:g:/iot/IoT_Device_Demo/iot_link/network/lwm2m/wakaama_lwm2m/wakaama-master/core\registration.c ****     switch (server->binding)
  81              		.loc 1 117 19
  82 0040 3B68     		ldr	r3, [r7]
  83 0042 1B7E     		ldrb	r3, [r3, #24]	@ zero_extendqisi2
  84 0044 013B     		subs	r3, r3, #1
  85 0046 052B     		cmp	r3, #5
  86 0048 26D8     		bhi	.L3
  87 004a 01A2     		adr	r2, .L5
  88 004c 52F823F0 		ldr	pc, [r2, r3, lsl #2]
  89              		.p2align 2
  90              	.L5:
  91 0050 69000000 		.word	.L10+1
  92 0054 71000000 		.word	.L9+1
  93 0058 79000000 		.word	.L8+1
  94 005c 81000000 		.word	.L7+1
  95 0060 89000000 		.word	.L6+1
  96 0064 91000000 		.word	.L4+1
  97              		.p2align 1
  98              	.L10:
 118:g:/iot/IoT_Device_Demo/iot_link/network/lwm2m/wakaama_lwm2m/wakaama-master/core\registration.c ****     {
 119:g:/iot/IoT_Device_Demo/iot_link/network/lwm2m/wakaama_lwm2m/wakaama-master/core\registration.c ****     case BINDING_U:
 120:g:/iot/IoT_Device_Demo/iot_link/network/lwm2m/wakaama_lwm2m/wakaama-master/core\registration.c ****         index += strlen("&b=U");
  99              		.loc 1 120 15
 100 0068 7B6A     		ldr	r3, [r7, #36]
 101 006a 0433     		adds	r3, r3, #4
 102 006c 7B62     		str	r3, [r7, #36]
 121:g:/iot/IoT_Device_Demo/iot_link/network/lwm2m/wakaama_lwm2m/wakaama-master/core\registration.c ****         break;
 103              		.loc 1 121 9
 104 006e 15E0     		b	.L11
 105              	.L9:
 122:g:/iot/IoT_Device_Demo/iot_link/network/lwm2m/wakaama_lwm2m/wakaama-master/core\registration.c ****     case BINDING_UQ:
 123:g:/iot/IoT_Device_Demo/iot_link/network/lwm2m/wakaama_lwm2m/wakaama-master/core\registration.c ****         index += strlen("&b=UQ");
 106              		.loc 1 123 15
ARM GAS  C:\Users\ADMINI~1\AppData\Local\Temp\ccRMs3cA.s 			page 5


 107 0070 7B6A     		ldr	r3, [r7, #36]
 108 0072 0533     		adds	r3, r3, #5
 109 0074 7B62     		str	r3, [r7, #36]
 124:g:/iot/IoT_Device_Demo/iot_link/network/lwm2m/wakaama_lwm2m/wakaama-master/core\registration.c ****         break;
 110              		.loc 1 124 9
 111 0076 11E0     		b	.L11
 112              	.L8:
 125:g:/iot/IoT_Device_Demo/iot_link/network/lwm2m/wakaama_lwm2m/wakaama-master/core\registration.c ****     case BINDING_S:
 126:g:/iot/IoT_Device_Demo/iot_link/network/lwm2m/wakaama_lwm2m/wakaama-master/core\registration.c ****         index += strlen("&b=S");
 113              		.loc 1 126 15
 114 0078 7B6A     		ldr	r3, [r7, #36]
 115 007a 0433     		adds	r3, r3, #4
 116 007c 7B62     		str	r3, [r7, #36]
 127:g:/iot/IoT_Device_Demo/iot_link/network/lwm2m/wakaama_lwm2m/wakaama-master/core\registration.c ****         break;
 117              		.loc 1 127 9
 118 007e 0DE0     		b	.L11
 119              	.L7:
 128:g:/iot/IoT_Device_Demo/iot_link/network/lwm2m/wakaama_lwm2m/wakaama-master/core\registration.c ****     case BINDING_SQ:
 129:g:/iot/IoT_Device_Demo/iot_link/network/lwm2m/wakaama_lwm2m/wakaama-master/core\registration.c ****         index += strlen("&b=SQ");
 120              		.loc 1 129 15
 121 0080 7B6A     		ldr	r3, [r7, #36]
 122 0082 0533     		adds	r3, r3, #5
 123 0084 7B62     		str	r3, [r7, #36]
 130:g:/iot/IoT_Device_Demo/iot_link/network/lwm2m/wakaama_lwm2m/wakaama-master/core\registration.c ****         break;
 124              		.loc 1 130 9
 125 0086 09E0     		b	.L11
 126              	.L6:
 131:g:/iot/IoT_Device_Demo/iot_link/network/lwm2m/wakaama_lwm2m/wakaama-master/core\registration.c ****     case BINDING_US:
 132:g:/iot/IoT_Device_Demo/iot_link/network/lwm2m/wakaama_lwm2m/wakaama-master/core\registration.c ****         index += strlen("&b=US");
 127              		.loc 1 132 15
 128 0088 7B6A     		ldr	r3, [r7, #36]
 129 008a 0533     		adds	r3, r3, #5
 130 008c 7B62     		str	r3, [r7, #36]
 133:g:/iot/IoT_Device_Demo/iot_link/network/lwm2m/wakaama_lwm2m/wakaama-master/core\registration.c ****         break;
 131              		.loc 1 133 9
 132 008e 05E0     		b	.L11
 133              	.L4:
 134:g:/iot/IoT_Device_Demo/iot_link/network/lwm2m/wakaama_lwm2m/wakaama-master/core\registration.c ****     case BINDING_UQS:
 135:g:/iot/IoT_Device_Demo/iot_link/network/lwm2m/wakaama_lwm2m/wakaama-master/core\registration.c ****         index += strlen("&b=UQS");
 134              		.loc 1 135 15
 135 0090 7B6A     		ldr	r3, [r7, #36]
 136 0092 0633     		adds	r3, r3, #6
 137 0094 7B62     		str	r3, [r7, #36]
 136:g:/iot/IoT_Device_Demo/iot_link/network/lwm2m/wakaama_lwm2m/wakaama-master/core\registration.c ****         break;
 138              		.loc 1 136 9
 139 0096 01E0     		b	.L11
 140              	.L3:
 137:g:/iot/IoT_Device_Demo/iot_link/network/lwm2m/wakaama_lwm2m/wakaama-master/core\registration.c ****     default:
 138:g:/iot/IoT_Device_Demo/iot_link/network/lwm2m/wakaama_lwm2m/wakaama-master/core\registration.c ****         return 0;
 141              		.loc 1 138 16
 142 0098 0023     		movs	r3, #0
 143 009a 1CE0     		b	.L15
 144              	.L11:
 139:g:/iot/IoT_Device_Demo/iot_link/network/lwm2m/wakaama_lwm2m/wakaama-master/core\registration.c ****     }
 140:g:/iot/IoT_Device_Demo/iot_link/network/lwm2m/wakaama_lwm2m/wakaama-master/core\registration.c **** 
 141:g:/iot/IoT_Device_Demo/iot_link/network/lwm2m/wakaama_lwm2m/wakaama-master/core\registration.c ****     if (0 != server->lifetime)
 145              		.loc 1 141 20
ARM GAS  C:\Users\ADMINI~1\AppData\Local\Temp\ccRMs3cA.s 			page 6


 146 009c 3B68     		ldr	r3, [r7]
 147 009e D3E90223 		ldrd	r2, [r3, #8]
 148              		.loc 1 141 8
 149 00a2 1343     		orrs	r3, r2, r3
 150 00a4 15D0     		beq	.L13
 142:g:/iot/IoT_Device_Demo/iot_link/network/lwm2m/wakaama_lwm2m/wakaama-master/core\registration.c ****     {
 143:g:/iot/IoT_Device_Demo/iot_link/network/lwm2m/wakaama_lwm2m/wakaama-master/core\registration.c ****         index += strlen(QUERY_DELIMITER QUERY_LIFETIME);//&lt=
 151              		.loc 1 143 15
 152 00a6 7B6A     		ldr	r3, [r7, #36]
 153 00a8 0433     		adds	r3, r3, #4
 154 00aa 7B62     		str	r3, [r7, #36]
 144:g:/iot/IoT_Device_Demo/iot_link/network/lwm2m/wakaama_lwm2m/wakaama-master/core\registration.c ****         res = utils_intToText(server->lifetime, (uint8_t *)buffer, sizeof(buffer));
 155              		.loc 1 144 15
 156 00ac 3B68     		ldr	r3, [r7]
 157 00ae D3E90201 		ldrd	r0, [r3, #8]
 158 00b2 07F10802 		add	r2, r7, #8
 159 00b6 1523     		movs	r3, #21
 160 00b8 FFF7FEFF 		bl	utils_intToText
 161 00bc 0346     		mov	r3, r0
 162              		.loc 1 144 13
 163 00be 3B62     		str	r3, [r7, #32]
 145:g:/iot/IoT_Device_Demo/iot_link/network/lwm2m/wakaama_lwm2m/wakaama-master/core\registration.c ****         if (res == 0) return 0;
 164              		.loc 1 145 12
 165 00c0 3B6A     		ldr	r3, [r7, #32]
 166 00c2 002B     		cmp	r3, #0
 167 00c4 01D1     		bne	.L14
 168              		.loc 1 145 30 discriminator 1
 169 00c6 0023     		movs	r3, #0
 170 00c8 05E0     		b	.L15
 171              	.L14:
 146:g:/iot/IoT_Device_Demo/iot_link/network/lwm2m/wakaama_lwm2m/wakaama-master/core\registration.c ****         index += res;
 172              		.loc 1 146 15
 173 00ca 7A6A     		ldr	r2, [r7, #36]
 174 00cc 3B6A     		ldr	r3, [r7, #32]
 175 00ce 1344     		add	r3, r3, r2
 176 00d0 7B62     		str	r3, [r7, #36]
 177              	.L13:
 147:g:/iot/IoT_Device_Demo/iot_link/network/lwm2m/wakaama_lwm2m/wakaama-master/core\registration.c ****     }
 148:g:/iot/IoT_Device_Demo/iot_link/network/lwm2m/wakaama_lwm2m/wakaama-master/core\registration.c **** 
 149:g:/iot/IoT_Device_Demo/iot_link/network/lwm2m/wakaama_lwm2m/wakaama-master/core\registration.c ****     return index + 1;
 178              		.loc 1 149 18
 179 00d2 7B6A     		ldr	r3, [r7, #36]
 180 00d4 0133     		adds	r3, r3, #1
 181              	.L15:
 150:g:/iot/IoT_Device_Demo/iot_link/network/lwm2m/wakaama_lwm2m/wakaama-master/core\registration.c **** }
 182              		.loc 1 150 1 discriminator 1
 183 00d6 1846     		mov	r0, r3
 184 00d8 2837     		adds	r7, r7, #40
 185              	.LCFI3:
 186              		.cfi_def_cfa_offset 8
 187 00da BD46     		mov	sp, r7
 188              	.LCFI4:
 189              		.cfi_def_cfa_register 13
 190              		@ sp needed
 191 00dc 80BD     		pop	{r7, pc}
 192              		.cfi_endproc
 193              	.LFE4:
ARM GAS  C:\Users\ADMINI~1\AppData\Local\Temp\ccRMs3cA.s 			page 7


 195 00de 00BF     		.section	.rodata
 196              		.align	2
 197              	.LC0:
 198 0000 3F6C776D 		.ascii	"?lwm2m=1.0&ep=\000"
 198      326D3D31 
 198      2E302665 
 198      703D00
 199 000f 00       		.align	2
 200              	.LC1:
 201 0010 26736D73 		.ascii	"&sms=\000"
 201      3D00
 202 0016 0000     		.align	2
 203              	.LC2:
 204 0018 26623D55 		.ascii	"&b=U\000"
 204      00
 205 001d 000000   		.align	2
 206              	.LC3:
 207 0020 26623D55 		.ascii	"&b=UQ\000"
 207      5100
 208 0026 0000     		.align	2
 209              	.LC4:
 210 0028 26623D53 		.ascii	"&b=S\000"
 210      00
 211 002d 000000   		.align	2
 212              	.LC5:
 213 0030 26623D53 		.ascii	"&b=SQ\000"
 213      5100
 214 0036 0000     		.align	2
 215              	.LC6:
 216 0038 26623D55 		.ascii	"&b=US\000"
 216      5300
 217 003e 0000     		.align	2
 218              	.LC7:
 219 0040 26623D55 		.ascii	"&b=UQS\000"
 219      515300
 220 0047 00       		.align	2
 221              	.LC8:
 222 0048 266C743D 		.ascii	"&lt=\000"
 222      00
 223              		.section	.text.prv_getRegistrationQuery,"ax",%progbits
 224              		.align	1
 225              		.syntax unified
 226              		.thumb
 227              		.thumb_func
 228              		.fpu fpv4-sp-d16
 230              	prv_getRegistrationQuery:
 231              	.LFB5:
 151:g:/iot/IoT_Device_Demo/iot_link/network/lwm2m/wakaama_lwm2m/wakaama-master/core\registration.c **** 
 152:g:/iot/IoT_Device_Demo/iot_link/network/lwm2m/wakaama_lwm2m/wakaama-master/core\registration.c **** static int prv_getRegistrationQuery(lwm2m_context_t *contextP,
 153:g:/iot/IoT_Device_Demo/iot_link/network/lwm2m/wakaama_lwm2m/wakaama-master/core\registration.c ****                                     lwm2m_server_t *server,
 154:g:/iot/IoT_Device_Demo/iot_link/network/lwm2m/wakaama_lwm2m/wakaama-master/core\registration.c ****                                     char *buffer,
 155:g:/iot/IoT_Device_Demo/iot_link/network/lwm2m/wakaama_lwm2m/wakaama-master/core\registration.c ****                                     size_t length)
 156:g:/iot/IoT_Device_Demo/iot_link/network/lwm2m/wakaama_lwm2m/wakaama-master/core\registration.c **** {
 232              		.loc 1 156 1
 233              		.cfi_startproc
 234              		@ args = 0, pretend = 0, frame = 24
 235              		@ frame_needed = 1, uses_anonymous_args = 0
ARM GAS  C:\Users\ADMINI~1\AppData\Local\Temp\ccRMs3cA.s 			page 8


 236 0000 90B5     		push	{r4, r7, lr}
 237              	.LCFI5:
 238              		.cfi_def_cfa_offset 12
 239              		.cfi_offset 4, -12
 240              		.cfi_offset 7, -8
 241              		.cfi_offset 14, -4
 242 0002 87B0     		sub	sp, sp, #28
 243              	.LCFI6:
 244              		.cfi_def_cfa_offset 40
 245 0004 00AF     		add	r7, sp, #0
 246              	.LCFI7:
 247              		.cfi_def_cfa_register 7
 248 0006 F860     		str	r0, [r7, #12]
 249 0008 B960     		str	r1, [r7, #8]
 250 000a 7A60     		str	r2, [r7, #4]
 251 000c 3B60     		str	r3, [r7]
 157:g:/iot/IoT_Device_Demo/iot_link/network/lwm2m/wakaama_lwm2m/wakaama-master/core\registration.c ****     int index;
 158:g:/iot/IoT_Device_Demo/iot_link/network/lwm2m/wakaama_lwm2m/wakaama-master/core\registration.c ****     int res;
 159:g:/iot/IoT_Device_Demo/iot_link/network/lwm2m/wakaama_lwm2m/wakaama-master/core\registration.c **** 
 160:g:/iot/IoT_Device_Demo/iot_link/network/lwm2m/wakaama_lwm2m/wakaama-master/core\registration.c ****     index = utils_stringCopy(buffer, length, QUERY_STARTER QUERY_VERSION_FULL QUERY_DELIMITER QUERY
 252              		.loc 1 160 13
 253 000e 7C4A     		ldr	r2, .L38
 254 0010 3968     		ldr	r1, [r7]
 255 0012 7868     		ldr	r0, [r7, #4]
 256 0014 FFF7FEFF 		bl	utils_stringCopy
 257 0018 7861     		str	r0, [r7, #20]
 161:g:/iot/IoT_Device_Demo/iot_link/network/lwm2m/wakaama_lwm2m/wakaama-master/core\registration.c ****     if (index < 0) return 0;
 258              		.loc 1 161 8
 259 001a 7B69     		ldr	r3, [r7, #20]
 260 001c 002B     		cmp	r3, #0
 261 001e 01DA     		bge	.L17
 262              		.loc 1 161 27 discriminator 1
 263 0020 0023     		movs	r3, #0
 264 0022 E8E0     		b	.L18
 265              	.L17:
 162:g:/iot/IoT_Device_Demo/iot_link/network/lwm2m/wakaama_lwm2m/wakaama-master/core\registration.c ****     res = utils_stringCopy(buffer + index, length - index, contextP->endpointName);
 266              		.loc 1 162 11
 267 0024 7B69     		ldr	r3, [r7, #20]
 268 0026 7A68     		ldr	r2, [r7, #4]
 269 0028 D018     		adds	r0, r2, r3
 270 002a 7B69     		ldr	r3, [r7, #20]
 271 002c 3A68     		ldr	r2, [r7]
 272 002e D11A     		subs	r1, r2, r3
 273              		.loc 1 162 68
 274 0030 FB68     		ldr	r3, [r7, #12]
 275 0032 5B68     		ldr	r3, [r3, #4]
 276              		.loc 1 162 11
 277 0034 1A46     		mov	r2, r3
 278 0036 FFF7FEFF 		bl	utils_stringCopy
 279 003a 3861     		str	r0, [r7, #16]
 163:g:/iot/IoT_Device_Demo/iot_link/network/lwm2m/wakaama_lwm2m/wakaama-master/core\registration.c ****     if (res < 0) return 0;
 280              		.loc 1 163 8
 281 003c 3B69     		ldr	r3, [r7, #16]
 282 003e 002B     		cmp	r3, #0
 283 0040 01DA     		bge	.L19
 284              		.loc 1 163 25 discriminator 1
 285 0042 0023     		movs	r3, #0
ARM GAS  C:\Users\ADMINI~1\AppData\Local\Temp\ccRMs3cA.s 			page 9


 286 0044 D7E0     		b	.L18
 287              	.L19:
 164:g:/iot/IoT_Device_Demo/iot_link/network/lwm2m/wakaama_lwm2m/wakaama-master/core\registration.c ****     index += res;
 288              		.loc 1 164 11
 289 0046 7A69     		ldr	r2, [r7, #20]
 290 0048 3B69     		ldr	r3, [r7, #16]
 291 004a 1344     		add	r3, r3, r2
 292 004c 7B61     		str	r3, [r7, #20]
 165:g:/iot/IoT_Device_Demo/iot_link/network/lwm2m/wakaama_lwm2m/wakaama-master/core\registration.c **** 
 166:g:/iot/IoT_Device_Demo/iot_link/network/lwm2m/wakaama_lwm2m/wakaama-master/core\registration.c ****     if (NULL != contextP->msisdn)
 293              		.loc 1 166 25
 294 004e FB68     		ldr	r3, [r7, #12]
 295 0050 9B68     		ldr	r3, [r3, #8]
 296              		.loc 1 166 8
 297 0052 002B     		cmp	r3, #0
 298 0054 28D0     		beq	.L20
 167:g:/iot/IoT_Device_Demo/iot_link/network/lwm2m/wakaama_lwm2m/wakaama-master/core\registration.c ****     {
 168:g:/iot/IoT_Device_Demo/iot_link/network/lwm2m/wakaama_lwm2m/wakaama-master/core\registration.c ****         res = utils_stringCopy(buffer + index, length - index, QUERY_DELIMITER QUERY_SMS);
 299              		.loc 1 168 15
 300 0056 7B69     		ldr	r3, [r7, #20]
 301 0058 7A68     		ldr	r2, [r7, #4]
 302 005a D018     		adds	r0, r2, r3
 303 005c 7B69     		ldr	r3, [r7, #20]
 304 005e 3A68     		ldr	r2, [r7]
 305 0060 D31A     		subs	r3, r2, r3
 306 0062 684A     		ldr	r2, .L38+4
 307 0064 1946     		mov	r1, r3
 308 0066 FFF7FEFF 		bl	utils_stringCopy
 309 006a 3861     		str	r0, [r7, #16]
 169:g:/iot/IoT_Device_Demo/iot_link/network/lwm2m/wakaama_lwm2m/wakaama-master/core\registration.c ****         if (res < 0) return 0;
 310              		.loc 1 169 12
 311 006c 3B69     		ldr	r3, [r7, #16]
 312 006e 002B     		cmp	r3, #0
 313 0070 01DA     		bge	.L21
 314              		.loc 1 169 29 discriminator 1
 315 0072 0023     		movs	r3, #0
 316 0074 BFE0     		b	.L18
 317              	.L21:
 170:g:/iot/IoT_Device_Demo/iot_link/network/lwm2m/wakaama_lwm2m/wakaama-master/core\registration.c ****         index += res;
 318              		.loc 1 170 15
 319 0076 7A69     		ldr	r2, [r7, #20]
 320 0078 3B69     		ldr	r3, [r7, #16]
 321 007a 1344     		add	r3, r3, r2
 322 007c 7B61     		str	r3, [r7, #20]
 171:g:/iot/IoT_Device_Demo/iot_link/network/lwm2m/wakaama_lwm2m/wakaama-master/core\registration.c ****         res = utils_stringCopy(buffer + index, length - index, contextP->msisdn);
 323              		.loc 1 171 15
 324 007e 7B69     		ldr	r3, [r7, #20]
 325 0080 7A68     		ldr	r2, [r7, #4]
 326 0082 D018     		adds	r0, r2, r3
 327 0084 7B69     		ldr	r3, [r7, #20]
 328 0086 3A68     		ldr	r2, [r7]
 329 0088 D11A     		subs	r1, r2, r3
 330              		.loc 1 171 72
 331 008a FB68     		ldr	r3, [r7, #12]
 332 008c 9B68     		ldr	r3, [r3, #8]
 333              		.loc 1 171 15
 334 008e 1A46     		mov	r2, r3
ARM GAS  C:\Users\ADMINI~1\AppData\Local\Temp\ccRMs3cA.s 			page 10


 335 0090 FFF7FEFF 		bl	utils_stringCopy
 336 0094 3861     		str	r0, [r7, #16]
 172:g:/iot/IoT_Device_Demo/iot_link/network/lwm2m/wakaama_lwm2m/wakaama-master/core\registration.c ****         if (res < 0) return 0;
 337              		.loc 1 172 12
 338 0096 3B69     		ldr	r3, [r7, #16]
 339 0098 002B     		cmp	r3, #0
 340 009a 01DA     		bge	.L22
 341              		.loc 1 172 29 discriminator 1
 342 009c 0023     		movs	r3, #0
 343 009e AAE0     		b	.L18
 344              	.L22:
 173:g:/iot/IoT_Device_Demo/iot_link/network/lwm2m/wakaama_lwm2m/wakaama-master/core\registration.c ****         index += res;
 345              		.loc 1 173 15
 346 00a0 7A69     		ldr	r2, [r7, #20]
 347 00a2 3B69     		ldr	r3, [r7, #16]
 348 00a4 1344     		add	r3, r3, r2
 349 00a6 7B61     		str	r3, [r7, #20]
 350              	.L20:
 174:g:/iot/IoT_Device_Demo/iot_link/network/lwm2m/wakaama_lwm2m/wakaama-master/core\registration.c ****     }
 175:g:/iot/IoT_Device_Demo/iot_link/network/lwm2m/wakaama_lwm2m/wakaama-master/core\registration.c **** 
 176:g:/iot/IoT_Device_Demo/iot_link/network/lwm2m/wakaama_lwm2m/wakaama-master/core\registration.c ****     switch (server->binding)
 351              		.loc 1 176 19
 352 00a8 BB68     		ldr	r3, [r7, #8]
 353 00aa 1B7E     		ldrb	r3, [r3, #24]	@ zero_extendqisi2
 354 00ac 013B     		subs	r3, r3, #1
 355 00ae 052B     		cmp	r3, #5
 356 00b0 56D8     		bhi	.L23
 357 00b2 01A2     		adr	r2, .L25
 358 00b4 52F823F0 		ldr	pc, [r2, r3, lsl #2]
 359              		.p2align 2
 360              	.L25:
 361 00b8 D1000000 		.word	.L30+1
 362 00bc E9000000 		.word	.L29+1
 363 00c0 01010000 		.word	.L28+1
 364 00c4 19010000 		.word	.L27+1
 365 00c8 31010000 		.word	.L26+1
 366 00cc 49010000 		.word	.L24+1
 367              		.p2align 1
 368              	.L30:
 177:g:/iot/IoT_Device_Demo/iot_link/network/lwm2m/wakaama_lwm2m/wakaama-master/core\registration.c ****     {
 178:g:/iot/IoT_Device_Demo/iot_link/network/lwm2m/wakaama_lwm2m/wakaama-master/core\registration.c ****     case BINDING_U:
 179:g:/iot/IoT_Device_Demo/iot_link/network/lwm2m/wakaama_lwm2m/wakaama-master/core\registration.c ****         res = utils_stringCopy(buffer + index, length - index, "&b=U");
 369              		.loc 1 179 15
 370 00d0 7B69     		ldr	r3, [r7, #20]
 371 00d2 7A68     		ldr	r2, [r7, #4]
 372 00d4 D018     		adds	r0, r2, r3
 373 00d6 7B69     		ldr	r3, [r7, #20]
 374 00d8 3A68     		ldr	r2, [r7]
 375 00da D31A     		subs	r3, r2, r3
 376 00dc 4A4A     		ldr	r2, .L38+8
 377 00de 1946     		mov	r1, r3
 378 00e0 FFF7FEFF 		bl	utils_stringCopy
 379 00e4 3861     		str	r0, [r7, #16]
 180:g:/iot/IoT_Device_Demo/iot_link/network/lwm2m/wakaama_lwm2m/wakaama-master/core\registration.c ****         break;
 380              		.loc 1 180 9
 381 00e6 3EE0     		b	.L31
 382              	.L29:
ARM GAS  C:\Users\ADMINI~1\AppData\Local\Temp\ccRMs3cA.s 			page 11


 181:g:/iot/IoT_Device_Demo/iot_link/network/lwm2m/wakaama_lwm2m/wakaama-master/core\registration.c ****     case BINDING_UQ:
 182:g:/iot/IoT_Device_Demo/iot_link/network/lwm2m/wakaama_lwm2m/wakaama-master/core\registration.c ****         res = utils_stringCopy(buffer + index, length - index, "&b=UQ");
 383              		.loc 1 182 15
 384 00e8 7B69     		ldr	r3, [r7, #20]
 385 00ea 7A68     		ldr	r2, [r7, #4]
 386 00ec D018     		adds	r0, r2, r3
 387 00ee 7B69     		ldr	r3, [r7, #20]
 388 00f0 3A68     		ldr	r2, [r7]
 389 00f2 D31A     		subs	r3, r2, r3
 390 00f4 454A     		ldr	r2, .L38+12
 391 00f6 1946     		mov	r1, r3
 392 00f8 FFF7FEFF 		bl	utils_stringCopy
 393 00fc 3861     		str	r0, [r7, #16]
 183:g:/iot/IoT_Device_Demo/iot_link/network/lwm2m/wakaama_lwm2m/wakaama-master/core\registration.c ****         break;
 394              		.loc 1 183 9
 395 00fe 32E0     		b	.L31
 396              	.L28:
 184:g:/iot/IoT_Device_Demo/iot_link/network/lwm2m/wakaama_lwm2m/wakaama-master/core\registration.c ****     case BINDING_S:
 185:g:/iot/IoT_Device_Demo/iot_link/network/lwm2m/wakaama_lwm2m/wakaama-master/core\registration.c ****         res = utils_stringCopy(buffer + index, length - index, "&b=S");
 397              		.loc 1 185 15
 398 0100 7B69     		ldr	r3, [r7, #20]
 399 0102 7A68     		ldr	r2, [r7, #4]
 400 0104 D018     		adds	r0, r2, r3
 401 0106 7B69     		ldr	r3, [r7, #20]
 402 0108 3A68     		ldr	r2, [r7]
 403 010a D31A     		subs	r3, r2, r3
 404 010c 404A     		ldr	r2, .L38+16
 405 010e 1946     		mov	r1, r3
 406 0110 FFF7FEFF 		bl	utils_stringCopy
 407 0114 3861     		str	r0, [r7, #16]
 186:g:/iot/IoT_Device_Demo/iot_link/network/lwm2m/wakaama_lwm2m/wakaama-master/core\registration.c ****         break;
 408              		.loc 1 186 9
 409 0116 26E0     		b	.L31
 410              	.L27:
 187:g:/iot/IoT_Device_Demo/iot_link/network/lwm2m/wakaama_lwm2m/wakaama-master/core\registration.c ****     case BINDING_SQ:
 188:g:/iot/IoT_Device_Demo/iot_link/network/lwm2m/wakaama_lwm2m/wakaama-master/core\registration.c ****         res = utils_stringCopy(buffer + index, length - index, "&b=SQ");
 411              		.loc 1 188 15
 412 0118 7B69     		ldr	r3, [r7, #20]
 413 011a 7A68     		ldr	r2, [r7, #4]
 414 011c D018     		adds	r0, r2, r3
 415 011e 7B69     		ldr	r3, [r7, #20]
 416 0120 3A68     		ldr	r2, [r7]
 417 0122 D31A     		subs	r3, r2, r3
 418 0124 3B4A     		ldr	r2, .L38+20
 419 0126 1946     		mov	r1, r3
 420 0128 FFF7FEFF 		bl	utils_stringCopy
 421 012c 3861     		str	r0, [r7, #16]
 189:g:/iot/IoT_Device_Demo/iot_link/network/lwm2m/wakaama_lwm2m/wakaama-master/core\registration.c ****         break;
 422              		.loc 1 189 9
 423 012e 1AE0     		b	.L31
 424              	.L26:
 190:g:/iot/IoT_Device_Demo/iot_link/network/lwm2m/wakaama_lwm2m/wakaama-master/core\registration.c ****     case BINDING_US:
 191:g:/iot/IoT_Device_Demo/iot_link/network/lwm2m/wakaama_lwm2m/wakaama-master/core\registration.c ****         res = utils_stringCopy(buffer + index, length - index, "&b=US");
 425              		.loc 1 191 15
 426 0130 7B69     		ldr	r3, [r7, #20]
 427 0132 7A68     		ldr	r2, [r7, #4]
 428 0134 D018     		adds	r0, r2, r3
ARM GAS  C:\Users\ADMINI~1\AppData\Local\Temp\ccRMs3cA.s 			page 12


 429 0136 7B69     		ldr	r3, [r7, #20]
 430 0138 3A68     		ldr	r2, [r7]
 431 013a D31A     		subs	r3, r2, r3
 432 013c 364A     		ldr	r2, .L38+24
 433 013e 1946     		mov	r1, r3
 434 0140 FFF7FEFF 		bl	utils_stringCopy
 435 0144 3861     		str	r0, [r7, #16]
 192:g:/iot/IoT_Device_Demo/iot_link/network/lwm2m/wakaama_lwm2m/wakaama-master/core\registration.c ****         break;
 436              		.loc 1 192 9
 437 0146 0EE0     		b	.L31
 438              	.L24:
 193:g:/iot/IoT_Device_Demo/iot_link/network/lwm2m/wakaama_lwm2m/wakaama-master/core\registration.c ****     case BINDING_UQS:
 194:g:/iot/IoT_Device_Demo/iot_link/network/lwm2m/wakaama_lwm2m/wakaama-master/core\registration.c ****         res = utils_stringCopy(buffer + index, length - index, "&b=UQS");
 439              		.loc 1 194 15
 440 0148 7B69     		ldr	r3, [r7, #20]
 441 014a 7A68     		ldr	r2, [r7, #4]
 442 014c D018     		adds	r0, r2, r3
 443 014e 7B69     		ldr	r3, [r7, #20]
 444 0150 3A68     		ldr	r2, [r7]
 445 0152 D31A     		subs	r3, r2, r3
 446 0154 314A     		ldr	r2, .L38+28
 447 0156 1946     		mov	r1, r3
 448 0158 FFF7FEFF 		bl	utils_stringCopy
 449 015c 3861     		str	r0, [r7, #16]
 195:g:/iot/IoT_Device_Demo/iot_link/network/lwm2m/wakaama_lwm2m/wakaama-master/core\registration.c ****         break;
 450              		.loc 1 195 9
 451 015e 02E0     		b	.L31
 452              	.L23:
 196:g:/iot/IoT_Device_Demo/iot_link/network/lwm2m/wakaama_lwm2m/wakaama-master/core\registration.c ****     default:
 197:g:/iot/IoT_Device_Demo/iot_link/network/lwm2m/wakaama_lwm2m/wakaama-master/core\registration.c ****         res = -1;
 453              		.loc 1 197 13
 454 0160 4FF0FF33 		mov	r3, #-1
 455 0164 3B61     		str	r3, [r7, #16]
 456              	.L31:
 198:g:/iot/IoT_Device_Demo/iot_link/network/lwm2m/wakaama_lwm2m/wakaama-master/core\registration.c ****     }
 199:g:/iot/IoT_Device_Demo/iot_link/network/lwm2m/wakaama_lwm2m/wakaama-master/core\registration.c ****     if (res < 0) return 0;
 457              		.loc 1 199 8
 458 0166 3B69     		ldr	r3, [r7, #16]
 459 0168 002B     		cmp	r3, #0
 460 016a 01DA     		bge	.L32
 461              		.loc 1 199 25 discriminator 1
 462 016c 0023     		movs	r3, #0
 463 016e 42E0     		b	.L18
 464              	.L32:
 200:g:/iot/IoT_Device_Demo/iot_link/network/lwm2m/wakaama_lwm2m/wakaama-master/core\registration.c ****     index += res;
 465              		.loc 1 200 11
 466 0170 7A69     		ldr	r2, [r7, #20]
 467 0172 3B69     		ldr	r3, [r7, #16]
 468 0174 1344     		add	r3, r3, r2
 469 0176 7B61     		str	r3, [r7, #20]
 201:g:/iot/IoT_Device_Demo/iot_link/network/lwm2m/wakaama_lwm2m/wakaama-master/core\registration.c **** 
 202:g:/iot/IoT_Device_Demo/iot_link/network/lwm2m/wakaama_lwm2m/wakaama-master/core\registration.c ****     if (0 != server->lifetime)
 470              		.loc 1 202 20
 471 0178 BB68     		ldr	r3, [r7, #8]
 472 017a D3E90223 		ldrd	r2, [r3, #8]
 473              		.loc 1 202 8
 474 017e 1343     		orrs	r3, r2, r3
ARM GAS  C:\Users\ADMINI~1\AppData\Local\Temp\ccRMs3cA.s 			page 13


 475 0180 2AD0     		beq	.L33
 203:g:/iot/IoT_Device_Demo/iot_link/network/lwm2m/wakaama_lwm2m/wakaama-master/core\registration.c ****     {
 204:g:/iot/IoT_Device_Demo/iot_link/network/lwm2m/wakaama_lwm2m/wakaama-master/core\registration.c ****         res = utils_stringCopy(buffer + index, length - index, QUERY_DELIMITER QUERY_LIFETIME);
 476              		.loc 1 204 15
 477 0182 7B69     		ldr	r3, [r7, #20]
 478 0184 7A68     		ldr	r2, [r7, #4]
 479 0186 D018     		adds	r0, r2, r3
 480 0188 7B69     		ldr	r3, [r7, #20]
 481 018a 3A68     		ldr	r2, [r7]
 482 018c D31A     		subs	r3, r2, r3
 483 018e 244A     		ldr	r2, .L38+32
 484 0190 1946     		mov	r1, r3
 485 0192 FFF7FEFF 		bl	utils_stringCopy
 486 0196 3861     		str	r0, [r7, #16]
 205:g:/iot/IoT_Device_Demo/iot_link/network/lwm2m/wakaama_lwm2m/wakaama-master/core\registration.c ****         if (res < 0) return 0;
 487              		.loc 1 205 12
 488 0198 3B69     		ldr	r3, [r7, #16]
 489 019a 002B     		cmp	r3, #0
 490 019c 01DA     		bge	.L34
 491              		.loc 1 205 29 discriminator 1
 492 019e 0023     		movs	r3, #0
 493 01a0 29E0     		b	.L18
 494              	.L34:
 206:g:/iot/IoT_Device_Demo/iot_link/network/lwm2m/wakaama_lwm2m/wakaama-master/core\registration.c ****         index += res;
 495              		.loc 1 206 15
 496 01a2 7A69     		ldr	r2, [r7, #20]
 497 01a4 3B69     		ldr	r3, [r7, #16]
 498 01a6 1344     		add	r3, r3, r2
 499 01a8 7B61     		str	r3, [r7, #20]
 207:g:/iot/IoT_Device_Demo/iot_link/network/lwm2m/wakaama_lwm2m/wakaama-master/core\registration.c ****         res = utils_intToText(server->lifetime, (uint8_t *)buffer + index, length - index);
 500              		.loc 1 207 15
 501 01aa BB68     		ldr	r3, [r7, #8]
 502 01ac D3E90201 		ldrd	r0, [r3, #8]
 503 01b0 7B69     		ldr	r3, [r7, #20]
 504 01b2 7A68     		ldr	r2, [r7, #4]
 505 01b4 D418     		adds	r4, r2, r3
 506 01b6 7B69     		ldr	r3, [r7, #20]
 507 01b8 3A68     		ldr	r2, [r7]
 508 01ba D31A     		subs	r3, r2, r3
 509 01bc 2246     		mov	r2, r4
 510 01be FFF7FEFF 		bl	utils_intToText
 511 01c2 0346     		mov	r3, r0
 512              		.loc 1 207 13
 513 01c4 3B61     		str	r3, [r7, #16]
 208:g:/iot/IoT_Device_Demo/iot_link/network/lwm2m/wakaama_lwm2m/wakaama-master/core\registration.c ****         if (res == 0) return 0;
 514              		.loc 1 208 12
 515 01c6 3B69     		ldr	r3, [r7, #16]
 516 01c8 002B     		cmp	r3, #0
 517 01ca 01D1     		bne	.L35
 518              		.loc 1 208 30 discriminator 1
 519 01cc 0023     		movs	r3, #0
 520 01ce 12E0     		b	.L18
 521              	.L35:
 209:g:/iot/IoT_Device_Demo/iot_link/network/lwm2m/wakaama_lwm2m/wakaama-master/core\registration.c ****         index += res;
 522              		.loc 1 209 15
 523 01d0 7A69     		ldr	r2, [r7, #20]
 524 01d2 3B69     		ldr	r3, [r7, #16]
ARM GAS  C:\Users\ADMINI~1\AppData\Local\Temp\ccRMs3cA.s 			page 14


 525 01d4 1344     		add	r3, r3, r2
 526 01d6 7B61     		str	r3, [r7, #20]
 527              	.L33:
 210:g:/iot/IoT_Device_Demo/iot_link/network/lwm2m/wakaama_lwm2m/wakaama-master/core\registration.c ****     }
 211:g:/iot/IoT_Device_Demo/iot_link/network/lwm2m/wakaama_lwm2m/wakaama-master/core\registration.c **** 
 212:g:/iot/IoT_Device_Demo/iot_link/network/lwm2m/wakaama_lwm2m/wakaama-master/core\registration.c ****     if(index < (int)length)
 528              		.loc 1 212 16
 529 01d8 3B68     		ldr	r3, [r7]
 530              		.loc 1 212 7
 531 01da 7A69     		ldr	r2, [r7, #20]
 532 01dc 9A42     		cmp	r2, r3
 533 01de 09DA     		bge	.L36
 213:g:/iot/IoT_Device_Demo/iot_link/network/lwm2m/wakaama_lwm2m/wakaama-master/core\registration.c ****     {
 214:g:/iot/IoT_Device_Demo/iot_link/network/lwm2m/wakaama_lwm2m/wakaama-master/core\registration.c ****         buffer[index++] = '\0';
 534              		.loc 1 214 21
 535 01e0 7B69     		ldr	r3, [r7, #20]
 536 01e2 5A1C     		adds	r2, r3, #1
 537 01e4 7A61     		str	r2, [r7, #20]
 538 01e6 1A46     		mov	r2, r3
 539              		.loc 1 214 15
 540 01e8 7B68     		ldr	r3, [r7, #4]
 541 01ea 1344     		add	r3, r3, r2
 542              		.loc 1 214 25
 543 01ec 0022     		movs	r2, #0
 544 01ee 1A70     		strb	r2, [r3]
 215:g:/iot/IoT_Device_Demo/iot_link/network/lwm2m/wakaama_lwm2m/wakaama-master/core\registration.c ****     }
 216:g:/iot/IoT_Device_Demo/iot_link/network/lwm2m/wakaama_lwm2m/wakaama-master/core\registration.c ****     else
 217:g:/iot/IoT_Device_Demo/iot_link/network/lwm2m/wakaama_lwm2m/wakaama-master/core\registration.c ****     {
 218:g:/iot/IoT_Device_Demo/iot_link/network/lwm2m/wakaama_lwm2m/wakaama-master/core\registration.c ****         return 0;
 219:g:/iot/IoT_Device_Demo/iot_link/network/lwm2m/wakaama_lwm2m/wakaama-master/core\registration.c ****     }
 220:g:/iot/IoT_Device_Demo/iot_link/network/lwm2m/wakaama_lwm2m/wakaama-master/core\registration.c **** 
 221:g:/iot/IoT_Device_Demo/iot_link/network/lwm2m/wakaama_lwm2m/wakaama-master/core\registration.c ****     return index;
 545              		.loc 1 221 12
 546 01f0 7B69     		ldr	r3, [r7, #20]
 547 01f2 00E0     		b	.L18
 548              	.L36:
 218:g:/iot/IoT_Device_Demo/iot_link/network/lwm2m/wakaama_lwm2m/wakaama-master/core\registration.c ****     }
 549              		.loc 1 218 16
 550 01f4 0023     		movs	r3, #0
 551              	.L18:
 222:g:/iot/IoT_Device_Demo/iot_link/network/lwm2m/wakaama_lwm2m/wakaama-master/core\registration.c **** }
 552              		.loc 1 222 1
 553 01f6 1846     		mov	r0, r3
 554 01f8 1C37     		adds	r7, r7, #28
 555              	.LCFI8:
 556              		.cfi_def_cfa_offset 12
 557 01fa BD46     		mov	sp, r7
 558              	.LCFI9:
 559              		.cfi_def_cfa_register 13
 560              		@ sp needed
 561 01fc 90BD     		pop	{r4, r7, pc}
 562              	.L39:
 563 01fe 00BF     		.align	2
 564              	.L38:
 565 0200 00000000 		.word	.LC0
 566 0204 10000000 		.word	.LC1
 567 0208 18000000 		.word	.LC2
ARM GAS  C:\Users\ADMINI~1\AppData\Local\Temp\ccRMs3cA.s 			page 15


 568 020c 20000000 		.word	.LC3
 569 0210 28000000 		.word	.LC4
 570 0214 30000000 		.word	.LC5
 571 0218 38000000 		.word	.LC6
 572 021c 40000000 		.word	.LC7
 573 0220 48000000 		.word	.LC8
 574              		.cfi_endproc
 575              	.LFE5:
 577              		.section	.rodata
 578 004d 000000   		.align	2
 579              	.LC9:
 580 0050 5B25735D 		.ascii	"[%s][%u][%s:%d] [%d][%s:%d] come into  prv_handleRe"
 580      5B25755D 
 580      5B25733A 
 580      25645D20 
 580      5B25645D 
 581 0083 67697374 		.ascii	"gistrationReply!!\015\012\015\012\000"
 581      72617469 
 581      6F6E5265 
 581      706C7921 
 581      210D0A0D 
 582 0099 000000   		.align	2
 583              	.LC10:
 584 009c 5B25735D 		.ascii	"[%s][%u][%s:%d] [%d][%s:%d] Registration successful"
 584      5B25755D 
 584      5B25733A 
 584      25645D20 
 584      5B25645D 
 585 00cf 0D0A0D0A 		.ascii	"\015\012\015\012\000"
 585      00
 586              		.align	2
 587              	.LC11:
 588 00d4 5B25735D 		.ascii	"[%s][%u][%s:%d] [%d][%s:%d] Registration failed\015"
 588      5B25755D 
 588      5B25733A 
 588      25645D20 
 588      5B25645D 
 589 0104 0A0D0A00 		.ascii	"\012\015\012\000"
 590              		.section	.text.prv_handleRegistrationReply,"ax",%progbits
 591              		.align	1
 592              		.syntax unified
 593              		.thumb
 594              		.thumb_func
 595              		.fpu fpv4-sp-d16
 597              	prv_handleRegistrationReply:
 598              	.LFB6:
 223:g:/iot/IoT_Device_Demo/iot_link/network/lwm2m/wakaama_lwm2m/wakaama-master/core\registration.c **** 
 224:g:/iot/IoT_Device_Demo/iot_link/network/lwm2m/wakaama_lwm2m/wakaama-master/core\registration.c **** static void prv_handleRegistrationReply(lwm2m_transaction_t *transacP,
 225:g:/iot/IoT_Device_Demo/iot_link/network/lwm2m/wakaama_lwm2m/wakaama-master/core\registration.c ****                                         void *message)
 226:g:/iot/IoT_Device_Demo/iot_link/network/lwm2m/wakaama_lwm2m/wakaama-master/core\registration.c **** {
 599              		.loc 1 226 1
 600              		.cfi_startproc
 601              		@ args = 0, pretend = 0, frame = 24
 602              		@ frame_needed = 1, uses_anonymous_args = 0
 603 0000 B0B5     		push	{r4, r5, r7, lr}
 604              	.LCFI10:
 605              		.cfi_def_cfa_offset 16
ARM GAS  C:\Users\ADMINI~1\AppData\Local\Temp\ccRMs3cA.s 			page 16


 606              		.cfi_offset 4, -16
 607              		.cfi_offset 5, -12
 608              		.cfi_offset 7, -8
 609              		.cfi_offset 14, -4
 610 0002 8AB0     		sub	sp, sp, #40
 611              	.LCFI11:
 612              		.cfi_def_cfa_offset 56
 613 0004 04AF     		add	r7, sp, #16
 614              	.LCFI12:
 615              		.cfi_def_cfa 7, 40
 616 0006 7860     		str	r0, [r7, #4]
 617 0008 3960     		str	r1, [r7]
 227:g:/iot/IoT_Device_Demo/iot_link/network/lwm2m/wakaama_lwm2m/wakaama-master/core\registration.c ****     coap_packet_t *packet = (coap_packet_t *)message;
 618              		.loc 1 227 20
 619 000a 3B68     		ldr	r3, [r7]
 620 000c 7B61     		str	r3, [r7, #20]
 228:g:/iot/IoT_Device_Demo/iot_link/network/lwm2m/wakaama_lwm2m/wakaama-master/core\registration.c ****     lwm2m_server_t *targetP = (lwm2m_server_t *)(transacP->userData);
 621              		.loc 1 228 21
 622 000e 7B68     		ldr	r3, [r7, #4]
 623 0010 5B6C     		ldr	r3, [r3, #68]
 624 0012 3B61     		str	r3, [r7, #16]
 229:g:/iot/IoT_Device_Demo/iot_link/network/lwm2m/wakaama_lwm2m/wakaama-master/core\registration.c **** 
 230:g:/iot/IoT_Device_Demo/iot_link/network/lwm2m/wakaama_lwm2m/wakaama-master/core\registration.c ****     LOG("come into  prv_handleRegistrationReply!!");
 625              		.loc 1 230 5
 626 0014 FFF7FEFF 		bl	link_log_level_get
 627 0018 0346     		mov	r3, r0
 628 001a 012B     		cmp	r3, #1
 629 001c 19D8     		bhi	.L41
 630              		.loc 1 230 5 is_stmt 0 discriminator 1
 631 001e 0120     		movs	r0, #1
 632 0020 FFF7FEFF 		bl	link_log_level_name
 633 0024 0446     		mov	r4, r0
 634 0026 FFF7FEFF 		bl	osal_sys_time
 635 002a 0246     		mov	r2, r0
 636 002c 0B46     		mov	r3, r1
 637 002e 1546     		mov	r5, r2
 638 0030 FFF7FEFF 		bl	lwm2m_gettime
 639 0034 0246     		mov	r2, r0
 640 0036 0B46     		mov	r3, r1
 641 0038 E623     		movs	r3, #230
 642 003a 0393     		str	r3, [sp, #12]
 643 003c 404B     		ldr	r3, .L48
 644 003e 0293     		str	r3, [sp, #8]
 645 0040 0192     		str	r2, [sp, #4]
 646 0042 E623     		movs	r3, #230
 647 0044 0093     		str	r3, [sp]
 648 0046 3F4B     		ldr	r3, .L48+4
 649 0048 2A46     		mov	r2, r5
 650 004a 2146     		mov	r1, r4
 651 004c 3E48     		ldr	r0, .L48+8
 652 004e FFF7FEFF 		bl	printf
 653              	.L41:
 231:g:/iot/IoT_Device_Demo/iot_link/network/lwm2m/wakaama_lwm2m/wakaama-master/core\registration.c ****     if (targetP->status == STATE_REG_PENDING)
 654              		.loc 1 231 16 is_stmt 1
 655 0052 3B69     		ldr	r3, [r7, #16]
 656 0054 93F82030 		ldrb	r3, [r3, #32]	@ zero_extendqisi2
 657              		.loc 1 231 8
ARM GAS  C:\Users\ADMINI~1\AppData\Local\Temp\ccRMs3cA.s 			page 17


 658 0058 012B     		cmp	r3, #1
 659 005a 6CD1     		bne	.L47
 660              	.LBB2:
 232:g:/iot/IoT_Device_Demo/iot_link/network/lwm2m/wakaama_lwm2m/wakaama-master/core\registration.c ****     {
 233:g:/iot/IoT_Device_Demo/iot_link/network/lwm2m/wakaama_lwm2m/wakaama-master/core\registration.c ****         time_t tv_sec = lwm2m_gettime();
 661              		.loc 1 233 25
 662 005c FFF7FEFF 		bl	lwm2m_gettime
 663 0060 C7E90201 		strd	r0, [r7, #8]
 234:g:/iot/IoT_Device_Demo/iot_link/network/lwm2m/wakaama_lwm2m/wakaama-master/core\registration.c ****         if (tv_sec)
 664              		.loc 1 234 12
 665 0064 D7E90223 		ldrd	r2, [r7, #8]
 666 0068 1343     		orrs	r3, r2, r3
 667 006a 04D0     		beq	.L43
 235:g:/iot/IoT_Device_Demo/iot_link/network/lwm2m/wakaama_lwm2m/wakaama-master/core\registration.c ****         {
 236:g:/iot/IoT_Device_Demo/iot_link/network/lwm2m/wakaama_lwm2m/wakaama-master/core\registration.c ****             targetP->registration = tv_sec;
 668              		.loc 1 236 35
 669 006c 3969     		ldr	r1, [r7, #16]
 670 006e D7E90223 		ldrd	r2, [r7, #8]
 671 0072 C1E90423 		strd	r2, [r1, #16]
 672              	.L43:
 237:g:/iot/IoT_Device_Demo/iot_link/network/lwm2m/wakaama_lwm2m/wakaama-master/core\registration.c ****         }
 238:g:/iot/IoT_Device_Demo/iot_link/network/lwm2m/wakaama_lwm2m/wakaama-master/core\registration.c ****         if (packet != NULL && packet->code == COAP_201_CREATED)
 673              		.loc 1 238 12
 674 0076 7B69     		ldr	r3, [r7, #20]
 675 0078 002B     		cmp	r3, #0
 676 007a 38D0     		beq	.L44
 677              		.loc 1 238 37 discriminator 1
 678 007c 7B69     		ldr	r3, [r7, #20]
 679 007e 9B79     		ldrb	r3, [r3, #6]	@ zero_extendqisi2
 680              		.loc 1 238 28 discriminator 1
 681 0080 412B     		cmp	r3, #65
 682 0082 34D1     		bne	.L44
 239:g:/iot/IoT_Device_Demo/iot_link/network/lwm2m/wakaama_lwm2m/wakaama-master/core\registration.c ****         {
 240:g:/iot/IoT_Device_Demo/iot_link/network/lwm2m/wakaama_lwm2m/wakaama-master/core\registration.c ****             targetP->status = STATE_REGISTERED;
 683              		.loc 1 240 29
 684 0084 3B69     		ldr	r3, [r7, #16]
 685 0086 0222     		movs	r2, #2
 686 0088 83F82020 		strb	r2, [r3, #32]
 241:g:/iot/IoT_Device_Demo/iot_link/network/lwm2m/wakaama_lwm2m/wakaama-master/core\registration.c ****             if (NULL != targetP->location)
 687              		.loc 1 241 32
 688 008c 3B69     		ldr	r3, [r7, #16]
 689 008e 5B6A     		ldr	r3, [r3, #36]
 690              		.loc 1 241 16
 691 0090 002B     		cmp	r3, #0
 692 0092 04D0     		beq	.L45
 242:g:/iot/IoT_Device_Demo/iot_link/network/lwm2m/wakaama_lwm2m/wakaama-master/core\registration.c ****             {
 243:g:/iot/IoT_Device_Demo/iot_link/network/lwm2m/wakaama_lwm2m/wakaama-master/core\registration.c ****                 lwm2m_free(targetP->location);
 693              		.loc 1 243 35
 694 0094 3B69     		ldr	r3, [r7, #16]
 695 0096 5B6A     		ldr	r3, [r3, #36]
 696              		.loc 1 243 17
 697 0098 1846     		mov	r0, r3
 698 009a FFF7FEFF 		bl	lwm2m_free
 699              	.L45:
 244:g:/iot/IoT_Device_Demo/iot_link/network/lwm2m/wakaama_lwm2m/wakaama-master/core\registration.c ****             }
 245:g:/iot/IoT_Device_Demo/iot_link/network/lwm2m/wakaama_lwm2m/wakaama-master/core\registration.c ****             targetP->location = coap_get_multi_option_as_string(packet->location_path);
 700              		.loc 1 245 33
ARM GAS  C:\Users\ADMINI~1\AppData\Local\Temp\ccRMs3cA.s 			page 18


 701 009e 7B69     		ldr	r3, [r7, #20]
 702 00a0 5B6B     		ldr	r3, [r3, #52]
 703 00a2 1846     		mov	r0, r3
 704 00a4 FFF7FEFF 		bl	coap_get_multi_option_as_string
 705 00a8 0246     		mov	r2, r0
 706              		.loc 1 245 31
 707 00aa 3B69     		ldr	r3, [r7, #16]
 708 00ac 5A62     		str	r2, [r3, #36]
 246:g:/iot/IoT_Device_Demo/iot_link/network/lwm2m/wakaama_lwm2m/wakaama-master/core\registration.c **** 
 247:g:/iot/IoT_Device_Demo/iot_link/network/lwm2m/wakaama_lwm2m/wakaama-master/core\registration.c ****             LOG("Registration successful");
 709              		.loc 1 247 13
 710 00ae FFF7FEFF 		bl	link_log_level_get
 711 00b2 0346     		mov	r3, r0
 712 00b4 012B     		cmp	r3, #1
 713 00b6 3ED8     		bhi	.L42
 714              		.loc 1 247 13 is_stmt 0 discriminator 1
 715 00b8 0120     		movs	r0, #1
 716 00ba FFF7FEFF 		bl	link_log_level_name
 717 00be 0446     		mov	r4, r0
 718 00c0 FFF7FEFF 		bl	osal_sys_time
 719 00c4 0246     		mov	r2, r0
 720 00c6 0B46     		mov	r3, r1
 721 00c8 1546     		mov	r5, r2
 722 00ca FFF7FEFF 		bl	lwm2m_gettime
 723 00ce 0246     		mov	r2, r0
 724 00d0 0B46     		mov	r3, r1
 725 00d2 F723     		movs	r3, #247
 726 00d4 0393     		str	r3, [sp, #12]
 727 00d6 1A4B     		ldr	r3, .L48
 728 00d8 0293     		str	r3, [sp, #8]
 729 00da 0192     		str	r2, [sp, #4]
 730 00dc F723     		movs	r3, #247
 731 00de 0093     		str	r3, [sp]
 732 00e0 184B     		ldr	r3, .L48+4
 733 00e2 2A46     		mov	r2, r5
 734 00e4 2146     		mov	r1, r4
 735 00e6 1948     		ldr	r0, .L48+12
 736 00e8 FFF7FEFF 		bl	printf
 737 00ec 23E0     		b	.L42
 738              	.L44:
 248:g:/iot/IoT_Device_Demo/iot_link/network/lwm2m/wakaama_lwm2m/wakaama-master/core\registration.c ****         }
 249:g:/iot/IoT_Device_Demo/iot_link/network/lwm2m/wakaama_lwm2m/wakaama-master/core\registration.c ****         else
 250:g:/iot/IoT_Device_Demo/iot_link/network/lwm2m/wakaama_lwm2m/wakaama-master/core\registration.c ****         {
 251:g:/iot/IoT_Device_Demo/iot_link/network/lwm2m/wakaama_lwm2m/wakaama-master/core\registration.c ****             targetP->status = STATE_REG_FAILED;
 739              		.loc 1 251 29 is_stmt 1
 740 00ee 3B69     		ldr	r3, [r7, #16]
 741 00f0 0322     		movs	r2, #3
 742 00f2 83F82020 		strb	r2, [r3, #32]
 252:g:/iot/IoT_Device_Demo/iot_link/network/lwm2m/wakaama_lwm2m/wakaama-master/core\registration.c ****             LOG("Registration failed");
 743              		.loc 1 252 13
 744 00f6 FFF7FEFF 		bl	link_log_level_get
 745 00fa 0346     		mov	r3, r0
 746 00fc 012B     		cmp	r3, #1
 747 00fe 1AD8     		bhi	.L47
 748              		.loc 1 252 13 is_stmt 0 discriminator 1
 749 0100 0120     		movs	r0, #1
 750 0102 FFF7FEFF 		bl	link_log_level_name
ARM GAS  C:\Users\ADMINI~1\AppData\Local\Temp\ccRMs3cA.s 			page 19


 751 0106 0446     		mov	r4, r0
 752 0108 FFF7FEFF 		bl	osal_sys_time
 753 010c 0246     		mov	r2, r0
 754 010e 0B46     		mov	r3, r1
 755 0110 1546     		mov	r5, r2
 756 0112 FFF7FEFF 		bl	lwm2m_gettime
 757 0116 0246     		mov	r2, r0
 758 0118 0B46     		mov	r3, r1
 759 011a FC23     		movs	r3, #252
 760 011c 0393     		str	r3, [sp, #12]
 761 011e 084B     		ldr	r3, .L48
 762 0120 0293     		str	r3, [sp, #8]
 763 0122 0192     		str	r2, [sp, #4]
 764 0124 FC23     		movs	r3, #252
 765 0126 0093     		str	r3, [sp]
 766 0128 064B     		ldr	r3, .L48+4
 767 012a 2A46     		mov	r2, r5
 768 012c 2146     		mov	r1, r4
 769 012e 0848     		ldr	r0, .L48+16
 770 0130 FFF7FEFF 		bl	printf
 771              	.LBE2:
 253:g:/iot/IoT_Device_Demo/iot_link/network/lwm2m/wakaama_lwm2m/wakaama-master/core\registration.c ****         }
 254:g:/iot/IoT_Device_Demo/iot_link/network/lwm2m/wakaama_lwm2m/wakaama-master/core\registration.c ****     }
 255:g:/iot/IoT_Device_Demo/iot_link/network/lwm2m/wakaama_lwm2m/wakaama-master/core\registration.c **** }
 772              		.loc 1 255 1 is_stmt 1 discriminator 1
 773 0134 FFE7     		b	.L47
 774              	.L42:
 775              	.L47:
 776              		.loc 1 255 1 is_stmt 0
 777 0136 00BF     		nop
 778 0138 1837     		adds	r7, r7, #24
 779              	.LCFI13:
 780              		.cfi_def_cfa_offset 16
 781 013a BD46     		mov	sp, r7
 782              	.LCFI14:
 783              		.cfi_def_cfa_register 13
 784              		@ sp needed
 785 013c B0BD     		pop	{r4, r5, r7, pc}
 786              	.L49:
 787 013e 00BF     		.align	2
 788              	.L48:
 789 0140 00000000 		.word	__func__.8663
 790 0144 00000000 		.word	__FUNCTION__.8662
 791 0148 50000000 		.word	.LC9
 792 014c 9C000000 		.word	.LC10
 793 0150 D4000000 		.word	.LC11
 794              		.cfi_endproc
 795              	.LFE6:
 797              		.section	.rodata
 798              		.align	2
 799              	.LC12:
 800 0108 2F726400 		.ascii	"/rd\000"
 801              		.section	.text.prv_register,"ax",%progbits
 802              		.align	1
 803              		.syntax unified
 804              		.thumb
 805              		.thumb_func
ARM GAS  C:\Users\ADMINI~1\AppData\Local\Temp\ccRMs3cA.s 			page 20


 806              		.fpu fpv4-sp-d16
 808              	prv_register:
 809              	.LFB7:
 256:g:/iot/IoT_Device_Demo/iot_link/network/lwm2m/wakaama_lwm2m/wakaama-master/core\registration.c **** 
 257:g:/iot/IoT_Device_Demo/iot_link/network/lwm2m/wakaama_lwm2m/wakaama-master/core\registration.c **** // send the registration for a single server
 258:g:/iot/IoT_Device_Demo/iot_link/network/lwm2m/wakaama_lwm2m/wakaama-master/core\registration.c **** static uint8_t prv_register(lwm2m_context_t *contextP,
 259:g:/iot/IoT_Device_Demo/iot_link/network/lwm2m/wakaama_lwm2m/wakaama-master/core\registration.c ****                             lwm2m_server_t *server)
 260:g:/iot/IoT_Device_Demo/iot_link/network/lwm2m/wakaama_lwm2m/wakaama-master/core\registration.c **** {
 810              		.loc 1 260 1 is_stmt 1
 811              		.cfi_startproc
 812              		@ args = 0, pretend = 0, frame = 32
 813              		@ frame_needed = 1, uses_anonymous_args = 0
 814 0000 80B5     		push	{r7, lr}
 815              	.LCFI15:
 816              		.cfi_def_cfa_offset 8
 817              		.cfi_offset 7, -8
 818              		.cfi_offset 14, -4
 819 0002 8CB0     		sub	sp, sp, #48
 820              	.LCFI16:
 821              		.cfi_def_cfa_offset 56
 822 0004 04AF     		add	r7, sp, #16
 823              	.LCFI17:
 824              		.cfi_def_cfa 7, 40
 825 0006 7860     		str	r0, [r7, #4]
 826 0008 3960     		str	r1, [r7]
 261:g:/iot/IoT_Device_Demo/iot_link/network/lwm2m/wakaama_lwm2m/wakaama-master/core\registration.c ****     char *query;
 262:g:/iot/IoT_Device_Demo/iot_link/network/lwm2m/wakaama_lwm2m/wakaama-master/core\registration.c ****     int query_length;
 263:g:/iot/IoT_Device_Demo/iot_link/network/lwm2m/wakaama_lwm2m/wakaama-master/core\registration.c ****     uint8_t *payload;
 264:g:/iot/IoT_Device_Demo/iot_link/network/lwm2m/wakaama_lwm2m/wakaama-master/core\registration.c ****     int payload_length;
 265:g:/iot/IoT_Device_Demo/iot_link/network/lwm2m/wakaama_lwm2m/wakaama-master/core\registration.c ****     lwm2m_transaction_t *transaction;
 266:g:/iot/IoT_Device_Demo/iot_link/network/lwm2m/wakaama_lwm2m/wakaama-master/core\registration.c **** 
 267:g:/iot/IoT_Device_Demo/iot_link/network/lwm2m/wakaama_lwm2m/wakaama-master/core\registration.c ****     payload_length = object_getRegisterPayloadBufferLength(contextP);
 827              		.loc 1 267 22
 828 000a 7868     		ldr	r0, [r7, #4]
 829 000c FFF7FEFF 		bl	object_getRegisterPayloadBufferLength
 830 0010 F861     		str	r0, [r7, #28]
 268:g:/iot/IoT_Device_Demo/iot_link/network/lwm2m/wakaama_lwm2m/wakaama-master/core\registration.c ****     if(payload_length == 0) return COAP_500_INTERNAL_SERVER_ERROR;
 831              		.loc 1 268 7
 832 0012 FB69     		ldr	r3, [r7, #28]
 833 0014 002B     		cmp	r3, #0
 834 0016 01D1     		bne	.L51
 835              		.loc 1 268 36 discriminator 1
 836 0018 A023     		movs	r3, #160
 837 001a BFE0     		b	.L52
 838              	.L51:
 269:g:/iot/IoT_Device_Demo/iot_link/network/lwm2m/wakaama_lwm2m/wakaama-master/core\registration.c ****     payload = lwm2m_malloc(payload_length);
 839              		.loc 1 269 15
 840 001c FB69     		ldr	r3, [r7, #28]
 841 001e 1846     		mov	r0, r3
 842 0020 FFF7FEFF 		bl	lwm2m_malloc
 843 0024 B861     		str	r0, [r7, #24]
 270:g:/iot/IoT_Device_Demo/iot_link/network/lwm2m/wakaama_lwm2m/wakaama-master/core\registration.c ****     if(!payload) return COAP_500_INTERNAL_SERVER_ERROR;
 844              		.loc 1 270 7
 845 0026 BB69     		ldr	r3, [r7, #24]
 846 0028 002B     		cmp	r3, #0
 847 002a 01D1     		bne	.L53
 848              		.loc 1 270 25 discriminator 1
ARM GAS  C:\Users\ADMINI~1\AppData\Local\Temp\ccRMs3cA.s 			page 21


 849 002c A023     		movs	r3, #160
 850 002e B5E0     		b	.L52
 851              	.L53:
 271:g:/iot/IoT_Device_Demo/iot_link/network/lwm2m/wakaama_lwm2m/wakaama-master/core\registration.c ****     payload_length = object_getRegisterPayload(contextP, payload, payload_length);
 852              		.loc 1 271 22
 853 0030 FB69     		ldr	r3, [r7, #28]
 854 0032 1A46     		mov	r2, r3
 855 0034 B969     		ldr	r1, [r7, #24]
 856 0036 7868     		ldr	r0, [r7, #4]
 857 0038 FFF7FEFF 		bl	object_getRegisterPayload
 858 003c F861     		str	r0, [r7, #28]
 272:g:/iot/IoT_Device_Demo/iot_link/network/lwm2m/wakaama_lwm2m/wakaama-master/core\registration.c ****     if(payload_length == 0)
 859              		.loc 1 272 7
 860 003e FB69     		ldr	r3, [r7, #28]
 861 0040 002B     		cmp	r3, #0
 862 0042 04D1     		bne	.L54
 273:g:/iot/IoT_Device_Demo/iot_link/network/lwm2m/wakaama_lwm2m/wakaama-master/core\registration.c ****     {
 274:g:/iot/IoT_Device_Demo/iot_link/network/lwm2m/wakaama_lwm2m/wakaama-master/core\registration.c ****         lwm2m_free(payload);
 863              		.loc 1 274 9
 864 0044 B869     		ldr	r0, [r7, #24]
 865 0046 FFF7FEFF 		bl	lwm2m_free
 275:g:/iot/IoT_Device_Demo/iot_link/network/lwm2m/wakaama_lwm2m/wakaama-master/core\registration.c ****         return COAP_500_INTERNAL_SERVER_ERROR;
 866              		.loc 1 275 16
 867 004a A023     		movs	r3, #160
 868 004c A6E0     		b	.L52
 869              	.L54:
 276:g:/iot/IoT_Device_Demo/iot_link/network/lwm2m/wakaama_lwm2m/wakaama-master/core\registration.c ****     }
 277:g:/iot/IoT_Device_Demo/iot_link/network/lwm2m/wakaama_lwm2m/wakaama-master/core\registration.c **** 
 278:g:/iot/IoT_Device_Demo/iot_link/network/lwm2m/wakaama_lwm2m/wakaama-master/core\registration.c ****     query_length = prv_getRegistrationQueryLength(contextP, server);
 870              		.loc 1 278 20
 871 004e 3968     		ldr	r1, [r7]
 872 0050 7868     		ldr	r0, [r7, #4]
 873 0052 FFF7FEFF 		bl	prv_getRegistrationQueryLength
 874 0056 7861     		str	r0, [r7, #20]
 279:g:/iot/IoT_Device_Demo/iot_link/network/lwm2m/wakaama_lwm2m/wakaama-master/core\registration.c ****     if(query_length == 0)
 875              		.loc 1 279 7
 876 0058 7B69     		ldr	r3, [r7, #20]
 877 005a 002B     		cmp	r3, #0
 878 005c 04D1     		bne	.L55
 280:g:/iot/IoT_Device_Demo/iot_link/network/lwm2m/wakaama_lwm2m/wakaama-master/core\registration.c ****     {
 281:g:/iot/IoT_Device_Demo/iot_link/network/lwm2m/wakaama_lwm2m/wakaama-master/core\registration.c ****         lwm2m_free(payload);
 879              		.loc 1 281 9
 880 005e B869     		ldr	r0, [r7, #24]
 881 0060 FFF7FEFF 		bl	lwm2m_free
 282:g:/iot/IoT_Device_Demo/iot_link/network/lwm2m/wakaama_lwm2m/wakaama-master/core\registration.c ****         return COAP_500_INTERNAL_SERVER_ERROR;
 882              		.loc 1 282 16
 883 0064 A023     		movs	r3, #160
 884 0066 99E0     		b	.L52
 885              	.L55:
 283:g:/iot/IoT_Device_Demo/iot_link/network/lwm2m/wakaama_lwm2m/wakaama-master/core\registration.c ****     }
 284:g:/iot/IoT_Device_Demo/iot_link/network/lwm2m/wakaama_lwm2m/wakaama-master/core\registration.c ****     query = lwm2m_malloc(query_length);
 886              		.loc 1 284 13
 887 0068 7B69     		ldr	r3, [r7, #20]
 888 006a 1846     		mov	r0, r3
 889 006c FFF7FEFF 		bl	lwm2m_malloc
 890 0070 3861     		str	r0, [r7, #16]
 285:g:/iot/IoT_Device_Demo/iot_link/network/lwm2m/wakaama_lwm2m/wakaama-master/core\registration.c ****     if(!query)
ARM GAS  C:\Users\ADMINI~1\AppData\Local\Temp\ccRMs3cA.s 			page 22


 891              		.loc 1 285 7
 892 0072 3B69     		ldr	r3, [r7, #16]
 893 0074 002B     		cmp	r3, #0
 894 0076 04D1     		bne	.L56
 286:g:/iot/IoT_Device_Demo/iot_link/network/lwm2m/wakaama_lwm2m/wakaama-master/core\registration.c ****     {
 287:g:/iot/IoT_Device_Demo/iot_link/network/lwm2m/wakaama_lwm2m/wakaama-master/core\registration.c ****         lwm2m_free(payload);
 895              		.loc 1 287 9
 896 0078 B869     		ldr	r0, [r7, #24]
 897 007a FFF7FEFF 		bl	lwm2m_free
 288:g:/iot/IoT_Device_Demo/iot_link/network/lwm2m/wakaama_lwm2m/wakaama-master/core\registration.c ****         return COAP_500_INTERNAL_SERVER_ERROR;
 898              		.loc 1 288 16
 899 007e A023     		movs	r3, #160
 900 0080 8CE0     		b	.L52
 901              	.L56:
 289:g:/iot/IoT_Device_Demo/iot_link/network/lwm2m/wakaama_lwm2m/wakaama-master/core\registration.c ****     }
 290:g:/iot/IoT_Device_Demo/iot_link/network/lwm2m/wakaama_lwm2m/wakaama-master/core\registration.c ****     if(prv_getRegistrationQuery(contextP, server, query, query_length) != query_length)
 902              		.loc 1 290 8
 903 0082 7B69     		ldr	r3, [r7, #20]
 904 0084 3A69     		ldr	r2, [r7, #16]
 905 0086 3968     		ldr	r1, [r7]
 906 0088 7868     		ldr	r0, [r7, #4]
 907 008a FFF7FEFF 		bl	prv_getRegistrationQuery
 908 008e 0246     		mov	r2, r0
 909              		.loc 1 290 7
 910 0090 7B69     		ldr	r3, [r7, #20]
 911 0092 9342     		cmp	r3, r2
 912 0094 07D0     		beq	.L57
 291:g:/iot/IoT_Device_Demo/iot_link/network/lwm2m/wakaama_lwm2m/wakaama-master/core\registration.c ****     {
 292:g:/iot/IoT_Device_Demo/iot_link/network/lwm2m/wakaama_lwm2m/wakaama-master/core\registration.c ****         lwm2m_free(payload);
 913              		.loc 1 292 9
 914 0096 B869     		ldr	r0, [r7, #24]
 915 0098 FFF7FEFF 		bl	lwm2m_free
 293:g:/iot/IoT_Device_Demo/iot_link/network/lwm2m/wakaama_lwm2m/wakaama-master/core\registration.c ****         lwm2m_free(query);
 916              		.loc 1 293 9
 917 009c 3869     		ldr	r0, [r7, #16]
 918 009e FFF7FEFF 		bl	lwm2m_free
 294:g:/iot/IoT_Device_Demo/iot_link/network/lwm2m/wakaama_lwm2m/wakaama-master/core\registration.c ****         return COAP_500_INTERNAL_SERVER_ERROR;
 919              		.loc 1 294 16
 920 00a2 A023     		movs	r3, #160
 921 00a4 7AE0     		b	.L52
 922              	.L57:
 295:g:/iot/IoT_Device_Demo/iot_link/network/lwm2m/wakaama_lwm2m/wakaama-master/core\registration.c ****     }
 296:g:/iot/IoT_Device_Demo/iot_link/network/lwm2m/wakaama_lwm2m/wakaama-master/core\registration.c **** 
 297:g:/iot/IoT_Device_Demo/iot_link/network/lwm2m/wakaama_lwm2m/wakaama-master/core\registration.c ****     if (server->sessionH == NULL)
 923              		.loc 1 297 15
 924 00a6 3B68     		ldr	r3, [r7]
 925 00a8 DB69     		ldr	r3, [r3, #28]
 926              		.loc 1 297 8
 927 00aa 002B     		cmp	r3, #0
 928 00ac 0AD1     		bne	.L58
 298:g:/iot/IoT_Device_Demo/iot_link/network/lwm2m/wakaama_lwm2m/wakaama-master/core\registration.c ****     {
 299:g:/iot/IoT_Device_Demo/iot_link/network/lwm2m/wakaama_lwm2m/wakaama-master/core\registration.c ****         server->sessionH = lwm2m_connect_server(server->secObjInstID, contextP->userData, false);
 929              		.loc 1 299 28
 930 00ae 3B68     		ldr	r3, [r7]
 931 00b0 9888     		ldrh	r0, [r3, #4]
 932 00b2 7B68     		ldr	r3, [r7, #4]
 933 00b4 5B6B     		ldr	r3, [r3, #52]
ARM GAS  C:\Users\ADMINI~1\AppData\Local\Temp\ccRMs3cA.s 			page 23


 934 00b6 0022     		movs	r2, #0
 935 00b8 1946     		mov	r1, r3
 936 00ba FFF7FEFF 		bl	lwm2m_connect_server
 937 00be 0246     		mov	r2, r0
 938              		.loc 1 299 26
 939 00c0 3B68     		ldr	r3, [r7]
 940 00c2 DA61     		str	r2, [r3, #28]
 941              	.L58:
 300:g:/iot/IoT_Device_Demo/iot_link/network/lwm2m/wakaama_lwm2m/wakaama-master/core\registration.c ****     }
 301:g:/iot/IoT_Device_Demo/iot_link/network/lwm2m/wakaama_lwm2m/wakaama-master/core\registration.c **** 
 302:g:/iot/IoT_Device_Demo/iot_link/network/lwm2m/wakaama_lwm2m/wakaama-master/core\registration.c ****     if (NULL == server->sessionH)
 942              		.loc 1 302 23
 943 00c4 3B68     		ldr	r3, [r7]
 944 00c6 DB69     		ldr	r3, [r3, #28]
 945              		.loc 1 302 8
 946 00c8 002B     		cmp	r3, #0
 947 00ca 07D1     		bne	.L59
 303:g:/iot/IoT_Device_Demo/iot_link/network/lwm2m/wakaama_lwm2m/wakaama-master/core\registration.c ****     {
 304:g:/iot/IoT_Device_Demo/iot_link/network/lwm2m/wakaama_lwm2m/wakaama-master/core\registration.c ****         lwm2m_free(payload);
 948              		.loc 1 304 9
 949 00cc B869     		ldr	r0, [r7, #24]
 950 00ce FFF7FEFF 		bl	lwm2m_free
 305:g:/iot/IoT_Device_Demo/iot_link/network/lwm2m/wakaama_lwm2m/wakaama-master/core\registration.c ****         lwm2m_free(query);
 951              		.loc 1 305 9
 952 00d2 3869     		ldr	r0, [r7, #16]
 953 00d4 FFF7FEFF 		bl	lwm2m_free
 306:g:/iot/IoT_Device_Demo/iot_link/network/lwm2m/wakaama_lwm2m/wakaama-master/core\registration.c ****         return COAP_503_SERVICE_UNAVAILABLE;
 954              		.loc 1 306 16
 955 00d8 A323     		movs	r3, #163
 956 00da 5FE0     		b	.L52
 957              	.L59:
 307:g:/iot/IoT_Device_Demo/iot_link/network/lwm2m/wakaama_lwm2m/wakaama-master/core\registration.c ****     }
 308:g:/iot/IoT_Device_Demo/iot_link/network/lwm2m/wakaama_lwm2m/wakaama-master/core\registration.c **** 
 309:g:/iot/IoT_Device_Demo/iot_link/network/lwm2m/wakaama_lwm2m/wakaama-master/core\registration.c ****     transaction = transaction_new(server->sessionH, COAP_POST, NULL, NULL, contextP->nextMID++, 4, 
 958              		.loc 1 309 19
 959 00dc 3B68     		ldr	r3, [r7]
 960 00de D869     		ldr	r0, [r3, #28]
 961              		.loc 1 309 84
 962 00e0 7B68     		ldr	r3, [r7, #4]
 963 00e2 9B8D     		ldrh	r3, [r3, #44]
 964              		.loc 1 309 19
 965 00e4 5A1C     		adds	r2, r3, #1
 966 00e6 91B2     		uxth	r1, r2
 967 00e8 7A68     		ldr	r2, [r7, #4]
 968 00ea 9185     		strh	r1, [r2, #44]	@ movhi
 969 00ec 0022     		movs	r2, #0
 970 00ee 0292     		str	r2, [sp, #8]
 971 00f0 0422     		movs	r2, #4
 972 00f2 0192     		str	r2, [sp, #4]
 973 00f4 0093     		str	r3, [sp]
 974 00f6 0023     		movs	r3, #0
 975 00f8 0022     		movs	r2, #0
 976 00fa 0221     		movs	r1, #2
 977 00fc FFF7FEFF 		bl	transaction_new
 978 0100 F860     		str	r0, [r7, #12]
 310:g:/iot/IoT_Device_Demo/iot_link/network/lwm2m/wakaama_lwm2m/wakaama-master/core\registration.c ****     if (transaction == NULL)
 979              		.loc 1 310 8
ARM GAS  C:\Users\ADMINI~1\AppData\Local\Temp\ccRMs3cA.s 			page 24


 980 0102 FB68     		ldr	r3, [r7, #12]
 981 0104 002B     		cmp	r3, #0
 982 0106 07D1     		bne	.L60
 311:g:/iot/IoT_Device_Demo/iot_link/network/lwm2m/wakaama_lwm2m/wakaama-master/core\registration.c ****     {
 312:g:/iot/IoT_Device_Demo/iot_link/network/lwm2m/wakaama_lwm2m/wakaama-master/core\registration.c ****         lwm2m_free(payload);
 983              		.loc 1 312 9
 984 0108 B869     		ldr	r0, [r7, #24]
 985 010a FFF7FEFF 		bl	lwm2m_free
 313:g:/iot/IoT_Device_Demo/iot_link/network/lwm2m/wakaama_lwm2m/wakaama-master/core\registration.c ****         lwm2m_free(query);
 986              		.loc 1 313 9
 987 010e 3869     		ldr	r0, [r7, #16]
 988 0110 FFF7FEFF 		bl	lwm2m_free
 314:g:/iot/IoT_Device_Demo/iot_link/network/lwm2m/wakaama_lwm2m/wakaama-master/core\registration.c ****         return COAP_503_SERVICE_UNAVAILABLE;
 989              		.loc 1 314 16
 990 0114 A323     		movs	r3, #163
 991 0116 41E0     		b	.L52
 992              	.L60:
 315:g:/iot/IoT_Device_Demo/iot_link/network/lwm2m/wakaama_lwm2m/wakaama-master/core\registration.c ****     }
 316:g:/iot/IoT_Device_Demo/iot_link/network/lwm2m/wakaama_lwm2m/wakaama-master/core\registration.c ****     //    coap_pdu_t *pdu = (coap_pdu_t *)(transaction->message);
 317:g:/iot/IoT_Device_Demo/iot_link/network/lwm2m/wakaama_lwm2m/wakaama-master/core\registration.c **** 
 318:g:/iot/IoT_Device_Demo/iot_link/network/lwm2m/wakaama_lwm2m/wakaama-master/core\registration.c ****     coap_set_header_uri_path(transaction->message, "/"URI_REGISTRATION_SEGMENT);
 993              		.loc 1 318 41
 994 0118 FB68     		ldr	r3, [r7, #12]
 995 011a 9B6A     		ldr	r3, [r3, #40]
 996              		.loc 1 318 5
 997 011c 2149     		ldr	r1, .L62
 998 011e 1846     		mov	r0, r3
 999 0120 FFF7FEFF 		bl	coap_set_header_uri_path
 319:g:/iot/IoT_Device_Demo/iot_link/network/lwm2m/wakaama_lwm2m/wakaama-master/core\registration.c ****     coap_set_header_uri_query(transaction->message, query);
 1000              		.loc 1 319 42
 1001 0124 FB68     		ldr	r3, [r7, #12]
 1002 0126 9B6A     		ldr	r3, [r3, #40]
 1003              		.loc 1 319 5
 1004 0128 3969     		ldr	r1, [r7, #16]
 1005 012a 1846     		mov	r0, r3
 1006 012c FFF7FEFF 		bl	coap_set_header_uri_query
 320:g:/iot/IoT_Device_Demo/iot_link/network/lwm2m/wakaama_lwm2m/wakaama-master/core\registration.c ****     coap_set_header_content_type(transaction->message, LWM2M_CONTENT_LINK);
 1007              		.loc 1 320 45
 1008 0130 FB68     		ldr	r3, [r7, #12]
 1009 0132 9B6A     		ldr	r3, [r3, #40]
 1010              		.loc 1 320 5
 1011 0134 2821     		movs	r1, #40
 1012 0136 1846     		mov	r0, r3
 1013 0138 FFF7FEFF 		bl	coap_set_header_content_type
 321:g:/iot/IoT_Device_Demo/iot_link/network/lwm2m/wakaama_lwm2m/wakaama-master/core\registration.c ****     coap_set_payload(transaction->message, payload, payload_length);
 1014              		.loc 1 321 33
 1015 013c FB68     		ldr	r3, [r7, #12]
 1016 013e 9B6A     		ldr	r3, [r3, #40]
 1017              		.loc 1 321 5
 1018 0140 FA69     		ldr	r2, [r7, #28]
 1019 0142 B969     		ldr	r1, [r7, #24]
 1020 0144 1846     		mov	r0, r3
 1021 0146 FFF7FEFF 		bl	coap_set_payload
 322:g:/iot/IoT_Device_Demo/iot_link/network/lwm2m/wakaama_lwm2m/wakaama-master/core\registration.c **** 
 323:g:/iot/IoT_Device_Demo/iot_link/network/lwm2m/wakaama_lwm2m/wakaama-master/core\registration.c ****     transaction->callback = prv_handleRegistrationReply;
 1022              		.loc 1 323 27
 1023 014a FB68     		ldr	r3, [r7, #12]
ARM GAS  C:\Users\ADMINI~1\AppData\Local\Temp\ccRMs3cA.s 			page 25


 1024 014c 164A     		ldr	r2, .L62+4
 1025 014e 1A64     		str	r2, [r3, #64]
 324:g:/iot/IoT_Device_Demo/iot_link/network/lwm2m/wakaama_lwm2m/wakaama-master/core\registration.c ****     transaction->userData = (void *) server;
 1026              		.loc 1 324 27
 1027 0150 FB68     		ldr	r3, [r7, #12]
 1028 0152 3A68     		ldr	r2, [r7]
 1029 0154 5A64     		str	r2, [r3, #68]
 325:g:/iot/IoT_Device_Demo/iot_link/network/lwm2m/wakaama_lwm2m/wakaama-master/core\registration.c **** 
 326:g:/iot/IoT_Device_Demo/iot_link/network/lwm2m/wakaama_lwm2m/wakaama-master/core\registration.c ****     contextP->transactionList = (lwm2m_transaction_t *)LWM2M_LIST_ADD(contextP->transactionList, tr
 1030              		.loc 1 326 56
 1031 0156 7B68     		ldr	r3, [r7, #4]
 1032 0158 1B6B     		ldr	r3, [r3, #48]
 1033 015a F968     		ldr	r1, [r7, #12]
 1034 015c 1846     		mov	r0, r3
 1035 015e FFF7FEFF 		bl	lwm2m_list_add
 1036 0162 0246     		mov	r2, r0
 1037              		.loc 1 326 31
 1038 0164 7B68     		ldr	r3, [r7, #4]
 1039 0166 1A63     		str	r2, [r3, #48]
 327:g:/iot/IoT_Device_Demo/iot_link/network/lwm2m/wakaama_lwm2m/wakaama-master/core\registration.c ****     if (transaction_send(contextP, transaction) != 0)
 1040              		.loc 1 327 9
 1041 0168 F968     		ldr	r1, [r7, #12]
 1042 016a 7868     		ldr	r0, [r7, #4]
 1043 016c FFF7FEFF 		bl	transaction_send
 1044 0170 0346     		mov	r3, r0
 1045              		.loc 1 327 8
 1046 0172 002B     		cmp	r3, #0
 1047 0174 07D0     		beq	.L61
 328:g:/iot/IoT_Device_Demo/iot_link/network/lwm2m/wakaama_lwm2m/wakaama-master/core\registration.c ****     {
 329:g:/iot/IoT_Device_Demo/iot_link/network/lwm2m/wakaama_lwm2m/wakaama-master/core\registration.c ****         lwm2m_free(payload);
 1048              		.loc 1 329 9
 1049 0176 B869     		ldr	r0, [r7, #24]
 1050 0178 FFF7FEFF 		bl	lwm2m_free
 330:g:/iot/IoT_Device_Demo/iot_link/network/lwm2m/wakaama_lwm2m/wakaama-master/core\registration.c ****         lwm2m_free(query);
 1051              		.loc 1 330 9
 1052 017c 3869     		ldr	r0, [r7, #16]
 1053 017e FFF7FEFF 		bl	lwm2m_free
 331:g:/iot/IoT_Device_Demo/iot_link/network/lwm2m/wakaama_lwm2m/wakaama-master/core\registration.c ****         return COAP_503_SERVICE_UNAVAILABLE;
 1054              		.loc 1 331 16
 1055 0182 A323     		movs	r3, #163
 1056 0184 0AE0     		b	.L52
 1057              	.L61:
 332:g:/iot/IoT_Device_Demo/iot_link/network/lwm2m/wakaama_lwm2m/wakaama-master/core\registration.c ****     }
 333:g:/iot/IoT_Device_Demo/iot_link/network/lwm2m/wakaama_lwm2m/wakaama-master/core\registration.c **** 
 334:g:/iot/IoT_Device_Demo/iot_link/network/lwm2m/wakaama_lwm2m/wakaama-master/core\registration.c ****     lwm2m_free(payload);
 1058              		.loc 1 334 5
 1059 0186 B869     		ldr	r0, [r7, #24]
 1060 0188 FFF7FEFF 		bl	lwm2m_free
 335:g:/iot/IoT_Device_Demo/iot_link/network/lwm2m/wakaama_lwm2m/wakaama-master/core\registration.c ****     lwm2m_free(query);
 1061              		.loc 1 335 5
 1062 018c 3869     		ldr	r0, [r7, #16]
 1063 018e FFF7FEFF 		bl	lwm2m_free
 336:g:/iot/IoT_Device_Demo/iot_link/network/lwm2m/wakaama_lwm2m/wakaama-master/core\registration.c **** 
 337:g:/iot/IoT_Device_Demo/iot_link/network/lwm2m/wakaama_lwm2m/wakaama-master/core\registration.c ****     server->status = STATE_REG_PENDING;
 1064              		.loc 1 337 20
 1065 0192 3B68     		ldr	r3, [r7]
 1066 0194 0122     		movs	r2, #1
ARM GAS  C:\Users\ADMINI~1\AppData\Local\Temp\ccRMs3cA.s 			page 26


 1067 0196 83F82020 		strb	r2, [r3, #32]
 338:g:/iot/IoT_Device_Demo/iot_link/network/lwm2m/wakaama_lwm2m/wakaama-master/core\registration.c **** 
 339:g:/iot/IoT_Device_Demo/iot_link/network/lwm2m/wakaama_lwm2m/wakaama-master/core\registration.c ****     return COAP_NO_ERROR;
 1068              		.loc 1 339 12
 1069 019a 0023     		movs	r3, #0
 1070              	.L52:
 340:g:/iot/IoT_Device_Demo/iot_link/network/lwm2m/wakaama_lwm2m/wakaama-master/core\registration.c **** }
 1071              		.loc 1 340 1
 1072 019c 1846     		mov	r0, r3
 1073 019e 2037     		adds	r7, r7, #32
 1074              	.LCFI18:
 1075              		.cfi_def_cfa_offset 8
 1076 01a0 BD46     		mov	sp, r7
 1077              	.LCFI19:
 1078              		.cfi_def_cfa_register 13
 1079              		@ sp needed
 1080 01a2 80BD     		pop	{r7, pc}
 1081              	.L63:
 1082              		.align	2
 1083              	.L62:
 1084 01a4 08010000 		.word	.LC12
 1085 01a8 00000000 		.word	prv_handleRegistrationReply
 1086              		.cfi_endproc
 1087              	.LFE7:
 1089              		.section	.rodata
 1090              		.align	2
 1091              	.LC13:
 1092 010c 5B25735D 		.ascii	"[%s][%u][%s:%d] [%d][%s:%d] Registration update suc"
 1092      5B25755D 
 1092      5B25733A 
 1092      25645D20 
 1092      5B25645D 
 1093 013f 63657373 		.ascii	"cessful\015\012\015\012\000"
 1093      66756C0D 
 1093      0A0D0A00 
 1094 014b 00       		.align	2
 1095              	.LC14:
 1096 014c 5B25735D 		.ascii	"[%s][%u][%s:%d] [%d][%s:%d] Registration update fai"
 1096      5B25755D 
 1096      5B25733A 
 1096      25645D20 
 1096      5B25645D 
 1097 017f 6C65640D 		.ascii	"led\015\012\015\012\000"
 1097      0A0D0A00 
 1098              		.section	.text.prv_handleRegistrationUpdateReply,"ax",%progbits
 1099              		.align	1
 1100              		.syntax unified
 1101              		.thumb
 1102              		.thumb_func
 1103              		.fpu fpv4-sp-d16
 1105              	prv_handleRegistrationUpdateReply:
 1106              	.LFB8:
 341:g:/iot/IoT_Device_Demo/iot_link/network/lwm2m/wakaama_lwm2m/wakaama-master/core\registration.c **** 
 342:g:/iot/IoT_Device_Demo/iot_link/network/lwm2m/wakaama_lwm2m/wakaama-master/core\registration.c **** static void prv_handleRegistrationUpdateReply(lwm2m_transaction_t *transacP,
 343:g:/iot/IoT_Device_Demo/iot_link/network/lwm2m/wakaama_lwm2m/wakaama-master/core\registration.c ****         void *message)
 344:g:/iot/IoT_Device_Demo/iot_link/network/lwm2m/wakaama_lwm2m/wakaama-master/core\registration.c **** {
 1107              		.loc 1 344 1
ARM GAS  C:\Users\ADMINI~1\AppData\Local\Temp\ccRMs3cA.s 			page 27


 1108              		.cfi_startproc
 1109              		@ args = 0, pretend = 0, frame = 24
 1110              		@ frame_needed = 1, uses_anonymous_args = 0
 1111 0000 B0B5     		push	{r4, r5, r7, lr}
 1112              	.LCFI20:
 1113              		.cfi_def_cfa_offset 16
 1114              		.cfi_offset 4, -16
 1115              		.cfi_offset 5, -12
 1116              		.cfi_offset 7, -8
 1117              		.cfi_offset 14, -4
 1118 0002 8AB0     		sub	sp, sp, #40
 1119              	.LCFI21:
 1120              		.cfi_def_cfa_offset 56
 1121 0004 04AF     		add	r7, sp, #16
 1122              	.LCFI22:
 1123              		.cfi_def_cfa 7, 40
 1124 0006 7860     		str	r0, [r7, #4]
 1125 0008 3960     		str	r1, [r7]
 345:g:/iot/IoT_Device_Demo/iot_link/network/lwm2m/wakaama_lwm2m/wakaama-master/core\registration.c ****     coap_packet_t *packet = (coap_packet_t *)message;
 1126              		.loc 1 345 20
 1127 000a 3B68     		ldr	r3, [r7]
 1128 000c 7B61     		str	r3, [r7, #20]
 346:g:/iot/IoT_Device_Demo/iot_link/network/lwm2m/wakaama_lwm2m/wakaama-master/core\registration.c ****     lwm2m_server_t *targetP = (lwm2m_server_t *)(transacP->userData);
 1129              		.loc 1 346 21
 1130 000e 7B68     		ldr	r3, [r7, #4]
 1131 0010 5B6C     		ldr	r3, [r3, #68]
 1132 0012 3B61     		str	r3, [r7, #16]
 347:g:/iot/IoT_Device_Demo/iot_link/network/lwm2m/wakaama_lwm2m/wakaama-master/core\registration.c **** 
 348:g:/iot/IoT_Device_Demo/iot_link/network/lwm2m/wakaama_lwm2m/wakaama-master/core\registration.c ****     if (targetP->status == STATE_REG_UPDATE_PENDING)
 1133              		.loc 1 348 16
 1134 0014 3B69     		ldr	r3, [r7, #16]
 1135 0016 93F82030 		ldrb	r3, [r3, #32]	@ zero_extendqisi2
 1136              		.loc 1 348 8
 1137 001a 042B     		cmp	r3, #4
 1138 001c 5FD1     		bne	.L69
 1139              	.LBB3:
 349:g:/iot/IoT_Device_Demo/iot_link/network/lwm2m/wakaama_lwm2m/wakaama-master/core\registration.c ****     {
 350:g:/iot/IoT_Device_Demo/iot_link/network/lwm2m/wakaama_lwm2m/wakaama-master/core\registration.c ****         time_t tv_sec = lwm2m_gettime();
 1140              		.loc 1 350 25
 1141 001e FFF7FEFF 		bl	lwm2m_gettime
 1142 0022 C7E90201 		strd	r0, [r7, #8]
 351:g:/iot/IoT_Device_Demo/iot_link/network/lwm2m/wakaama_lwm2m/wakaama-master/core\registration.c ****         if (tv_sec )
 1143              		.loc 1 351 12
 1144 0026 D7E90223 		ldrd	r2, [r7, #8]
 1145 002a 1343     		orrs	r3, r2, r3
 1146 002c 04D0     		beq	.L66
 352:g:/iot/IoT_Device_Demo/iot_link/network/lwm2m/wakaama_lwm2m/wakaama-master/core\registration.c ****         {
 353:g:/iot/IoT_Device_Demo/iot_link/network/lwm2m/wakaama_lwm2m/wakaama-master/core\registration.c ****             targetP->registration = tv_sec;
 1147              		.loc 1 353 35
 1148 002e 3969     		ldr	r1, [r7, #16]
 1149 0030 D7E90223 		ldrd	r2, [r7, #8]
 1150 0034 C1E90423 		strd	r2, [r1, #16]
 1151              	.L66:
 354:g:/iot/IoT_Device_Demo/iot_link/network/lwm2m/wakaama_lwm2m/wakaama-master/core\registration.c ****         }
 355:g:/iot/IoT_Device_Demo/iot_link/network/lwm2m/wakaama_lwm2m/wakaama-master/core\registration.c ****         if (packet != NULL && packet->code == COAP_204_CHANGED)
 1152              		.loc 1 355 12
 1153 0038 7B69     		ldr	r3, [r7, #20]
ARM GAS  C:\Users\ADMINI~1\AppData\Local\Temp\ccRMs3cA.s 			page 28


 1154 003a 002B     		cmp	r3, #0
 1155 003c 29D0     		beq	.L67
 1156              		.loc 1 355 37 discriminator 1
 1157 003e 7B69     		ldr	r3, [r7, #20]
 1158 0040 9B79     		ldrb	r3, [r3, #6]	@ zero_extendqisi2
 1159              		.loc 1 355 28 discriminator 1
 1160 0042 442B     		cmp	r3, #68
 1161 0044 25D1     		bne	.L67
 356:g:/iot/IoT_Device_Demo/iot_link/network/lwm2m/wakaama_lwm2m/wakaama-master/core\registration.c ****         {
 357:g:/iot/IoT_Device_Demo/iot_link/network/lwm2m/wakaama_lwm2m/wakaama-master/core\registration.c ****             targetP->status = STATE_REGISTERED;
 1162              		.loc 1 357 29
 1163 0046 3B69     		ldr	r3, [r7, #16]
 1164 0048 0222     		movs	r2, #2
 1165 004a 83F82020 		strb	r2, [r3, #32]
 358:g:/iot/IoT_Device_Demo/iot_link/network/lwm2m/wakaama_lwm2m/wakaama-master/core\registration.c ****             LOG("Registration update successful");
 1166              		.loc 1 358 13
 1167 004e FFF7FEFF 		bl	link_log_level_get
 1168 0052 0346     		mov	r3, r0
 1169 0054 012B     		cmp	r3, #1
 1170 0056 42D8     		bhi	.L65
 1171              		.loc 1 358 13 is_stmt 0 discriminator 1
 1172 0058 0120     		movs	r0, #1
 1173 005a FFF7FEFF 		bl	link_log_level_name
 1174 005e 0446     		mov	r4, r0
 1175 0060 FFF7FEFF 		bl	osal_sys_time
 1176 0064 0246     		mov	r2, r0
 1177 0066 0B46     		mov	r3, r1
 1178 0068 1546     		mov	r5, r2
 1179 006a FFF7FEFF 		bl	lwm2m_gettime
 1180 006e 0246     		mov	r2, r0
 1181 0070 0B46     		mov	r3, r1
 1182 0072 4FF4B373 		mov	r3, #358
 1183 0076 0393     		str	r3, [sp, #12]
 1184 0078 1B4B     		ldr	r3, .L70
 1185 007a 0293     		str	r3, [sp, #8]
 1186 007c 0192     		str	r2, [sp, #4]
 1187 007e 4FF4B373 		mov	r3, #358
 1188 0082 0093     		str	r3, [sp]
 1189 0084 194B     		ldr	r3, .L70+4
 1190 0086 2A46     		mov	r2, r5
 1191 0088 2146     		mov	r1, r4
 1192 008a 1948     		ldr	r0, .L70+8
 1193 008c FFF7FEFF 		bl	printf
 1194 0090 25E0     		b	.L65
 1195              	.L67:
 359:g:/iot/IoT_Device_Demo/iot_link/network/lwm2m/wakaama_lwm2m/wakaama-master/core\registration.c ****         }
 360:g:/iot/IoT_Device_Demo/iot_link/network/lwm2m/wakaama_lwm2m/wakaama-master/core\registration.c ****         else
 361:g:/iot/IoT_Device_Demo/iot_link/network/lwm2m/wakaama_lwm2m/wakaama-master/core\registration.c ****         {
 362:g:/iot/IoT_Device_Demo/iot_link/network/lwm2m/wakaama_lwm2m/wakaama-master/core\registration.c ****             targetP->status = STATE_REG_FAILED;
 1196              		.loc 1 362 29 is_stmt 1
 1197 0092 3B69     		ldr	r3, [r7, #16]
 1198 0094 0322     		movs	r2, #3
 1199 0096 83F82020 		strb	r2, [r3, #32]
 363:g:/iot/IoT_Device_Demo/iot_link/network/lwm2m/wakaama_lwm2m/wakaama-master/core\registration.c ****             LOG("Registration update failed");
 1200              		.loc 1 363 13
 1201 009a FFF7FEFF 		bl	link_log_level_get
 1202 009e 0346     		mov	r3, r0
ARM GAS  C:\Users\ADMINI~1\AppData\Local\Temp\ccRMs3cA.s 			page 29


 1203 00a0 012B     		cmp	r3, #1
 1204 00a2 1CD8     		bhi	.L69
 1205              		.loc 1 363 13 is_stmt 0 discriminator 1
 1206 00a4 0120     		movs	r0, #1
 1207 00a6 FFF7FEFF 		bl	link_log_level_name
 1208 00aa 0446     		mov	r4, r0
 1209 00ac FFF7FEFF 		bl	osal_sys_time
 1210 00b0 0246     		mov	r2, r0
 1211 00b2 0B46     		mov	r3, r1
 1212 00b4 1546     		mov	r5, r2
 1213 00b6 FFF7FEFF 		bl	lwm2m_gettime
 1214 00ba 0246     		mov	r2, r0
 1215 00bc 0B46     		mov	r3, r1
 1216 00be 40F26B13 		movw	r3, #363
 1217 00c2 0393     		str	r3, [sp, #12]
 1218 00c4 084B     		ldr	r3, .L70
 1219 00c6 0293     		str	r3, [sp, #8]
 1220 00c8 0192     		str	r2, [sp, #4]
 1221 00ca 40F26B13 		movw	r3, #363
 1222 00ce 0093     		str	r3, [sp]
 1223 00d0 064B     		ldr	r3, .L70+4
 1224 00d2 2A46     		mov	r2, r5
 1225 00d4 2146     		mov	r1, r4
 1226 00d6 0748     		ldr	r0, .L70+12
 1227 00d8 FFF7FEFF 		bl	printf
 1228              	.LBE3:
 364:g:/iot/IoT_Device_Demo/iot_link/network/lwm2m/wakaama_lwm2m/wakaama-master/core\registration.c ****         }
 365:g:/iot/IoT_Device_Demo/iot_link/network/lwm2m/wakaama_lwm2m/wakaama-master/core\registration.c ****     }
 366:g:/iot/IoT_Device_Demo/iot_link/network/lwm2m/wakaama_lwm2m/wakaama-master/core\registration.c **** }
 1229              		.loc 1 366 1 is_stmt 1 discriminator 1
 1230 00dc FFE7     		b	.L69
 1231              	.L65:
 1232              	.L69:
 1233              		.loc 1 366 1 is_stmt 0
 1234 00de 00BF     		nop
 1235 00e0 1837     		adds	r7, r7, #24
 1236              	.LCFI23:
 1237              		.cfi_def_cfa_offset 16
 1238 00e2 BD46     		mov	sp, r7
 1239              	.LCFI24:
 1240              		.cfi_def_cfa_register 13
 1241              		@ sp needed
 1242 00e4 B0BD     		pop	{r4, r5, r7, pc}
 1243              	.L71:
 1244 00e6 00BF     		.align	2
 1245              	.L70:
 1246 00e8 00000000 		.word	__func__.8682
 1247 00ec 00000000 		.word	__FUNCTION__.8681
 1248 00f0 0C010000 		.word	.LC13
 1249 00f4 4C010000 		.word	.LC14
 1250              		.cfi_endproc
 1251              	.LFE8:
 1253              		.section	.text.prv_updateRegistration,"ax",%progbits
 1254              		.align	1
 1255              		.syntax unified
 1256              		.thumb
 1257              		.thumb_func
ARM GAS  C:\Users\ADMINI~1\AppData\Local\Temp\ccRMs3cA.s 			page 30


 1258              		.fpu fpv4-sp-d16
 1260              	prv_updateRegistration:
 1261              	.LFB9:
 367:g:/iot/IoT_Device_Demo/iot_link/network/lwm2m/wakaama_lwm2m/wakaama-master/core\registration.c **** 
 368:g:/iot/IoT_Device_Demo/iot_link/network/lwm2m/wakaama_lwm2m/wakaama-master/core\registration.c **** static int prv_updateRegistration(lwm2m_context_t *contextP,
 369:g:/iot/IoT_Device_Demo/iot_link/network/lwm2m/wakaama_lwm2m/wakaama-master/core\registration.c ****                                   lwm2m_server_t *server,
 370:g:/iot/IoT_Device_Demo/iot_link/network/lwm2m/wakaama_lwm2m/wakaama-master/core\registration.c ****                                   bool withObjects)
 371:g:/iot/IoT_Device_Demo/iot_link/network/lwm2m/wakaama_lwm2m/wakaama-master/core\registration.c **** {
 1262              		.loc 1 371 1 is_stmt 1
 1263              		.cfi_startproc
 1264              		@ args = 0, pretend = 0, frame = 32
 1265              		@ frame_needed = 1, uses_anonymous_args = 0
 1266 0000 80B5     		push	{r7, lr}
 1267              	.LCFI25:
 1268              		.cfi_def_cfa_offset 8
 1269              		.cfi_offset 7, -8
 1270              		.cfi_offset 14, -4
 1271 0002 8CB0     		sub	sp, sp, #48
 1272              	.LCFI26:
 1273              		.cfi_def_cfa_offset 56
 1274 0004 04AF     		add	r7, sp, #16
 1275              	.LCFI27:
 1276              		.cfi_def_cfa 7, 40
 1277 0006 F860     		str	r0, [r7, #12]
 1278 0008 B960     		str	r1, [r7, #8]
 1279 000a 1346     		mov	r3, r2
 1280 000c FB71     		strb	r3, [r7, #7]
 372:g:/iot/IoT_Device_Demo/iot_link/network/lwm2m/wakaama_lwm2m/wakaama-master/core\registration.c ****     lwm2m_transaction_t *transaction;
 373:g:/iot/IoT_Device_Demo/iot_link/network/lwm2m/wakaama_lwm2m/wakaama-master/core\registration.c ****     uint8_t *payload = NULL;
 1281              		.loc 1 373 14
 1282 000e 0023     		movs	r3, #0
 1283 0010 FB61     		str	r3, [r7, #28]
 374:g:/iot/IoT_Device_Demo/iot_link/network/lwm2m/wakaama_lwm2m/wakaama-master/core\registration.c ****     int payload_length;
 375:g:/iot/IoT_Device_Demo/iot_link/network/lwm2m/wakaama_lwm2m/wakaama-master/core\registration.c **** 
 376:g:/iot/IoT_Device_Demo/iot_link/network/lwm2m/wakaama_lwm2m/wakaama-master/core\registration.c ****     transaction = transaction_new(server->sessionH, COAP_POST, NULL, NULL, contextP->nextMID++, 4, 
 1284              		.loc 1 376 19
 1285 0012 BB68     		ldr	r3, [r7, #8]
 1286 0014 D869     		ldr	r0, [r3, #28]
 1287              		.loc 1 376 84
 1288 0016 FB68     		ldr	r3, [r7, #12]
 1289 0018 9B8D     		ldrh	r3, [r3, #44]
 1290              		.loc 1 376 19
 1291 001a 5A1C     		adds	r2, r3, #1
 1292 001c 91B2     		uxth	r1, r2
 1293 001e FA68     		ldr	r2, [r7, #12]
 1294 0020 9185     		strh	r1, [r2, #44]	@ movhi
 1295 0022 0022     		movs	r2, #0
 1296 0024 0292     		str	r2, [sp, #8]
 1297 0026 0422     		movs	r2, #4
 1298 0028 0192     		str	r2, [sp, #4]
 1299 002a 0093     		str	r3, [sp]
 1300 002c 0023     		movs	r3, #0
 1301 002e 0022     		movs	r2, #0
 1302 0030 0221     		movs	r1, #2
 1303 0032 FFF7FEFF 		bl	transaction_new
 1304 0036 B861     		str	r0, [r7, #24]
 377:g:/iot/IoT_Device_Demo/iot_link/network/lwm2m/wakaama_lwm2m/wakaama-master/core\registration.c ****     if (transaction == NULL) return COAP_500_INTERNAL_SERVER_ERROR;
ARM GAS  C:\Users\ADMINI~1\AppData\Local\Temp\ccRMs3cA.s 			page 31


 1305              		.loc 1 377 8
 1306 0038 BB69     		ldr	r3, [r7, #24]
 1307 003a 002B     		cmp	r3, #0
 1308 003c 01D1     		bne	.L73
 1309              		.loc 1 377 37 discriminator 1
 1310 003e A023     		movs	r3, #160
 1311 0040 5DE0     		b	.L74
 1312              	.L73:
 378:g:/iot/IoT_Device_Demo/iot_link/network/lwm2m/wakaama_lwm2m/wakaama-master/core\registration.c **** 
 379:g:/iot/IoT_Device_Demo/iot_link/network/lwm2m/wakaama_lwm2m/wakaama-master/core\registration.c ****     coap_set_header_uri_path(transaction->message, server->location);
 1313              		.loc 1 379 41
 1314 0042 BB69     		ldr	r3, [r7, #24]
 1315 0044 9A6A     		ldr	r2, [r3, #40]
 1316              		.loc 1 379 58
 1317 0046 BB68     		ldr	r3, [r7, #8]
 1318 0048 5B6A     		ldr	r3, [r3, #36]
 1319              		.loc 1 379 5
 1320 004a 1946     		mov	r1, r3
 1321 004c 1046     		mov	r0, r2
 1322 004e FFF7FEFF 		bl	coap_set_header_uri_path
 380:g:/iot/IoT_Device_Demo/iot_link/network/lwm2m/wakaama_lwm2m/wakaama-master/core\registration.c **** 
 381:g:/iot/IoT_Device_Demo/iot_link/network/lwm2m/wakaama_lwm2m/wakaama-master/core\registration.c ****     if (withObjects == true)
 1323              		.loc 1 381 8
 1324 0052 FB79     		ldrb	r3, [r7, #7]	@ zero_extendqisi2
 1325 0054 002B     		cmp	r3, #0
 1326 0056 31D0     		beq	.L75
 382:g:/iot/IoT_Device_Demo/iot_link/network/lwm2m/wakaama_lwm2m/wakaama-master/core\registration.c ****     {
 383:g:/iot/IoT_Device_Demo/iot_link/network/lwm2m/wakaama_lwm2m/wakaama-master/core\registration.c ****         payload_length = object_getRegisterPayloadBufferLength(contextP);
 1327              		.loc 1 383 26
 1328 0058 F868     		ldr	r0, [r7, #12]
 1329 005a FFF7FEFF 		bl	object_getRegisterPayloadBufferLength
 1330 005e 7861     		str	r0, [r7, #20]
 384:g:/iot/IoT_Device_Demo/iot_link/network/lwm2m/wakaama_lwm2m/wakaama-master/core\registration.c ****         if(payload_length == 0)
 1331              		.loc 1 384 11
 1332 0060 7B69     		ldr	r3, [r7, #20]
 1333 0062 002B     		cmp	r3, #0
 1334 0064 04D1     		bne	.L76
 385:g:/iot/IoT_Device_Demo/iot_link/network/lwm2m/wakaama_lwm2m/wakaama-master/core\registration.c ****         {
 386:g:/iot/IoT_Device_Demo/iot_link/network/lwm2m/wakaama_lwm2m/wakaama-master/core\registration.c ****             transaction_free(transaction);
 1335              		.loc 1 386 13
 1336 0066 B869     		ldr	r0, [r7, #24]
 1337 0068 FFF7FEFF 		bl	transaction_free
 387:g:/iot/IoT_Device_Demo/iot_link/network/lwm2m/wakaama_lwm2m/wakaama-master/core\registration.c ****             return COAP_500_INTERNAL_SERVER_ERROR;
 1338              		.loc 1 387 20
 1339 006c A023     		movs	r3, #160
 1340 006e 46E0     		b	.L74
 1341              	.L76:
 388:g:/iot/IoT_Device_Demo/iot_link/network/lwm2m/wakaama_lwm2m/wakaama-master/core\registration.c ****         }
 389:g:/iot/IoT_Device_Demo/iot_link/network/lwm2m/wakaama_lwm2m/wakaama-master/core\registration.c **** 
 390:g:/iot/IoT_Device_Demo/iot_link/network/lwm2m/wakaama_lwm2m/wakaama-master/core\registration.c ****         payload = lwm2m_malloc(payload_length);
 1342              		.loc 1 390 19
 1343 0070 7B69     		ldr	r3, [r7, #20]
 1344 0072 1846     		mov	r0, r3
 1345 0074 FFF7FEFF 		bl	lwm2m_malloc
 1346 0078 F861     		str	r0, [r7, #28]
 391:g:/iot/IoT_Device_Demo/iot_link/network/lwm2m/wakaama_lwm2m/wakaama-master/core\registration.c ****         if(!payload)
 1347              		.loc 1 391 11
ARM GAS  C:\Users\ADMINI~1\AppData\Local\Temp\ccRMs3cA.s 			page 32


 1348 007a FB69     		ldr	r3, [r7, #28]
 1349 007c 002B     		cmp	r3, #0
 1350 007e 04D1     		bne	.L77
 392:g:/iot/IoT_Device_Demo/iot_link/network/lwm2m/wakaama_lwm2m/wakaama-master/core\registration.c ****         {
 393:g:/iot/IoT_Device_Demo/iot_link/network/lwm2m/wakaama_lwm2m/wakaama-master/core\registration.c ****             transaction_free(transaction);
 1351              		.loc 1 393 13
 1352 0080 B869     		ldr	r0, [r7, #24]
 1353 0082 FFF7FEFF 		bl	transaction_free
 394:g:/iot/IoT_Device_Demo/iot_link/network/lwm2m/wakaama_lwm2m/wakaama-master/core\registration.c ****             return COAP_500_INTERNAL_SERVER_ERROR;
 1354              		.loc 1 394 20
 1355 0086 A023     		movs	r3, #160
 1356 0088 39E0     		b	.L74
 1357              	.L77:
 395:g:/iot/IoT_Device_Demo/iot_link/network/lwm2m/wakaama_lwm2m/wakaama-master/core\registration.c ****         }
 396:g:/iot/IoT_Device_Demo/iot_link/network/lwm2m/wakaama_lwm2m/wakaama-master/core\registration.c **** 
 397:g:/iot/IoT_Device_Demo/iot_link/network/lwm2m/wakaama_lwm2m/wakaama-master/core\registration.c ****         payload_length = object_getRegisterPayload(contextP, payload, payload_length);
 1358              		.loc 1 397 26
 1359 008a 7B69     		ldr	r3, [r7, #20]
 1360 008c 1A46     		mov	r2, r3
 1361 008e F969     		ldr	r1, [r7, #28]
 1362 0090 F868     		ldr	r0, [r7, #12]
 1363 0092 FFF7FEFF 		bl	object_getRegisterPayload
 1364 0096 7861     		str	r0, [r7, #20]
 398:g:/iot/IoT_Device_Demo/iot_link/network/lwm2m/wakaama_lwm2m/wakaama-master/core\registration.c ****         if(payload_length == 0)
 1365              		.loc 1 398 11
 1366 0098 7B69     		ldr	r3, [r7, #20]
 1367 009a 002B     		cmp	r3, #0
 1368 009c 07D1     		bne	.L78
 399:g:/iot/IoT_Device_Demo/iot_link/network/lwm2m/wakaama_lwm2m/wakaama-master/core\registration.c ****         {
 400:g:/iot/IoT_Device_Demo/iot_link/network/lwm2m/wakaama_lwm2m/wakaama-master/core\registration.c ****             transaction_free(transaction);
 1369              		.loc 1 400 13
 1370 009e B869     		ldr	r0, [r7, #24]
 1371 00a0 FFF7FEFF 		bl	transaction_free
 401:g:/iot/IoT_Device_Demo/iot_link/network/lwm2m/wakaama_lwm2m/wakaama-master/core\registration.c ****             lwm2m_free(payload);
 1372              		.loc 1 401 13
 1373 00a4 F869     		ldr	r0, [r7, #28]
 1374 00a6 FFF7FEFF 		bl	lwm2m_free
 402:g:/iot/IoT_Device_Demo/iot_link/network/lwm2m/wakaama_lwm2m/wakaama-master/core\registration.c ****             return COAP_500_INTERNAL_SERVER_ERROR;
 1375              		.loc 1 402 20
 1376 00aa A023     		movs	r3, #160
 1377 00ac 27E0     		b	.L74
 1378              	.L78:
 403:g:/iot/IoT_Device_Demo/iot_link/network/lwm2m/wakaama_lwm2m/wakaama-master/core\registration.c ****         }
 404:g:/iot/IoT_Device_Demo/iot_link/network/lwm2m/wakaama_lwm2m/wakaama-master/core\registration.c ****         coap_set_payload(transaction->message, payload, payload_length);
 1379              		.loc 1 404 37
 1380 00ae BB69     		ldr	r3, [r7, #24]
 1381 00b0 9B6A     		ldr	r3, [r3, #40]
 1382              		.loc 1 404 9
 1383 00b2 7A69     		ldr	r2, [r7, #20]
 1384 00b4 F969     		ldr	r1, [r7, #28]
 1385 00b6 1846     		mov	r0, r3
 1386 00b8 FFF7FEFF 		bl	coap_set_payload
 1387              	.L75:
 405:g:/iot/IoT_Device_Demo/iot_link/network/lwm2m/wakaama_lwm2m/wakaama-master/core\registration.c ****     }
 406:g:/iot/IoT_Device_Demo/iot_link/network/lwm2m/wakaama_lwm2m/wakaama-master/core\registration.c **** 
 407:g:/iot/IoT_Device_Demo/iot_link/network/lwm2m/wakaama_lwm2m/wakaama-master/core\registration.c ****     transaction->callback = prv_handleRegistrationUpdateReply;
 1388              		.loc 1 407 27
ARM GAS  C:\Users\ADMINI~1\AppData\Local\Temp\ccRMs3cA.s 			page 33


 1389 00bc BB69     		ldr	r3, [r7, #24]
 1390 00be 124A     		ldr	r2, .L81
 1391 00c0 1A64     		str	r2, [r3, #64]
 408:g:/iot/IoT_Device_Demo/iot_link/network/lwm2m/wakaama_lwm2m/wakaama-master/core\registration.c ****     transaction->userData = (void *) server;
 1392              		.loc 1 408 27
 1393 00c2 BB69     		ldr	r3, [r7, #24]
 1394 00c4 BA68     		ldr	r2, [r7, #8]
 1395 00c6 5A64     		str	r2, [r3, #68]
 409:g:/iot/IoT_Device_Demo/iot_link/network/lwm2m/wakaama_lwm2m/wakaama-master/core\registration.c **** 
 410:g:/iot/IoT_Device_Demo/iot_link/network/lwm2m/wakaama_lwm2m/wakaama-master/core\registration.c ****     contextP->transactionList = (lwm2m_transaction_t *)LWM2M_LIST_ADD(contextP->transactionList, tr
 1396              		.loc 1 410 56
 1397 00c8 FB68     		ldr	r3, [r7, #12]
 1398 00ca 1B6B     		ldr	r3, [r3, #48]
 1399 00cc B969     		ldr	r1, [r7, #24]
 1400 00ce 1846     		mov	r0, r3
 1401 00d0 FFF7FEFF 		bl	lwm2m_list_add
 1402 00d4 0246     		mov	r2, r0
 1403              		.loc 1 410 31
 1404 00d6 FB68     		ldr	r3, [r7, #12]
 1405 00d8 1A63     		str	r2, [r3, #48]
 411:g:/iot/IoT_Device_Demo/iot_link/network/lwm2m/wakaama_lwm2m/wakaama-master/core\registration.c **** 
 412:g:/iot/IoT_Device_Demo/iot_link/network/lwm2m/wakaama_lwm2m/wakaama-master/core\registration.c ****     if (transaction_send(contextP, transaction) == 0)
 1406              		.loc 1 412 9
 1407 00da B969     		ldr	r1, [r7, #24]
 1408 00dc F868     		ldr	r0, [r7, #12]
 1409 00de FFF7FEFF 		bl	transaction_send
 1410 00e2 0346     		mov	r3, r0
 1411              		.loc 1 412 8
 1412 00e4 002B     		cmp	r3, #0
 1413 00e6 03D1     		bne	.L79
 413:g:/iot/IoT_Device_Demo/iot_link/network/lwm2m/wakaama_lwm2m/wakaama-master/core\registration.c ****     {
 414:g:/iot/IoT_Device_Demo/iot_link/network/lwm2m/wakaama_lwm2m/wakaama-master/core\registration.c ****         server->status = STATE_REG_UPDATE_PENDING;
 1414              		.loc 1 414 24
 1415 00e8 BB68     		ldr	r3, [r7, #8]
 1416 00ea 0422     		movs	r2, #4
 1417 00ec 83F82020 		strb	r2, [r3, #32]
 1418              	.L79:
 415:g:/iot/IoT_Device_Demo/iot_link/network/lwm2m/wakaama_lwm2m/wakaama-master/core\registration.c ****     }
 416:g:/iot/IoT_Device_Demo/iot_link/network/lwm2m/wakaama_lwm2m/wakaama-master/core\registration.c **** 
 417:g:/iot/IoT_Device_Demo/iot_link/network/lwm2m/wakaama_lwm2m/wakaama-master/core\registration.c ****     if (withObjects == true)
 1419              		.loc 1 417 8
 1420 00f0 FB79     		ldrb	r3, [r7, #7]	@ zero_extendqisi2
 1421 00f2 002B     		cmp	r3, #0
 1422 00f4 02D0     		beq	.L80
 418:g:/iot/IoT_Device_Demo/iot_link/network/lwm2m/wakaama_lwm2m/wakaama-master/core\registration.c ****     {
 419:g:/iot/IoT_Device_Demo/iot_link/network/lwm2m/wakaama_lwm2m/wakaama-master/core\registration.c ****         lwm2m_free(payload);
 1423              		.loc 1 419 9
 1424 00f6 F869     		ldr	r0, [r7, #28]
 1425 00f8 FFF7FEFF 		bl	lwm2m_free
 1426              	.L80:
 420:g:/iot/IoT_Device_Demo/iot_link/network/lwm2m/wakaama_lwm2m/wakaama-master/core\registration.c ****     }
 421:g:/iot/IoT_Device_Demo/iot_link/network/lwm2m/wakaama_lwm2m/wakaama-master/core\registration.c **** 
 422:g:/iot/IoT_Device_Demo/iot_link/network/lwm2m/wakaama_lwm2m/wakaama-master/core\registration.c ****     return COAP_NO_ERROR;
 1427              		.loc 1 422 12
 1428 00fc 0023     		movs	r3, #0
 1429              	.L74:
 423:g:/iot/IoT_Device_Demo/iot_link/network/lwm2m/wakaama_lwm2m/wakaama-master/core\registration.c **** }
ARM GAS  C:\Users\ADMINI~1\AppData\Local\Temp\ccRMs3cA.s 			page 34


 1430              		.loc 1 423 1
 1431 00fe 1846     		mov	r0, r3
 1432 0100 2037     		adds	r7, r7, #32
 1433              	.LCFI28:
 1434              		.cfi_def_cfa_offset 8
 1435 0102 BD46     		mov	sp, r7
 1436              	.LCFI29:
 1437              		.cfi_def_cfa_register 13
 1438              		@ sp needed
 1439 0104 80BD     		pop	{r7, pc}
 1440              	.L82:
 1441 0106 00BF     		.align	2
 1442              	.L81:
 1443 0108 00000000 		.word	prv_handleRegistrationUpdateReply
 1444              		.cfi_endproc
 1445              	.LFE9:
 1447              		.section	.rodata
 1448 0187 00       		.align	2
 1449              	.LC15:
 1450 0188 53544154 		.ascii	"STATE_READY\000"
 1450      455F5245 
 1450      41445900 
 1451              		.align	2
 1452              	.LC16:
 1453 0194 556E6B6E 		.ascii	"Unknown\000"
 1453      6F776E00 
 1454              		.align	2
 1455              	.LC17:
 1456 019c 53544154 		.ascii	"STATE_REGISTERING\000"
 1456      455F5245 
 1456      47495354 
 1456      4552494E 
 1456      4700
 1457 01ae 0000     		.align	2
 1458              	.LC18:
 1459 01b0 53544154 		.ascii	"STATE_REGISTER_REQUIRED\000"
 1459      455F5245 
 1459      47495354 
 1459      45525F52 
 1459      45515549 
 1460              		.align	2
 1461              	.LC19:
 1462 01c8 53544154 		.ascii	"STATE_BOOTSTRAPPING\000"
 1462      455F424F 
 1462      4F545354 
 1462      52415050 
 1462      494E4700 
 1463              		.align	2
 1464              	.LC20:
 1465 01dc 53544154 		.ascii	"STATE_BOOTSTRAP_REQUIRED\000"
 1465      455F424F 
 1465      4F545354 
 1465      5241505F 
 1465      52455155 
 1466 01f5 000000   		.align	2
 1467              	.LC21:
 1468 01f8 53544154 		.ascii	"STATE_INITIAL\000"
ARM GAS  C:\Users\ADMINI~1\AppData\Local\Temp\ccRMs3cA.s 			page 35


 1468      455F494E 
 1468      49544941 
 1468      4C00
 1469 0206 0000     		.align	2
 1470              	.LC22:
 1471 0208 5B25735D 		.ascii	"[%s][%u][%s:%d] [%d][%s:%d] State: %s, shortServerI"
 1471      5B25755D 
 1471      5B25733A 
 1471      25645D20 
 1471      5B25645D 
 1472 023b 443A2025 		.ascii	"D: %d\015\012\015\012\000"
 1472      640D0A0D 
 1472      0A00
 1473 0245 000000   		.align	2
 1474              	.LC23:
 1475 0248 5B25735D 		.ascii	"[%s][%u][%s:%d] [%d][%s:%d] No server found\015\012"
 1475      5B25755D 
 1475      5B25733A 
 1475      25645D20 
 1475      5B25645D 
 1476 0275 0D0A00   		.ascii	"\015\012\000"
 1477              		.section	.text.lwm2m_update_registration,"ax",%progbits
 1478              		.align	1
 1479              		.global	lwm2m_update_registration
 1480              		.syntax unified
 1481              		.thumb
 1482              		.thumb_func
 1483              		.fpu fpv4-sp-d16
 1485              	lwm2m_update_registration:
 1486              	.LFB10:
 424:g:/iot/IoT_Device_Demo/iot_link/network/lwm2m/wakaama_lwm2m/wakaama-master/core\registration.c **** 
 425:g:/iot/IoT_Device_Demo/iot_link/network/lwm2m/wakaama_lwm2m/wakaama-master/core\registration.c **** // update the registration of a given server
 426:g:/iot/IoT_Device_Demo/iot_link/network/lwm2m/wakaama_lwm2m/wakaama-master/core\registration.c **** int lwm2m_update_registration(lwm2m_context_t *contextP,
 427:g:/iot/IoT_Device_Demo/iot_link/network/lwm2m/wakaama_lwm2m/wakaama-master/core\registration.c ****                               uint16_t shortServerID,
 428:g:/iot/IoT_Device_Demo/iot_link/network/lwm2m/wakaama_lwm2m/wakaama-master/core\registration.c ****                               bool withObjects)
 429:g:/iot/IoT_Device_Demo/iot_link/network/lwm2m/wakaama_lwm2m/wakaama-master/core\registration.c **** {
 1487              		.loc 1 429 1
 1488              		.cfi_startproc
 1489              		@ args = 0, pretend = 0, frame = 16
 1490              		@ frame_needed = 1, uses_anonymous_args = 0
 1491 0000 B0B5     		push	{r4, r5, r7, lr}
 1492              	.LCFI30:
 1493              		.cfi_def_cfa_offset 16
 1494              		.cfi_offset 4, -16
 1495              		.cfi_offset 5, -12
 1496              		.cfi_offset 7, -8
 1497              		.cfi_offset 14, -4
 1498 0002 8AB0     		sub	sp, sp, #40
 1499              	.LCFI31:
 1500              		.cfi_def_cfa_offset 56
 1501 0004 06AF     		add	r7, sp, #24
 1502              	.LCFI32:
 1503              		.cfi_def_cfa 7, 32
 1504 0006 7860     		str	r0, [r7, #4]
 1505 0008 0B46     		mov	r3, r1
 1506 000a 7B80     		strh	r3, [r7, #2]	@ movhi
 1507 000c 1346     		mov	r3, r2
ARM GAS  C:\Users\ADMINI~1\AppData\Local\Temp\ccRMs3cA.s 			page 36


 1508 000e 7B70     		strb	r3, [r7, #1]
 430:g:/iot/IoT_Device_Demo/iot_link/network/lwm2m/wakaama_lwm2m/wakaama-master/core\registration.c ****     lwm2m_server_t *targetP;
 431:g:/iot/IoT_Device_Demo/iot_link/network/lwm2m/wakaama_lwm2m/wakaama-master/core\registration.c ****     uint8_t result;
 432:g:/iot/IoT_Device_Demo/iot_link/network/lwm2m/wakaama_lwm2m/wakaama-master/core\registration.c **** 
 433:g:/iot/IoT_Device_Demo/iot_link/network/lwm2m/wakaama_lwm2m/wakaama-master/core\registration.c ****     LOG_ARG("State: %s, shortServerID: %d", STR_STATE(contextP->state), shortServerID);
 1509              		.loc 1 433 5
 1510 0010 FFF7FEFF 		bl	link_log_level_get
 1511 0014 0346     		mov	r3, r0
 1512 0016 012B     		cmp	r3, #1
 1513 0018 44D8     		bhi	.L84
 1514              		.loc 1 433 5 is_stmt 0 discriminator 1
 1515 001a 0120     		movs	r0, #1
 1516 001c FFF7FEFF 		bl	link_log_level_name
 1517 0020 0446     		mov	r4, r0
 1518 0022 FFF7FEFF 		bl	osal_sys_time
 1519 0026 0246     		mov	r2, r0
 1520 0028 0B46     		mov	r3, r1
 1521 002a 1546     		mov	r5, r2
 1522 002c FFF7FEFF 		bl	lwm2m_gettime
 1523 0030 0246     		mov	r2, r0
 1524 0032 0B46     		mov	r3, r1
 1525 0034 1146     		mov	r1, r2
 1526 0036 7B68     		ldr	r3, [r7, #4]
 1527 0038 1B78     		ldrb	r3, [r3]	@ zero_extendqisi2
 1528 003a 002B     		cmp	r3, #0
 1529 003c 1FD0     		beq	.L85
 1530              		.loc 1 433 5 discriminator 2
 1531 003e 7B68     		ldr	r3, [r7, #4]
 1532 0040 1B78     		ldrb	r3, [r3]	@ zero_extendqisi2
 1533 0042 012B     		cmp	r3, #1
 1534 0044 19D0     		beq	.L86
 1535              		.loc 1 433 5 discriminator 4
 1536 0046 7B68     		ldr	r3, [r7, #4]
 1537 0048 1B78     		ldrb	r3, [r3]	@ zero_extendqisi2
 1538 004a 022B     		cmp	r3, #2
 1539 004c 13D0     		beq	.L87
 1540              		.loc 1 433 5 discriminator 6
 1541 004e 7B68     		ldr	r3, [r7, #4]
 1542 0050 1B78     		ldrb	r3, [r3]	@ zero_extendqisi2
 1543 0052 032B     		cmp	r3, #3
 1544 0054 0DD0     		beq	.L88
 1545              		.loc 1 433 5 discriminator 8
 1546 0056 7B68     		ldr	r3, [r7, #4]
 1547 0058 1B78     		ldrb	r3, [r3]	@ zero_extendqisi2
 1548 005a 042B     		cmp	r3, #4
 1549 005c 07D0     		beq	.L89
 1550              		.loc 1 433 5 discriminator 10
 1551 005e 7B68     		ldr	r3, [r7, #4]
 1552 0060 1B78     		ldrb	r3, [r3]	@ zero_extendqisi2
 1553 0062 052B     		cmp	r3, #5
 1554 0064 01D1     		bne	.L90
 1555              		.loc 1 433 5 discriminator 12
 1556 0066 594B     		ldr	r3, .L115
 1557 0068 0AE0     		b	.L96
 1558              	.L90:
 1559              		.loc 1 433 5 discriminator 13
 1560 006a 594B     		ldr	r3, .L115+4
ARM GAS  C:\Users\ADMINI~1\AppData\Local\Temp\ccRMs3cA.s 			page 37


 1561 006c 08E0     		b	.L96
 1562              	.L89:
 1563              		.loc 1 433 5 discriminator 11
 1564 006e 594B     		ldr	r3, .L115+8
 1565 0070 06E0     		b	.L96
 1566              	.L88:
 1567              		.loc 1 433 5 discriminator 9
 1568 0072 594B     		ldr	r3, .L115+12
 1569 0074 04E0     		b	.L96
 1570              	.L87:
 1571              		.loc 1 433 5 discriminator 7
 1572 0076 594B     		ldr	r3, .L115+16
 1573 0078 02E0     		b	.L96
 1574              	.L86:
 1575              		.loc 1 433 5 discriminator 5
 1576 007a 594B     		ldr	r3, .L115+20
 1577 007c 00E0     		b	.L96
 1578              	.L85:
 1579              		.loc 1 433 5 discriminator 3
 1580 007e 594B     		ldr	r3, .L115+24
 1581              	.L96:
 1582              		.loc 1 433 5 discriminator 25
 1583 0080 7A88     		ldrh	r2, [r7, #2]
 1584 0082 0592     		str	r2, [sp, #20]
 1585 0084 0493     		str	r3, [sp, #16]
 1586 0086 40F2B113 		movw	r3, #433
 1587 008a 0393     		str	r3, [sp, #12]
 1588 008c 564B     		ldr	r3, .L115+28
 1589 008e 0293     		str	r3, [sp, #8]
 1590 0090 0191     		str	r1, [sp, #4]
 1591 0092 40F2B113 		movw	r3, #433
 1592 0096 0093     		str	r3, [sp]
 1593 0098 544B     		ldr	r3, .L115+32
 1594 009a 2A46     		mov	r2, r5
 1595 009c 2146     		mov	r1, r4
 1596 009e 5448     		ldr	r0, .L115+36
 1597 00a0 FFF7FEFF 		bl	printf
 1598              	.L84:
 434:g:/iot/IoT_Device_Demo/iot_link/network/lwm2m/wakaama_lwm2m/wakaama-master/core\registration.c **** 
 435:g:/iot/IoT_Device_Demo/iot_link/network/lwm2m/wakaama_lwm2m/wakaama-master/core\registration.c ****     result = COAP_NO_ERROR;
 1599              		.loc 1 435 12 is_stmt 1
 1600 00a4 0023     		movs	r3, #0
 1601 00a6 FB72     		strb	r3, [r7, #11]
 436:g:/iot/IoT_Device_Demo/iot_link/network/lwm2m/wakaama_lwm2m/wakaama-master/core\registration.c **** 
 437:g:/iot/IoT_Device_Demo/iot_link/network/lwm2m/wakaama_lwm2m/wakaama-master/core\registration.c ****     targetP = contextP->serverList;
 1602              		.loc 1 437 13
 1603 00a8 7B68     		ldr	r3, [r7, #4]
 1604 00aa 5B69     		ldr	r3, [r3, #20]
 1605 00ac FB60     		str	r3, [r7, #12]
 438:g:/iot/IoT_Device_Demo/iot_link/network/lwm2m/wakaama_lwm2m/wakaama-master/core\registration.c ****     if (targetP == NULL)
 1606              		.loc 1 438 8
 1607 00ae FB68     		ldr	r3, [r7, #12]
 1608 00b0 002B     		cmp	r3, #0
 1609 00b2 78D1     		bne	.L100
 439:g:/iot/IoT_Device_Demo/iot_link/network/lwm2m/wakaama_lwm2m/wakaama-master/core\registration.c ****     {
 440:g:/iot/IoT_Device_Demo/iot_link/network/lwm2m/wakaama_lwm2m/wakaama-master/core\registration.c ****         if (object_getServers(contextP, false) == -1)
 1610              		.loc 1 440 13
ARM GAS  C:\Users\ADMINI~1\AppData\Local\Temp\ccRMs3cA.s 			page 38


 1611 00b4 0021     		movs	r1, #0
 1612 00b6 7868     		ldr	r0, [r7, #4]
 1613 00b8 FFF7FEFF 		bl	object_getServers
 1614 00bc 0346     		mov	r3, r0
 1615              		.loc 1 440 12
 1616 00be B3F1FF3F 		cmp	r3, #-1
 1617 00c2 70D1     		bne	.L100
 441:g:/iot/IoT_Device_Demo/iot_link/network/lwm2m/wakaama_lwm2m/wakaama-master/core\registration.c ****         {
 442:g:/iot/IoT_Device_Demo/iot_link/network/lwm2m/wakaama_lwm2m/wakaama-master/core\registration.c ****             LOG("No server found");
 1618              		.loc 1 442 13
 1619 00c4 FFF7FEFF 		bl	link_log_level_get
 1620 00c8 0346     		mov	r3, r0
 1621 00ca 012B     		cmp	r3, #1
 1622 00cc 1BD8     		bhi	.L98
 1623              		.loc 1 442 13 is_stmt 0 discriminator 1
 1624 00ce 0120     		movs	r0, #1
 1625 00d0 FFF7FEFF 		bl	link_log_level_name
 1626 00d4 0446     		mov	r4, r0
 1627 00d6 FFF7FEFF 		bl	osal_sys_time
 1628 00da 0246     		mov	r2, r0
 1629 00dc 0B46     		mov	r3, r1
 1630 00de 1546     		mov	r5, r2
 1631 00e0 FFF7FEFF 		bl	lwm2m_gettime
 1632 00e4 0246     		mov	r2, r0
 1633 00e6 0B46     		mov	r3, r1
 1634 00e8 4FF4DD73 		mov	r3, #442
 1635 00ec 0393     		str	r3, [sp, #12]
 1636 00ee 3E4B     		ldr	r3, .L115+28
 1637 00f0 0293     		str	r3, [sp, #8]
 1638 00f2 0192     		str	r2, [sp, #4]
 1639 00f4 4FF4DD73 		mov	r3, #442
 1640 00f8 0093     		str	r3, [sp]
 1641 00fa 3C4B     		ldr	r3, .L115+32
 1642 00fc 2A46     		mov	r2, r5
 1643 00fe 2146     		mov	r1, r4
 1644 0100 3C48     		ldr	r0, .L115+40
 1645 0102 FFF7FEFF 		bl	printf
 1646              	.L98:
 443:g:/iot/IoT_Device_Demo/iot_link/network/lwm2m/wakaama_lwm2m/wakaama-master/core\registration.c ****             return COAP_404_NOT_FOUND;
 1647              		.loc 1 443 20 is_stmt 1
 1648 0106 8423     		movs	r3, #132
 1649 0108 5CE0     		b	.L99
 1650              	.L113:
 444:g:/iot/IoT_Device_Demo/iot_link/network/lwm2m/wakaama_lwm2m/wakaama-master/core\registration.c ****         }
 445:g:/iot/IoT_Device_Demo/iot_link/network/lwm2m/wakaama_lwm2m/wakaama-master/core\registration.c ****     }
 446:g:/iot/IoT_Device_Demo/iot_link/network/lwm2m/wakaama_lwm2m/wakaama-master/core\registration.c ****     while (targetP != NULL && result == COAP_NO_ERROR)
 447:g:/iot/IoT_Device_Demo/iot_link/network/lwm2m/wakaama_lwm2m/wakaama-master/core\registration.c ****     {
 448:g:/iot/IoT_Device_Demo/iot_link/network/lwm2m/wakaama_lwm2m/wakaama-master/core\registration.c ****         if (shortServerID != 0)
 1651              		.loc 1 448 12
 1652 010a 7B88     		ldrh	r3, [r7, #2]
 1653 010c 002B     		cmp	r3, #0
 1654 010e 31D0     		beq	.L101
 449:g:/iot/IoT_Device_Demo/iot_link/network/lwm2m/wakaama_lwm2m/wakaama-master/core\registration.c ****         {
 450:g:/iot/IoT_Device_Demo/iot_link/network/lwm2m/wakaama_lwm2m/wakaama-master/core\registration.c ****             if (targetP->shortID == shortServerID)
 1655              		.loc 1 450 24
 1656 0110 FB68     		ldr	r3, [r7, #12]
 1657 0112 DB88     		ldrh	r3, [r3, #6]
ARM GAS  C:\Users\ADMINI~1\AppData\Local\Temp\ccRMs3cA.s 			page 39


 1658              		.loc 1 450 16
 1659 0114 7A88     		ldrh	r2, [r7, #2]
 1660 0116 9A42     		cmp	r2, r3
 1661 0118 42D1     		bne	.L102
 451:g:/iot/IoT_Device_Demo/iot_link/network/lwm2m/wakaama_lwm2m/wakaama-master/core\registration.c ****             {
 452:g:/iot/IoT_Device_Demo/iot_link/network/lwm2m/wakaama_lwm2m/wakaama-master/core\registration.c ****                 // found the server, trigger the update transaction
 453:g:/iot/IoT_Device_Demo/iot_link/network/lwm2m/wakaama_lwm2m/wakaama-master/core\registration.c ****                 if (targetP->status == STATE_REGISTERED
 1662              		.loc 1 453 28
 1663 011a FB68     		ldr	r3, [r7, #12]
 1664 011c 93F82030 		ldrb	r3, [r3, #32]	@ zero_extendqisi2
 1665              		.loc 1 453 20
 1666 0120 022B     		cmp	r3, #2
 1667 0122 04D0     		beq	.L103
 454:g:/iot/IoT_Device_Demo/iot_link/network/lwm2m/wakaama_lwm2m/wakaama-master/core\registration.c ****                         || targetP->status == STATE_REG_UPDATE_PENDING)
 1668              		.loc 1 454 35
 1669 0124 FB68     		ldr	r3, [r7, #12]
 1670 0126 93F82030 		ldrb	r3, [r3, #32]	@ zero_extendqisi2
 1671              		.loc 1 454 25
 1672 012a 042B     		cmp	r3, #4
 1673 012c 0DD1     		bne	.L104
 1674              	.L103:
 455:g:/iot/IoT_Device_Demo/iot_link/network/lwm2m/wakaama_lwm2m/wakaama-master/core\registration.c ****                 {
 456:g:/iot/IoT_Device_Demo/iot_link/network/lwm2m/wakaama_lwm2m/wakaama-master/core\registration.c ****                     if (withObjects == true)
 1675              		.loc 1 456 24
 1676 012e 7B78     		ldrb	r3, [r7, #1]	@ zero_extendqisi2
 1677 0130 002B     		cmp	r3, #0
 1678 0132 04D0     		beq	.L105
 457:g:/iot/IoT_Device_Demo/iot_link/network/lwm2m/wakaama_lwm2m/wakaama-master/core\registration.c ****                     {
 458:g:/iot/IoT_Device_Demo/iot_link/network/lwm2m/wakaama_lwm2m/wakaama-master/core\registration.c ****                         targetP->status = STATE_REG_FULL_UPDATE_NEEDED;
 1679              		.loc 1 458 41
 1680 0134 FB68     		ldr	r3, [r7, #12]
 1681 0136 0622     		movs	r2, #6
 1682 0138 83F82020 		strb	r2, [r3, #32]
 1683 013c 03E0     		b	.L106
 1684              	.L105:
 459:g:/iot/IoT_Device_Demo/iot_link/network/lwm2m/wakaama_lwm2m/wakaama-master/core\registration.c ****                     }
 460:g:/iot/IoT_Device_Demo/iot_link/network/lwm2m/wakaama_lwm2m/wakaama-master/core\registration.c ****                     else
 461:g:/iot/IoT_Device_Demo/iot_link/network/lwm2m/wakaama_lwm2m/wakaama-master/core\registration.c ****                     {
 462:g:/iot/IoT_Device_Demo/iot_link/network/lwm2m/wakaama_lwm2m/wakaama-master/core\registration.c ****                         targetP->status = STATE_REG_UPDATE_NEEDED;
 1685              		.loc 1 462 41
 1686 013e FB68     		ldr	r3, [r7, #12]
 1687 0140 0522     		movs	r2, #5
 1688 0142 83F82020 		strb	r2, [r3, #32]
 1689              	.L106:
 463:g:/iot/IoT_Device_Demo/iot_link/network/lwm2m/wakaama_lwm2m/wakaama-master/core\registration.c ****                     }
 464:g:/iot/IoT_Device_Demo/iot_link/network/lwm2m/wakaama_lwm2m/wakaama-master/core\registration.c ****                     return COAP_NO_ERROR;
 1690              		.loc 1 464 28
 1691 0146 0023     		movs	r3, #0
 1692 0148 3CE0     		b	.L99
 1693              	.L104:
 465:g:/iot/IoT_Device_Demo/iot_link/network/lwm2m/wakaama_lwm2m/wakaama-master/core\registration.c ****                 }
 466:g:/iot/IoT_Device_Demo/iot_link/network/lwm2m/wakaama_lwm2m/wakaama-master/core\registration.c ****                 else if ((targetP->status == STATE_REG_FULL_UPDATE_NEEDED)
 1694              		.loc 1 466 34
 1695 014a FB68     		ldr	r3, [r7, #12]
 1696 014c 93F82030 		ldrb	r3, [r3, #32]	@ zero_extendqisi2
 1697              		.loc 1 466 25
 1698 0150 062B     		cmp	r3, #6
ARM GAS  C:\Users\ADMINI~1\AppData\Local\Temp\ccRMs3cA.s 			page 40


 1699 0152 04D0     		beq	.L107
 467:g:/iot/IoT_Device_Demo/iot_link/network/lwm2m/wakaama_lwm2m/wakaama-master/core\registration.c ****                          || (targetP->status == STATE_REG_UPDATE_NEEDED))
 1700              		.loc 1 467 37
 1701 0154 FB68     		ldr	r3, [r7, #12]
 1702 0156 93F82030 		ldrb	r3, [r3, #32]	@ zero_extendqisi2
 1703              		.loc 1 467 26
 1704 015a 052B     		cmp	r3, #5
 1705 015c 08D1     		bne	.L108
 1706              	.L107:
 468:g:/iot/IoT_Device_Demo/iot_link/network/lwm2m/wakaama_lwm2m/wakaama-master/core\registration.c ****                 {
 469:g:/iot/IoT_Device_Demo/iot_link/network/lwm2m/wakaama_lwm2m/wakaama-master/core\registration.c ****                     // if REG (FULL) UPDATE is already set, returns COAP_NO_ERROR
 470:g:/iot/IoT_Device_Demo/iot_link/network/lwm2m/wakaama_lwm2m/wakaama-master/core\registration.c ****                     if (withObjects == true)
 1707              		.loc 1 470 24
 1708 015e 7B78     		ldrb	r3, [r7, #1]	@ zero_extendqisi2
 1709 0160 002B     		cmp	r3, #0
 1710 0162 03D0     		beq	.L109
 471:g:/iot/IoT_Device_Demo/iot_link/network/lwm2m/wakaama_lwm2m/wakaama-master/core\registration.c ****                     {
 472:g:/iot/IoT_Device_Demo/iot_link/network/lwm2m/wakaama_lwm2m/wakaama-master/core\registration.c ****                         targetP->status = STATE_REG_FULL_UPDATE_NEEDED;
 1711              		.loc 1 472 41
 1712 0164 FB68     		ldr	r3, [r7, #12]
 1713 0166 0622     		movs	r2, #6
 1714 0168 83F82020 		strb	r2, [r3, #32]
 1715              	.L109:
 473:g:/iot/IoT_Device_Demo/iot_link/network/lwm2m/wakaama_lwm2m/wakaama-master/core\registration.c ****                     }
 474:g:/iot/IoT_Device_Demo/iot_link/network/lwm2m/wakaama_lwm2m/wakaama-master/core\registration.c ****                     return COAP_NO_ERROR;
 1716              		.loc 1 474 28
 1717 016c 0023     		movs	r3, #0
 1718 016e 29E0     		b	.L99
 1719              	.L108:
 475:g:/iot/IoT_Device_Demo/iot_link/network/lwm2m/wakaama_lwm2m/wakaama-master/core\registration.c ****                 }
 476:g:/iot/IoT_Device_Demo/iot_link/network/lwm2m/wakaama_lwm2m/wakaama-master/core\registration.c ****                 else
 477:g:/iot/IoT_Device_Demo/iot_link/network/lwm2m/wakaama_lwm2m/wakaama-master/core\registration.c ****                 {
 478:g:/iot/IoT_Device_Demo/iot_link/network/lwm2m/wakaama_lwm2m/wakaama-master/core\registration.c ****                     return COAP_400_BAD_REQUEST;
 1720              		.loc 1 478 28
 1721 0170 8023     		movs	r3, #128
 1722 0172 27E0     		b	.L99
 1723              	.L101:
 479:g:/iot/IoT_Device_Demo/iot_link/network/lwm2m/wakaama_lwm2m/wakaama-master/core\registration.c ****                 }
 480:g:/iot/IoT_Device_Demo/iot_link/network/lwm2m/wakaama_lwm2m/wakaama-master/core\registration.c ****             }
 481:g:/iot/IoT_Device_Demo/iot_link/network/lwm2m/wakaama_lwm2m/wakaama-master/core\registration.c ****         }
 482:g:/iot/IoT_Device_Demo/iot_link/network/lwm2m/wakaama_lwm2m/wakaama-master/core\registration.c ****         else
 483:g:/iot/IoT_Device_Demo/iot_link/network/lwm2m/wakaama_lwm2m/wakaama-master/core\registration.c ****         {
 484:g:/iot/IoT_Device_Demo/iot_link/network/lwm2m/wakaama_lwm2m/wakaama-master/core\registration.c ****             if (targetP->status == STATE_REGISTERED
 1724              		.loc 1 484 24
 1725 0174 FB68     		ldr	r3, [r7, #12]
 1726 0176 93F82030 		ldrb	r3, [r3, #32]	@ zero_extendqisi2
 1727              		.loc 1 484 16
 1728 017a 022B     		cmp	r3, #2
 1729 017c 04D0     		beq	.L110
 485:g:/iot/IoT_Device_Demo/iot_link/network/lwm2m/wakaama_lwm2m/wakaama-master/core\registration.c ****                     || targetP->status == STATE_REG_UPDATE_PENDING)
 1730              		.loc 1 485 31
 1731 017e FB68     		ldr	r3, [r7, #12]
 1732 0180 93F82030 		ldrb	r3, [r3, #32]	@ zero_extendqisi2
 1733              		.loc 1 485 21
 1734 0184 042B     		cmp	r3, #4
 1735 0186 0BD1     		bne	.L102
 1736              	.L110:
ARM GAS  C:\Users\ADMINI~1\AppData\Local\Temp\ccRMs3cA.s 			page 41


 486:g:/iot/IoT_Device_Demo/iot_link/network/lwm2m/wakaama_lwm2m/wakaama-master/core\registration.c ****             {
 487:g:/iot/IoT_Device_Demo/iot_link/network/lwm2m/wakaama_lwm2m/wakaama-master/core\registration.c ****                 if (withObjects == true)
 1737              		.loc 1 487 20
 1738 0188 7B78     		ldrb	r3, [r7, #1]	@ zero_extendqisi2
 1739 018a 002B     		cmp	r3, #0
 1740 018c 04D0     		beq	.L111
 488:g:/iot/IoT_Device_Demo/iot_link/network/lwm2m/wakaama_lwm2m/wakaama-master/core\registration.c ****                 {
 489:g:/iot/IoT_Device_Demo/iot_link/network/lwm2m/wakaama_lwm2m/wakaama-master/core\registration.c ****                     targetP->status = STATE_REG_FULL_UPDATE_NEEDED;
 1741              		.loc 1 489 37
 1742 018e FB68     		ldr	r3, [r7, #12]
 1743 0190 0622     		movs	r2, #6
 1744 0192 83F82020 		strb	r2, [r3, #32]
 1745 0196 03E0     		b	.L102
 1746              	.L111:
 490:g:/iot/IoT_Device_Demo/iot_link/network/lwm2m/wakaama_lwm2m/wakaama-master/core\registration.c ****                 }
 491:g:/iot/IoT_Device_Demo/iot_link/network/lwm2m/wakaama_lwm2m/wakaama-master/core\registration.c ****                 else
 492:g:/iot/IoT_Device_Demo/iot_link/network/lwm2m/wakaama_lwm2m/wakaama-master/core\registration.c ****                 {
 493:g:/iot/IoT_Device_Demo/iot_link/network/lwm2m/wakaama_lwm2m/wakaama-master/core\registration.c ****                     targetP->status = STATE_REG_UPDATE_NEEDED;
 1747              		.loc 1 493 37
 1748 0198 FB68     		ldr	r3, [r7, #12]
 1749 019a 0522     		movs	r2, #5
 1750 019c 83F82020 		strb	r2, [r3, #32]
 1751              	.L102:
 494:g:/iot/IoT_Device_Demo/iot_link/network/lwm2m/wakaama_lwm2m/wakaama-master/core\registration.c ****                 }
 495:g:/iot/IoT_Device_Demo/iot_link/network/lwm2m/wakaama_lwm2m/wakaama-master/core\registration.c ****             }
 496:g:/iot/IoT_Device_Demo/iot_link/network/lwm2m/wakaama_lwm2m/wakaama-master/core\registration.c ****         }
 497:g:/iot/IoT_Device_Demo/iot_link/network/lwm2m/wakaama_lwm2m/wakaama-master/core\registration.c ****         targetP = targetP->next;
 1752              		.loc 1 497 17
 1753 01a0 FB68     		ldr	r3, [r7, #12]
 1754 01a2 1B68     		ldr	r3, [r3]
 1755 01a4 FB60     		str	r3, [r7, #12]
 1756              	.L100:
 446:g:/iot/IoT_Device_Demo/iot_link/network/lwm2m/wakaama_lwm2m/wakaama-master/core\registration.c ****     {
 1757              		.loc 1 446 11
 1758 01a6 FB68     		ldr	r3, [r7, #12]
 1759 01a8 002B     		cmp	r3, #0
 1760 01aa 02D0     		beq	.L112
 446:g:/iot/IoT_Device_Demo/iot_link/network/lwm2m/wakaama_lwm2m/wakaama-master/core\registration.c ****     {
 1761              		.loc 1 446 28 discriminator 1
 1762 01ac FB7A     		ldrb	r3, [r7, #11]	@ zero_extendqisi2
 1763 01ae 002B     		cmp	r3, #0
 1764 01b0 ABD0     		beq	.L113
 1765              	.L112:
 498:g:/iot/IoT_Device_Demo/iot_link/network/lwm2m/wakaama_lwm2m/wakaama-master/core\registration.c ****     }
 499:g:/iot/IoT_Device_Demo/iot_link/network/lwm2m/wakaama_lwm2m/wakaama-master/core\registration.c **** 
 500:g:/iot/IoT_Device_Demo/iot_link/network/lwm2m/wakaama_lwm2m/wakaama-master/core\registration.c ****     if (shortServerID != 0
 1766              		.loc 1 500 8
 1767 01b2 7B88     		ldrh	r3, [r7, #2]
 1768 01b4 002B     		cmp	r3, #0
 1769 01b6 04D0     		beq	.L114
 501:g:/iot/IoT_Device_Demo/iot_link/network/lwm2m/wakaama_lwm2m/wakaama-master/core\registration.c ****             && targetP == NULL)
 1770              		.loc 1 501 13
 1771 01b8 FB68     		ldr	r3, [r7, #12]
 1772 01ba 002B     		cmp	r3, #0
 1773 01bc 01D1     		bne	.L114
 502:g:/iot/IoT_Device_Demo/iot_link/network/lwm2m/wakaama_lwm2m/wakaama-master/core\registration.c ****     {
 503:g:/iot/IoT_Device_Demo/iot_link/network/lwm2m/wakaama_lwm2m/wakaama-master/core\registration.c ****         // no server found
ARM GAS  C:\Users\ADMINI~1\AppData\Local\Temp\ccRMs3cA.s 			page 42


 504:g:/iot/IoT_Device_Demo/iot_link/network/lwm2m/wakaama_lwm2m/wakaama-master/core\registration.c ****         result = COAP_404_NOT_FOUND;
 1774              		.loc 1 504 16
 1775 01be 8423     		movs	r3, #132
 1776 01c0 FB72     		strb	r3, [r7, #11]
 1777              	.L114:
 505:g:/iot/IoT_Device_Demo/iot_link/network/lwm2m/wakaama_lwm2m/wakaama-master/core\registration.c ****     }
 506:g:/iot/IoT_Device_Demo/iot_link/network/lwm2m/wakaama_lwm2m/wakaama-master/core\registration.c **** 
 507:g:/iot/IoT_Device_Demo/iot_link/network/lwm2m/wakaama_lwm2m/wakaama-master/core\registration.c ****     return result;
 1778              		.loc 1 507 12
 1779 01c2 FB7A     		ldrb	r3, [r7, #11]	@ zero_extendqisi2
 1780              	.L99:
 508:g:/iot/IoT_Device_Demo/iot_link/network/lwm2m/wakaama_lwm2m/wakaama-master/core\registration.c **** }
 1781              		.loc 1 508 1
 1782 01c4 1846     		mov	r0, r3
 1783 01c6 1037     		adds	r7, r7, #16
 1784              	.LCFI33:
 1785              		.cfi_def_cfa_offset 16
 1786 01c8 BD46     		mov	sp, r7
 1787              	.LCFI34:
 1788              		.cfi_def_cfa_register 13
 1789              		@ sp needed
 1790 01ca B0BD     		pop	{r4, r5, r7, pc}
 1791              	.L116:
 1792              		.align	2
 1793              	.L115:
 1794 01cc 88010000 		.word	.LC15
 1795 01d0 94010000 		.word	.LC16
 1796 01d4 9C010000 		.word	.LC17
 1797 01d8 B0010000 		.word	.LC18
 1798 01dc C8010000 		.word	.LC19
 1799 01e0 DC010000 		.word	.LC20
 1800 01e4 F8010000 		.word	.LC21
 1801 01e8 00000000 		.word	__func__.8699
 1802 01ec 00000000 		.word	__FUNCTION__.8698
 1803 01f0 08020000 		.word	.LC22
 1804 01f4 48020000 		.word	.LC23
 1805              		.cfi_endproc
 1806              	.LFE10:
 1808              		.section	.rodata
 1809              		.align	2
 1810              	.LC24:
 1811 0278 5B25735D 		.ascii	"[%s][%u][%s:%d] [%d][%s:%d] State: %s\015\012\015\012"
 1811      5B25755D 
 1811      5B25733A 
 1811      25645D20 
 1811      5B25645D 
 1812 02a1 00       		.ascii	"\000"
 1813              		.section	.text.registration_start,"ax",%progbits
 1814              		.align	1
 1815              		.global	registration_start
 1816              		.syntax unified
 1817              		.thumb
 1818              		.thumb_func
 1819              		.fpu fpv4-sp-d16
 1821              	registration_start:
 1822              	.LFB11:
 509:g:/iot/IoT_Device_Demo/iot_link/network/lwm2m/wakaama_lwm2m/wakaama-master/core\registration.c **** //serverlistobjectlist
ARM GAS  C:\Users\ADMINI~1\AppData\Local\Temp\ccRMs3cA.s 			page 43


 510:g:/iot/IoT_Device_Demo/iot_link/network/lwm2m/wakaama_lwm2m/wakaama-master/core\registration.c **** uint8_t registration_start(lwm2m_context_t *contextP)
 511:g:/iot/IoT_Device_Demo/iot_link/network/lwm2m/wakaama_lwm2m/wakaama-master/core\registration.c **** {
 1823              		.loc 1 511 1
 1824              		.cfi_startproc
 1825              		@ args = 0, pretend = 0, frame = 16
 1826              		@ frame_needed = 1, uses_anonymous_args = 0
 1827 0000 B0B5     		push	{r4, r5, r7, lr}
 1828              	.LCFI35:
 1829              		.cfi_def_cfa_offset 16
 1830              		.cfi_offset 4, -16
 1831              		.cfi_offset 5, -12
 1832              		.cfi_offset 7, -8
 1833              		.cfi_offset 14, -4
 1834 0002 8AB0     		sub	sp, sp, #40
 1835              	.LCFI36:
 1836              		.cfi_def_cfa_offset 56
 1837 0004 06AF     		add	r7, sp, #24
 1838              	.LCFI37:
 1839              		.cfi_def_cfa 7, 32
 1840 0006 7860     		str	r0, [r7, #4]
 512:g:/iot/IoT_Device_Demo/iot_link/network/lwm2m/wakaama_lwm2m/wakaama-master/core\registration.c ****     lwm2m_server_t *targetP;
 513:g:/iot/IoT_Device_Demo/iot_link/network/lwm2m/wakaama_lwm2m/wakaama-master/core\registration.c ****     uint8_t result;
 514:g:/iot/IoT_Device_Demo/iot_link/network/lwm2m/wakaama_lwm2m/wakaama-master/core\registration.c **** 
 515:g:/iot/IoT_Device_Demo/iot_link/network/lwm2m/wakaama_lwm2m/wakaama-master/core\registration.c ****     LOG_ARG("State: %s", STR_STATE(contextP->state));
 1841              		.loc 1 515 5
 1842 0008 FFF7FEFF 		bl	link_log_level_get
 1843 000c 0346     		mov	r3, r0
 1844 000e 012B     		cmp	r3, #1
 1845 0010 41D8     		bhi	.L118
 1846              		.loc 1 515 5 is_stmt 0 discriminator 1
 1847 0012 0120     		movs	r0, #1
 1848 0014 FFF7FEFF 		bl	link_log_level_name
 1849 0018 0446     		mov	r4, r0
 1850 001a FFF7FEFF 		bl	osal_sys_time
 1851 001e 0246     		mov	r2, r0
 1852 0020 0B46     		mov	r3, r1
 1853 0022 1546     		mov	r5, r2
 1854 0024 FFF7FEFF 		bl	lwm2m_gettime
 1855 0028 0246     		mov	r2, r0
 1856 002a 0B46     		mov	r3, r1
 1857 002c 7B68     		ldr	r3, [r7, #4]
 1858 002e 1B78     		ldrb	r3, [r3]	@ zero_extendqisi2
 1859 0030 002B     		cmp	r3, #0
 1860 0032 1FD0     		beq	.L119
 1861              		.loc 1 515 5 discriminator 2
 1862 0034 7B68     		ldr	r3, [r7, #4]
 1863 0036 1B78     		ldrb	r3, [r3]	@ zero_extendqisi2
 1864 0038 012B     		cmp	r3, #1
 1865 003a 19D0     		beq	.L120
 1866              		.loc 1 515 5 discriminator 4
 1867 003c 7B68     		ldr	r3, [r7, #4]
 1868 003e 1B78     		ldrb	r3, [r3]	@ zero_extendqisi2
 1869 0040 022B     		cmp	r3, #2
 1870 0042 13D0     		beq	.L121
 1871              		.loc 1 515 5 discriminator 6
 1872 0044 7B68     		ldr	r3, [r7, #4]
 1873 0046 1B78     		ldrb	r3, [r3]	@ zero_extendqisi2
ARM GAS  C:\Users\ADMINI~1\AppData\Local\Temp\ccRMs3cA.s 			page 44


 1874 0048 032B     		cmp	r3, #3
 1875 004a 0DD0     		beq	.L122
 1876              		.loc 1 515 5 discriminator 8
 1877 004c 7B68     		ldr	r3, [r7, #4]
 1878 004e 1B78     		ldrb	r3, [r3]	@ zero_extendqisi2
 1879 0050 042B     		cmp	r3, #4
 1880 0052 07D0     		beq	.L123
 1881              		.loc 1 515 5 discriminator 10
 1882 0054 7B68     		ldr	r3, [r7, #4]
 1883 0056 1B78     		ldrb	r3, [r3]	@ zero_extendqisi2
 1884 0058 052B     		cmp	r3, #5
 1885 005a 01D1     		bne	.L124
 1886              		.loc 1 515 5 discriminator 12
 1887 005c 204B     		ldr	r3, .L137
 1888 005e 0AE0     		b	.L130
 1889              	.L124:
 1890              		.loc 1 515 5 discriminator 13
 1891 0060 204B     		ldr	r3, .L137+4
 1892 0062 08E0     		b	.L130
 1893              	.L123:
 1894              		.loc 1 515 5 discriminator 11
 1895 0064 204B     		ldr	r3, .L137+8
 1896 0066 06E0     		b	.L130
 1897              	.L122:
 1898              		.loc 1 515 5 discriminator 9
 1899 0068 204B     		ldr	r3, .L137+12
 1900 006a 04E0     		b	.L130
 1901              	.L121:
 1902              		.loc 1 515 5 discriminator 7
 1903 006c 204B     		ldr	r3, .L137+16
 1904 006e 02E0     		b	.L130
 1905              	.L120:
 1906              		.loc 1 515 5 discriminator 5
 1907 0070 204B     		ldr	r3, .L137+20
 1908 0072 00E0     		b	.L130
 1909              	.L119:
 1910              		.loc 1 515 5 discriminator 3
 1911 0074 204B     		ldr	r3, .L137+24
 1912              	.L130:
 1913              		.loc 1 515 5 discriminator 25
 1914 0076 0493     		str	r3, [sp, #16]
 1915 0078 40F20323 		movw	r3, #515
 1916 007c 0393     		str	r3, [sp, #12]
 1917 007e 1F4B     		ldr	r3, .L137+28
 1918 0080 0293     		str	r3, [sp, #8]
 1919 0082 0192     		str	r2, [sp, #4]
 1920 0084 40F20323 		movw	r3, #515
 1921 0088 0093     		str	r3, [sp]
 1922 008a 1D4B     		ldr	r3, .L137+32
 1923 008c 2A46     		mov	r2, r5
 1924 008e 2146     		mov	r1, r4
 1925 0090 1C48     		ldr	r0, .L137+36
 1926 0092 FFF7FEFF 		bl	printf
 1927              	.L118:
 516:g:/iot/IoT_Device_Demo/iot_link/network/lwm2m/wakaama_lwm2m/wakaama-master/core\registration.c **** 
 517:g:/iot/IoT_Device_Demo/iot_link/network/lwm2m/wakaama_lwm2m/wakaama-master/core\registration.c ****     result = COAP_NO_ERROR;
 1928              		.loc 1 517 12 is_stmt 1
ARM GAS  C:\Users\ADMINI~1\AppData\Local\Temp\ccRMs3cA.s 			page 45


 1929 0096 0023     		movs	r3, #0
 1930 0098 FB72     		strb	r3, [r7, #11]
 518:g:/iot/IoT_Device_Demo/iot_link/network/lwm2m/wakaama_lwm2m/wakaama-master/core\registration.c **** 
 519:g:/iot/IoT_Device_Demo/iot_link/network/lwm2m/wakaama_lwm2m/wakaama-master/core\registration.c ****     targetP = contextP->serverList;
 1931              		.loc 1 519 13
 1932 009a 7B68     		ldr	r3, [r7, #4]
 1933 009c 5B69     		ldr	r3, [r3, #20]
 1934 009e FB60     		str	r3, [r7, #12]
 520:g:/iot/IoT_Device_Demo/iot_link/network/lwm2m/wakaama_lwm2m/wakaama-master/core\registration.c ****     while (targetP != NULL && result == COAP_NO_ERROR)
 1935              		.loc 1 520 11
 1936 00a0 12E0     		b	.L131
 1937              	.L135:
 521:g:/iot/IoT_Device_Demo/iot_link/network/lwm2m/wakaama_lwm2m/wakaama-master/core\registration.c ****     {
 522:g:/iot/IoT_Device_Demo/iot_link/network/lwm2m/wakaama_lwm2m/wakaama-master/core\registration.c ****         if (targetP->status == STATE_DEREGISTERED
 1938              		.loc 1 522 20
 1939 00a2 FB68     		ldr	r3, [r7, #12]
 1940 00a4 93F82030 		ldrb	r3, [r3, #32]	@ zero_extendqisi2
 1941              		.loc 1 522 12
 1942 00a8 002B     		cmp	r3, #0
 1943 00aa 04D0     		beq	.L132
 523:g:/iot/IoT_Device_Demo/iot_link/network/lwm2m/wakaama_lwm2m/wakaama-master/core\registration.c ****                 || targetP->status == STATE_REG_FAILED)
 1944              		.loc 1 523 27
 1945 00ac FB68     		ldr	r3, [r7, #12]
 1946 00ae 93F82030 		ldrb	r3, [r3, #32]	@ zero_extendqisi2
 1947              		.loc 1 523 17
 1948 00b2 032B     		cmp	r3, #3
 1949 00b4 05D1     		bne	.L133
 1950              	.L132:
 524:g:/iot/IoT_Device_Demo/iot_link/network/lwm2m/wakaama_lwm2m/wakaama-master/core\registration.c ****         {
 525:g:/iot/IoT_Device_Demo/iot_link/network/lwm2m/wakaama_lwm2m/wakaama-master/core\registration.c ****             result = prv_register(contextP, targetP);
 1951              		.loc 1 525 22
 1952 00b6 F968     		ldr	r1, [r7, #12]
 1953 00b8 7868     		ldr	r0, [r7, #4]
 1954 00ba FFF7FEFF 		bl	prv_register
 1955 00be 0346     		mov	r3, r0
 1956 00c0 FB72     		strb	r3, [r7, #11]
 1957              	.L133:
 526:g:/iot/IoT_Device_Demo/iot_link/network/lwm2m/wakaama_lwm2m/wakaama-master/core\registration.c ****         }
 527:g:/iot/IoT_Device_Demo/iot_link/network/lwm2m/wakaama_lwm2m/wakaama-master/core\registration.c ****         targetP = targetP->next;
 1958              		.loc 1 527 17
 1959 00c2 FB68     		ldr	r3, [r7, #12]
 1960 00c4 1B68     		ldr	r3, [r3]
 1961 00c6 FB60     		str	r3, [r7, #12]
 1962              	.L131:
 520:g:/iot/IoT_Device_Demo/iot_link/network/lwm2m/wakaama_lwm2m/wakaama-master/core\registration.c ****     {
 1963              		.loc 1 520 11
 1964 00c8 FB68     		ldr	r3, [r7, #12]
 1965 00ca 002B     		cmp	r3, #0
 1966 00cc 02D0     		beq	.L134
 520:g:/iot/IoT_Device_Demo/iot_link/network/lwm2m/wakaama_lwm2m/wakaama-master/core\registration.c ****     {
 1967              		.loc 1 520 28 discriminator 1
 1968 00ce FB7A     		ldrb	r3, [r7, #11]	@ zero_extendqisi2
 1969 00d0 002B     		cmp	r3, #0
 1970 00d2 E6D0     		beq	.L135
 1971              	.L134:
 528:g:/iot/IoT_Device_Demo/iot_link/network/lwm2m/wakaama_lwm2m/wakaama-master/core\registration.c ****     }
 529:g:/iot/IoT_Device_Demo/iot_link/network/lwm2m/wakaama_lwm2m/wakaama-master/core\registration.c **** 
ARM GAS  C:\Users\ADMINI~1\AppData\Local\Temp\ccRMs3cA.s 			page 46


 530:g:/iot/IoT_Device_Demo/iot_link/network/lwm2m/wakaama_lwm2m/wakaama-master/core\registration.c ****     return result;
 1972              		.loc 1 530 12
 1973 00d4 FB7A     		ldrb	r3, [r7, #11]	@ zero_extendqisi2
 531:g:/iot/IoT_Device_Demo/iot_link/network/lwm2m/wakaama_lwm2m/wakaama-master/core\registration.c **** }
 1974              		.loc 1 531 1
 1975 00d6 1846     		mov	r0, r3
 1976 00d8 1037     		adds	r7, r7, #16
 1977              	.LCFI38:
 1978              		.cfi_def_cfa_offset 16
 1979 00da BD46     		mov	sp, r7
 1980              	.LCFI39:
 1981              		.cfi_def_cfa_register 13
 1982              		@ sp needed
 1983 00dc B0BD     		pop	{r4, r5, r7, pc}
 1984              	.L138:
 1985 00de 00BF     		.align	2
 1986              	.L137:
 1987 00e0 88010000 		.word	.LC15
 1988 00e4 94010000 		.word	.LC16
 1989 00e8 9C010000 		.word	.LC17
 1990 00ec B0010000 		.word	.LC18
 1991 00f0 C8010000 		.word	.LC19
 1992 00f4 DC010000 		.word	.LC20
 1993 00f8 F8010000 		.word	.LC21
 1994 00fc 00000000 		.word	__func__.8709
 1995 0100 00000000 		.word	__FUNCTION__.8708
 1996 0104 78020000 		.word	.LC24
 1997              		.cfi_endproc
 1998              	.LFE11:
 2000              		.section	.rodata
 2001 02a2 0000     		.align	2
 2002              	.LC25:
 2003 02a4 53544154 		.ascii	"STATE_BS_FAILED\000"
 2003      455F4253 
 2003      5F464149 
 2003      4C454400 
 2004              		.align	2
 2005              	.LC26:
 2006 02b4 53544154 		.ascii	"STATE_BS_FAILING\000"
 2006      455F4253 
 2006      5F464149 
 2006      4C494E47 
 2006      00
 2007 02c5 000000   		.align	2
 2008              	.LC27:
 2009 02c8 53544154 		.ascii	"STATE_BS_FINISHING\000"
 2009      455F4253 
 2009      5F46494E 
 2009      49534849 
 2009      4E4700
 2010 02db 00       		.align	2
 2011              	.LC28:
 2012 02dc 53544154 		.ascii	"STATE_BS_FINISHED\000"
 2012      455F4253 
 2012      5F46494E 
 2012      49534845 
 2012      4400
ARM GAS  C:\Users\ADMINI~1\AppData\Local\Temp\ccRMs3cA.s 			page 47


 2013 02ee 0000     		.align	2
 2014              	.LC29:
 2015 02f0 53544154 		.ascii	"STATE_BS_PENDING\000"
 2015      455F4253 
 2015      5F50454E 
 2015      44494E47 
 2015      00
 2016 0301 000000   		.align	2
 2017              	.LC30:
 2018 0304 53544154 		.ascii	"STATE_BS_INITIATED\000"
 2018      455F4253 
 2018      5F494E49 
 2018      54494154 
 2018      454400
 2019 0317 00       		.align	2
 2020              	.LC31:
 2021 0318 53544154 		.ascii	"STATE_BS_HOLD_OFF\000"
 2021      455F4253 
 2021      5F484F4C 
 2021      445F4F46 
 2021      4600
 2022 032a 0000     		.align	2
 2023              	.LC32:
 2024 032c 53544154 		.ascii	"STATE_DEREG_PENDING\000"
 2024      455F4445 
 2024      5245475F 
 2024      50454E44 
 2024      494E4700 
 2025              		.align	2
 2026              	.LC33:
 2027 0340 53544154 		.ascii	"STATE_REG_FULL_UPDATE_NEEDED\000"
 2027      455F5245 
 2027      475F4655 
 2027      4C4C5F55 
 2027      50444154 
 2028 035d 000000   		.align	2
 2029              	.LC34:
 2030 0360 53544154 		.ascii	"STATE_REG_UPDATE_NEEDED\000"
 2030      455F5245 
 2030      475F5550 
 2030      44415445 
 2030      5F4E4545 
 2031              		.align	2
 2032              	.LC35:
 2033 0378 53544154 		.ascii	"STATE_REG_UPDATE_PENDING\000"
 2033      455F5245 
 2033      475F5550 
 2033      44415445 
 2033      5F50454E 
 2034 0391 000000   		.align	2
 2035              	.LC36:
 2036 0394 53544154 		.ascii	"STATE_REG_FAILED\000"
 2036      455F5245 
 2036      475F4641 
 2036      494C4544 
 2036      00
 2037 03a5 000000   		.align	2
ARM GAS  C:\Users\ADMINI~1\AppData\Local\Temp\ccRMs3cA.s 			page 48


 2038              	.LC37:
 2039 03a8 53544154 		.ascii	"STATE_REGISTERED\000"
 2039      455F5245 
 2039      47495354 
 2039      45524544 
 2039      00
 2040 03b9 000000   		.align	2
 2041              	.LC38:
 2042 03bc 53544154 		.ascii	"STATE_REG_PENDING\000"
 2042      455F5245 
 2042      475F5045 
 2042      4E44494E 
 2042      4700
 2043 03ce 0000     		.align	2
 2044              	.LC39:
 2045 03d0 53544154 		.ascii	"STATE_DEREGISTERED\000"
 2045      455F4445 
 2045      52454749 
 2045      53544552 
 2045      454400
 2046 03e3 00       		.align	2
 2047              	.LC40:
 2048 03e4 5B25735D 		.ascii	"[%s][%u][%s:%d] [%d][%s:%d] targetP->status: %s\015"
 2048      5B25755D 
 2048      5B25733A 
 2048      25645D20 
 2048      5B25645D 
 2049 0414 0A0D0A00 		.ascii	"\012\015\012\000"
 2050              		.align	2
 2051              	.LC41:
 2052 0418 5B25735D 		.ascii	"[%s][%u][%s:%d] [%d][%s:%d] reg_status: %s\015\012\015"
 2052      5B25755D 
 2052      5B25733A 
 2052      25645D20 
 2052      5B25645D 
 2053 0445 0A00     		.ascii	"\012\000"
 2054              		.section	.text.registration_getStatus,"ax",%progbits
 2055              		.align	1
 2056              		.global	registration_getStatus
 2057              		.syntax unified
 2058              		.thumb
 2059              		.thumb_func
 2060              		.fpu fpv4-sp-d16
 2062              	registration_getStatus:
 2063              	.LFB12:
 532:g:/iot/IoT_Device_Demo/iot_link/network/lwm2m/wakaama_lwm2m/wakaama-master/core\registration.c **** 
 533:g:/iot/IoT_Device_Demo/iot_link/network/lwm2m/wakaama_lwm2m/wakaama-master/core\registration.c **** 
 534:g:/iot/IoT_Device_Demo/iot_link/network/lwm2m/wakaama_lwm2m/wakaama-master/core\registration.c **** /*
 535:g:/iot/IoT_Device_Demo/iot_link/network/lwm2m/wakaama_lwm2m/wakaama-master/core\registration.c ****  * Returns STATE_REG_PENDING if at least one registration is still pending
 536:g:/iot/IoT_Device_Demo/iot_link/network/lwm2m/wakaama_lwm2m/wakaama-master/core\registration.c ****  * Returns STATE_REGISTERED if no registration is pending and there is at least one server the clie
 537:g:/iot/IoT_Device_Demo/iot_link/network/lwm2m/wakaama_lwm2m/wakaama-master/core\registration.c ****  * Returns STATE_REG_FAILED if all registration failed.
 538:g:/iot/IoT_Device_Demo/iot_link/network/lwm2m/wakaama_lwm2m/wakaama-master/core\registration.c ****  */
 539:g:/iot/IoT_Device_Demo/iot_link/network/lwm2m/wakaama_lwm2m/wakaama-master/core\registration.c **** lwm2m_status_t registration_getStatus(lwm2m_context_t *contextP)
 540:g:/iot/IoT_Device_Demo/iot_link/network/lwm2m/wakaama_lwm2m/wakaama-master/core\registration.c **** {
 2064              		.loc 1 540 1
 2065              		.cfi_startproc
 2066              		@ args = 0, pretend = 0, frame = 16
ARM GAS  C:\Users\ADMINI~1\AppData\Local\Temp\ccRMs3cA.s 			page 49


 2067              		@ frame_needed = 1, uses_anonymous_args = 0
 2068 0000 B0B5     		push	{r4, r5, r7, lr}
 2069              	.LCFI40:
 2070              		.cfi_def_cfa_offset 16
 2071              		.cfi_offset 4, -16
 2072              		.cfi_offset 5, -12
 2073              		.cfi_offset 7, -8
 2074              		.cfi_offset 14, -4
 2075 0002 8AB0     		sub	sp, sp, #40
 2076              	.LCFI41:
 2077              		.cfi_def_cfa_offset 56
 2078 0004 06AF     		add	r7, sp, #24
 2079              	.LCFI42:
 2080              		.cfi_def_cfa 7, 32
 2081 0006 7860     		str	r0, [r7, #4]
 541:g:/iot/IoT_Device_Demo/iot_link/network/lwm2m/wakaama_lwm2m/wakaama-master/core\registration.c ****     lwm2m_server_t *targetP;
 542:g:/iot/IoT_Device_Demo/iot_link/network/lwm2m/wakaama_lwm2m/wakaama-master/core\registration.c ****     lwm2m_status_t reg_status;
 543:g:/iot/IoT_Device_Demo/iot_link/network/lwm2m/wakaama_lwm2m/wakaama-master/core\registration.c **** 
 544:g:/iot/IoT_Device_Demo/iot_link/network/lwm2m/wakaama_lwm2m/wakaama-master/core\registration.c ****     LOG_ARG("State: %s", STR_STATE(contextP->state));
 2082              		.loc 1 544 5
 2083 0008 FFF7FEFF 		bl	link_log_level_get
 2084 000c 0346     		mov	r3, r0
 2085 000e 012B     		cmp	r3, #1
 2086 0010 41D8     		bhi	.L140
 2087              		.loc 1 544 5 is_stmt 0 discriminator 1
 2088 0012 0120     		movs	r0, #1
 2089 0014 FFF7FEFF 		bl	link_log_level_name
 2090 0018 0446     		mov	r4, r0
 2091 001a FFF7FEFF 		bl	osal_sys_time
 2092 001e 0246     		mov	r2, r0
 2093 0020 0B46     		mov	r3, r1
 2094 0022 1546     		mov	r5, r2
 2095 0024 FFF7FEFF 		bl	lwm2m_gettime
 2096 0028 0246     		mov	r2, r0
 2097 002a 0B46     		mov	r3, r1
 2098 002c 7B68     		ldr	r3, [r7, #4]
 2099 002e 1B78     		ldrb	r3, [r3]	@ zero_extendqisi2
 2100 0030 002B     		cmp	r3, #0
 2101 0032 1FD0     		beq	.L141
 2102              		.loc 1 544 5 discriminator 2
 2103 0034 7B68     		ldr	r3, [r7, #4]
 2104 0036 1B78     		ldrb	r3, [r3]	@ zero_extendqisi2
 2105 0038 012B     		cmp	r3, #1
 2106 003a 19D0     		beq	.L142
 2107              		.loc 1 544 5 discriminator 4
 2108 003c 7B68     		ldr	r3, [r7, #4]
 2109 003e 1B78     		ldrb	r3, [r3]	@ zero_extendqisi2
 2110 0040 022B     		cmp	r3, #2
 2111 0042 13D0     		beq	.L143
 2112              		.loc 1 544 5 discriminator 6
 2113 0044 7B68     		ldr	r3, [r7, #4]
 2114 0046 1B78     		ldrb	r3, [r3]	@ zero_extendqisi2
 2115 0048 032B     		cmp	r3, #3
 2116 004a 0DD0     		beq	.L144
 2117              		.loc 1 544 5 discriminator 8
 2118 004c 7B68     		ldr	r3, [r7, #4]
 2119 004e 1B78     		ldrb	r3, [r3]	@ zero_extendqisi2
ARM GAS  C:\Users\ADMINI~1\AppData\Local\Temp\ccRMs3cA.s 			page 50


 2120 0050 042B     		cmp	r3, #4
 2121 0052 07D0     		beq	.L145
 2122              		.loc 1 544 5 discriminator 10
 2123 0054 7B68     		ldr	r3, [r7, #4]
 2124 0056 1B78     		ldrb	r3, [r3]	@ zero_extendqisi2
 2125 0058 052B     		cmp	r3, #5
 2126 005a 01D1     		bne	.L146
 2127              		.loc 1 544 5 discriminator 12
 2128 005c A04B     		ldr	r3, .L225
 2129 005e 0AE0     		b	.L152
 2130              	.L146:
 2131              		.loc 1 544 5 discriminator 13
 2132 0060 A04B     		ldr	r3, .L225+4
 2133 0062 08E0     		b	.L152
 2134              	.L145:
 2135              		.loc 1 544 5 discriminator 11
 2136 0064 A04B     		ldr	r3, .L225+8
 2137 0066 06E0     		b	.L152
 2138              	.L144:
 2139              		.loc 1 544 5 discriminator 9
 2140 0068 A04B     		ldr	r3, .L225+12
 2141 006a 04E0     		b	.L152
 2142              	.L143:
 2143              		.loc 1 544 5 discriminator 7
 2144 006c A04B     		ldr	r3, .L225+16
 2145 006e 02E0     		b	.L152
 2146              	.L142:
 2147              		.loc 1 544 5 discriminator 5
 2148 0070 A04B     		ldr	r3, .L225+20
 2149 0072 00E0     		b	.L152
 2150              	.L141:
 2151              		.loc 1 544 5 discriminator 3
 2152 0074 A04B     		ldr	r3, .L225+24
 2153              	.L152:
 2154              		.loc 1 544 5 discriminator 25
 2155 0076 0493     		str	r3, [sp, #16]
 2156 0078 4FF40873 		mov	r3, #544
 2157 007c 0393     		str	r3, [sp, #12]
 2158 007e 9F4B     		ldr	r3, .L225+28
 2159 0080 0293     		str	r3, [sp, #8]
 2160 0082 0192     		str	r2, [sp, #4]
 2161 0084 4FF40873 		mov	r3, #544
 2162 0088 0093     		str	r3, [sp]
 2163 008a 9D4B     		ldr	r3, .L225+32
 2164 008c 2A46     		mov	r2, r5
 2165 008e 2146     		mov	r1, r4
 2166 0090 9C48     		ldr	r0, .L225+36
 2167 0092 FFF7FEFF 		bl	printf
 2168              	.L140:
 545:g:/iot/IoT_Device_Demo/iot_link/network/lwm2m/wakaama_lwm2m/wakaama-master/core\registration.c **** 
 546:g:/iot/IoT_Device_Demo/iot_link/network/lwm2m/wakaama_lwm2m/wakaama-master/core\registration.c ****     targetP = contextP->serverList;
 2169              		.loc 1 546 13 is_stmt 1
 2170 0096 7B68     		ldr	r3, [r7, #4]
 2171 0098 5B69     		ldr	r3, [r3, #20]
 2172 009a FB60     		str	r3, [r7, #12]
 547:g:/iot/IoT_Device_Demo/iot_link/network/lwm2m/wakaama_lwm2m/wakaama-master/core\registration.c ****     reg_status = STATE_REG_FAILED;
 2173              		.loc 1 547 16
ARM GAS  C:\Users\ADMINI~1\AppData\Local\Temp\ccRMs3cA.s 			page 51


 2174 009c 0323     		movs	r3, #3
 2175 009e FB72     		strb	r3, [r7, #11]
 548:g:/iot/IoT_Device_Demo/iot_link/network/lwm2m/wakaama_lwm2m/wakaama-master/core\registration.c **** 
 549:g:/iot/IoT_Device_Demo/iot_link/network/lwm2m/wakaama_lwm2m/wakaama-master/core\registration.c ****     while (targetP != NULL)
 2176              		.loc 1 549 11
 2177 00a0 14E1     		b	.L153
 2178              	.L221:
 550:g:/iot/IoT_Device_Demo/iot_link/network/lwm2m/wakaama_lwm2m/wakaama-master/core\registration.c ****     {
 551:g:/iot/IoT_Device_Demo/iot_link/network/lwm2m/wakaama_lwm2m/wakaama-master/core\registration.c ****         LOG_ARG("targetP->status: %s", STR_STATUS(targetP->status));
 2179              		.loc 1 551 9
 2180 00a2 FFF7FEFF 		bl	link_log_level_get
 2181 00a6 0346     		mov	r3, r0
 2182 00a8 012B     		cmp	r3, #1
 2183 00aa 00F28780 		bhi	.L154
 2184              		.loc 1 551 9 is_stmt 0 discriminator 1
 2185 00ae 0120     		movs	r0, #1
 2186 00b0 FFF7FEFF 		bl	link_log_level_name
 2187 00b4 0446     		mov	r4, r0
 2188 00b6 FFF7FEFF 		bl	osal_sys_time
 2189 00ba 0246     		mov	r2, r0
 2190 00bc 0B46     		mov	r3, r1
 2191 00be 1546     		mov	r5, r2
 2192 00c0 FFF7FEFF 		bl	lwm2m_gettime
 2193 00c4 0246     		mov	r2, r0
 2194 00c6 0B46     		mov	r3, r1
 2195 00c8 FB68     		ldr	r3, [r7, #12]
 2196 00ca 93F82030 		ldrb	r3, [r3, #32]	@ zero_extendqisi2
 2197 00ce 002B     		cmp	r3, #0
 2198 00d0 63D0     		beq	.L155
 2199              		.loc 1 551 9 discriminator 2
 2200 00d2 FB68     		ldr	r3, [r7, #12]
 2201 00d4 93F82030 		ldrb	r3, [r3, #32]	@ zero_extendqisi2
 2202 00d8 012B     		cmp	r3, #1
 2203 00da 5CD0     		beq	.L156
 2204              		.loc 1 551 9 discriminator 4
 2205 00dc FB68     		ldr	r3, [r7, #12]
 2206 00de 93F82030 		ldrb	r3, [r3, #32]	@ zero_extendqisi2
 2207 00e2 022B     		cmp	r3, #2
 2208 00e4 55D0     		beq	.L157
 2209              		.loc 1 551 9 discriminator 6
 2210 00e6 FB68     		ldr	r3, [r7, #12]
 2211 00e8 93F82030 		ldrb	r3, [r3, #32]	@ zero_extendqisi2
 2212 00ec 032B     		cmp	r3, #3
 2213 00ee 4ED0     		beq	.L158
 2214              		.loc 1 551 9 discriminator 8
 2215 00f0 FB68     		ldr	r3, [r7, #12]
 2216 00f2 93F82030 		ldrb	r3, [r3, #32]	@ zero_extendqisi2
 2217 00f6 042B     		cmp	r3, #4
 2218 00f8 47D0     		beq	.L159
 2219              		.loc 1 551 9 discriminator 10
 2220 00fa FB68     		ldr	r3, [r7, #12]
 2221 00fc 93F82030 		ldrb	r3, [r3, #32]	@ zero_extendqisi2
 2222 0100 052B     		cmp	r3, #5
 2223 0102 40D0     		beq	.L160
 2224              		.loc 1 551 9 discriminator 12
 2225 0104 FB68     		ldr	r3, [r7, #12]
 2226 0106 93F82030 		ldrb	r3, [r3, #32]	@ zero_extendqisi2
ARM GAS  C:\Users\ADMINI~1\AppData\Local\Temp\ccRMs3cA.s 			page 52


 2227 010a 062B     		cmp	r3, #6
 2228 010c 39D0     		beq	.L161
 2229              		.loc 1 551 9 discriminator 14
 2230 010e FB68     		ldr	r3, [r7, #12]
 2231 0110 93F82030 		ldrb	r3, [r3, #32]	@ zero_extendqisi2
 2232 0114 072B     		cmp	r3, #7
 2233 0116 32D0     		beq	.L162
 2234              		.loc 1 551 9 discriminator 16
 2235 0118 FB68     		ldr	r3, [r7, #12]
 2236 011a 93F82030 		ldrb	r3, [r3, #32]	@ zero_extendqisi2
 2237 011e 082B     		cmp	r3, #8
 2238 0120 2BD0     		beq	.L163
 2239              		.loc 1 551 9 discriminator 18
 2240 0122 FB68     		ldr	r3, [r7, #12]
 2241 0124 93F82030 		ldrb	r3, [r3, #32]	@ zero_extendqisi2
 2242 0128 092B     		cmp	r3, #9
 2243 012a 24D0     		beq	.L164
 2244              		.loc 1 551 9 discriminator 20
 2245 012c FB68     		ldr	r3, [r7, #12]
 2246 012e 93F82030 		ldrb	r3, [r3, #32]	@ zero_extendqisi2
 2247 0132 0A2B     		cmp	r3, #10
 2248 0134 1DD0     		beq	.L165
 2249              		.loc 1 551 9 discriminator 22
 2250 0136 FB68     		ldr	r3, [r7, #12]
 2251 0138 93F82030 		ldrb	r3, [r3, #32]	@ zero_extendqisi2
 2252 013c 0C2B     		cmp	r3, #12
 2253 013e 16D0     		beq	.L166
 2254              		.loc 1 551 9 discriminator 24
 2255 0140 FB68     		ldr	r3, [r7, #12]
 2256 0142 93F82030 		ldrb	r3, [r3, #32]	@ zero_extendqisi2
 2257 0146 0B2B     		cmp	r3, #11
 2258 0148 0FD0     		beq	.L167
 2259              		.loc 1 551 9 discriminator 26
 2260 014a FB68     		ldr	r3, [r7, #12]
 2261 014c 93F82030 		ldrb	r3, [r3, #32]	@ zero_extendqisi2
 2262 0150 0D2B     		cmp	r3, #13
 2263 0152 08D0     		beq	.L168
 2264              		.loc 1 551 9 discriminator 28
 2265 0154 FB68     		ldr	r3, [r7, #12]
 2266 0156 93F82030 		ldrb	r3, [r3, #32]	@ zero_extendqisi2
 2267 015a 0E2B     		cmp	r3, #14
 2268 015c 01D1     		bne	.L169
 2269              		.loc 1 551 9 discriminator 30
 2270 015e 6A4B     		ldr	r3, .L225+40
 2271 0160 1CE0     		b	.L184
 2272              	.L169:
 2273              		.loc 1 551 9 discriminator 31
 2274 0162 604B     		ldr	r3, .L225+4
 2275 0164 1AE0     		b	.L184
 2276              	.L168:
 2277              		.loc 1 551 9 discriminator 29
 2278 0166 694B     		ldr	r3, .L225+44
 2279 0168 18E0     		b	.L184
 2280              	.L167:
 2281              		.loc 1 551 9 discriminator 27
 2282 016a 694B     		ldr	r3, .L225+48
 2283 016c 16E0     		b	.L184
ARM GAS  C:\Users\ADMINI~1\AppData\Local\Temp\ccRMs3cA.s 			page 53


 2284              	.L166:
 2285              		.loc 1 551 9 discriminator 25
 2286 016e 694B     		ldr	r3, .L225+52
 2287 0170 14E0     		b	.L184
 2288              	.L165:
 2289              		.loc 1 551 9 discriminator 23
 2290 0172 694B     		ldr	r3, .L225+56
 2291 0174 12E0     		b	.L184
 2292              	.L164:
 2293              		.loc 1 551 9 discriminator 21
 2294 0176 694B     		ldr	r3, .L225+60
 2295 0178 10E0     		b	.L184
 2296              	.L163:
 2297              		.loc 1 551 9 discriminator 19
 2298 017a 694B     		ldr	r3, .L225+64
 2299 017c 0EE0     		b	.L184
 2300              	.L162:
 2301              		.loc 1 551 9 discriminator 17
 2302 017e 694B     		ldr	r3, .L225+68
 2303 0180 0CE0     		b	.L184
 2304              	.L161:
 2305              		.loc 1 551 9 discriminator 15
 2306 0182 694B     		ldr	r3, .L225+72
 2307 0184 0AE0     		b	.L184
 2308              	.L160:
 2309              		.loc 1 551 9 discriminator 13
 2310 0186 694B     		ldr	r3, .L225+76
 2311 0188 08E0     		b	.L184
 2312              	.L159:
 2313              		.loc 1 551 9 discriminator 11
 2314 018a 694B     		ldr	r3, .L225+80
 2315 018c 06E0     		b	.L184
 2316              	.L158:
 2317              		.loc 1 551 9 discriminator 9
 2318 018e 694B     		ldr	r3, .L225+84
 2319 0190 04E0     		b	.L184
 2320              	.L157:
 2321              		.loc 1 551 9 discriminator 7
 2322 0192 694B     		ldr	r3, .L225+88
 2323 0194 02E0     		b	.L184
 2324              	.L156:
 2325              		.loc 1 551 9 discriminator 5
 2326 0196 694B     		ldr	r3, .L225+92
 2327 0198 00E0     		b	.L184
 2328              	.L155:
 2329              		.loc 1 551 9 discriminator 3
 2330 019a 694B     		ldr	r3, .L225+96
 2331              	.L184:
 2332              		.loc 1 551 9 discriminator 61
 2333 019c 0493     		str	r3, [sp, #16]
 2334 019e 40F22723 		movw	r3, #551
 2335 01a2 0393     		str	r3, [sp, #12]
 2336 01a4 554B     		ldr	r3, .L225+28
 2337 01a6 0293     		str	r3, [sp, #8]
 2338 01a8 0192     		str	r2, [sp, #4]
 2339 01aa 40F22723 		movw	r3, #551
 2340 01ae 0093     		str	r3, [sp]
ARM GAS  C:\Users\ADMINI~1\AppData\Local\Temp\ccRMs3cA.s 			page 54


 2341 01b0 534B     		ldr	r3, .L225+32
 2342 01b2 2A46     		mov	r2, r5
 2343 01b4 2146     		mov	r1, r4
 2344 01b6 6348     		ldr	r0, .L225+100
 2345 01b8 FFF7FEFF 		bl	printf
 2346              	.L154:
 552:g:/iot/IoT_Device_Demo/iot_link/network/lwm2m/wakaama_lwm2m/wakaama-master/core\registration.c ****         switch (targetP->status)
 2347              		.loc 1 552 24 is_stmt 1
 2348 01bc FB68     		ldr	r3, [r7, #12]
 2349 01be 93F82030 		ldrb	r3, [r3, #32]	@ zero_extendqisi2
 2350              		.loc 1 552 9
 2351 01c2 062B     		cmp	r3, #6
 2352 01c4 0EDC     		bgt	.L223
 2353 01c6 042B     		cmp	r3, #4
 2354 01c8 03DA     		bge	.L186
 2355 01ca 012B     		cmp	r3, #1
 2356 01cc 07D0     		beq	.L187
 2357 01ce 022B     		cmp	r3, #2
 2358 01d0 08D1     		bne	.L223
 2359              	.L186:
 553:g:/iot/IoT_Device_Demo/iot_link/network/lwm2m/wakaama_lwm2m/wakaama-master/core\registration.c ****         {
 554:g:/iot/IoT_Device_Demo/iot_link/network/lwm2m/wakaama_lwm2m/wakaama-master/core\registration.c ****         case STATE_REGISTERED:
 555:g:/iot/IoT_Device_Demo/iot_link/network/lwm2m/wakaama_lwm2m/wakaama-master/core\registration.c ****         case STATE_REG_UPDATE_NEEDED:
 556:g:/iot/IoT_Device_Demo/iot_link/network/lwm2m/wakaama_lwm2m/wakaama-master/core\registration.c ****         case STATE_REG_FULL_UPDATE_NEEDED:
 557:g:/iot/IoT_Device_Demo/iot_link/network/lwm2m/wakaama_lwm2m/wakaama-master/core\registration.c ****         case STATE_REG_UPDATE_PENDING:
 558:g:/iot/IoT_Device_Demo/iot_link/network/lwm2m/wakaama_lwm2m/wakaama-master/core\registration.c ****             if (reg_status == STATE_REG_FAILED)
 2360              		.loc 1 558 16
 2361 01d2 FB7A     		ldrb	r3, [r7, #11]	@ zero_extendqisi2
 2362 01d4 032B     		cmp	r3, #3
 2363 01d6 07D1     		bne	.L224
 559:g:/iot/IoT_Device_Demo/iot_link/network/lwm2m/wakaama_lwm2m/wakaama-master/core\registration.c ****             {
 560:g:/iot/IoT_Device_Demo/iot_link/network/lwm2m/wakaama_lwm2m/wakaama-master/core\registration.c ****                 reg_status = STATE_REGISTERED;
 2364              		.loc 1 560 28
 2365 01d8 0223     		movs	r3, #2
 2366 01da FB72     		strb	r3, [r7, #11]
 561:g:/iot/IoT_Device_Demo/iot_link/network/lwm2m/wakaama_lwm2m/wakaama-master/core\registration.c ****             }
 562:g:/iot/IoT_Device_Demo/iot_link/network/lwm2m/wakaama_lwm2m/wakaama-master/core\registration.c ****             break;
 2367              		.loc 1 562 13
 2368 01dc 04E0     		b	.L224
 2369              	.L187:
 563:g:/iot/IoT_Device_Demo/iot_link/network/lwm2m/wakaama_lwm2m/wakaama-master/core\registration.c **** 
 564:g:/iot/IoT_Device_Demo/iot_link/network/lwm2m/wakaama_lwm2m/wakaama-master/core\registration.c ****         case STATE_REG_PENDING:
 565:g:/iot/IoT_Device_Demo/iot_link/network/lwm2m/wakaama_lwm2m/wakaama-master/core\registration.c ****             reg_status = STATE_REG_PENDING;
 2370              		.loc 1 565 24
 2371 01de 0123     		movs	r3, #1
 2372 01e0 FB72     		strb	r3, [r7, #11]
 566:g:/iot/IoT_Device_Demo/iot_link/network/lwm2m/wakaama_lwm2m/wakaama-master/core\registration.c ****             break;
 2373              		.loc 1 566 13
 2374 01e2 02E0     		b	.L189
 2375              	.L223:
 567:g:/iot/IoT_Device_Demo/iot_link/network/lwm2m/wakaama_lwm2m/wakaama-master/core\registration.c **** 
 568:g:/iot/IoT_Device_Demo/iot_link/network/lwm2m/wakaama_lwm2m/wakaama-master/core\registration.c ****         case STATE_REG_FAILED:
 569:g:/iot/IoT_Device_Demo/iot_link/network/lwm2m/wakaama_lwm2m/wakaama-master/core\registration.c ****         case STATE_DEREG_PENDING:
 570:g:/iot/IoT_Device_Demo/iot_link/network/lwm2m/wakaama_lwm2m/wakaama-master/core\registration.c ****         case STATE_DEREGISTERED:
 571:g:/iot/IoT_Device_Demo/iot_link/network/lwm2m/wakaama_lwm2m/wakaama-master/core\registration.c ****         default:
 572:g:/iot/IoT_Device_Demo/iot_link/network/lwm2m/wakaama_lwm2m/wakaama-master/core\registration.c ****             break;
 2376              		.loc 1 572 13
ARM GAS  C:\Users\ADMINI~1\AppData\Local\Temp\ccRMs3cA.s 			page 55


 2377 01e4 00BF     		nop
 2378 01e6 00E0     		b	.L189
 2379              	.L224:
 562:g:/iot/IoT_Device_Demo/iot_link/network/lwm2m/wakaama_lwm2m/wakaama-master/core\registration.c **** 
 2380              		.loc 1 562 13
 2381 01e8 00BF     		nop
 2382              	.L189:
 573:g:/iot/IoT_Device_Demo/iot_link/network/lwm2m/wakaama_lwm2m/wakaama-master/core\registration.c ****         }
 574:g:/iot/IoT_Device_Demo/iot_link/network/lwm2m/wakaama_lwm2m/wakaama-master/core\registration.c ****         LOG_ARG("reg_status: %s", STR_STATUS(reg_status));
 2383              		.loc 1 574 9
 2384 01ea FFF7FEFF 		bl	link_log_level_get
 2385 01ee 0346     		mov	r3, r0
 2386 01f0 012B     		cmp	r3, #1
 2387 01f2 68D8     		bhi	.L190
 2388              		.loc 1 574 9 is_stmt 0 discriminator 1
 2389 01f4 0120     		movs	r0, #1
 2390 01f6 FFF7FEFF 		bl	link_log_level_name
 2391 01fa 0446     		mov	r4, r0
 2392 01fc FFF7FEFF 		bl	osal_sys_time
 2393 0200 0246     		mov	r2, r0
 2394 0202 0B46     		mov	r3, r1
 2395 0204 1546     		mov	r5, r2
 2396 0206 FFF7FEFF 		bl	lwm2m_gettime
 2397 020a 0246     		mov	r2, r0
 2398 020c 0B46     		mov	r3, r1
 2399 020e FB7A     		ldrb	r3, [r7, #11]	@ zero_extendqisi2
 2400 0210 002B     		cmp	r3, #0
 2401 0212 47D0     		beq	.L191
 2402              		.loc 1 574 9 discriminator 2
 2403 0214 FB7A     		ldrb	r3, [r7, #11]	@ zero_extendqisi2
 2404 0216 012B     		cmp	r3, #1
 2405 0218 42D0     		beq	.L192
 2406              		.loc 1 574 9 discriminator 4
 2407 021a FB7A     		ldrb	r3, [r7, #11]	@ zero_extendqisi2
 2408 021c 022B     		cmp	r3, #2
 2409 021e 3DD0     		beq	.L193
 2410              		.loc 1 574 9 discriminator 6
 2411 0220 FB7A     		ldrb	r3, [r7, #11]	@ zero_extendqisi2
 2412 0222 032B     		cmp	r3, #3
 2413 0224 38D0     		beq	.L194
 2414              		.loc 1 574 9 discriminator 8
 2415 0226 FB7A     		ldrb	r3, [r7, #11]	@ zero_extendqisi2
 2416 0228 042B     		cmp	r3, #4
 2417 022a 33D0     		beq	.L195
 2418              		.loc 1 574 9 discriminator 10
 2419 022c FB7A     		ldrb	r3, [r7, #11]	@ zero_extendqisi2
 2420 022e 052B     		cmp	r3, #5
 2421 0230 2ED0     		beq	.L196
 2422              		.loc 1 574 9 discriminator 12
 2423 0232 FB7A     		ldrb	r3, [r7, #11]	@ zero_extendqisi2
 2424 0234 062B     		cmp	r3, #6
 2425 0236 29D0     		beq	.L197
 2426              		.loc 1 574 9 discriminator 14
 2427 0238 FB7A     		ldrb	r3, [r7, #11]	@ zero_extendqisi2
 2428 023a 072B     		cmp	r3, #7
 2429 023c 24D0     		beq	.L198
 2430              		.loc 1 574 9 discriminator 16
ARM GAS  C:\Users\ADMINI~1\AppData\Local\Temp\ccRMs3cA.s 			page 56


 2431 023e FB7A     		ldrb	r3, [r7, #11]	@ zero_extendqisi2
 2432 0240 082B     		cmp	r3, #8
 2433 0242 1FD0     		beq	.L199
 2434              		.loc 1 574 9 discriminator 18
 2435 0244 FB7A     		ldrb	r3, [r7, #11]	@ zero_extendqisi2
 2436 0246 092B     		cmp	r3, #9
 2437 0248 1AD0     		beq	.L200
 2438              		.loc 1 574 9 discriminator 20
 2439 024a FB7A     		ldrb	r3, [r7, #11]	@ zero_extendqisi2
 2440 024c 0A2B     		cmp	r3, #10
 2441 024e 15D0     		beq	.L201
 2442              		.loc 1 574 9 discriminator 22
 2443 0250 FB7A     		ldrb	r3, [r7, #11]	@ zero_extendqisi2
 2444 0252 0C2B     		cmp	r3, #12
 2445 0254 10D0     		beq	.L202
 2446              		.loc 1 574 9 discriminator 24
 2447 0256 FB7A     		ldrb	r3, [r7, #11]	@ zero_extendqisi2
 2448 0258 0B2B     		cmp	r3, #11
 2449 025a 0BD0     		beq	.L203
 2450              		.loc 1 574 9 discriminator 26
 2451 025c FB7A     		ldrb	r3, [r7, #11]	@ zero_extendqisi2
 2452 025e 0D2B     		cmp	r3, #13
 2453 0260 06D0     		beq	.L204
 2454              		.loc 1 574 9 discriminator 28
 2455 0262 FB7A     		ldrb	r3, [r7, #11]	@ zero_extendqisi2
 2456 0264 0E2B     		cmp	r3, #14
 2457 0266 01D1     		bne	.L205
 2458              		.loc 1 574 9 discriminator 30
 2459 0268 274B     		ldr	r3, .L225+40
 2460 026a 1CE0     		b	.L220
 2461              	.L205:
 2462              		.loc 1 574 9 discriminator 31
 2463 026c 1D4B     		ldr	r3, .L225+4
 2464 026e 1AE0     		b	.L220
 2465              	.L204:
 2466              		.loc 1 574 9 discriminator 29
 2467 0270 264B     		ldr	r3, .L225+44
 2468 0272 18E0     		b	.L220
 2469              	.L203:
 2470              		.loc 1 574 9 discriminator 27
 2471 0274 264B     		ldr	r3, .L225+48
 2472 0276 16E0     		b	.L220
 2473              	.L202:
 2474              		.loc 1 574 9 discriminator 25
 2475 0278 264B     		ldr	r3, .L225+52
 2476 027a 14E0     		b	.L220
 2477              	.L201:
 2478              		.loc 1 574 9 discriminator 23
 2479 027c 264B     		ldr	r3, .L225+56
 2480 027e 12E0     		b	.L220
 2481              	.L200:
 2482              		.loc 1 574 9 discriminator 21
 2483 0280 264B     		ldr	r3, .L225+60
 2484 0282 10E0     		b	.L220
 2485              	.L199:
 2486              		.loc 1 574 9 discriminator 19
 2487 0284 264B     		ldr	r3, .L225+64
ARM GAS  C:\Users\ADMINI~1\AppData\Local\Temp\ccRMs3cA.s 			page 57


 2488 0286 0EE0     		b	.L220
 2489              	.L198:
 2490              		.loc 1 574 9 discriminator 17
 2491 0288 264B     		ldr	r3, .L225+68
 2492 028a 0CE0     		b	.L220
 2493              	.L197:
 2494              		.loc 1 574 9 discriminator 15
 2495 028c 264B     		ldr	r3, .L225+72
 2496 028e 0AE0     		b	.L220
 2497              	.L196:
 2498              		.loc 1 574 9 discriminator 13
 2499 0290 264B     		ldr	r3, .L225+76
 2500 0292 08E0     		b	.L220
 2501              	.L195:
 2502              		.loc 1 574 9 discriminator 11
 2503 0294 264B     		ldr	r3, .L225+80
 2504 0296 06E0     		b	.L220
 2505              	.L194:
 2506              		.loc 1 574 9 discriminator 9
 2507 0298 264B     		ldr	r3, .L225+84
 2508 029a 04E0     		b	.L220
 2509              	.L193:
 2510              		.loc 1 574 9 discriminator 7
 2511 029c 264B     		ldr	r3, .L225+88
 2512 029e 02E0     		b	.L220
 2513              	.L192:
 2514              		.loc 1 574 9 discriminator 5
 2515 02a0 264B     		ldr	r3, .L225+92
 2516 02a2 00E0     		b	.L220
 2517              	.L191:
 2518              		.loc 1 574 9 discriminator 3
 2519 02a4 264B     		ldr	r3, .L225+96
 2520              	.L220:
 2521              		.loc 1 574 9 discriminator 61
 2522 02a6 0493     		str	r3, [sp, #16]
 2523 02a8 40F23E23 		movw	r3, #574
 2524 02ac 0393     		str	r3, [sp, #12]
 2525 02ae 134B     		ldr	r3, .L225+28
 2526 02b0 0293     		str	r3, [sp, #8]
 2527 02b2 0192     		str	r2, [sp, #4]
 2528 02b4 40F23E23 		movw	r3, #574
 2529 02b8 0093     		str	r3, [sp]
 2530 02ba 114B     		ldr	r3, .L225+32
 2531 02bc 2A46     		mov	r2, r5
 2532 02be 2146     		mov	r1, r4
 2533 02c0 2148     		ldr	r0, .L225+104
 2534 02c2 FFF7FEFF 		bl	printf
 2535              	.L190:
 575:g:/iot/IoT_Device_Demo/iot_link/network/lwm2m/wakaama_lwm2m/wakaama-master/core\registration.c **** 
 576:g:/iot/IoT_Device_Demo/iot_link/network/lwm2m/wakaama_lwm2m/wakaama-master/core\registration.c ****         targetP = targetP->next;
 2536              		.loc 1 576 17 is_stmt 1
 2537 02c6 FB68     		ldr	r3, [r7, #12]
 2538 02c8 1B68     		ldr	r3, [r3]
 2539 02ca FB60     		str	r3, [r7, #12]
 2540              	.L153:
 549:g:/iot/IoT_Device_Demo/iot_link/network/lwm2m/wakaama_lwm2m/wakaama-master/core\registration.c ****     {
 2541              		.loc 1 549 11
ARM GAS  C:\Users\ADMINI~1\AppData\Local\Temp\ccRMs3cA.s 			page 58


 2542 02cc FB68     		ldr	r3, [r7, #12]
 2543 02ce 002B     		cmp	r3, #0
 2544 02d0 7FF4E7AE 		bne	.L221
 577:g:/iot/IoT_Device_Demo/iot_link/network/lwm2m/wakaama_lwm2m/wakaama-master/core\registration.c ****     }
 578:g:/iot/IoT_Device_Demo/iot_link/network/lwm2m/wakaama_lwm2m/wakaama-master/core\registration.c **** 
 579:g:/iot/IoT_Device_Demo/iot_link/network/lwm2m/wakaama_lwm2m/wakaama-master/core\registration.c ****     return reg_status;
 2545              		.loc 1 579 12
 2546 02d4 FB7A     		ldrb	r3, [r7, #11]	@ zero_extendqisi2
 580:g:/iot/IoT_Device_Demo/iot_link/network/lwm2m/wakaama_lwm2m/wakaama-master/core\registration.c **** }
 2547              		.loc 1 580 1
 2548 02d6 1846     		mov	r0, r3
 2549 02d8 1037     		adds	r7, r7, #16
 2550              	.LCFI43:
 2551              		.cfi_def_cfa_offset 16
 2552 02da BD46     		mov	sp, r7
 2553              	.LCFI44:
 2554              		.cfi_def_cfa_register 13
 2555              		@ sp needed
 2556 02dc B0BD     		pop	{r4, r5, r7, pc}
 2557              	.L226:
 2558 02de 00BF     		.align	2
 2559              	.L225:
 2560 02e0 88010000 		.word	.LC15
 2561 02e4 94010000 		.word	.LC16
 2562 02e8 9C010000 		.word	.LC17
 2563 02ec B0010000 		.word	.LC18
 2564 02f0 C8010000 		.word	.LC19
 2565 02f4 DC010000 		.word	.LC20
 2566 02f8 F8010000 		.word	.LC21
 2567 02fc 00000000 		.word	__func__.8719
 2568 0300 00000000 		.word	__FUNCTION__.8718
 2569 0304 78020000 		.word	.LC24
 2570 0308 A4020000 		.word	.LC25
 2571 030c B4020000 		.word	.LC26
 2572 0310 C8020000 		.word	.LC27
 2573 0314 DC020000 		.word	.LC28
 2574 0318 F0020000 		.word	.LC29
 2575 031c 04030000 		.word	.LC30
 2576 0320 18030000 		.word	.LC31
 2577 0324 2C030000 		.word	.LC32
 2578 0328 40030000 		.word	.LC33
 2579 032c 60030000 		.word	.LC34
 2580 0330 78030000 		.word	.LC35
 2581 0334 94030000 		.word	.LC36
 2582 0338 A8030000 		.word	.LC37
 2583 033c BC030000 		.word	.LC38
 2584 0340 D0030000 		.word	.LC39
 2585 0344 E4030000 		.word	.LC40
 2586 0348 18040000 		.word	.LC41
 2587              		.cfi_endproc
 2588              	.LFE12:
 2590              		.section	.text.prv_handleDeregistrationReply,"ax",%progbits
 2591              		.align	1
 2592              		.syntax unified
 2593              		.thumb
 2594              		.thumb_func
 2595              		.fpu fpv4-sp-d16
ARM GAS  C:\Users\ADMINI~1\AppData\Local\Temp\ccRMs3cA.s 			page 59


 2597              	prv_handleDeregistrationReply:
 2598              	.LFB13:
 581:g:/iot/IoT_Device_Demo/iot_link/network/lwm2m/wakaama_lwm2m/wakaama-master/core\registration.c **** 
 582:g:/iot/IoT_Device_Demo/iot_link/network/lwm2m/wakaama_lwm2m/wakaama-master/core\registration.c **** static void prv_handleDeregistrationReply(lwm2m_transaction_t *transacP,
 583:g:/iot/IoT_Device_Demo/iot_link/network/lwm2m/wakaama_lwm2m/wakaama-master/core\registration.c ****         void *message)
 584:g:/iot/IoT_Device_Demo/iot_link/network/lwm2m/wakaama_lwm2m/wakaama-master/core\registration.c **** {
 2599              		.loc 1 584 1
 2600              		.cfi_startproc
 2601              		@ args = 0, pretend = 0, frame = 16
 2602              		@ frame_needed = 1, uses_anonymous_args = 0
 2603              		@ link register save eliminated.
 2604 0000 80B4     		push	{r7}
 2605              	.LCFI45:
 2606              		.cfi_def_cfa_offset 4
 2607              		.cfi_offset 7, -4
 2608 0002 85B0     		sub	sp, sp, #20
 2609              	.LCFI46:
 2610              		.cfi_def_cfa_offset 24
 2611 0004 00AF     		add	r7, sp, #0
 2612              	.LCFI47:
 2613              		.cfi_def_cfa_register 7
 2614 0006 7860     		str	r0, [r7, #4]
 2615 0008 3960     		str	r1, [r7]
 585:g:/iot/IoT_Device_Demo/iot_link/network/lwm2m/wakaama_lwm2m/wakaama-master/core\registration.c ****     lwm2m_server_t *targetP;
 586:g:/iot/IoT_Device_Demo/iot_link/network/lwm2m/wakaama_lwm2m/wakaama-master/core\registration.c **** 
 587:g:/iot/IoT_Device_Demo/iot_link/network/lwm2m/wakaama_lwm2m/wakaama-master/core\registration.c ****     targetP = (lwm2m_server_t *)(transacP->userData);
 2616              		.loc 1 587 13
 2617 000a 7B68     		ldr	r3, [r7, #4]
 2618 000c 5B6C     		ldr	r3, [r3, #68]
 2619 000e FB60     		str	r3, [r7, #12]
 588:g:/iot/IoT_Device_Demo/iot_link/network/lwm2m/wakaama_lwm2m/wakaama-master/core\registration.c ****     if (NULL != targetP)
 2620              		.loc 1 588 8
 2621 0010 FB68     		ldr	r3, [r7, #12]
 2622 0012 002B     		cmp	r3, #0
 2623 0014 08D0     		beq	.L229
 589:g:/iot/IoT_Device_Demo/iot_link/network/lwm2m/wakaama_lwm2m/wakaama-master/core\registration.c ****     {
 590:g:/iot/IoT_Device_Demo/iot_link/network/lwm2m/wakaama_lwm2m/wakaama-master/core\registration.c ****         if (targetP->status == STATE_DEREG_PENDING)
 2624              		.loc 1 590 20
 2625 0016 FB68     		ldr	r3, [r7, #12]
 2626 0018 93F82030 		ldrb	r3, [r3, #32]	@ zero_extendqisi2
 2627              		.loc 1 590 12
 2628 001c 072B     		cmp	r3, #7
 2629 001e 03D1     		bne	.L229
 591:g:/iot/IoT_Device_Demo/iot_link/network/lwm2m/wakaama_lwm2m/wakaama-master/core\registration.c ****         {
 592:g:/iot/IoT_Device_Demo/iot_link/network/lwm2m/wakaama_lwm2m/wakaama-master/core\registration.c ****             targetP->status = STATE_DEREGISTERED;
 2630              		.loc 1 592 29
 2631 0020 FB68     		ldr	r3, [r7, #12]
 2632 0022 0022     		movs	r2, #0
 2633 0024 83F82020 		strb	r2, [r3, #32]
 2634              	.L229:
 593:g:/iot/IoT_Device_Demo/iot_link/network/lwm2m/wakaama_lwm2m/wakaama-master/core\registration.c ****         }
 594:g:/iot/IoT_Device_Demo/iot_link/network/lwm2m/wakaama_lwm2m/wakaama-master/core\registration.c ****     }
 595:g:/iot/IoT_Device_Demo/iot_link/network/lwm2m/wakaama_lwm2m/wakaama-master/core\registration.c **** }
 2635              		.loc 1 595 1
 2636 0028 00BF     		nop
 2637 002a 1437     		adds	r7, r7, #20
 2638              	.LCFI48:
ARM GAS  C:\Users\ADMINI~1\AppData\Local\Temp\ccRMs3cA.s 			page 60


 2639              		.cfi_def_cfa_offset 4
 2640 002c BD46     		mov	sp, r7
 2641              	.LCFI49:
 2642              		.cfi_def_cfa_register 13
 2643              		@ sp needed
 2644 002e 5DF8047B 		ldr	r7, [sp], #4
 2645              	.LCFI50:
 2646              		.cfi_restore 7
 2647              		.cfi_def_cfa_offset 0
 2648 0032 7047     		bx	lr
 2649              		.cfi_endproc
 2650              	.LFE13:
 2652              		.section	.rodata
 2653 0447 00       		.align	2
 2654              	.LC42:
 2655 0448 5B25735D 		.ascii	"[%s][%u][%s:%d] [%d][%s:%d] State: %s, serverP->sta"
 2655      5B25755D 
 2655      5B25733A 
 2655      25645D20 
 2655      5B25645D 
 2656 047b 7475733A 		.ascii	"tus: %s\015\012\015\012\000"
 2656      2025730D 
 2656      0A0D0A00 
 2657              		.section	.text.registration_deregister,"ax",%progbits
 2658              		.align	1
 2659              		.global	registration_deregister
 2660              		.syntax unified
 2661              		.thumb
 2662              		.thumb_func
 2663              		.fpu fpv4-sp-d16
 2665              	registration_deregister:
 2666              	.LFB14:
 596:g:/iot/IoT_Device_Demo/iot_link/network/lwm2m/wakaama_lwm2m/wakaama-master/core\registration.c **** 
 597:g:/iot/IoT_Device_Demo/iot_link/network/lwm2m/wakaama_lwm2m/wakaama-master/core\registration.c **** void registration_deregister(lwm2m_context_t *contextP,
 598:g:/iot/IoT_Device_Demo/iot_link/network/lwm2m/wakaama_lwm2m/wakaama-master/core\registration.c ****                              lwm2m_server_t *serverP)
 599:g:/iot/IoT_Device_Demo/iot_link/network/lwm2m/wakaama_lwm2m/wakaama-master/core\registration.c **** {
 2667              		.loc 1 599 1
 2668              		.cfi_startproc
 2669              		@ args = 0, pretend = 0, frame = 16
 2670              		@ frame_needed = 1, uses_anonymous_args = 0
 2671 0000 B0B5     		push	{r4, r5, r7, lr}
 2672              	.LCFI51:
 2673              		.cfi_def_cfa_offset 16
 2674              		.cfi_offset 4, -16
 2675              		.cfi_offset 5, -12
 2676              		.cfi_offset 7, -8
 2677              		.cfi_offset 14, -4
 2678 0002 8AB0     		sub	sp, sp, #40
 2679              	.LCFI52:
 2680              		.cfi_def_cfa_offset 56
 2681 0004 06AF     		add	r7, sp, #24
 2682              	.LCFI53:
 2683              		.cfi_def_cfa 7, 32
 2684 0006 7860     		str	r0, [r7, #4]
 2685 0008 3960     		str	r1, [r7]
 600:g:/iot/IoT_Device_Demo/iot_link/network/lwm2m/wakaama_lwm2m/wakaama-master/core\registration.c ****     lwm2m_transaction_t *transaction;
 601:g:/iot/IoT_Device_Demo/iot_link/network/lwm2m/wakaama_lwm2m/wakaama-master/core\registration.c **** 
ARM GAS  C:\Users\ADMINI~1\AppData\Local\Temp\ccRMs3cA.s 			page 61


 602:g:/iot/IoT_Device_Demo/iot_link/network/lwm2m/wakaama_lwm2m/wakaama-master/core\registration.c ****     LOG_ARG("State: %s, serverP->status: %s", STR_STATE(contextP->state), STR_STATUS(serverP->statu
 2686              		.loc 1 602 5
 2687 000a FFF7FEFF 		bl	link_log_level_get
 2688 000e 0346     		mov	r3, r0
 2689 0010 012B     		cmp	r3, #1
 2690 0012 00F2AE80 		bhi	.L231
 2691              		.loc 1 602 5 is_stmt 0 discriminator 1
 2692 0016 0120     		movs	r0, #1
 2693 0018 FFF7FEFF 		bl	link_log_level_name
 2694 001c 0446     		mov	r4, r0
 2695 001e FFF7FEFF 		bl	osal_sys_time
 2696 0022 0246     		mov	r2, r0
 2697 0024 0B46     		mov	r3, r1
 2698 0026 1546     		mov	r5, r2
 2699 0028 FFF7FEFF 		bl	lwm2m_gettime
 2700 002c 0246     		mov	r2, r0
 2701 002e 0B46     		mov	r3, r1
 2702 0030 1146     		mov	r1, r2
 2703 0032 7B68     		ldr	r3, [r7, #4]
 2704 0034 1B78     		ldrb	r3, [r3]	@ zero_extendqisi2
 2705 0036 002B     		cmp	r3, #0
 2706 0038 1FD0     		beq	.L232
 2707              		.loc 1 602 5 discriminator 2
 2708 003a 7B68     		ldr	r3, [r7, #4]
 2709 003c 1B78     		ldrb	r3, [r3]	@ zero_extendqisi2
 2710 003e 012B     		cmp	r3, #1
 2711 0040 19D0     		beq	.L233
 2712              		.loc 1 602 5 discriminator 4
 2713 0042 7B68     		ldr	r3, [r7, #4]
 2714 0044 1B78     		ldrb	r3, [r3]	@ zero_extendqisi2
 2715 0046 022B     		cmp	r3, #2
 2716 0048 13D0     		beq	.L234
 2717              		.loc 1 602 5 discriminator 6
 2718 004a 7B68     		ldr	r3, [r7, #4]
 2719 004c 1B78     		ldrb	r3, [r3]	@ zero_extendqisi2
 2720 004e 032B     		cmp	r3, #3
 2721 0050 0DD0     		beq	.L235
 2722              		.loc 1 602 5 discriminator 8
 2723 0052 7B68     		ldr	r3, [r7, #4]
 2724 0054 1B78     		ldrb	r3, [r3]	@ zero_extendqisi2
 2725 0056 042B     		cmp	r3, #4
 2726 0058 07D0     		beq	.L236
 2727              		.loc 1 602 5 discriminator 10
 2728 005a 7B68     		ldr	r3, [r7, #4]
 2729 005c 1B78     		ldrb	r3, [r3]	@ zero_extendqisi2
 2730 005e 052B     		cmp	r3, #5
 2731 0060 01D1     		bne	.L237
 2732              		.loc 1 602 5 discriminator 12
 2733 0062 6F4A     		ldr	r2, .L280
 2734 0064 0AE0     		b	.L243
 2735              	.L237:
 2736              		.loc 1 602 5 discriminator 13
 2737 0066 6F4A     		ldr	r2, .L280+4
 2738 0068 08E0     		b	.L243
 2739              	.L236:
 2740              		.loc 1 602 5 discriminator 11
 2741 006a 6F4A     		ldr	r2, .L280+8
ARM GAS  C:\Users\ADMINI~1\AppData\Local\Temp\ccRMs3cA.s 			page 62


 2742 006c 06E0     		b	.L243
 2743              	.L235:
 2744              		.loc 1 602 5 discriminator 9
 2745 006e 6F4A     		ldr	r2, .L280+12
 2746 0070 04E0     		b	.L243
 2747              	.L234:
 2748              		.loc 1 602 5 discriminator 7
 2749 0072 6F4A     		ldr	r2, .L280+16
 2750 0074 02E0     		b	.L243
 2751              	.L233:
 2752              		.loc 1 602 5 discriminator 5
 2753 0076 6F4A     		ldr	r2, .L280+20
 2754 0078 00E0     		b	.L243
 2755              	.L232:
 2756              		.loc 1 602 5 discriminator 3
 2757 007a 6F4A     		ldr	r2, .L280+24
 2758              	.L243:
 2759              		.loc 1 602 5 discriminator 25
 2760 007c 3B68     		ldr	r3, [r7]
 2761 007e 93F82030 		ldrb	r3, [r3, #32]	@ zero_extendqisi2
 2762 0082 002B     		cmp	r3, #0
 2763 0084 63D0     		beq	.L244
 2764              		.loc 1 602 5 discriminator 26
 2765 0086 3B68     		ldr	r3, [r7]
 2766 0088 93F82030 		ldrb	r3, [r3, #32]	@ zero_extendqisi2
 2767 008c 012B     		cmp	r3, #1
 2768 008e 5CD0     		beq	.L245
 2769              		.loc 1 602 5 discriminator 28
 2770 0090 3B68     		ldr	r3, [r7]
 2771 0092 93F82030 		ldrb	r3, [r3, #32]	@ zero_extendqisi2
 2772 0096 022B     		cmp	r3, #2
 2773 0098 55D0     		beq	.L246
 2774              		.loc 1 602 5 discriminator 30
 2775 009a 3B68     		ldr	r3, [r7]
 2776 009c 93F82030 		ldrb	r3, [r3, #32]	@ zero_extendqisi2
 2777 00a0 032B     		cmp	r3, #3
 2778 00a2 4ED0     		beq	.L247
 2779              		.loc 1 602 5 discriminator 32
 2780 00a4 3B68     		ldr	r3, [r7]
 2781 00a6 93F82030 		ldrb	r3, [r3, #32]	@ zero_extendqisi2
 2782 00aa 042B     		cmp	r3, #4
 2783 00ac 47D0     		beq	.L248
 2784              		.loc 1 602 5 discriminator 34
 2785 00ae 3B68     		ldr	r3, [r7]
 2786 00b0 93F82030 		ldrb	r3, [r3, #32]	@ zero_extendqisi2
 2787 00b4 052B     		cmp	r3, #5
 2788 00b6 40D0     		beq	.L249
 2789              		.loc 1 602 5 discriminator 36
 2790 00b8 3B68     		ldr	r3, [r7]
 2791 00ba 93F82030 		ldrb	r3, [r3, #32]	@ zero_extendqisi2
 2792 00be 062B     		cmp	r3, #6
 2793 00c0 39D0     		beq	.L250
 2794              		.loc 1 602 5 discriminator 38
 2795 00c2 3B68     		ldr	r3, [r7]
 2796 00c4 93F82030 		ldrb	r3, [r3, #32]	@ zero_extendqisi2
 2797 00c8 072B     		cmp	r3, #7
 2798 00ca 32D0     		beq	.L251
ARM GAS  C:\Users\ADMINI~1\AppData\Local\Temp\ccRMs3cA.s 			page 63


 2799              		.loc 1 602 5 discriminator 40
 2800 00cc 3B68     		ldr	r3, [r7]
 2801 00ce 93F82030 		ldrb	r3, [r3, #32]	@ zero_extendqisi2
 2802 00d2 082B     		cmp	r3, #8
 2803 00d4 2BD0     		beq	.L252
 2804              		.loc 1 602 5 discriminator 42
 2805 00d6 3B68     		ldr	r3, [r7]
 2806 00d8 93F82030 		ldrb	r3, [r3, #32]	@ zero_extendqisi2
 2807 00dc 092B     		cmp	r3, #9
 2808 00de 24D0     		beq	.L253
 2809              		.loc 1 602 5 discriminator 44
 2810 00e0 3B68     		ldr	r3, [r7]
 2811 00e2 93F82030 		ldrb	r3, [r3, #32]	@ zero_extendqisi2
 2812 00e6 0A2B     		cmp	r3, #10
 2813 00e8 1DD0     		beq	.L254
 2814              		.loc 1 602 5 discriminator 46
 2815 00ea 3B68     		ldr	r3, [r7]
 2816 00ec 93F82030 		ldrb	r3, [r3, #32]	@ zero_extendqisi2
 2817 00f0 0C2B     		cmp	r3, #12
 2818 00f2 16D0     		beq	.L255
 2819              		.loc 1 602 5 discriminator 48
 2820 00f4 3B68     		ldr	r3, [r7]
 2821 00f6 93F82030 		ldrb	r3, [r3, #32]	@ zero_extendqisi2
 2822 00fa 0B2B     		cmp	r3, #11
 2823 00fc 0FD0     		beq	.L256
 2824              		.loc 1 602 5 discriminator 50
 2825 00fe 3B68     		ldr	r3, [r7]
 2826 0100 93F82030 		ldrb	r3, [r3, #32]	@ zero_extendqisi2
 2827 0104 0D2B     		cmp	r3, #13
 2828 0106 08D0     		beq	.L257
 2829              		.loc 1 602 5 discriminator 52
 2830 0108 3B68     		ldr	r3, [r7]
 2831 010a 93F82030 		ldrb	r3, [r3, #32]	@ zero_extendqisi2
 2832 010e 0E2B     		cmp	r3, #14
 2833 0110 01D1     		bne	.L258
 2834              		.loc 1 602 5 discriminator 54
 2835 0112 4A4B     		ldr	r3, .L280+28
 2836 0114 1CE0     		b	.L273
 2837              	.L258:
 2838              		.loc 1 602 5 discriminator 55
 2839 0116 434B     		ldr	r3, .L280+4
 2840 0118 1AE0     		b	.L273
 2841              	.L257:
 2842              		.loc 1 602 5 discriminator 53
 2843 011a 494B     		ldr	r3, .L280+32
 2844 011c 18E0     		b	.L273
 2845              	.L256:
 2846              		.loc 1 602 5 discriminator 51
 2847 011e 494B     		ldr	r3, .L280+36
 2848 0120 16E0     		b	.L273
 2849              	.L255:
 2850              		.loc 1 602 5 discriminator 49
 2851 0122 494B     		ldr	r3, .L280+40
 2852 0124 14E0     		b	.L273
 2853              	.L254:
 2854              		.loc 1 602 5 discriminator 47
 2855 0126 494B     		ldr	r3, .L280+44
ARM GAS  C:\Users\ADMINI~1\AppData\Local\Temp\ccRMs3cA.s 			page 64


 2856 0128 12E0     		b	.L273
 2857              	.L253:
 2858              		.loc 1 602 5 discriminator 45
 2859 012a 494B     		ldr	r3, .L280+48
 2860 012c 10E0     		b	.L273
 2861              	.L252:
 2862              		.loc 1 602 5 discriminator 43
 2863 012e 494B     		ldr	r3, .L280+52
 2864 0130 0EE0     		b	.L273
 2865              	.L251:
 2866              		.loc 1 602 5 discriminator 41
 2867 0132 494B     		ldr	r3, .L280+56
 2868 0134 0CE0     		b	.L273
 2869              	.L250:
 2870              		.loc 1 602 5 discriminator 39
 2871 0136 494B     		ldr	r3, .L280+60
 2872 0138 0AE0     		b	.L273
 2873              	.L249:
 2874              		.loc 1 602 5 discriminator 37
 2875 013a 494B     		ldr	r3, .L280+64
 2876 013c 08E0     		b	.L273
 2877              	.L248:
 2878              		.loc 1 602 5 discriminator 35
 2879 013e 494B     		ldr	r3, .L280+68
 2880 0140 06E0     		b	.L273
 2881              	.L247:
 2882              		.loc 1 602 5 discriminator 33
 2883 0142 494B     		ldr	r3, .L280+72
 2884 0144 04E0     		b	.L273
 2885              	.L246:
 2886              		.loc 1 602 5 discriminator 31
 2887 0146 494B     		ldr	r3, .L280+76
 2888 0148 02E0     		b	.L273
 2889              	.L245:
 2890              		.loc 1 602 5 discriminator 29
 2891 014a 494B     		ldr	r3, .L280+80
 2892 014c 00E0     		b	.L273
 2893              	.L244:
 2894              		.loc 1 602 5 discriminator 27
 2895 014e 494B     		ldr	r3, .L280+84
 2896              	.L273:
 2897              		.loc 1 602 5 discriminator 85
 2898 0150 0593     		str	r3, [sp, #20]
 2899 0152 0492     		str	r2, [sp, #16]
 2900 0154 40F25A23 		movw	r3, #602
 2901 0158 0393     		str	r3, [sp, #12]
 2902 015a 474B     		ldr	r3, .L280+88
 2903 015c 0293     		str	r3, [sp, #8]
 2904 015e 0191     		str	r1, [sp, #4]
 2905 0160 40F25A23 		movw	r3, #602
 2906 0164 0093     		str	r3, [sp]
 2907 0166 454B     		ldr	r3, .L280+92
 2908 0168 2A46     		mov	r2, r5
 2909 016a 2146     		mov	r1, r4
 2910 016c 4448     		ldr	r0, .L280+96
 2911 016e FFF7FEFF 		bl	printf
 2912              	.L231:
ARM GAS  C:\Users\ADMINI~1\AppData\Local\Temp\ccRMs3cA.s 			page 65


 603:g:/iot/IoT_Device_Demo/iot_link/network/lwm2m/wakaama_lwm2m/wakaama-master/core\registration.c **** 
 604:g:/iot/IoT_Device_Demo/iot_link/network/lwm2m/wakaama_lwm2m/wakaama-master/core\registration.c ****     if (serverP->status == STATE_DEREGISTERED
 2913              		.loc 1 604 16 is_stmt 1
 2914 0172 3B68     		ldr	r3, [r7]
 2915 0174 93F82030 		ldrb	r3, [r3, #32]	@ zero_extendqisi2
 2916              		.loc 1 604 8
 2917 0178 002B     		cmp	r3, #0
 2918 017a 4BD0     		beq	.L278
 605:g:/iot/IoT_Device_Demo/iot_link/network/lwm2m/wakaama_lwm2m/wakaama-master/core\registration.c ****             || serverP->status == STATE_REG_PENDING
 2919              		.loc 1 605 23
 2920 017c 3B68     		ldr	r3, [r7]
 2921 017e 93F82030 		ldrb	r3, [r3, #32]	@ zero_extendqisi2
 2922              		.loc 1 605 13
 2923 0182 012B     		cmp	r3, #1
 2924 0184 46D0     		beq	.L278
 606:g:/iot/IoT_Device_Demo/iot_link/network/lwm2m/wakaama_lwm2m/wakaama-master/core\registration.c ****             || serverP->status == STATE_DEREG_PENDING
 2925              		.loc 1 606 23
 2926 0186 3B68     		ldr	r3, [r7]
 2927 0188 93F82030 		ldrb	r3, [r3, #32]	@ zero_extendqisi2
 2928              		.loc 1 606 13
 2929 018c 072B     		cmp	r3, #7
 2930 018e 41D0     		beq	.L278
 607:g:/iot/IoT_Device_Demo/iot_link/network/lwm2m/wakaama_lwm2m/wakaama-master/core\registration.c ****             || serverP->status == STATE_REG_FAILED
 2931              		.loc 1 607 23
 2932 0190 3B68     		ldr	r3, [r7]
 2933 0192 93F82030 		ldrb	r3, [r3, #32]	@ zero_extendqisi2
 2934              		.loc 1 607 13
 2935 0196 032B     		cmp	r3, #3
 2936 0198 3CD0     		beq	.L278
 608:g:/iot/IoT_Device_Demo/iot_link/network/lwm2m/wakaama_lwm2m/wakaama-master/core\registration.c ****             || serverP->location == NULL)
 2937              		.loc 1 608 23
 2938 019a 3B68     		ldr	r3, [r7]
 2939 019c 5B6A     		ldr	r3, [r3, #36]
 2940              		.loc 1 608 13
 2941 019e 002B     		cmp	r3, #0
 2942 01a0 38D0     		beq	.L278
 609:g:/iot/IoT_Device_Demo/iot_link/network/lwm2m/wakaama_lwm2m/wakaama-master/core\registration.c ****     {
 610:g:/iot/IoT_Device_Demo/iot_link/network/lwm2m/wakaama_lwm2m/wakaama-master/core\registration.c ****         return;
 611:g:/iot/IoT_Device_Demo/iot_link/network/lwm2m/wakaama_lwm2m/wakaama-master/core\registration.c ****     }
 612:g:/iot/IoT_Device_Demo/iot_link/network/lwm2m/wakaama_lwm2m/wakaama-master/core\registration.c **** 
 613:g:/iot/IoT_Device_Demo/iot_link/network/lwm2m/wakaama_lwm2m/wakaama-master/core\registration.c ****     transaction = transaction_new(serverP->sessionH, COAP_DELETE, NULL, NULL, contextP->nextMID++, 
 2943              		.loc 1 613 19
 2944 01a2 3B68     		ldr	r3, [r7]
 2945 01a4 D869     		ldr	r0, [r3, #28]
 2946              		.loc 1 613 87
 2947 01a6 7B68     		ldr	r3, [r7, #4]
 2948 01a8 9B8D     		ldrh	r3, [r3, #44]
 2949              		.loc 1 613 19
 2950 01aa 5A1C     		adds	r2, r3, #1
 2951 01ac 91B2     		uxth	r1, r2
 2952 01ae 7A68     		ldr	r2, [r7, #4]
 2953 01b0 9185     		strh	r1, [r2, #44]	@ movhi
 2954 01b2 0022     		movs	r2, #0
 2955 01b4 0292     		str	r2, [sp, #8]
 2956 01b6 0422     		movs	r2, #4
 2957 01b8 0192     		str	r2, [sp, #4]
 2958 01ba 0093     		str	r3, [sp]
ARM GAS  C:\Users\ADMINI~1\AppData\Local\Temp\ccRMs3cA.s 			page 66


 2959 01bc 0023     		movs	r3, #0
 2960 01be 0022     		movs	r2, #0
 2961 01c0 0421     		movs	r1, #4
 2962 01c2 FFF7FEFF 		bl	transaction_new
 2963 01c6 F860     		str	r0, [r7, #12]
 614:g:/iot/IoT_Device_Demo/iot_link/network/lwm2m/wakaama_lwm2m/wakaama-master/core\registration.c ****     if (transaction == NULL) return;
 2964              		.loc 1 614 8
 2965 01c8 FB68     		ldr	r3, [r7, #12]
 2966 01ca 002B     		cmp	r3, #0
 2967 01cc 24D0     		beq	.L279
 615:g:/iot/IoT_Device_Demo/iot_link/network/lwm2m/wakaama_lwm2m/wakaama-master/core\registration.c **** 
 616:g:/iot/IoT_Device_Demo/iot_link/network/lwm2m/wakaama_lwm2m/wakaama-master/core\registration.c ****     coap_set_header_uri_path(transaction->message, serverP->location);
 2968              		.loc 1 616 41
 2969 01ce FB68     		ldr	r3, [r7, #12]
 2970 01d0 9A6A     		ldr	r2, [r3, #40]
 2971              		.loc 1 616 59
 2972 01d2 3B68     		ldr	r3, [r7]
 2973 01d4 5B6A     		ldr	r3, [r3, #36]
 2974              		.loc 1 616 5
 2975 01d6 1946     		mov	r1, r3
 2976 01d8 1046     		mov	r0, r2
 2977 01da FFF7FEFF 		bl	coap_set_header_uri_path
 617:g:/iot/IoT_Device_Demo/iot_link/network/lwm2m/wakaama_lwm2m/wakaama-master/core\registration.c **** 
 618:g:/iot/IoT_Device_Demo/iot_link/network/lwm2m/wakaama_lwm2m/wakaama-master/core\registration.c ****     transaction->callback = prv_handleDeregistrationReply;
 2978              		.loc 1 618 27
 2979 01de FB68     		ldr	r3, [r7, #12]
 2980 01e0 284A     		ldr	r2, .L280+100
 2981 01e2 1A64     		str	r2, [r3, #64]
 619:g:/iot/IoT_Device_Demo/iot_link/network/lwm2m/wakaama_lwm2m/wakaama-master/core\registration.c ****     transaction->userData = (void *) serverP;
 2982              		.loc 1 619 27
 2983 01e4 FB68     		ldr	r3, [r7, #12]
 2984 01e6 3A68     		ldr	r2, [r7]
 2985 01e8 5A64     		str	r2, [r3, #68]
 620:g:/iot/IoT_Device_Demo/iot_link/network/lwm2m/wakaama_lwm2m/wakaama-master/core\registration.c **** 
 621:g:/iot/IoT_Device_Demo/iot_link/network/lwm2m/wakaama_lwm2m/wakaama-master/core\registration.c ****     contextP->transactionList = (lwm2m_transaction_t *)LWM2M_LIST_ADD(contextP->transactionList, tr
 2986              		.loc 1 621 56
 2987 01ea 7B68     		ldr	r3, [r7, #4]
 2988 01ec 1B6B     		ldr	r3, [r3, #48]
 2989 01ee F968     		ldr	r1, [r7, #12]
 2990 01f0 1846     		mov	r0, r3
 2991 01f2 FFF7FEFF 		bl	lwm2m_list_add
 2992 01f6 0246     		mov	r2, r0
 2993              		.loc 1 621 31
 2994 01f8 7B68     		ldr	r3, [r7, #4]
 2995 01fa 1A63     		str	r2, [r3, #48]
 622:g:/iot/IoT_Device_Demo/iot_link/network/lwm2m/wakaama_lwm2m/wakaama-master/core\registration.c ****     if (transaction_send(contextP, transaction) == 0)
 2996              		.loc 1 622 9
 2997 01fc F968     		ldr	r1, [r7, #12]
 2998 01fe 7868     		ldr	r0, [r7, #4]
 2999 0200 FFF7FEFF 		bl	transaction_send
 3000 0204 0346     		mov	r3, r0
 3001              		.loc 1 622 8
 3002 0206 002B     		cmp	r3, #0
 3003 0208 07D1     		bne	.L230
 623:g:/iot/IoT_Device_Demo/iot_link/network/lwm2m/wakaama_lwm2m/wakaama-master/core\registration.c ****     {
 624:g:/iot/IoT_Device_Demo/iot_link/network/lwm2m/wakaama_lwm2m/wakaama-master/core\registration.c ****         serverP->status = STATE_DEREG_PENDING;
 3004              		.loc 1 624 25
ARM GAS  C:\Users\ADMINI~1\AppData\Local\Temp\ccRMs3cA.s 			page 67


 3005 020a 3B68     		ldr	r3, [r7]
 3006 020c 0722     		movs	r2, #7
 3007 020e 83F82020 		strb	r2, [r3, #32]
 3008 0212 02E0     		b	.L230
 3009              	.L278:
 610:g:/iot/IoT_Device_Demo/iot_link/network/lwm2m/wakaama_lwm2m/wakaama-master/core\registration.c ****     }
 3010              		.loc 1 610 9
 3011 0214 00BF     		nop
 3012 0216 00E0     		b	.L230
 3013              	.L279:
 614:g:/iot/IoT_Device_Demo/iot_link/network/lwm2m/wakaama_lwm2m/wakaama-master/core\registration.c **** 
 3014              		.loc 1 614 30
 3015 0218 00BF     		nop
 3016              	.L230:
 625:g:/iot/IoT_Device_Demo/iot_link/network/lwm2m/wakaama_lwm2m/wakaama-master/core\registration.c ****     }
 626:g:/iot/IoT_Device_Demo/iot_link/network/lwm2m/wakaama_lwm2m/wakaama-master/core\registration.c **** }
 3017              		.loc 1 626 1
 3018 021a 1037     		adds	r7, r7, #16
 3019              	.LCFI54:
 3020              		.cfi_def_cfa_offset 16
 3021 021c BD46     		mov	sp, r7
 3022              	.LCFI55:
 3023              		.cfi_def_cfa_register 13
 3024              		@ sp needed
 3025 021e B0BD     		pop	{r4, r5, r7, pc}
 3026              	.L281:
 3027              		.align	2
 3028              	.L280:
 3029 0220 88010000 		.word	.LC15
 3030 0224 94010000 		.word	.LC16
 3031 0228 9C010000 		.word	.LC17
 3032 022c B0010000 		.word	.LC18
 3033 0230 C8010000 		.word	.LC19
 3034 0234 DC010000 		.word	.LC20
 3035 0238 F8010000 		.word	.LC21
 3036 023c A4020000 		.word	.LC25
 3037 0240 B4020000 		.word	.LC26
 3038 0244 C8020000 		.word	.LC27
 3039 0248 DC020000 		.word	.LC28
 3040 024c F0020000 		.word	.LC29
 3041 0250 04030000 		.word	.LC30
 3042 0254 18030000 		.word	.LC31
 3043 0258 2C030000 		.word	.LC32
 3044 025c 40030000 		.word	.LC33
 3045 0260 60030000 		.word	.LC34
 3046 0264 78030000 		.word	.LC35
 3047 0268 94030000 		.word	.LC36
 3048 026c A8030000 		.word	.LC37
 3049 0270 BC030000 		.word	.LC38
 3050 0274 D0030000 		.word	.LC39
 3051 0278 00000000 		.word	__func__.8744
 3052 027c 00000000 		.word	__FUNCTION__.8743
 3053 0280 48040000 		.word	.LC42
 3054 0284 00000000 		.word	prv_handleDeregistrationReply
 3055              		.cfi_endproc
 3056              	.LFE14:
 3058              		.section	.text.registration_reset,"ax",%progbits
ARM GAS  C:\Users\ADMINI~1\AppData\Local\Temp\ccRMs3cA.s 			page 68


 3059              		.align	1
 3060              		.global	registration_reset
 3061              		.syntax unified
 3062              		.thumb
 3063              		.thumb_func
 3064              		.fpu fpv4-sp-d16
 3066              	registration_reset:
 3067              	.LFB15:
 627:g:/iot/IoT_Device_Demo/iot_link/network/lwm2m/wakaama_lwm2m/wakaama-master/core\registration.c **** 
 628:g:/iot/IoT_Device_Demo/iot_link/network/lwm2m/wakaama_lwm2m/wakaama-master/core\registration.c **** void registration_reset(lwm2m_context_t *contextP,
 629:g:/iot/IoT_Device_Demo/iot_link/network/lwm2m/wakaama_lwm2m/wakaama-master/core\registration.c ****                         lwm2m_server_t *serverP)
 630:g:/iot/IoT_Device_Demo/iot_link/network/lwm2m/wakaama_lwm2m/wakaama-master/core\registration.c **** {
 3068              		.loc 1 630 1
 3069              		.cfi_startproc
 3070              		@ args = 0, pretend = 0, frame = 8
 3071              		@ frame_needed = 1, uses_anonymous_args = 0
 3072 0000 80B5     		push	{r7, lr}
 3073              	.LCFI56:
 3074              		.cfi_def_cfa_offset 8
 3075              		.cfi_offset 7, -8
 3076              		.cfi_offset 14, -4
 3077 0002 82B0     		sub	sp, sp, #8
 3078              	.LCFI57:
 3079              		.cfi_def_cfa_offset 16
 3080 0004 00AF     		add	r7, sp, #0
 3081              	.LCFI58:
 3082              		.cfi_def_cfa_register 7
 3083 0006 7860     		str	r0, [r7, #4]
 3084 0008 3960     		str	r1, [r7]
 631:g:/iot/IoT_Device_Demo/iot_link/network/lwm2m/wakaama_lwm2m/wakaama-master/core\registration.c ****     //registration_deregister(contextP, serverP);
 632:g:/iot/IoT_Device_Demo/iot_link/network/lwm2m/wakaama_lwm2m/wakaama-master/core\registration.c ****     if (serverP->sessionH != NULL)
 3085              		.loc 1 632 16
 3086 000a 3B68     		ldr	r3, [r7]
 3087 000c DB69     		ldr	r3, [r3, #28]
 3088              		.loc 1 632 8
 3089 000e 002B     		cmp	r3, #0
 3090 0010 0AD0     		beq	.L283
 633:g:/iot/IoT_Device_Demo/iot_link/network/lwm2m/wakaama_lwm2m/wakaama-master/core\registration.c ****     {
 634:g:/iot/IoT_Device_Demo/iot_link/network/lwm2m/wakaama_lwm2m/wakaama-master/core\registration.c ****         lwm2m_close_connection(serverP->sessionH, contextP->userData);
 3091              		.loc 1 634 9
 3092 0012 3B68     		ldr	r3, [r7]
 3093 0014 DA69     		ldr	r2, [r3, #28]
 3094 0016 7B68     		ldr	r3, [r7, #4]
 3095 0018 5B6B     		ldr	r3, [r3, #52]
 3096 001a 1946     		mov	r1, r3
 3097 001c 1046     		mov	r0, r2
 3098 001e FFF7FEFF 		bl	lwm2m_close_connection
 635:g:/iot/IoT_Device_Demo/iot_link/network/lwm2m/wakaama_lwm2m/wakaama-master/core\registration.c ****         serverP->sessionH = NULL;
 3099              		.loc 1 635 27
 3100 0022 3B68     		ldr	r3, [r7]
 3101 0024 0022     		movs	r2, #0
 3102 0026 DA61     		str	r2, [r3, #28]
 3103              	.L283:
 636:g:/iot/IoT_Device_Demo/iot_link/network/lwm2m/wakaama_lwm2m/wakaama-master/core\registration.c ****     }
 637:g:/iot/IoT_Device_Demo/iot_link/network/lwm2m/wakaama_lwm2m/wakaama-master/core\registration.c ****     serverP->status = STATE_DEREGISTERED;
 3104              		.loc 1 637 21
 3105 0028 3B68     		ldr	r3, [r7]
ARM GAS  C:\Users\ADMINI~1\AppData\Local\Temp\ccRMs3cA.s 			page 69


 3106 002a 0022     		movs	r2, #0
 3107 002c 83F82020 		strb	r2, [r3, #32]
 638:g:/iot/IoT_Device_Demo/iot_link/network/lwm2m/wakaama_lwm2m/wakaama-master/core\registration.c **** }
 3108              		.loc 1 638 1
 3109 0030 00BF     		nop
 3110 0032 0837     		adds	r7, r7, #8
 3111              	.LCFI59:
 3112              		.cfi_def_cfa_offset 8
 3113 0034 BD46     		mov	sp, r7
 3114              	.LCFI60:
 3115              		.cfi_def_cfa_register 13
 3116              		@ sp needed
 3117 0036 80BD     		pop	{r7, pc}
 3118              		.cfi_endproc
 3119              	.LFE15:
 3121              		.section	.rodata
 3122 0487 00       		.align	2
 3123              	.LC43:
 3124 0488 5B25735D 		.ascii	"[%s][%u][%s:%d] [%d][%s:%d] null pointer\015\012\015"
 3124      5B25755D 
 3124      5B25733A 
 3124      25645D20 
 3124      5B25645D 
 3125 04b3 0A00     		.ascii	"\012\000"
 3126              		.section	.text.registration_get_registered_server,"ax",%progbits
 3127              		.align	1
 3128              		.global	registration_get_registered_server
 3129              		.syntax unified
 3130              		.thumb
 3131              		.thumb_func
 3132              		.fpu fpv4-sp-d16
 3134              	registration_get_registered_server:
 3135              	.LFB16:
 639:g:/iot/IoT_Device_Demo/iot_link/network/lwm2m/wakaama_lwm2m/wakaama-master/core\registration.c **** 
 640:g:/iot/IoT_Device_Demo/iot_link/network/lwm2m/wakaama_lwm2m/wakaama-master/core\registration.c **** lwm2m_server_t *registration_get_registered_server(lwm2m_context_t *contextP)
 641:g:/iot/IoT_Device_Demo/iot_link/network/lwm2m/wakaama_lwm2m/wakaama-master/core\registration.c **** {
 3136              		.loc 1 641 1
 3137              		.cfi_startproc
 3138              		@ args = 0, pretend = 0, frame = 16
 3139              		@ frame_needed = 1, uses_anonymous_args = 0
 3140 0000 B0B5     		push	{r4, r5, r7, lr}
 3141              	.LCFI61:
 3142              		.cfi_def_cfa_offset 16
 3143              		.cfi_offset 4, -16
 3144              		.cfi_offset 5, -12
 3145              		.cfi_offset 7, -8
 3146              		.cfi_offset 14, -4
 3147 0002 88B0     		sub	sp, sp, #32
 3148              	.LCFI62:
 3149              		.cfi_def_cfa_offset 48
 3150 0004 04AF     		add	r7, sp, #16
 3151              	.LCFI63:
 3152              		.cfi_def_cfa 7, 32
 3153 0006 7860     		str	r0, [r7, #4]
 642:g:/iot/IoT_Device_Demo/iot_link/network/lwm2m/wakaama_lwm2m/wakaama-master/core\registration.c ****     lwm2m_server_t *targetP;
 643:g:/iot/IoT_Device_Demo/iot_link/network/lwm2m/wakaama_lwm2m/wakaama-master/core\registration.c **** 
 644:g:/iot/IoT_Device_Demo/iot_link/network/lwm2m/wakaama_lwm2m/wakaama-master/core\registration.c ****     if(NULL == contextP)
ARM GAS  C:\Users\ADMINI~1\AppData\Local\Temp\ccRMs3cA.s 			page 70


 3154              		.loc 1 644 7
 3155 0008 7B68     		ldr	r3, [r7, #4]
 3156 000a 002B     		cmp	r3, #0
 3157 000c 22D1     		bne	.L285
 645:g:/iot/IoT_Device_Demo/iot_link/network/lwm2m/wakaama_lwm2m/wakaama-master/core\registration.c ****     {
 646:g:/iot/IoT_Device_Demo/iot_link/network/lwm2m/wakaama_lwm2m/wakaama-master/core\registration.c ****         LOG("null pointer");
 3158              		.loc 1 646 9
 3159 000e FFF7FEFF 		bl	link_log_level_get
 3160 0012 0346     		mov	r3, r0
 3161 0014 012B     		cmp	r3, #1
 3162 0016 1BD8     		bhi	.L286
 3163              		.loc 1 646 9 is_stmt 0 discriminator 1
 3164 0018 0120     		movs	r0, #1
 3165 001a FFF7FEFF 		bl	link_log_level_name
 3166 001e 0446     		mov	r4, r0
 3167 0020 FFF7FEFF 		bl	osal_sys_time
 3168 0024 0246     		mov	r2, r0
 3169 0026 0B46     		mov	r3, r1
 3170 0028 1546     		mov	r5, r2
 3171 002a FFF7FEFF 		bl	lwm2m_gettime
 3172 002e 0246     		mov	r2, r0
 3173 0030 0B46     		mov	r3, r1
 3174 0032 40F28623 		movw	r3, #646
 3175 0036 0393     		str	r3, [sp, #12]
 3176 0038 194B     		ldr	r3, .L292
 3177 003a 0293     		str	r3, [sp, #8]
 3178 003c 0192     		str	r2, [sp, #4]
 3179 003e 40F28623 		movw	r3, #646
 3180 0042 0093     		str	r3, [sp]
 3181 0044 174B     		ldr	r3, .L292+4
 3182 0046 2A46     		mov	r2, r5
 3183 0048 2146     		mov	r1, r4
 3184 004a 1748     		ldr	r0, .L292+8
 3185 004c FFF7FEFF 		bl	printf
 3186              	.L286:
 647:g:/iot/IoT_Device_Demo/iot_link/network/lwm2m/wakaama_lwm2m/wakaama-master/core\registration.c ****         return NULL;
 3187              		.loc 1 647 16 is_stmt 1
 3188 0050 0023     		movs	r3, #0
 3189 0052 20E0     		b	.L287
 3190              	.L285:
 648:g:/iot/IoT_Device_Demo/iot_link/network/lwm2m/wakaama_lwm2m/wakaama-master/core\registration.c ****     }
 649:g:/iot/IoT_Device_Demo/iot_link/network/lwm2m/wakaama_lwm2m/wakaama-master/core\registration.c **** 
 650:g:/iot/IoT_Device_Demo/iot_link/network/lwm2m/wakaama_lwm2m/wakaama-master/core\registration.c ****     targetP = contextP->serverList;
 3191              		.loc 1 650 13
 3192 0054 7B68     		ldr	r3, [r7, #4]
 3193 0056 5B69     		ldr	r3, [r3, #20]
 3194 0058 FB60     		str	r3, [r7, #12]
 651:g:/iot/IoT_Device_Demo/iot_link/network/lwm2m/wakaama_lwm2m/wakaama-master/core\registration.c ****     while (targetP != NULL)
 3195              		.loc 1 651 11
 3196 005a 18E0     		b	.L288
 3197              	.L291:
 652:g:/iot/IoT_Device_Demo/iot_link/network/lwm2m/wakaama_lwm2m/wakaama-master/core\registration.c ****     {
 653:g:/iot/IoT_Device_Demo/iot_link/network/lwm2m/wakaama_lwm2m/wakaama-master/core\registration.c ****         if ((STATE_REGISTERED == targetP->status)
 3198              		.loc 1 653 41
 3199 005c FB68     		ldr	r3, [r7, #12]
 3200 005e 93F82030 		ldrb	r3, [r3, #32]	@ zero_extendqisi2
 3201              		.loc 1 653 12
ARM GAS  C:\Users\ADMINI~1\AppData\Local\Temp\ccRMs3cA.s 			page 71


 3202 0062 022B     		cmp	r3, #2
 3203 0064 0ED0     		beq	.L289
 654:g:/iot/IoT_Device_Demo/iot_link/network/lwm2m/wakaama_lwm2m/wakaama-master/core\registration.c ****                 || (STATE_REG_UPDATE_PENDING == targetP->status)
 3204              		.loc 1 654 56
 3205 0066 FB68     		ldr	r3, [r7, #12]
 3206 0068 93F82030 		ldrb	r3, [r3, #32]	@ zero_extendqisi2
 3207              		.loc 1 654 17
 3208 006c 042B     		cmp	r3, #4
 3209 006e 09D0     		beq	.L289
 655:g:/iot/IoT_Device_Demo/iot_link/network/lwm2m/wakaama_lwm2m/wakaama-master/core\registration.c ****                 || (STATE_REG_UPDATE_NEEDED == targetP->status)
 3210              		.loc 1 655 55
 3211 0070 FB68     		ldr	r3, [r7, #12]
 3212 0072 93F82030 		ldrb	r3, [r3, #32]	@ zero_extendqisi2
 3213              		.loc 1 655 17
 3214 0076 052B     		cmp	r3, #5
 3215 0078 04D0     		beq	.L289
 656:g:/iot/IoT_Device_Demo/iot_link/network/lwm2m/wakaama_lwm2m/wakaama-master/core\registration.c ****                 || (STATE_REG_FULL_UPDATE_NEEDED == targetP->status))
 3216              		.loc 1 656 60
 3217 007a FB68     		ldr	r3, [r7, #12]
 3218 007c 93F82030 		ldrb	r3, [r3, #32]	@ zero_extendqisi2
 3219              		.loc 1 656 17
 3220 0080 062B     		cmp	r3, #6
 3221 0082 01D1     		bne	.L290
 3222              	.L289:
 657:g:/iot/IoT_Device_Demo/iot_link/network/lwm2m/wakaama_lwm2m/wakaama-master/core\registration.c ****         {
 658:g:/iot/IoT_Device_Demo/iot_link/network/lwm2m/wakaama_lwm2m/wakaama-master/core\registration.c ****             return targetP;
 3223              		.loc 1 658 20
 3224 0084 FB68     		ldr	r3, [r7, #12]
 3225 0086 06E0     		b	.L287
 3226              	.L290:
 659:g:/iot/IoT_Device_Demo/iot_link/network/lwm2m/wakaama_lwm2m/wakaama-master/core\registration.c ****         }
 660:g:/iot/IoT_Device_Demo/iot_link/network/lwm2m/wakaama_lwm2m/wakaama-master/core\registration.c ****         targetP = targetP->next;
 3227              		.loc 1 660 17
 3228 0088 FB68     		ldr	r3, [r7, #12]
 3229 008a 1B68     		ldr	r3, [r3]
 3230 008c FB60     		str	r3, [r7, #12]
 3231              	.L288:
 651:g:/iot/IoT_Device_Demo/iot_link/network/lwm2m/wakaama_lwm2m/wakaama-master/core\registration.c ****     {
 3232              		.loc 1 651 11
 3233 008e FB68     		ldr	r3, [r7, #12]
 3234 0090 002B     		cmp	r3, #0
 3235 0092 E3D1     		bne	.L291
 661:g:/iot/IoT_Device_Demo/iot_link/network/lwm2m/wakaama_lwm2m/wakaama-master/core\registration.c ****     }
 662:g:/iot/IoT_Device_Demo/iot_link/network/lwm2m/wakaama_lwm2m/wakaama-master/core\registration.c **** 
 663:g:/iot/IoT_Device_Demo/iot_link/network/lwm2m/wakaama_lwm2m/wakaama-master/core\registration.c ****     return NULL;
 3236              		.loc 1 663 12
 3237 0094 0023     		movs	r3, #0
 3238              	.L287:
 664:g:/iot/IoT_Device_Demo/iot_link/network/lwm2m/wakaama_lwm2m/wakaama-master/core\registration.c **** }
 3239              		.loc 1 664 1
 3240 0096 1846     		mov	r0, r3
 3241 0098 1037     		adds	r7, r7, #16
 3242              	.LCFI64:
 3243              		.cfi_def_cfa_offset 16
 3244 009a BD46     		mov	sp, r7
 3245              	.LCFI65:
 3246              		.cfi_def_cfa_register 13
ARM GAS  C:\Users\ADMINI~1\AppData\Local\Temp\ccRMs3cA.s 			page 72


 3247              		@ sp needed
 3248 009c B0BD     		pop	{r4, r5, r7, pc}
 3249              	.L293:
 3250 009e 00BF     		.align	2
 3251              	.L292:
 3252 00a0 00000000 		.word	__func__.8754
 3253 00a4 00000000 		.word	__FUNCTION__.8753
 3254 00a8 88040000 		.word	.LC43
 3255              		.cfi_endproc
 3256              	.LFE16:
 3258              		.section	.rodata
 3259 04b5 000000   		.align	2
 3260              	.LC44:
 3261 04b8 5B25735D 		.ascii	"[%s][%u][%s:%d] [%d][%s:%d] contextP State: %s\015\012"
 3261      5B25755D 
 3261      5B25733A 
 3261      25645D20 
 3261      5B25645D 
 3262 04e8 0D0A00   		.ascii	"\015\012\000"
 3263 04eb 00       		.align	2
 3264              	.LC45:
 3265 04ec 5B25735D 		.ascii	"[%s][%u][%s:%d] [%d][%s:%d] targetP Status: %s\015\012"
 3265      5B25755D 
 3265      5B25733A 
 3265      25645D20 
 3265      5B25645D 
 3266 051c 0D0A00   		.ascii	"\015\012\000"
 3267              		.global	__aeabi_l2d
 3268              		.global	__aeabi_dcmpgt
 3269              		.global	__aeabi_dsub
 3270              		.global	__aeabi_d2lz
 3271 051f 00       		.align	2
 3272              	.LC46:
 3273 0520 5B25735D 		.ascii	"[%s][%u][%s:%d] [%d][%s:%d] Updating registration\015"
 3273      5B25755D 
 3273      5B25733A 
 3273      25645D20 
 3273      5B25645D 
 3274 0552 0A0D0A00 		.ascii	"\012\015\012\000"
 3275              		.section	.text.registration_step,"ax",%progbits
 3276              		.align	1
 3277              		.global	registration_step
 3278              		.syntax unified
 3279              		.thumb
 3280              		.thumb_func
 3281              		.fpu fpv4-sp-d16
 3283              	registration_step:
 3284              	.LFB17:
 665:g:/iot/IoT_Device_Demo/iot_link/network/lwm2m/wakaama_lwm2m/wakaama-master/core\registration.c **** 
 666:g:/iot/IoT_Device_Demo/iot_link/network/lwm2m/wakaama_lwm2m/wakaama-master/core\registration.c **** #endif
 667:g:/iot/IoT_Device_Demo/iot_link/network/lwm2m/wakaama_lwm2m/wakaama-master/core\registration.c **** 
 668:g:/iot/IoT_Device_Demo/iot_link/network/lwm2m/wakaama_lwm2m/wakaama-master/core\registration.c **** #ifdef LWM2M_SERVER_MODE
 669:g:/iot/IoT_Device_Demo/iot_link/network/lwm2m/wakaama_lwm2m/wakaama-master/core\registration.c **** static void prv_freeClientObjectList(lwm2m_client_object_t *objects)
 670:g:/iot/IoT_Device_Demo/iot_link/network/lwm2m/wakaama_lwm2m/wakaama-master/core\registration.c **** {
 671:g:/iot/IoT_Device_Demo/iot_link/network/lwm2m/wakaama_lwm2m/wakaama-master/core\registration.c ****     while (objects != NULL)
 672:g:/iot/IoT_Device_Demo/iot_link/network/lwm2m/wakaama_lwm2m/wakaama-master/core\registration.c ****     {
 673:g:/iot/IoT_Device_Demo/iot_link/network/lwm2m/wakaama_lwm2m/wakaama-master/core\registration.c ****         lwm2m_client_object_t *objP;
ARM GAS  C:\Users\ADMINI~1\AppData\Local\Temp\ccRMs3cA.s 			page 73


 674:g:/iot/IoT_Device_Demo/iot_link/network/lwm2m/wakaama_lwm2m/wakaama-master/core\registration.c **** 
 675:g:/iot/IoT_Device_Demo/iot_link/network/lwm2m/wakaama_lwm2m/wakaama-master/core\registration.c ****         while (objects->instanceList != NULL)
 676:g:/iot/IoT_Device_Demo/iot_link/network/lwm2m/wakaama_lwm2m/wakaama-master/core\registration.c ****         {
 677:g:/iot/IoT_Device_Demo/iot_link/network/lwm2m/wakaama_lwm2m/wakaama-master/core\registration.c ****             lwm2m_list_t *target;
 678:g:/iot/IoT_Device_Demo/iot_link/network/lwm2m/wakaama_lwm2m/wakaama-master/core\registration.c **** 
 679:g:/iot/IoT_Device_Demo/iot_link/network/lwm2m/wakaama_lwm2m/wakaama-master/core\registration.c ****             target = objects->instanceList;
 680:g:/iot/IoT_Device_Demo/iot_link/network/lwm2m/wakaama_lwm2m/wakaama-master/core\registration.c ****             objects->instanceList = objects->instanceList->next;
 681:g:/iot/IoT_Device_Demo/iot_link/network/lwm2m/wakaama_lwm2m/wakaama-master/core\registration.c ****             lwm2m_free(target);
 682:g:/iot/IoT_Device_Demo/iot_link/network/lwm2m/wakaama_lwm2m/wakaama-master/core\registration.c ****         }
 683:g:/iot/IoT_Device_Demo/iot_link/network/lwm2m/wakaama_lwm2m/wakaama-master/core\registration.c **** 
 684:g:/iot/IoT_Device_Demo/iot_link/network/lwm2m/wakaama_lwm2m/wakaama-master/core\registration.c ****         objP = objects;
 685:g:/iot/IoT_Device_Demo/iot_link/network/lwm2m/wakaama_lwm2m/wakaama-master/core\registration.c ****         objects = objects->next;
 686:g:/iot/IoT_Device_Demo/iot_link/network/lwm2m/wakaama_lwm2m/wakaama-master/core\registration.c ****         lwm2m_free(objP);
 687:g:/iot/IoT_Device_Demo/iot_link/network/lwm2m/wakaama_lwm2m/wakaama-master/core\registration.c ****     }
 688:g:/iot/IoT_Device_Demo/iot_link/network/lwm2m/wakaama_lwm2m/wakaama-master/core\registration.c **** }
 689:g:/iot/IoT_Device_Demo/iot_link/network/lwm2m/wakaama_lwm2m/wakaama-master/core\registration.c **** 
 690:g:/iot/IoT_Device_Demo/iot_link/network/lwm2m/wakaama_lwm2m/wakaama-master/core\registration.c **** static int prv_getParameters(multi_option_t *query,
 691:g:/iot/IoT_Device_Demo/iot_link/network/lwm2m/wakaama_lwm2m/wakaama-master/core\registration.c ****                              char **nameP,
 692:g:/iot/IoT_Device_Demo/iot_link/network/lwm2m/wakaama_lwm2m/wakaama-master/core\registration.c ****                              uint32_t *lifetimeP,
 693:g:/iot/IoT_Device_Demo/iot_link/network/lwm2m/wakaama_lwm2m/wakaama-master/core\registration.c ****                              char **msisdnP,
 694:g:/iot/IoT_Device_Demo/iot_link/network/lwm2m/wakaama_lwm2m/wakaama-master/core\registration.c ****                              lwm2m_binding_t *bindingP,
 695:g:/iot/IoT_Device_Demo/iot_link/network/lwm2m/wakaama_lwm2m/wakaama-master/core\registration.c ****                              char **versionP)
 696:g:/iot/IoT_Device_Demo/iot_link/network/lwm2m/wakaama_lwm2m/wakaama-master/core\registration.c **** {
 697:g:/iot/IoT_Device_Demo/iot_link/network/lwm2m/wakaama_lwm2m/wakaama-master/core\registration.c ****     *nameP = NULL;
 698:g:/iot/IoT_Device_Demo/iot_link/network/lwm2m/wakaama_lwm2m/wakaama-master/core\registration.c ****     *lifetimeP = 0;
 699:g:/iot/IoT_Device_Demo/iot_link/network/lwm2m/wakaama_lwm2m/wakaama-master/core\registration.c ****     *msisdnP = NULL;
 700:g:/iot/IoT_Device_Demo/iot_link/network/lwm2m/wakaama_lwm2m/wakaama-master/core\registration.c ****     *bindingP = BINDING_UNKNOWN;
 701:g:/iot/IoT_Device_Demo/iot_link/network/lwm2m/wakaama_lwm2m/wakaama-master/core\registration.c ****     *versionP = NULL;
 702:g:/iot/IoT_Device_Demo/iot_link/network/lwm2m/wakaama_lwm2m/wakaama-master/core\registration.c **** 
 703:g:/iot/IoT_Device_Demo/iot_link/network/lwm2m/wakaama_lwm2m/wakaama-master/core\registration.c ****     while (query != NULL)
 704:g:/iot/IoT_Device_Demo/iot_link/network/lwm2m/wakaama_lwm2m/wakaama-master/core\registration.c ****     {
 705:g:/iot/IoT_Device_Demo/iot_link/network/lwm2m/wakaama_lwm2m/wakaama-master/core\registration.c ****         if (lwm2m_strncmp((char *)query->data, QUERY_NAME, QUERY_NAME_LEN) == 0)
 706:g:/iot/IoT_Device_Demo/iot_link/network/lwm2m/wakaama_lwm2m/wakaama-master/core\registration.c ****         {
 707:g:/iot/IoT_Device_Demo/iot_link/network/lwm2m/wakaama_lwm2m/wakaama-master/core\registration.c ****             if (*nameP != NULL) goto error;
 708:g:/iot/IoT_Device_Demo/iot_link/network/lwm2m/wakaama_lwm2m/wakaama-master/core\registration.c ****             if (query->len == QUERY_NAME_LEN) goto error;
 709:g:/iot/IoT_Device_Demo/iot_link/network/lwm2m/wakaama_lwm2m/wakaama-master/core\registration.c **** 
 710:g:/iot/IoT_Device_Demo/iot_link/network/lwm2m/wakaama_lwm2m/wakaama-master/core\registration.c ****             *nameP = (char *)lwm2m_malloc(query->len - QUERY_NAME_LEN + 1);
 711:g:/iot/IoT_Device_Demo/iot_link/network/lwm2m/wakaama_lwm2m/wakaama-master/core\registration.c ****             if (*nameP != NULL)
 712:g:/iot/IoT_Device_Demo/iot_link/network/lwm2m/wakaama_lwm2m/wakaama-master/core\registration.c ****             {
 713:g:/iot/IoT_Device_Demo/iot_link/network/lwm2m/wakaama_lwm2m/wakaama-master/core\registration.c ****                 memcpy(*nameP, query->data + QUERY_NAME_LEN, query->len - QUERY_NAME_LEN);
 714:g:/iot/IoT_Device_Demo/iot_link/network/lwm2m/wakaama_lwm2m/wakaama-master/core\registration.c ****                 (*nameP)[query->len - QUERY_NAME_LEN] = 0;
 715:g:/iot/IoT_Device_Demo/iot_link/network/lwm2m/wakaama_lwm2m/wakaama-master/core\registration.c ****             }
 716:g:/iot/IoT_Device_Demo/iot_link/network/lwm2m/wakaama_lwm2m/wakaama-master/core\registration.c ****         }
 717:g:/iot/IoT_Device_Demo/iot_link/network/lwm2m/wakaama_lwm2m/wakaama-master/core\registration.c ****         else if (lwm2m_strncmp((char *)query->data, QUERY_SMS, QUERY_SMS_LEN) == 0)
 718:g:/iot/IoT_Device_Demo/iot_link/network/lwm2m/wakaama_lwm2m/wakaama-master/core\registration.c ****         {
 719:g:/iot/IoT_Device_Demo/iot_link/network/lwm2m/wakaama_lwm2m/wakaama-master/core\registration.c ****             if (*msisdnP != NULL) goto error;
 720:g:/iot/IoT_Device_Demo/iot_link/network/lwm2m/wakaama_lwm2m/wakaama-master/core\registration.c ****             if (query->len == QUERY_SMS_LEN) goto error;
 721:g:/iot/IoT_Device_Demo/iot_link/network/lwm2m/wakaama_lwm2m/wakaama-master/core\registration.c **** 
 722:g:/iot/IoT_Device_Demo/iot_link/network/lwm2m/wakaama_lwm2m/wakaama-master/core\registration.c ****             *msisdnP = (char *)lwm2m_malloc(query->len - QUERY_SMS_LEN + 1);
 723:g:/iot/IoT_Device_Demo/iot_link/network/lwm2m/wakaama_lwm2m/wakaama-master/core\registration.c ****             if (*msisdnP != NULL)
 724:g:/iot/IoT_Device_Demo/iot_link/network/lwm2m/wakaama_lwm2m/wakaama-master/core\registration.c ****             {
 725:g:/iot/IoT_Device_Demo/iot_link/network/lwm2m/wakaama_lwm2m/wakaama-master/core\registration.c ****                 memcpy(*msisdnP, query->data + QUERY_SMS_LEN, query->len - QUERY_SMS_LEN);
 726:g:/iot/IoT_Device_Demo/iot_link/network/lwm2m/wakaama_lwm2m/wakaama-master/core\registration.c ****                 (*msisdnP)[query->len - QUERY_SMS_LEN] = 0;
 727:g:/iot/IoT_Device_Demo/iot_link/network/lwm2m/wakaama_lwm2m/wakaama-master/core\registration.c ****             }
 728:g:/iot/IoT_Device_Demo/iot_link/network/lwm2m/wakaama_lwm2m/wakaama-master/core\registration.c ****         }
 729:g:/iot/IoT_Device_Demo/iot_link/network/lwm2m/wakaama_lwm2m/wakaama-master/core\registration.c ****         else if (lwm2m_strncmp((char *)query->data, QUERY_LIFETIME, QUERY_LIFETIME_LEN) == 0)
 730:g:/iot/IoT_Device_Demo/iot_link/network/lwm2m/wakaama_lwm2m/wakaama-master/core\registration.c ****         {
ARM GAS  C:\Users\ADMINI~1\AppData\Local\Temp\ccRMs3cA.s 			page 74


 731:g:/iot/IoT_Device_Demo/iot_link/network/lwm2m/wakaama_lwm2m/wakaama-master/core\registration.c ****             int i;
 732:g:/iot/IoT_Device_Demo/iot_link/network/lwm2m/wakaama_lwm2m/wakaama-master/core\registration.c **** 
 733:g:/iot/IoT_Device_Demo/iot_link/network/lwm2m/wakaama_lwm2m/wakaama-master/core\registration.c ****             if (*lifetimeP != 0) goto error;
 734:g:/iot/IoT_Device_Demo/iot_link/network/lwm2m/wakaama_lwm2m/wakaama-master/core\registration.c ****             if (query->len == QUERY_LIFETIME_LEN) goto error;
 735:g:/iot/IoT_Device_Demo/iot_link/network/lwm2m/wakaama_lwm2m/wakaama-master/core\registration.c **** 
 736:g:/iot/IoT_Device_Demo/iot_link/network/lwm2m/wakaama_lwm2m/wakaama-master/core\registration.c ****             for (i = QUERY_LIFETIME_LEN ; i < query->len ; i++)
 737:g:/iot/IoT_Device_Demo/iot_link/network/lwm2m/wakaama_lwm2m/wakaama-master/core\registration.c ****             {
 738:g:/iot/IoT_Device_Demo/iot_link/network/lwm2m/wakaama_lwm2m/wakaama-master/core\registration.c ****                 if (query->data[i] < '0' || query->data[i] > '9') goto error;
 739:g:/iot/IoT_Device_Demo/iot_link/network/lwm2m/wakaama_lwm2m/wakaama-master/core\registration.c ****                 *lifetimeP = (*lifetimeP * 10) + (query->data[i] - '0');
 740:g:/iot/IoT_Device_Demo/iot_link/network/lwm2m/wakaama_lwm2m/wakaama-master/core\registration.c ****             }
 741:g:/iot/IoT_Device_Demo/iot_link/network/lwm2m/wakaama_lwm2m/wakaama-master/core\registration.c ****         }
 742:g:/iot/IoT_Device_Demo/iot_link/network/lwm2m/wakaama_lwm2m/wakaama-master/core\registration.c ****         else if (lwm2m_strncmp((char *)query->data, QUERY_VERSION, QUERY_VERSION_LEN) == 0)
 743:g:/iot/IoT_Device_Demo/iot_link/network/lwm2m/wakaama_lwm2m/wakaama-master/core\registration.c ****         {
 744:g:/iot/IoT_Device_Demo/iot_link/network/lwm2m/wakaama_lwm2m/wakaama-master/core\registration.c ****             if (*versionP != NULL) goto error;
 745:g:/iot/IoT_Device_Demo/iot_link/network/lwm2m/wakaama_lwm2m/wakaama-master/core\registration.c ****             if (query->len == QUERY_VERSION_LEN) goto error;
 746:g:/iot/IoT_Device_Demo/iot_link/network/lwm2m/wakaama_lwm2m/wakaama-master/core\registration.c **** 
 747:g:/iot/IoT_Device_Demo/iot_link/network/lwm2m/wakaama_lwm2m/wakaama-master/core\registration.c ****             *versionP = (char *)lwm2m_malloc(query->len - QUERY_VERSION_LEN + 1);
 748:g:/iot/IoT_Device_Demo/iot_link/network/lwm2m/wakaama_lwm2m/wakaama-master/core\registration.c ****             if (*versionP != NULL)
 749:g:/iot/IoT_Device_Demo/iot_link/network/lwm2m/wakaama_lwm2m/wakaama-master/core\registration.c ****             {
 750:g:/iot/IoT_Device_Demo/iot_link/network/lwm2m/wakaama_lwm2m/wakaama-master/core\registration.c ****                 memcpy(*versionP, query->data + QUERY_VERSION_LEN, query->len - QUERY_VERSION_LEN);
 751:g:/iot/IoT_Device_Demo/iot_link/network/lwm2m/wakaama_lwm2m/wakaama-master/core\registration.c ****                 (*versionP)[query->len - QUERY_VERSION_LEN] = 0;
 752:g:/iot/IoT_Device_Demo/iot_link/network/lwm2m/wakaama_lwm2m/wakaama-master/core\registration.c ****             }
 753:g:/iot/IoT_Device_Demo/iot_link/network/lwm2m/wakaama_lwm2m/wakaama-master/core\registration.c ****         }
 754:g:/iot/IoT_Device_Demo/iot_link/network/lwm2m/wakaama_lwm2m/wakaama-master/core\registration.c ****         else if (lwm2m_strncmp((char *)query->data, QUERY_BINDING, QUERY_BINDING_LEN) == 0)
 755:g:/iot/IoT_Device_Demo/iot_link/network/lwm2m/wakaama_lwm2m/wakaama-master/core\registration.c ****         {
 756:g:/iot/IoT_Device_Demo/iot_link/network/lwm2m/wakaama_lwm2m/wakaama-master/core\registration.c ****             if (*bindingP != BINDING_UNKNOWN) goto error;
 757:g:/iot/IoT_Device_Demo/iot_link/network/lwm2m/wakaama_lwm2m/wakaama-master/core\registration.c ****             if (query->len == QUERY_BINDING_LEN) goto error;
 758:g:/iot/IoT_Device_Demo/iot_link/network/lwm2m/wakaama_lwm2m/wakaama-master/core\registration.c **** 
 759:g:/iot/IoT_Device_Demo/iot_link/network/lwm2m/wakaama_lwm2m/wakaama-master/core\registration.c ****             *bindingP = utils_stringToBinding(query->data + QUERY_BINDING_LEN, query->len - QUERY_B
 760:g:/iot/IoT_Device_Demo/iot_link/network/lwm2m/wakaama_lwm2m/wakaama-master/core\registration.c ****         }
 761:g:/iot/IoT_Device_Demo/iot_link/network/lwm2m/wakaama_lwm2m/wakaama-master/core\registration.c ****         query = query->next;
 762:g:/iot/IoT_Device_Demo/iot_link/network/lwm2m/wakaama_lwm2m/wakaama-master/core\registration.c ****     }
 763:g:/iot/IoT_Device_Demo/iot_link/network/lwm2m/wakaama_lwm2m/wakaama-master/core\registration.c **** 
 764:g:/iot/IoT_Device_Demo/iot_link/network/lwm2m/wakaama_lwm2m/wakaama-master/core\registration.c ****     return 0;
 765:g:/iot/IoT_Device_Demo/iot_link/network/lwm2m/wakaama_lwm2m/wakaama-master/core\registration.c **** 
 766:g:/iot/IoT_Device_Demo/iot_link/network/lwm2m/wakaama_lwm2m/wakaama-master/core\registration.c **** error:
 767:g:/iot/IoT_Device_Demo/iot_link/network/lwm2m/wakaama_lwm2m/wakaama-master/core\registration.c ****     if (*nameP != NULL) lwm2m_free(*nameP);
 768:g:/iot/IoT_Device_Demo/iot_link/network/lwm2m/wakaama_lwm2m/wakaama-master/core\registration.c ****     if (*msisdnP != NULL) lwm2m_free(*msisdnP);
 769:g:/iot/IoT_Device_Demo/iot_link/network/lwm2m/wakaama_lwm2m/wakaama-master/core\registration.c ****     if (*versionP != NULL) lwm2m_free(*versionP);
 770:g:/iot/IoT_Device_Demo/iot_link/network/lwm2m/wakaama_lwm2m/wakaama-master/core\registration.c **** 
 771:g:/iot/IoT_Device_Demo/iot_link/network/lwm2m/wakaama_lwm2m/wakaama-master/core\registration.c ****     return -1;
 772:g:/iot/IoT_Device_Demo/iot_link/network/lwm2m/wakaama_lwm2m/wakaama-master/core\registration.c **** }
 773:g:/iot/IoT_Device_Demo/iot_link/network/lwm2m/wakaama_lwm2m/wakaama-master/core\registration.c **** 
 774:g:/iot/IoT_Device_Demo/iot_link/network/lwm2m/wakaama_lwm2m/wakaama-master/core\registration.c **** static uint16_t prv_splitLinkAttribute(uint8_t *data,
 775:g:/iot/IoT_Device_Demo/iot_link/network/lwm2m/wakaama_lwm2m/wakaama-master/core\registration.c ****                                        uint16_t length,
 776:g:/iot/IoT_Device_Demo/iot_link/network/lwm2m/wakaama_lwm2m/wakaama-master/core\registration.c ****                                        uint16_t *keyStart,
 777:g:/iot/IoT_Device_Demo/iot_link/network/lwm2m/wakaama_lwm2m/wakaama-master/core\registration.c ****                                        uint16_t *keyLength,
 778:g:/iot/IoT_Device_Demo/iot_link/network/lwm2m/wakaama_lwm2m/wakaama-master/core\registration.c ****                                        uint16_t *valueStart,
 779:g:/iot/IoT_Device_Demo/iot_link/network/lwm2m/wakaama_lwm2m/wakaama-master/core\registration.c ****                                        uint16_t *valueLength)
 780:g:/iot/IoT_Device_Demo/iot_link/network/lwm2m/wakaama_lwm2m/wakaama-master/core\registration.c **** {
 781:g:/iot/IoT_Device_Demo/iot_link/network/lwm2m/wakaama_lwm2m/wakaama-master/core\registration.c ****     uint16_t index;
 782:g:/iot/IoT_Device_Demo/iot_link/network/lwm2m/wakaama_lwm2m/wakaama-master/core\registration.c ****     uint16_t end;
 783:g:/iot/IoT_Device_Demo/iot_link/network/lwm2m/wakaama_lwm2m/wakaama-master/core\registration.c **** 
 784:g:/iot/IoT_Device_Demo/iot_link/network/lwm2m/wakaama_lwm2m/wakaama-master/core\registration.c ****     index = 0;
 785:g:/iot/IoT_Device_Demo/iot_link/network/lwm2m/wakaama_lwm2m/wakaama-master/core\registration.c ****     while (index < length && data[index] == ' ') index++;
 786:g:/iot/IoT_Device_Demo/iot_link/network/lwm2m/wakaama_lwm2m/wakaama-master/core\registration.c ****     if (index == length) return 0;
 787:g:/iot/IoT_Device_Demo/iot_link/network/lwm2m/wakaama_lwm2m/wakaama-master/core\registration.c **** 
ARM GAS  C:\Users\ADMINI~1\AppData\Local\Temp\ccRMs3cA.s 			page 75


 788:g:/iot/IoT_Device_Demo/iot_link/network/lwm2m/wakaama_lwm2m/wakaama-master/core\registration.c ****     if (data[index] == REG_ATTR_SEPARATOR)
 789:g:/iot/IoT_Device_Demo/iot_link/network/lwm2m/wakaama_lwm2m/wakaama-master/core\registration.c ****     {
 790:g:/iot/IoT_Device_Demo/iot_link/network/lwm2m/wakaama_lwm2m/wakaama-master/core\registration.c ****         index++;
 791:g:/iot/IoT_Device_Demo/iot_link/network/lwm2m/wakaama_lwm2m/wakaama-master/core\registration.c ****     }
 792:g:/iot/IoT_Device_Demo/iot_link/network/lwm2m/wakaama_lwm2m/wakaama-master/core\registration.c ****     if (index == length) return 0;
 793:g:/iot/IoT_Device_Demo/iot_link/network/lwm2m/wakaama_lwm2m/wakaama-master/core\registration.c **** 
 794:g:/iot/IoT_Device_Demo/iot_link/network/lwm2m/wakaama_lwm2m/wakaama-master/core\registration.c ****     *keyStart = index;
 795:g:/iot/IoT_Device_Demo/iot_link/network/lwm2m/wakaama_lwm2m/wakaama-master/core\registration.c **** 
 796:g:/iot/IoT_Device_Demo/iot_link/network/lwm2m/wakaama_lwm2m/wakaama-master/core\registration.c ****     while (index < length && data[index] != REG_ATTR_EQUALS) index++;
 797:g:/iot/IoT_Device_Demo/iot_link/network/lwm2m/wakaama_lwm2m/wakaama-master/core\registration.c ****     if (index == *keyStart || index == length) return 0;
 798:g:/iot/IoT_Device_Demo/iot_link/network/lwm2m/wakaama_lwm2m/wakaama-master/core\registration.c **** 
 799:g:/iot/IoT_Device_Demo/iot_link/network/lwm2m/wakaama_lwm2m/wakaama-master/core\registration.c ****     *keyLength = index - *keyStart;
 800:g:/iot/IoT_Device_Demo/iot_link/network/lwm2m/wakaama_lwm2m/wakaama-master/core\registration.c **** 
 801:g:/iot/IoT_Device_Demo/iot_link/network/lwm2m/wakaama_lwm2m/wakaama-master/core\registration.c ****     index++;
 802:g:/iot/IoT_Device_Demo/iot_link/network/lwm2m/wakaama_lwm2m/wakaama-master/core\registration.c ****     while (index < length && data[index] == ' ') index++;
 803:g:/iot/IoT_Device_Demo/iot_link/network/lwm2m/wakaama_lwm2m/wakaama-master/core\registration.c ****     if (index == length) return 0;
 804:g:/iot/IoT_Device_Demo/iot_link/network/lwm2m/wakaama_lwm2m/wakaama-master/core\registration.c **** 
 805:g:/iot/IoT_Device_Demo/iot_link/network/lwm2m/wakaama_lwm2m/wakaama-master/core\registration.c ****     *valueStart = index;
 806:g:/iot/IoT_Device_Demo/iot_link/network/lwm2m/wakaama_lwm2m/wakaama-master/core\registration.c **** 
 807:g:/iot/IoT_Device_Demo/iot_link/network/lwm2m/wakaama_lwm2m/wakaama-master/core\registration.c ****     while (index < length && data[index] != REG_ATTR_SEPARATOR) index++;
 808:g:/iot/IoT_Device_Demo/iot_link/network/lwm2m/wakaama_lwm2m/wakaama-master/core\registration.c ****     end = index;
 809:g:/iot/IoT_Device_Demo/iot_link/network/lwm2m/wakaama_lwm2m/wakaama-master/core\registration.c **** 
 810:g:/iot/IoT_Device_Demo/iot_link/network/lwm2m/wakaama_lwm2m/wakaama-master/core\registration.c ****     index--;
 811:g:/iot/IoT_Device_Demo/iot_link/network/lwm2m/wakaama_lwm2m/wakaama-master/core\registration.c ****     while (index > *valueStart && data[index] == ' ') index--;
 812:g:/iot/IoT_Device_Demo/iot_link/network/lwm2m/wakaama_lwm2m/wakaama-master/core\registration.c ****     if (index == *valueStart) return 0;
 813:g:/iot/IoT_Device_Demo/iot_link/network/lwm2m/wakaama_lwm2m/wakaama-master/core\registration.c **** 
 814:g:/iot/IoT_Device_Demo/iot_link/network/lwm2m/wakaama_lwm2m/wakaama-master/core\registration.c ****     *valueLength = index - *valueStart + 1;
 815:g:/iot/IoT_Device_Demo/iot_link/network/lwm2m/wakaama_lwm2m/wakaama-master/core\registration.c **** 
 816:g:/iot/IoT_Device_Demo/iot_link/network/lwm2m/wakaama_lwm2m/wakaama-master/core\registration.c ****     return end;
 817:g:/iot/IoT_Device_Demo/iot_link/network/lwm2m/wakaama_lwm2m/wakaama-master/core\registration.c **** }
 818:g:/iot/IoT_Device_Demo/iot_link/network/lwm2m/wakaama_lwm2m/wakaama-master/core\registration.c **** 
 819:g:/iot/IoT_Device_Demo/iot_link/network/lwm2m/wakaama_lwm2m/wakaama-master/core\registration.c **** static int prv_parseLinkAttributes(uint8_t *data,
 820:g:/iot/IoT_Device_Demo/iot_link/network/lwm2m/wakaama_lwm2m/wakaama-master/core\registration.c ****                                    uint16_t length,
 821:g:/iot/IoT_Device_Demo/iot_link/network/lwm2m/wakaama_lwm2m/wakaama-master/core\registration.c ****                                    bool *supportJSON,
 822:g:/iot/IoT_Device_Demo/iot_link/network/lwm2m/wakaama_lwm2m/wakaama-master/core\registration.c ****                                    char **altPath)
 823:g:/iot/IoT_Device_Demo/iot_link/network/lwm2m/wakaama_lwm2m/wakaama-master/core\registration.c **** {
 824:g:/iot/IoT_Device_Demo/iot_link/network/lwm2m/wakaama_lwm2m/wakaama-master/core\registration.c ****     uint16_t index;
 825:g:/iot/IoT_Device_Demo/iot_link/network/lwm2m/wakaama_lwm2m/wakaama-master/core\registration.c ****     uint16_t pathStart;
 826:g:/iot/IoT_Device_Demo/iot_link/network/lwm2m/wakaama_lwm2m/wakaama-master/core\registration.c ****     uint16_t pathLength;
 827:g:/iot/IoT_Device_Demo/iot_link/network/lwm2m/wakaama_lwm2m/wakaama-master/core\registration.c ****     bool isValid;
 828:g:/iot/IoT_Device_Demo/iot_link/network/lwm2m/wakaama_lwm2m/wakaama-master/core\registration.c **** 
 829:g:/iot/IoT_Device_Demo/iot_link/network/lwm2m/wakaama_lwm2m/wakaama-master/core\registration.c ****     isValid = false;
 830:g:/iot/IoT_Device_Demo/iot_link/network/lwm2m/wakaama_lwm2m/wakaama-master/core\registration.c **** 
 831:g:/iot/IoT_Device_Demo/iot_link/network/lwm2m/wakaama_lwm2m/wakaama-master/core\registration.c ****     // Expecting application/link-format (RFC6690)
 832:g:/iot/IoT_Device_Demo/iot_link/network/lwm2m/wakaama_lwm2m/wakaama-master/core\registration.c ****     // leading space were removed before. Remove trailing spaces.
 833:g:/iot/IoT_Device_Demo/iot_link/network/lwm2m/wakaama_lwm2m/wakaama-master/core\registration.c ****     while (length > 0 && data[length - 1] == ' ') length--;
 834:g:/iot/IoT_Device_Demo/iot_link/network/lwm2m/wakaama_lwm2m/wakaama-master/core\registration.c **** 
 835:g:/iot/IoT_Device_Demo/iot_link/network/lwm2m/wakaama_lwm2m/wakaama-master/core\registration.c ****     // strip open tag
