ARM GAS  C:\Users\ADMINI~1\AppData\Local\Temp\ccUFOrrb.s 			page 1


   1              		.cpu cortex-m4
   2              		.eabi_attribute 27, 1
   3              		.eabi_attribute 28, 1
   4              		.eabi_attribute 20, 1
   5              		.eabi_attribute 21, 1
   6              		.eabi_attribute 23, 3
   7              		.eabi_attribute 24, 1
   8              		.eabi_attribute 25, 1
   9              		.eabi_attribute 26, 1
  10              		.eabi_attribute 30, 6
  11              		.eabi_attribute 34, 1
  12              		.eabi_attribute 18, 4
  13              		.file	"connection.c"
  14              		.text
  15              	.Ltext0:
  16              		.cfi_sections	.debug_frame
  17              		.section	.bss.g_connection_err_notify,"aw",%nobits
  18              		.align	2
  21              	g_connection_err_notify:
  22 0000 00000000 		.space	4
  23              		.section	.text.inc_connection_stat,"ax",%progbits
  24              		.align	1
  25              		.arch armv7e-m
  26              		.syntax unified
  27              		.thumb
  28              		.thumb_func
  29              		.fpu fpv4-sp-d16
  31              	inc_connection_stat:
  32              	.LFB12:
  33              		.file 1 "g:/iot/IoT_Device_Demo/iot_link/network/lwm2m/wakaama_lwm2m/port/connection.c"
   1:g:/iot/IoT_Device_Demo/iot_link/network/lwm2m/wakaama_lwm2m/port\connection.c **** /*----------------------------------------------------------------------------
   2:g:/iot/IoT_Device_Demo/iot_link/network/lwm2m/wakaama_lwm2m/port\connection.c ****  * Copyright (c) <2016-2018>, <Huawei Technologies Co., Ltd>
   3:g:/iot/IoT_Device_Demo/iot_link/network/lwm2m/wakaama_lwm2m/port\connection.c ****  * All rights reserved.
   4:g:/iot/IoT_Device_Demo/iot_link/network/lwm2m/wakaama_lwm2m/port\connection.c ****  * Redistribution and use in source and binary forms, with or without modification,
   5:g:/iot/IoT_Device_Demo/iot_link/network/lwm2m/wakaama_lwm2m/port\connection.c ****  * are permitted provided that the following conditions are met:
   6:g:/iot/IoT_Device_Demo/iot_link/network/lwm2m/wakaama_lwm2m/port\connection.c ****  * 1. Redistributions of source code must retain the above copyright notice, this list of
   7:g:/iot/IoT_Device_Demo/iot_link/network/lwm2m/wakaama_lwm2m/port\connection.c ****  * conditions and the following disclaimer.
   8:g:/iot/IoT_Device_Demo/iot_link/network/lwm2m/wakaama_lwm2m/port\connection.c ****  * 2. Redistributions in binary form must reproduce the above copyright notice, this list
   9:g:/iot/IoT_Device_Demo/iot_link/network/lwm2m/wakaama_lwm2m/port\connection.c ****  * of conditions and the following disclaimer in the documentation and/or other materials
  10:g:/iot/IoT_Device_Demo/iot_link/network/lwm2m/wakaama_lwm2m/port\connection.c ****  * provided with the distribution.
  11:g:/iot/IoT_Device_Demo/iot_link/network/lwm2m/wakaama_lwm2m/port\connection.c ****  * 3. Neither the name of the copyright holder nor the names of its contributors may be used
  12:g:/iot/IoT_Device_Demo/iot_link/network/lwm2m/wakaama_lwm2m/port\connection.c ****  * to endorse or promote products derived from this software without specific prior written
  13:g:/iot/IoT_Device_Demo/iot_link/network/lwm2m/wakaama_lwm2m/port\connection.c ****  * permission.
  14:g:/iot/IoT_Device_Demo/iot_link/network/lwm2m/wakaama_lwm2m/port\connection.c ****  * THIS SOFTWARE IS PROVIDED BY THE COPYRIGHT HOLDERS AND CONTRIBUTORS
  15:g:/iot/IoT_Device_Demo/iot_link/network/lwm2m/wakaama_lwm2m/port\connection.c ****  * "AS IS" AND ANY EXPRESS OR IMPLIED WARRANTIES, INCLUDING, BUT NOT LIMITED TO,
  16:g:/iot/IoT_Device_Demo/iot_link/network/lwm2m/wakaama_lwm2m/port\connection.c ****  * THE IMPLIED WARRANTIES OF MERCHANTABILITY AND FITNESS FOR A PARTICULAR
  17:g:/iot/IoT_Device_Demo/iot_link/network/lwm2m/wakaama_lwm2m/port\connection.c ****  * PURPOSE ARE DISCLAIMED. IN NO EVENT SHALL THE COPYRIGHT HOLDER OR
  18:g:/iot/IoT_Device_Demo/iot_link/network/lwm2m/wakaama_lwm2m/port\connection.c ****  * CONTRIBUTORS BE LIABLE FOR ANY DIRECT, INDIRECT, INCIDENTAL, SPECIAL,
  19:g:/iot/IoT_Device_Demo/iot_link/network/lwm2m/wakaama_lwm2m/port\connection.c ****  * EXEMPLARY, OR CONSEQUENTIAL DAMAGES (INCLUDING, BUT NOT LIMITED TO,
  20:g:/iot/IoT_Device_Demo/iot_link/network/lwm2m/wakaama_lwm2m/port\connection.c ****  * PROCUREMENT OF SUBSTITUTE GOODS OR SERVICES; LOSS OF USE, DATA, OR PROFITS;
  21:g:/iot/IoT_Device_Demo/iot_link/network/lwm2m/wakaama_lwm2m/port\connection.c ****  * OR BUSINESS INTERRUPTION) HOWEVER CAUSED AND ON ANY THEORY OF LIABILITY,
  22:g:/iot/IoT_Device_Demo/iot_link/network/lwm2m/wakaama_lwm2m/port\connection.c ****  * WHETHER IN CONTRACT, STRICT LIABILITY, OR TORT (INCLUDING NEGLIGENCE OR
  23:g:/iot/IoT_Device_Demo/iot_link/network/lwm2m/wakaama_lwm2m/port\connection.c ****  * OTHERWISE) ARISING IN ANY WAY OUT OF THE USE OF THIS SOFTWARE, EVEN IF
  24:g:/iot/IoT_Device_Demo/iot_link/network/lwm2m/wakaama_lwm2m/port\connection.c ****  * ADVISED OF THE POSSIBILITY OF SUCH DAMAGE.
  25:g:/iot/IoT_Device_Demo/iot_link/network/lwm2m/wakaama_lwm2m/port\connection.c ****  *---------------------------------------------------------------------------*/
  26:g:/iot/IoT_Device_Demo/iot_link/network/lwm2m/wakaama_lwm2m/port\connection.c **** /*----------------------------------------------------------------------------
  27:g:/iot/IoT_Device_Demo/iot_link/network/lwm2m/wakaama_lwm2m/port\connection.c ****  * Notice of Export Control Law
ARM GAS  C:\Users\ADMINI~1\AppData\Local\Temp\ccUFOrrb.s 			page 2


  28:g:/iot/IoT_Device_Demo/iot_link/network/lwm2m/wakaama_lwm2m/port\connection.c ****  * ===============================================
  29:g:/iot/IoT_Device_Demo/iot_link/network/lwm2m/wakaama_lwm2m/port\connection.c ****  * Huawei LiteOS may be subject to applicable export control laws and regulations, which might
  30:g:/iot/IoT_Device_Demo/iot_link/network/lwm2m/wakaama_lwm2m/port\connection.c ****  * include those applicable to Huawei LiteOS of U.S. and the country in which you are located.
  31:g:/iot/IoT_Device_Demo/iot_link/network/lwm2m/wakaama_lwm2m/port\connection.c ****  * Import, export and usage of Huawei LiteOS in any manner by you shall be in compliance with such
  32:g:/iot/IoT_Device_Demo/iot_link/network/lwm2m/wakaama_lwm2m/port\connection.c ****  * applicable export control laws and regulations.
  33:g:/iot/IoT_Device_Demo/iot_link/network/lwm2m/wakaama_lwm2m/port\connection.c ****  *---------------------------------------------------------------------------*/
  34:g:/iot/IoT_Device_Demo/iot_link/network/lwm2m/wakaama_lwm2m/port\connection.c **** 
  35:g:/iot/IoT_Device_Demo/iot_link/network/lwm2m/wakaama_lwm2m/port\connection.c **** /*******************************************************************************
  36:g:/iot/IoT_Device_Demo/iot_link/network/lwm2m/wakaama_lwm2m/port\connection.c ****  *
  37:g:/iot/IoT_Device_Demo/iot_link/network/lwm2m/wakaama_lwm2m/port\connection.c ****  * Copyright (c) 2015 Intel Corporation and others.
  38:g:/iot/IoT_Device_Demo/iot_link/network/lwm2m/wakaama_lwm2m/port\connection.c ****  * All rights reserved. This program and the accompanying materials
  39:g:/iot/IoT_Device_Demo/iot_link/network/lwm2m/wakaama_lwm2m/port\connection.c ****  * are made available under the terms of the Eclipse Public License v1.0
  40:g:/iot/IoT_Device_Demo/iot_link/network/lwm2m/wakaama_lwm2m/port\connection.c ****  * and Eclipse Distribution License v1.0 which accompany this distribution.
  41:g:/iot/IoT_Device_Demo/iot_link/network/lwm2m/wakaama_lwm2m/port\connection.c ****  *
  42:g:/iot/IoT_Device_Demo/iot_link/network/lwm2m/wakaama_lwm2m/port\connection.c ****  * The Eclipse Public License is available at
  43:g:/iot/IoT_Device_Demo/iot_link/network/lwm2m/wakaama_lwm2m/port\connection.c ****  *    http://www.eclipse.org/legal/epl-v10.html
  44:g:/iot/IoT_Device_Demo/iot_link/network/lwm2m/wakaama_lwm2m/port\connection.c ****  * The Eclipse Distribution License is available at
  45:g:/iot/IoT_Device_Demo/iot_link/network/lwm2m/wakaama_lwm2m/port\connection.c ****  *    http://www.eclipse.org/org/documents/edl-v10.php.
  46:g:/iot/IoT_Device_Demo/iot_link/network/lwm2m/wakaama_lwm2m/port\connection.c ****  *
  47:g:/iot/IoT_Device_Demo/iot_link/network/lwm2m/wakaama_lwm2m/port\connection.c ****  * Contributors:
  48:g:/iot/IoT_Device_Demo/iot_link/network/lwm2m/wakaama_lwm2m/port\connection.c ****  *    David Navarro, Intel Corporation - initial API and implementation
  49:g:/iot/IoT_Device_Demo/iot_link/network/lwm2m/wakaama_lwm2m/port\connection.c ****  *    Christian Renz - Please refer to git log
  50:g:/iot/IoT_Device_Demo/iot_link/network/lwm2m/wakaama_lwm2m/port\connection.c ****  *
  51:g:/iot/IoT_Device_Demo/iot_link/network/lwm2m/wakaama_lwm2m/port\connection.c ****  *******************************************************************************/
  52:g:/iot/IoT_Device_Demo/iot_link/network/lwm2m/wakaama_lwm2m/port\connection.c **** #include <ctype.h>
  53:g:/iot/IoT_Device_Demo/iot_link/network/lwm2m/wakaama_lwm2m/port\connection.c **** #include "connection.h"
  54:g:/iot/IoT_Device_Demo/iot_link/network/lwm2m/wakaama_lwm2m/port\connection.c **** 
  55:g:/iot/IoT_Device_Demo/iot_link/network/lwm2m/wakaama_lwm2m/port\connection.c **** #include <sal.h>
  56:g:/iot/IoT_Device_Demo/iot_link/network/lwm2m/wakaama_lwm2m/port\connection.c **** //#include <osal.h>
  57:g:/iot/IoT_Device_Demo/iot_link/network/lwm2m/wakaama_lwm2m/port\connection.c **** 
  58:g:/iot/IoT_Device_Demo/iot_link/network/lwm2m/wakaama_lwm2m/port\connection.c **** #if defined (WITH_DTLS)
  59:g:/iot/IoT_Device_Demo/iot_link/network/lwm2m/wakaama_lwm2m/port\connection.c ****     #include "dtls_interface.h"
  60:g:/iot/IoT_Device_Demo/iot_link/network/lwm2m/wakaama_lwm2m/port\connection.c **** #endif
  61:g:/iot/IoT_Device_Demo/iot_link/network/lwm2m/wakaama_lwm2m/port\connection.c **** //#include "sal/atiny_socket.h"
  62:g:/iot/IoT_Device_Demo/iot_link/network/lwm2m/wakaama_lwm2m/port\connection.c **** //#include <atiny_log.h>
  63:g:/iot/IoT_Device_Demo/iot_link/network/lwm2m/wakaama_lwm2m/port\connection.c **** #include "object_comm.h"
  64:g:/iot/IoT_Device_Demo/iot_link/network/lwm2m/wakaama_lwm2m/port\connection.c **** 
  65:g:/iot/IoT_Device_Demo/iot_link/network/lwm2m/wakaama_lwm2m/port\connection.c **** #define COAP_PORT "5683"
  66:g:/iot/IoT_Device_Demo/iot_link/network/lwm2m/wakaama_lwm2m/port\connection.c **** #define COAPS_PORT "5684"
  67:g:/iot/IoT_Device_Demo/iot_link/network/lwm2m/wakaama_lwm2m/port\connection.c **** 
  68:g:/iot/IoT_Device_Demo/iot_link/network/lwm2m/wakaama_lwm2m/port\connection.c **** static lwm2m_connection_err_notify_t g_connection_err_notify = NULL;
  69:g:/iot/IoT_Device_Demo/iot_link/network/lwm2m/wakaama_lwm2m/port\connection.c **** 
  70:g:/iot/IoT_Device_Demo/iot_link/network/lwm2m/wakaama_lwm2m/port\connection.c **** static inline void inc_connection_stat(connection_t *connection, connection_err_e type)
  71:g:/iot/IoT_Device_Demo/iot_link/network/lwm2m/wakaama_lwm2m/port\connection.c **** {
  34              		.loc 1 71 1
  35              		.cfi_startproc
  36              		@ args = 0, pretend = 0, frame = 8
  37              		@ frame_needed = 1, uses_anonymous_args = 0
  38 0000 80B5     		push	{r7, lr}
  39              	.LCFI0:
  40              		.cfi_def_cfa_offset 8
  41              		.cfi_offset 7, -8
  42              		.cfi_offset 14, -4
  43 0002 82B0     		sub	sp, sp, #8
  44              	.LCFI1:
  45              		.cfi_def_cfa_offset 16
  46 0004 00AF     		add	r7, sp, #0
ARM GAS  C:\Users\ADMINI~1\AppData\Local\Temp\ccUFOrrb.s 			page 3


  47              	.LCFI2:
  48              		.cfi_def_cfa_register 7
  49 0006 7860     		str	r0, [r7, #4]
  50 0008 0B46     		mov	r3, r1
  51 000a FB70     		strb	r3, [r7, #3]
  72:g:/iot/IoT_Device_Demo/iot_link/network/lwm2m/wakaama_lwm2m/port\connection.c ****     static const uint16_t max_num[CONNECTION_ERR_MAX] = {MAX_SEND_ERR_NUM,
  73:g:/iot/IoT_Device_Demo/iot_link/network/lwm2m/wakaama_lwm2m/port\connection.c ****                                                          MAX_RECV_ERR_NUM
  74:g:/iot/IoT_Device_Demo/iot_link/network/lwm2m/wakaama_lwm2m/port\connection.c ****                                                         };
  75:g:/iot/IoT_Device_Demo/iot_link/network/lwm2m/wakaama_lwm2m/port\connection.c ****     connection->errs[type]++;
  52              		.loc 1 75 21
  53 000c FB78     		ldrb	r3, [r7, #3]	@ zero_extendqisi2
  54 000e 7A68     		ldr	r2, [r7, #4]
  55 0010 03F10C01 		add	r1, r3, #12
  56 0014 32F81120 		ldrh	r2, [r2, r1, lsl #1]
  57              		.loc 1 75 27
  58 0018 0132     		adds	r2, r2, #1
  59 001a 91B2     		uxth	r1, r2
  60 001c 7A68     		ldr	r2, [r7, #4]
  61 001e 0C33     		adds	r3, r3, #12
  62 0020 22F81310 		strh	r1, [r2, r3, lsl #1]	@ movhi
  76:g:/iot/IoT_Device_Demo/iot_link/network/lwm2m/wakaama_lwm2m/port\connection.c **** 
  77:g:/iot/IoT_Device_Demo/iot_link/network/lwm2m/wakaama_lwm2m/port\connection.c ****     if (connection->errs[type] >= max_num[type])
  63              		.loc 1 77 25
  64 0024 FA78     		ldrb	r2, [r7, #3]	@ zero_extendqisi2
  65 0026 7B68     		ldr	r3, [r7, #4]
  66 0028 0C32     		adds	r2, r2, #12
  67 002a 33F81220 		ldrh	r2, [r3, r2, lsl #1]
  68              		.loc 1 77 32
  69 002e FB78     		ldrb	r3, [r7, #3]	@ zero_extendqisi2
  70              		.loc 1 77 42
  71 0030 0F49     		ldr	r1, .L4
  72 0032 31F81330 		ldrh	r3, [r1, r3, lsl #1]
  73              		.loc 1 77 8
  74 0036 9A42     		cmp	r2, r3
  75 0038 16D3     		bcc	.L3
  78:g:/iot/IoT_Device_Demo/iot_link/network/lwm2m/wakaama_lwm2m/port\connection.c ****     {
  79:g:/iot/IoT_Device_Demo/iot_link/network/lwm2m/wakaama_lwm2m/port\connection.c ****         connection->errs[type] = 0;
  76              		.loc 1 79 25
  77 003a FA78     		ldrb	r2, [r7, #3]	@ zero_extendqisi2
  78              		.loc 1 79 32
  79 003c 7B68     		ldr	r3, [r7, #4]
  80 003e 0C32     		adds	r2, r2, #12
  81 0040 0021     		movs	r1, #0
  82 0042 23F81210 		strh	r1, [r3, r2, lsl #1]	@ movhi
  80:g:/iot/IoT_Device_Demo/iot_link/network/lwm2m/wakaama_lwm2m/port\connection.c **** 
  81:g:/iot/IoT_Device_Demo/iot_link/network/lwm2m/wakaama_lwm2m/port\connection.c ****         if (g_connection_err_notify)
  83              		.loc 1 81 13
  84 0046 0B4B     		ldr	r3, .L4+4
  85 0048 1B68     		ldr	r3, [r3]
  86              		.loc 1 81 12
  87 004a 002B     		cmp	r3, #0
  88 004c 0CD0     		beq	.L3
  82:g:/iot/IoT_Device_Demo/iot_link/network/lwm2m/wakaama_lwm2m/port\connection.c ****         {
  83:g:/iot/IoT_Device_Demo/iot_link/network/lwm2m/wakaama_lwm2m/port\connection.c ****             g_connection_err_notify(connection->lwm2mH, type, connection->bootstrap_flag);
  89              		.loc 1 83 13
  90 004e 094B     		ldr	r3, .L4+4
  91 0050 1B68     		ldr	r3, [r3]
ARM GAS  C:\Users\ADMINI~1\AppData\Local\Temp\ccUFOrrb.s 			page 4


  92 0052 7A68     		ldr	r2, [r7, #4]
  93 0054 5069     		ldr	r0, [r2, #20]
  94              		.loc 1 83 73
  95 0056 7A68     		ldr	r2, [r7, #4]
  96 0058 528A     		ldrh	r2, [r2, #18]
  97              		.loc 1 83 13
  98 005a 002A     		cmp	r2, #0
  99 005c 14BF     		ite	ne
 100 005e 0122     		movne	r2, #1
 101 0060 0022     		moveq	r2, #0
 102 0062 D2B2     		uxtb	r2, r2
 103 0064 F978     		ldrb	r1, [r7, #3]	@ zero_extendqisi2
 104 0066 9847     		blx	r3
 105              	.LVL0:
 106              	.L3:
  84:g:/iot/IoT_Device_Demo/iot_link/network/lwm2m/wakaama_lwm2m/port\connection.c ****         }
  85:g:/iot/IoT_Device_Demo/iot_link/network/lwm2m/wakaama_lwm2m/port\connection.c ****     }
  86:g:/iot/IoT_Device_Demo/iot_link/network/lwm2m/wakaama_lwm2m/port\connection.c **** }
 107              		.loc 1 86 1
 108 0068 00BF     		nop
 109 006a 0837     		adds	r7, r7, #8
 110              	.LCFI3:
 111              		.cfi_def_cfa_offset 8
 112 006c BD46     		mov	sp, r7
 113              	.LCFI4:
 114              		.cfi_def_cfa_register 13
 115              		@ sp needed
 116 006e 80BD     		pop	{r7, pc}
 117              	.L5:
 118              		.align	2
 119              	.L4:
 120 0070 00000000 		.word	max_num.9204
 121 0074 00000000 		.word	g_connection_err_notify
 122              		.cfi_endproc
 123              	.LFE12:
 125              		.section	.rodata
 126              		.align	2
 127              	.LC0:
 128 0000 636F6170 		.ascii	"coaps://\000"
 128      733A2F2F 
 128      00
 129 0009 000000   		.align	2
 130              	.LC1:
 131 000c 35363834 		.ascii	"5684\000"
 131      00
 132 0011 000000   		.align	2
 133              	.LC2:
 134 0014 636F6170 		.ascii	"coap://\000"
 134      3A2F2F00 
 135              		.align	2
 136              	.LC3:
 137 001c 35363833 		.ascii	"5683\000"
 137      00
 138              		.section	.text.connection_parse_host_ip,"ax",%progbits
 139              		.align	1
 140              		.global	connection_parse_host_ip
 141              		.syntax unified
ARM GAS  C:\Users\ADMINI~1\AppData\Local\Temp\ccUFOrrb.s 			page 5


 142              		.thumb
 143              		.thumb_func
 144              		.fpu fpv4-sp-d16
 146              	connection_parse_host_ip:
 147              	.LFB13:
  87:g:/iot/IoT_Device_Demo/iot_link/network/lwm2m/wakaama_lwm2m/port\connection.c **** 
  88:g:/iot/IoT_Device_Demo/iot_link/network/lwm2m/wakaama_lwm2m/port\connection.c **** 
  89:g:/iot/IoT_Device_Demo/iot_link/network/lwm2m/wakaama_lwm2m/port\connection.c **** int connection_parse_host_ip(char *uri, char **parsed_host, char **parsed_port)
  90:g:/iot/IoT_Device_Demo/iot_link/network/lwm2m/wakaama_lwm2m/port\connection.c **** {
 148              		.loc 1 90 1
 149              		.cfi_startproc
 150              		@ args = 0, pretend = 0, frame = 32
 151              		@ frame_needed = 1, uses_anonymous_args = 0
 152 0000 80B5     		push	{r7, lr}
 153              	.LCFI5:
 154              		.cfi_def_cfa_offset 8
 155              		.cfi_offset 7, -8
 156              		.cfi_offset 14, -4
 157 0002 88B0     		sub	sp, sp, #32
 158              	.LCFI6:
 159              		.cfi_def_cfa_offset 40
 160 0004 00AF     		add	r7, sp, #0
 161              	.LCFI7:
 162              		.cfi_def_cfa_register 7
 163 0006 F860     		str	r0, [r7, #12]
 164 0008 B960     		str	r1, [r7, #8]
 165 000a 7A60     		str	r2, [r7, #4]
  91:g:/iot/IoT_Device_Demo/iot_link/network/lwm2m/wakaama_lwm2m/port\connection.c ****     char *host;
  92:g:/iot/IoT_Device_Demo/iot_link/network/lwm2m/wakaama_lwm2m/port\connection.c ****     char *port;
  93:g:/iot/IoT_Device_Demo/iot_link/network/lwm2m/wakaama_lwm2m/port\connection.c ****     char *defaultport;
  94:g:/iot/IoT_Device_Demo/iot_link/network/lwm2m/wakaama_lwm2m/port\connection.c **** 
  95:g:/iot/IoT_Device_Demo/iot_link/network/lwm2m/wakaama_lwm2m/port\connection.c ****     if (NULL == uri)
 166              		.loc 1 95 8
 167 000c FB68     		ldr	r3, [r7, #12]
 168 000e 002B     		cmp	r3, #0
 169 0010 01D1     		bne	.L7
  96:g:/iot/IoT_Device_Demo/iot_link/network/lwm2m/wakaama_lwm2m/port\connection.c ****     {
  97:g:/iot/IoT_Device_Demo/iot_link/network/lwm2m/wakaama_lwm2m/port\connection.c ****         ATINY_LOG(LOG_INFO, "uri is NULL!!!");
  98:g:/iot/IoT_Device_Demo/iot_link/network/lwm2m/wakaama_lwm2m/port\connection.c ****         return COAP_500_INTERNAL_SERVER_ERROR;
 170              		.loc 1 98 16
 171 0012 A023     		movs	r3, #160
 172 0014 48E0     		b	.L8
 173              	.L7:
  99:g:/iot/IoT_Device_Demo/iot_link/network/lwm2m/wakaama_lwm2m/port\connection.c ****     }
 100:g:/iot/IoT_Device_Demo/iot_link/network/lwm2m/wakaama_lwm2m/port\connection.c **** 
 101:g:/iot/IoT_Device_Demo/iot_link/network/lwm2m/wakaama_lwm2m/port\connection.c ****     //ATINY_LOG(LOG_INFO, "uri is %s\n", uri);
 102:g:/iot/IoT_Device_Demo/iot_link/network/lwm2m/wakaama_lwm2m/port\connection.c **** 
 103:g:/iot/IoT_Device_Demo/iot_link/network/lwm2m/wakaama_lwm2m/port\connection.c ****     // parse uri in the form "coaps://[host]:[port]"
 104:g:/iot/IoT_Device_Demo/iot_link/network/lwm2m/wakaama_lwm2m/port\connection.c **** 
 105:g:/iot/IoT_Device_Demo/iot_link/network/lwm2m/wakaama_lwm2m/port\connection.c ****     if (0 == strncmp(uri, "coaps://", strlen("coaps://")))
 174              		.loc 1 105 14
 175 0016 0822     		movs	r2, #8
 176 0018 2549     		ldr	r1, .L16
 177 001a F868     		ldr	r0, [r7, #12]
 178 001c FFF7FEFF 		bl	strncmp
 179 0020 0346     		mov	r3, r0
 180              		.loc 1 105 8
ARM GAS  C:\Users\ADMINI~1\AppData\Local\Temp\ccUFOrrb.s 			page 6


 181 0022 002B     		cmp	r3, #0
 182 0024 05D1     		bne	.L9
 106:g:/iot/IoT_Device_Demo/iot_link/network/lwm2m/wakaama_lwm2m/port\connection.c ****     {
 107:g:/iot/IoT_Device_Demo/iot_link/network/lwm2m/wakaama_lwm2m/port\connection.c ****         host = uri + strlen("coaps://");
 183              		.loc 1 107 14
 184 0026 FB68     		ldr	r3, [r7, #12]
 185 0028 0833     		adds	r3, r3, #8
 186 002a FB61     		str	r3, [r7, #28]
 108:g:/iot/IoT_Device_Demo/iot_link/network/lwm2m/wakaama_lwm2m/port\connection.c ****         defaultport = COAPS_PORT;
 187              		.loc 1 108 21
 188 002c 214B     		ldr	r3, .L16+4
 189 002e 7B61     		str	r3, [r7, #20]
 190 0030 0FE0     		b	.L10
 191              	.L9:
 109:g:/iot/IoT_Device_Demo/iot_link/network/lwm2m/wakaama_lwm2m/port\connection.c ****     }
 110:g:/iot/IoT_Device_Demo/iot_link/network/lwm2m/wakaama_lwm2m/port\connection.c ****     else if (0 == strncmp(uri, "coap://", strlen("coap://")))
 192              		.loc 1 110 19
 193 0032 0722     		movs	r2, #7
 194 0034 2049     		ldr	r1, .L16+8
 195 0036 F868     		ldr	r0, [r7, #12]
 196 0038 FFF7FEFF 		bl	strncmp
 197 003c 0346     		mov	r3, r0
 198              		.loc 1 110 13
 199 003e 002B     		cmp	r3, #0
 200 0040 05D1     		bne	.L11
 111:g:/iot/IoT_Device_Demo/iot_link/network/lwm2m/wakaama_lwm2m/port\connection.c ****     {
 112:g:/iot/IoT_Device_Demo/iot_link/network/lwm2m/wakaama_lwm2m/port\connection.c ****         host = uri + strlen("coap://");
 201              		.loc 1 112 14
 202 0042 FB68     		ldr	r3, [r7, #12]
 203 0044 0733     		adds	r3, r3, #7
 204 0046 FB61     		str	r3, [r7, #28]
 113:g:/iot/IoT_Device_Demo/iot_link/network/lwm2m/wakaama_lwm2m/port\connection.c ****         defaultport = COAP_PORT;
 205              		.loc 1 113 21
 206 0048 1C4B     		ldr	r3, .L16+12
 207 004a 7B61     		str	r3, [r7, #20]
 208 004c 01E0     		b	.L10
 209              	.L11:
 114:g:/iot/IoT_Device_Demo/iot_link/network/lwm2m/wakaama_lwm2m/port\connection.c ****     }
 115:g:/iot/IoT_Device_Demo/iot_link/network/lwm2m/wakaama_lwm2m/port\connection.c ****     else
 116:g:/iot/IoT_Device_Demo/iot_link/network/lwm2m/wakaama_lwm2m/port\connection.c ****     {
 117:g:/iot/IoT_Device_Demo/iot_link/network/lwm2m/wakaama_lwm2m/port\connection.c ****         ATINY_LOG(LOG_INFO, "come here1!!!");
 118:g:/iot/IoT_Device_Demo/iot_link/network/lwm2m/wakaama_lwm2m/port\connection.c ****         return COAP_500_INTERNAL_SERVER_ERROR;
 210              		.loc 1 118 16
 211 004e A023     		movs	r3, #160
 212 0050 2AE0     		b	.L8
 213              	.L10:
 119:g:/iot/IoT_Device_Demo/iot_link/network/lwm2m/wakaama_lwm2m/port\connection.c ****     }
 120:g:/iot/IoT_Device_Demo/iot_link/network/lwm2m/wakaama_lwm2m/port\connection.c **** 
 121:g:/iot/IoT_Device_Demo/iot_link/network/lwm2m/wakaama_lwm2m/port\connection.c ****     port = strrchr(host, ':');
 214              		.loc 1 121 12
 215 0052 3A21     		movs	r1, #58
 216 0054 F869     		ldr	r0, [r7, #28]
 217 0056 FFF7FEFF 		bl	strrchr
 218 005a B861     		str	r0, [r7, #24]
 122:g:/iot/IoT_Device_Demo/iot_link/network/lwm2m/wakaama_lwm2m/port\connection.c **** 
 123:g:/iot/IoT_Device_Demo/iot_link/network/lwm2m/wakaama_lwm2m/port\connection.c ****     if (NULL == port)
 219              		.loc 1 123 8
ARM GAS  C:\Users\ADMINI~1\AppData\Local\Temp\ccUFOrrb.s 			page 7


 220 005c BB69     		ldr	r3, [r7, #24]
 221 005e 002B     		cmp	r3, #0
 222 0060 02D1     		bne	.L12
 124:g:/iot/IoT_Device_Demo/iot_link/network/lwm2m/wakaama_lwm2m/port\connection.c ****     {
 125:g:/iot/IoT_Device_Demo/iot_link/network/lwm2m/wakaama_lwm2m/port\connection.c ****         port = defaultport;
 223              		.loc 1 125 14
 224 0062 7B69     		ldr	r3, [r7, #20]
 225 0064 BB61     		str	r3, [r7, #24]
 226 0066 18E0     		b	.L13
 227              	.L12:
 126:g:/iot/IoT_Device_Demo/iot_link/network/lwm2m/wakaama_lwm2m/port\connection.c ****     }
 127:g:/iot/IoT_Device_Demo/iot_link/network/lwm2m/wakaama_lwm2m/port\connection.c ****     else
 128:g:/iot/IoT_Device_Demo/iot_link/network/lwm2m/wakaama_lwm2m/port\connection.c ****     {
 129:g:/iot/IoT_Device_Demo/iot_link/network/lwm2m/wakaama_lwm2m/port\connection.c ****         // remove brackets
 130:g:/iot/IoT_Device_Demo/iot_link/network/lwm2m/wakaama_lwm2m/port\connection.c ****         if ('[' == host[0])
 228              		.loc 1 130 24
 229 0068 FB69     		ldr	r3, [r7, #28]
 230 006a 1B78     		ldrb	r3, [r3]	@ zero_extendqisi2
 231              		.loc 1 130 12
 232 006c 5B2B     		cmp	r3, #91
 233 006e 0ED1     		bne	.L14
 131:g:/iot/IoT_Device_Demo/iot_link/network/lwm2m/wakaama_lwm2m/port\connection.c ****         {
 132:g:/iot/IoT_Device_Demo/iot_link/network/lwm2m/wakaama_lwm2m/port\connection.c ****             host++;
 234              		.loc 1 132 17
 235 0070 FB69     		ldr	r3, [r7, #28]
 236 0072 0133     		adds	r3, r3, #1
 237 0074 FB61     		str	r3, [r7, #28]
 133:g:/iot/IoT_Device_Demo/iot_link/network/lwm2m/wakaama_lwm2m/port\connection.c **** 
 134:g:/iot/IoT_Device_Demo/iot_link/network/lwm2m/wakaama_lwm2m/port\connection.c ****             if (']' == *(port - 1))
 238              		.loc 1 134 31
 239 0076 BB69     		ldr	r3, [r7, #24]
 240 0078 013B     		subs	r3, r3, #1
 241              		.loc 1 134 24
 242 007a 1B78     		ldrb	r3, [r3]	@ zero_extendqisi2
 243              		.loc 1 134 16
 244 007c 5D2B     		cmp	r3, #93
 245 007e 04D1     		bne	.L15
 135:g:/iot/IoT_Device_Demo/iot_link/network/lwm2m/wakaama_lwm2m/port\connection.c ****             {
 136:g:/iot/IoT_Device_Demo/iot_link/network/lwm2m/wakaama_lwm2m/port\connection.c ****                 *(port - 1) = 0;
 246              		.loc 1 136 24
 247 0080 BB69     		ldr	r3, [r7, #24]
 248 0082 013B     		subs	r3, r3, #1
 249              		.loc 1 136 29
 250 0084 0022     		movs	r2, #0
 251 0086 1A70     		strb	r2, [r3]
 252 0088 01E0     		b	.L14
 253              	.L15:
 137:g:/iot/IoT_Device_Demo/iot_link/network/lwm2m/wakaama_lwm2m/port\connection.c ****             }
 138:g:/iot/IoT_Device_Demo/iot_link/network/lwm2m/wakaama_lwm2m/port\connection.c ****             else
 139:g:/iot/IoT_Device_Demo/iot_link/network/lwm2m/wakaama_lwm2m/port\connection.c ****             {
 140:g:/iot/IoT_Device_Demo/iot_link/network/lwm2m/wakaama_lwm2m/port\connection.c ****                 ATINY_LOG(LOG_INFO, "come here2!!!");
 141:g:/iot/IoT_Device_Demo/iot_link/network/lwm2m/wakaama_lwm2m/port\connection.c ****                 return COAP_500_INTERNAL_SERVER_ERROR;
 254              		.loc 1 141 24
 255 008a A023     		movs	r3, #160
 256 008c 0CE0     		b	.L8
 257              	.L14:
 142:g:/iot/IoT_Device_Demo/iot_link/network/lwm2m/wakaama_lwm2m/port\connection.c ****             }
ARM GAS  C:\Users\ADMINI~1\AppData\Local\Temp\ccUFOrrb.s 			page 8


 143:g:/iot/IoT_Device_Demo/iot_link/network/lwm2m/wakaama_lwm2m/port\connection.c ****         }
 144:g:/iot/IoT_Device_Demo/iot_link/network/lwm2m/wakaama_lwm2m/port\connection.c **** 
 145:g:/iot/IoT_Device_Demo/iot_link/network/lwm2m/wakaama_lwm2m/port\connection.c ****         // split strings
 146:g:/iot/IoT_Device_Demo/iot_link/network/lwm2m/wakaama_lwm2m/port\connection.c ****         *port = 0;
 258              		.loc 1 146 15
 259 008e BB69     		ldr	r3, [r7, #24]
 260 0090 0022     		movs	r2, #0
 261 0092 1A70     		strb	r2, [r3]
 147:g:/iot/IoT_Device_Demo/iot_link/network/lwm2m/wakaama_lwm2m/port\connection.c ****         port++;
 262              		.loc 1 147 13
 263 0094 BB69     		ldr	r3, [r7, #24]
 264 0096 0133     		adds	r3, r3, #1
 265 0098 BB61     		str	r3, [r7, #24]
 266              	.L13:
 148:g:/iot/IoT_Device_Demo/iot_link/network/lwm2m/wakaama_lwm2m/port\connection.c ****     }
 149:g:/iot/IoT_Device_Demo/iot_link/network/lwm2m/wakaama_lwm2m/port\connection.c **** 
 150:g:/iot/IoT_Device_Demo/iot_link/network/lwm2m/wakaama_lwm2m/port\connection.c ****     *parsed_host = host;
 267              		.loc 1 150 18
 268 009a BB68     		ldr	r3, [r7, #8]
 269 009c FA69     		ldr	r2, [r7, #28]
 270 009e 1A60     		str	r2, [r3]
 151:g:/iot/IoT_Device_Demo/iot_link/network/lwm2m/wakaama_lwm2m/port\connection.c ****     *parsed_port = port;
 271              		.loc 1 151 18
 272 00a0 7B68     		ldr	r3, [r7, #4]
 273 00a2 BA69     		ldr	r2, [r7, #24]
 274 00a4 1A60     		str	r2, [r3]
 152:g:/iot/IoT_Device_Demo/iot_link/network/lwm2m/wakaama_lwm2m/port\connection.c ****     return COAP_NO_ERROR;
 275              		.loc 1 152 12
 276 00a6 0023     		movs	r3, #0
 277              	.L8:
 153:g:/iot/IoT_Device_Demo/iot_link/network/lwm2m/wakaama_lwm2m/port\connection.c **** }
 278              		.loc 1 153 1
 279 00a8 1846     		mov	r0, r3
 280 00aa 2037     		adds	r7, r7, #32
 281              	.LCFI8:
 282              		.cfi_def_cfa_offset 8
 283 00ac BD46     		mov	sp, r7
 284              	.LCFI9:
 285              		.cfi_def_cfa_register 13
 286              		@ sp needed
 287 00ae 80BD     		pop	{r7, pc}
 288              	.L17:
 289              		.align	2
 290              	.L16:
 291 00b0 00000000 		.word	.LC0
 292 00b4 0C000000 		.word	.LC1
 293 00b8 14000000 		.word	.LC2
 294 00bc 1C000000 		.word	.LC3
 295              		.cfi_endproc
 296              	.LFE13:
 298              		.section	.text.__socket_connect,"ax",%progbits
 299              		.align	1
 300              		.syntax unified
 301              		.thumb
 302              		.thumb_func
 303              		.fpu fpv4-sp-d16
 305              	__socket_connect:
ARM GAS  C:\Users\ADMINI~1\AppData\Local\Temp\ccUFOrrb.s 			page 9


 306              	.LFB14:
 154:g:/iot/IoT_Device_Demo/iot_link/network/lwm2m/wakaama_lwm2m/port\connection.c **** 
 155:g:/iot/IoT_Device_Demo/iot_link/network/lwm2m/wakaama_lwm2m/port\connection.c **** #ifdef LWM2M_BOOTSTRAP
 156:g:/iot/IoT_Device_Demo/iot_link/network/lwm2m/wakaama_lwm2m/port\connection.c **** void connection_striger_server_initiated_bs(connection_t *sessionH)
 157:g:/iot/IoT_Device_Demo/iot_link/network/lwm2m/wakaama_lwm2m/port\connection.c **** {
 158:g:/iot/IoT_Device_Demo/iot_link/network/lwm2m/wakaama_lwm2m/port\connection.c ****     (void)sessionH;
 159:g:/iot/IoT_Device_Demo/iot_link/network/lwm2m/wakaama_lwm2m/port\connection.c ****     (void)lwm2m_cmd_ioctl(LWM2M_CMD_TRIGER_SERVER_INITIATED_BS, NULL, 0, LWM2M_AL_OP_SERVERREBS, UR
 160:g:/iot/IoT_Device_Demo/iot_link/network/lwm2m/wakaama_lwm2m/port\connection.c **** }
 161:g:/iot/IoT_Device_Demo/iot_link/network/lwm2m/wakaama_lwm2m/port\connection.c **** #endif
 162:g:/iot/IoT_Device_Demo/iot_link/network/lwm2m/wakaama_lwm2m/port\connection.c **** 
 163:g:/iot/IoT_Device_Demo/iot_link/network/lwm2m/wakaama_lwm2m/port\connection.c **** #ifdef WITH_DTLS
 164:g:/iot/IoT_Device_Demo/iot_link/network/lwm2m/wakaama_lwm2m/port\connection.c **** int connection_connect_dtls(connection_t *connP, security_instance_t *targetP, const char *host, co
 165:g:/iot/IoT_Device_Demo/iot_link/network/lwm2m/wakaama_lwm2m/port\connection.c **** {
 166:g:/iot/IoT_Device_Demo/iot_link/network/lwm2m/wakaama_lwm2m/port\connection.c ****     int ret;
 167:g:/iot/IoT_Device_Demo/iot_link/network/lwm2m/wakaama_lwm2m/port\connection.c ****     dtls_shakehand_info_s info;
 168:g:/iot/IoT_Device_Demo/iot_link/network/lwm2m/wakaama_lwm2m/port\connection.c ****     dtls_establish_info_s establish_info;
 169:g:/iot/IoT_Device_Demo/iot_link/network/lwm2m/wakaama_lwm2m/port\connection.c ****     establish_info.psk_or_cert = VERIFY_WITH_PSK;
 170:g:/iot/IoT_Device_Demo/iot_link/network/lwm2m/wakaama_lwm2m/port\connection.c ****     establish_info.udp_or_tcp = MBEDTLS_NET_PROTO_UDP;
 171:g:/iot/IoT_Device_Demo/iot_link/network/lwm2m/wakaama_lwm2m/port\connection.c ****     establish_info.v.p.psk = (const unsigned char *)targetP->secretKey;
 172:g:/iot/IoT_Device_Demo/iot_link/network/lwm2m/wakaama_lwm2m/port\connection.c ****     establish_info.v.p.psk_len = targetP->secretKeyLen;
 173:g:/iot/IoT_Device_Demo/iot_link/network/lwm2m/wakaama_lwm2m/port\connection.c ****     establish_info.v.p.psk_identity = (const unsigned char *)targetP->publicIdentity;
 174:g:/iot/IoT_Device_Demo/iot_link/network/lwm2m/wakaama_lwm2m/port\connection.c ****     connP->net_context = (void *)dtls_ssl_new(&establish_info, client_or_server);
 175:g:/iot/IoT_Device_Demo/iot_link/network/lwm2m/wakaama_lwm2m/port\connection.c **** 
 176:g:/iot/IoT_Device_Demo/iot_link/network/lwm2m/wakaama_lwm2m/port\connection.c ****     if (NULL == connP->net_context)
 177:g:/iot/IoT_Device_Demo/iot_link/network/lwm2m/wakaama_lwm2m/port\connection.c ****     {
 178:g:/iot/IoT_Device_Demo/iot_link/network/lwm2m/wakaama_lwm2m/port\connection.c ****         ATINY_LOG(LOG_INFO, "connP->ssl is NULL in connection_create");
 179:g:/iot/IoT_Device_Demo/iot_link/network/lwm2m/wakaama_lwm2m/port\connection.c ****         return COAP_500_INTERNAL_SERVER_ERROR;
 180:g:/iot/IoT_Device_Demo/iot_link/network/lwm2m/wakaama_lwm2m/port\connection.c ****     }
 181:g:/iot/IoT_Device_Demo/iot_link/network/lwm2m/wakaama_lwm2m/port\connection.c **** 
 182:g:/iot/IoT_Device_Demo/iot_link/network/lwm2m/wakaama_lwm2m/port\connection.c ****     (void) memset(&info, 0, sizeof(info));
 183:g:/iot/IoT_Device_Demo/iot_link/network/lwm2m/wakaama_lwm2m/port\connection.c ****     info.client_or_server = client_or_server;
 184:g:/iot/IoT_Device_Demo/iot_link/network/lwm2m/wakaama_lwm2m/port\connection.c ****     info.finish_notify = NULL;
 185:g:/iot/IoT_Device_Demo/iot_link/network/lwm2m/wakaama_lwm2m/port\connection.c ****     info.step_notify   = NULL;
 186:g:/iot/IoT_Device_Demo/iot_link/network/lwm2m/wakaama_lwm2m/port\connection.c ****     info.udp_or_tcp = MBEDTLS_NET_PROTO_UDP;
 187:g:/iot/IoT_Device_Demo/iot_link/network/lwm2m/wakaama_lwm2m/port\connection.c ****     info.psk_or_cert = VERIFY_WITH_PSK;
 188:g:/iot/IoT_Device_Demo/iot_link/network/lwm2m/wakaama_lwm2m/port\connection.c **** #ifdef LWM2M_BOOTSTRAP
 189:g:/iot/IoT_Device_Demo/iot_link/network/lwm2m/wakaama_lwm2m/port\connection.c ****     info.step_notify = (void(*)(void *))lwm2m_step_striger_server_initiated_bs;
 190:g:/iot/IoT_Device_Demo/iot_link/network/lwm2m/wakaama_lwm2m/port\connection.c ****     info.param = (void(*)(void *))connP;
 191:g:/iot/IoT_Device_Demo/iot_link/network/lwm2m/wakaama_lwm2m/port\connection.c **** #endif
 192:g:/iot/IoT_Device_Demo/iot_link/network/lwm2m/wakaama_lwm2m/port\connection.c **** 
 193:g:/iot/IoT_Device_Demo/iot_link/network/lwm2m/wakaama_lwm2m/port\connection.c ****     if (MBEDTLS_SSL_IS_CLIENT == client_or_server)
 194:g:/iot/IoT_Device_Demo/iot_link/network/lwm2m/wakaama_lwm2m/port\connection.c ****     {
 195:g:/iot/IoT_Device_Demo/iot_link/network/lwm2m/wakaama_lwm2m/port\connection.c ****         info.u.c.host = host;
 196:g:/iot/IoT_Device_Demo/iot_link/network/lwm2m/wakaama_lwm2m/port\connection.c ****         info.u.c.port = port;
 197:g:/iot/IoT_Device_Demo/iot_link/network/lwm2m/wakaama_lwm2m/port\connection.c ****         info.timeout = DTLS_UDP_CLIENT_SHAKEHAND_TIMEOUT;
 198:g:/iot/IoT_Device_Demo/iot_link/network/lwm2m/wakaama_lwm2m/port\connection.c ****     }
 199:g:/iot/IoT_Device_Demo/iot_link/network/lwm2m/wakaama_lwm2m/port\connection.c ****     else
 200:g:/iot/IoT_Device_Demo/iot_link/network/lwm2m/wakaama_lwm2m/port\connection.c ****     {
 201:g:/iot/IoT_Device_Demo/iot_link/network/lwm2m/wakaama_lwm2m/port\connection.c **** #ifdef LWM2M_BOOTSTRAP
 202:g:/iot/IoT_Device_Demo/iot_link/network/lwm2m/wakaama_lwm2m/port\connection.c ****         info.timeout = targetP->clientHoldOffTime;
 203:g:/iot/IoT_Device_Demo/iot_link/network/lwm2m/wakaama_lwm2m/port\connection.c ****         info.u.s.local_port = port;
 204:g:/iot/IoT_Device_Demo/iot_link/network/lwm2m/wakaama_lwm2m/port\connection.c ****         timer_init(&connP->server_triger_timer, LWM2M_TRIGER_SERVER_MODE_INITIATED_TIME, (void(*)(v
 205:g:/iot/IoT_Device_Demo/iot_link/network/lwm2m/wakaama_lwm2m/port\connection.c ****         timer_start(&connP->server_triger_timer);
 206:g:/iot/IoT_Device_Demo/iot_link/network/lwm2m/wakaama_lwm2m/port\connection.c **** #endif
 207:g:/iot/IoT_Device_Demo/iot_link/network/lwm2m/wakaama_lwm2m/port\connection.c ****     }
 208:g:/iot/IoT_Device_Demo/iot_link/network/lwm2m/wakaama_lwm2m/port\connection.c **** 
 209:g:/iot/IoT_Device_Demo/iot_link/network/lwm2m/wakaama_lwm2m/port\connection.c ****     ret = dtls_shakehand(connP->net_context, &info);
ARM GAS  C:\Users\ADMINI~1\AppData\Local\Temp\ccUFOrrb.s 			page 10


 210:g:/iot/IoT_Device_Demo/iot_link/network/lwm2m/wakaama_lwm2m/port\connection.c **** #ifdef LWM2M_BOOTSTRAP
 211:g:/iot/IoT_Device_Demo/iot_link/network/lwm2m/wakaama_lwm2m/port\connection.c ****     timer_stop(&connP->server_triger_timer);
 212:g:/iot/IoT_Device_Demo/iot_link/network/lwm2m/wakaama_lwm2m/port\connection.c **** #endif
 213:g:/iot/IoT_Device_Demo/iot_link/network/lwm2m/wakaama_lwm2m/port\connection.c **** 
 214:g:/iot/IoT_Device_Demo/iot_link/network/lwm2m/wakaama_lwm2m/port\connection.c ****     if (0 != ret)
 215:g:/iot/IoT_Device_Demo/iot_link/network/lwm2m/wakaama_lwm2m/port\connection.c ****     {
 216:g:/iot/IoT_Device_Demo/iot_link/network/lwm2m/wakaama_lwm2m/port\connection.c ****         ATINY_LOG(LOG_INFO, "ret is %d in connection_create", ret);
 217:g:/iot/IoT_Device_Demo/iot_link/network/lwm2m/wakaama_lwm2m/port\connection.c ****         dtls_ssl_destroy((mbedtls_ssl_context *)connP->net_context);
 218:g:/iot/IoT_Device_Demo/iot_link/network/lwm2m/wakaama_lwm2m/port\connection.c ****         connP->net_context = NULL;
 219:g:/iot/IoT_Device_Demo/iot_link/network/lwm2m/wakaama_lwm2m/port\connection.c ****         return COAP_500_INTERNAL_SERVER_ERROR;
 220:g:/iot/IoT_Device_Demo/iot_link/network/lwm2m/wakaama_lwm2m/port\connection.c ****     }
 221:g:/iot/IoT_Device_Demo/iot_link/network/lwm2m/wakaama_lwm2m/port\connection.c **** 
 222:g:/iot/IoT_Device_Demo/iot_link/network/lwm2m/wakaama_lwm2m/port\connection.c ****     connP->dtls_flag = true;
 223:g:/iot/IoT_Device_Demo/iot_link/network/lwm2m/wakaama_lwm2m/port\connection.c ****     return COAP_NO_ERROR;
 224:g:/iot/IoT_Device_Demo/iot_link/network/lwm2m/wakaama_lwm2m/port\connection.c **** }
 225:g:/iot/IoT_Device_Demo/iot_link/network/lwm2m/wakaama_lwm2m/port\connection.c **** 
 226:g:/iot/IoT_Device_Demo/iot_link/network/lwm2m/wakaama_lwm2m/port\connection.c **** #endif
 227:g:/iot/IoT_Device_Demo/iot_link/network/lwm2m/wakaama_lwm2m/port\connection.c **** 
 228:g:/iot/IoT_Device_Demo/iot_link/network/lwm2m/wakaama_lwm2m/port\connection.c **** 
 229:g:/iot/IoT_Device_Demo/iot_link/network/lwm2m/wakaama_lwm2m/port\connection.c **** typedef struct
 230:g:/iot/IoT_Device_Demo/iot_link/network/lwm2m/wakaama_lwm2m/port\connection.c **** {
 231:g:/iot/IoT_Device_Demo/iot_link/network/lwm2m/wakaama_lwm2m/port\connection.c ****     int fd;
 232:g:/iot/IoT_Device_Demo/iot_link/network/lwm2m/wakaama_lwm2m/port\connection.c **** } con_net_conext_t;
 233:g:/iot/IoT_Device_Demo/iot_link/network/lwm2m/wakaama_lwm2m/port\connection.c **** 
 234:g:/iot/IoT_Device_Demo/iot_link/network/lwm2m/wakaama_lwm2m/port\connection.c **** static void *__socket_connect(char *host, char *port, int is_server)
 235:g:/iot/IoT_Device_Demo/iot_link/network/lwm2m/wakaama_lwm2m/port\connection.c **** {
 307              		.loc 1 235 1
 308              		.cfi_startproc
 309              		@ args = 0, pretend = 0, frame = 48
 310              		@ frame_needed = 1, uses_anonymous_args = 0
 311 0000 90B5     		push	{r4, r7, lr}
 312              	.LCFI10:
 313              		.cfi_def_cfa_offset 12
 314              		.cfi_offset 4, -12
 315              		.cfi_offset 7, -8
 316              		.cfi_offset 14, -4
 317 0002 8DB0     		sub	sp, sp, #52
 318              	.LCFI11:
 319              		.cfi_def_cfa_offset 64
 320 0004 00AF     		add	r7, sp, #0
 321              	.LCFI12:
 322              		.cfi_def_cfa_register 7
 323 0006 F860     		str	r0, [r7, #12]
 324 0008 B960     		str	r1, [r7, #8]
 325 000a 7A60     		str	r2, [r7, #4]
 236:g:/iot/IoT_Device_Demo/iot_link/network/lwm2m/wakaama_lwm2m/port\connection.c ****     con_net_conext_t *ret =  NULL;
 326              		.loc 1 236 23
 327 000c 0023     		movs	r3, #0
 328 000e FB62     		str	r3, [r7, #44]
 237:g:/iot/IoT_Device_Demo/iot_link/network/lwm2m/wakaama_lwm2m/port\connection.c ****     int fd = -1;
 329              		.loc 1 237 9
 330 0010 4FF0FF33 		mov	r3, #-1
 331 0014 BB62     		str	r3, [r7, #40]
 238:g:/iot/IoT_Device_Demo/iot_link/network/lwm2m/wakaama_lwm2m/port\connection.c ****     struct sockaddr_in addr;
 239:g:/iot/IoT_Device_Demo/iot_link/network/lwm2m/wakaama_lwm2m/port\connection.c ****     struct hostent *entry = NULL;
 332              		.loc 1 239 21
 333 0016 0023     		movs	r3, #0
ARM GAS  C:\Users\ADMINI~1\AppData\Local\Temp\ccUFOrrb.s 			page 11


 334 0018 7B62     		str	r3, [r7, #36]
 240:g:/iot/IoT_Device_Demo/iot_link/network/lwm2m/wakaama_lwm2m/port\connection.c ****     entry = sal_gethostbyname(host);
 335              		.loc 1 240 13
 336 001a F868     		ldr	r0, [r7, #12]
 337 001c FFF7FEFF 		bl	sal_gethostbyname
 338 0020 7862     		str	r0, [r7, #36]
 241:g:/iot/IoT_Device_Demo/iot_link/network/lwm2m/wakaama_lwm2m/port\connection.c **** 
 242:g:/iot/IoT_Device_Demo/iot_link/network/lwm2m/wakaama_lwm2m/port\connection.c ****     if (!(entry && entry->h_addr_list[0] && (AF_INET == entry->h_addrtype)))
 339              		.loc 1 242 8
 340 0022 7B6A     		ldr	r3, [r7, #36]
 341 0024 002B     		cmp	r3, #0
 342 0026 67D0     		beq	.L32
 343              		.loc 1 242 25 discriminator 1
 344 0028 7B6A     		ldr	r3, [r7, #36]
 345 002a 1B69     		ldr	r3, [r3, #16]
 346              		.loc 1 242 38 discriminator 1
 347 002c 1B68     		ldr	r3, [r3]
 348              		.loc 1 242 17 discriminator 1
 349 002e 002B     		cmp	r3, #0
 350 0030 62D0     		beq	.L32
 351              		.loc 1 242 62 discriminator 2
 352 0032 7B6A     		ldr	r3, [r7, #36]
 353 0034 9B68     		ldr	r3, [r3, #8]
 354              		.loc 1 242 9 discriminator 2
 355 0036 022B     		cmp	r3, #2
 356 0038 5ED1     		bne	.L32
 243:g:/iot/IoT_Device_Demo/iot_link/network/lwm2m/wakaama_lwm2m/port\connection.c ****     {
 244:g:/iot/IoT_Device_Demo/iot_link/network/lwm2m/wakaama_lwm2m/port\connection.c ****         goto EXIT_GETIP;
 245:g:/iot/IoT_Device_Demo/iot_link/network/lwm2m/wakaama_lwm2m/port\connection.c ****     }
 246:g:/iot/IoT_Device_Demo/iot_link/network/lwm2m/wakaama_lwm2m/port\connection.c **** 
 247:g:/iot/IoT_Device_Demo/iot_link/network/lwm2m/wakaama_lwm2m/port\connection.c ****     ret = osal_malloc(sizeof(con_net_conext_t));
 357              		.loc 1 247 11
 358 003a 0420     		movs	r0, #4
 359 003c FFF7FEFF 		bl	osal_malloc
 360 0040 F862     		str	r0, [r7, #44]
 248:g:/iot/IoT_Device_Demo/iot_link/network/lwm2m/wakaama_lwm2m/port\connection.c **** 
 249:g:/iot/IoT_Device_Demo/iot_link/network/lwm2m/wakaama_lwm2m/port\connection.c ****     if (NULL == ret)
 361              		.loc 1 249 8
 362 0042 FB6A     		ldr	r3, [r7, #44]
 363 0044 002B     		cmp	r3, #0
 364 0046 59D0     		beq	.L33
 250:g:/iot/IoT_Device_Demo/iot_link/network/lwm2m/wakaama_lwm2m/port\connection.c ****     {
 251:g:/iot/IoT_Device_Demo/iot_link/network/lwm2m/wakaama_lwm2m/port\connection.c ****         goto EXIT_MEM;
 252:g:/iot/IoT_Device_Demo/iot_link/network/lwm2m/wakaama_lwm2m/port\connection.c ****     }
 253:g:/iot/IoT_Device_Demo/iot_link/network/lwm2m/wakaama_lwm2m/port\connection.c **** 
 254:g:/iot/IoT_Device_Demo/iot_link/network/lwm2m/wakaama_lwm2m/port\connection.c ****     fd = sal_socket(AF_INET, SOCK_DGRAM, 0);
 365              		.loc 1 254 10
 366 0048 0022     		movs	r2, #0
 367 004a 0221     		movs	r1, #2
 368 004c 0220     		movs	r0, #2
 369 004e FFF7FEFF 		bl	sal_socket
 370 0052 B862     		str	r0, [r7, #40]
 255:g:/iot/IoT_Device_Demo/iot_link/network/lwm2m/wakaama_lwm2m/port\connection.c **** 
 256:g:/iot/IoT_Device_Demo/iot_link/network/lwm2m/wakaama_lwm2m/port\connection.c ****     if (-1 == fd)
 371              		.loc 1 256 8
 372 0054 BB6A     		ldr	r3, [r7, #40]
 373 0056 B3F1FF3F 		cmp	r3, #-1
ARM GAS  C:\Users\ADMINI~1\AppData\Local\Temp\ccUFOrrb.s 			page 12


 374 005a 46D0     		beq	.L34
 257:g:/iot/IoT_Device_Demo/iot_link/network/lwm2m/wakaama_lwm2m/port\connection.c ****     {
 258:g:/iot/IoT_Device_Demo/iot_link/network/lwm2m/wakaama_lwm2m/port\connection.c ****         goto EXIT_SOCKET;
 259:g:/iot/IoT_Device_Demo/iot_link/network/lwm2m/wakaama_lwm2m/port\connection.c ****     }
 260:g:/iot/IoT_Device_Demo/iot_link/network/lwm2m/wakaama_lwm2m/port\connection.c **** 
 261:g:/iot/IoT_Device_Demo/iot_link/network/lwm2m/wakaama_lwm2m/port\connection.c ****     (void) memset(&addr, 0, sizeof(addr));
 375              		.loc 1 261 12
 376 005c 07F11403 		add	r3, r7, #20
 377 0060 1022     		movs	r2, #16
 378 0062 0021     		movs	r1, #0
 379 0064 1846     		mov	r0, r3
 380 0066 FFF7FEFF 		bl	memset
 262:g:/iot/IoT_Device_Demo/iot_link/network/lwm2m/wakaama_lwm2m/port\connection.c ****     addr.sin_family = AF_INET;
 381              		.loc 1 262 21
 382 006a 0223     		movs	r3, #2
 383 006c BB82     		strh	r3, [r7, #20]	@ movhi
 263:g:/iot/IoT_Device_Demo/iot_link/network/lwm2m/wakaama_lwm2m/port\connection.c ****     (void) memcpy(&addr.sin_addr.s_addr, entry->h_addr_list[0], sizeof(addr.sin_addr.s_addr));
 384              		.loc 1 263 47
 385 006e 7B6A     		ldr	r3, [r7, #36]
 386 0070 1B69     		ldr	r3, [r3, #16]
 387              		.loc 1 263 12
 388 0072 1B68     		ldr	r3, [r3]
 389 0074 1B68     		ldr	r3, [r3]	@ unaligned
 390 0076 BB61     		str	r3, [r7, #24]
 264:g:/iot/IoT_Device_Demo/iot_link/network/lwm2m/wakaama_lwm2m/port\connection.c ****     addr.sin_port = htons(atoi(port));
 391              		.loc 1 264 21
 392 0078 B868     		ldr	r0, [r7, #8]
 393 007a FFF7FEFF 		bl	atoi
 394 007e 0346     		mov	r3, r0
 395 0080 1B12     		asrs	r3, r3, #8
 396 0082 1BB2     		sxth	r3, r3
 397 0084 DBB2     		uxtb	r3, r3
 398 0086 1CB2     		sxth	r4, r3
 399 0088 B868     		ldr	r0, [r7, #8]
 400 008a FFF7FEFF 		bl	atoi
 401 008e 0346     		mov	r3, r0
 402 0090 1B02     		lsls	r3, r3, #8
 403 0092 1BB2     		sxth	r3, r3
 404 0094 23F0FF03 		bic	r3, r3, #255
 405 0098 1BB2     		sxth	r3, r3
 406 009a 2343     		orrs	r3, r3, r4
 407 009c 1BB2     		sxth	r3, r3
 408 009e 9BB2     		uxth	r3, r3
 409              		.loc 1 264 19
 410 00a0 FB82     		strh	r3, [r7, #22]	@ movhi
 265:g:/iot/IoT_Device_Demo/iot_link/network/lwm2m/wakaama_lwm2m/port\connection.c **** 
 266:g:/iot/IoT_Device_Demo/iot_link/network/lwm2m/wakaama_lwm2m/port\connection.c ****     if (is_server)
 411              		.loc 1 266 8
 412 00a2 7B68     		ldr	r3, [r7, #4]
 413 00a4 002B     		cmp	r3, #0
 414 00a6 0BD0     		beq	.L25
 267:g:/iot/IoT_Device_Demo/iot_link/network/lwm2m/wakaama_lwm2m/port\connection.c ****     {
 268:g:/iot/IoT_Device_Demo/iot_link/network/lwm2m/wakaama_lwm2m/port\connection.c ****         if (-1 == sal_bind(fd, (struct sockaddr *)&addr, sizeof(addr)))
 415              		.loc 1 268 19
 416 00a8 07F11403 		add	r3, r7, #20
 417 00ac 1022     		movs	r2, #16
 418 00ae 1946     		mov	r1, r3
ARM GAS  C:\Users\ADMINI~1\AppData\Local\Temp\ccUFOrrb.s 			page 13


 419 00b0 B86A     		ldr	r0, [r7, #40]
 420 00b2 FFF7FEFF 		bl	sal_bind
 421 00b6 0346     		mov	r3, r0
 422              		.loc 1 268 12
 423 00b8 B3F1FF3F 		cmp	r3, #-1
 424 00bc 0BD1     		bne	.L26
 269:g:/iot/IoT_Device_Demo/iot_link/network/lwm2m/wakaama_lwm2m/port\connection.c ****         {
 270:g:/iot/IoT_Device_Demo/iot_link/network/lwm2m/wakaama_lwm2m/port\connection.c ****             goto EXIT_BIND;
 425              		.loc 1 270 13
 426 00be 10E0     		b	.L29
 427              	.L25:
 271:g:/iot/IoT_Device_Demo/iot_link/network/lwm2m/wakaama_lwm2m/port\connection.c ****         }
 272:g:/iot/IoT_Device_Demo/iot_link/network/lwm2m/wakaama_lwm2m/port\connection.c ****     }
 273:g:/iot/IoT_Device_Demo/iot_link/network/lwm2m/wakaama_lwm2m/port\connection.c ****     else
 274:g:/iot/IoT_Device_Demo/iot_link/network/lwm2m/wakaama_lwm2m/port\connection.c ****     {
 275:g:/iot/IoT_Device_Demo/iot_link/network/lwm2m/wakaama_lwm2m/port\connection.c ****         if (-1 == sal_connect(fd, (struct sockaddr *)&addr, sizeof(addr)))
 428              		.loc 1 275 19
 429 00c0 07F11403 		add	r3, r7, #20
 430 00c4 1022     		movs	r2, #16
 431 00c6 1946     		mov	r1, r3
 432 00c8 B86A     		ldr	r0, [r7, #40]
 433 00ca FFF7FEFF 		bl	sal_connect
 434 00ce 0346     		mov	r3, r0
 435              		.loc 1 275 12
 436 00d0 B3F1FF3F 		cmp	r3, #-1
 437 00d4 04D0     		beq	.L35
 438              	.L26:
 276:g:/iot/IoT_Device_Demo/iot_link/network/lwm2m/wakaama_lwm2m/port\connection.c ****         {
 277:g:/iot/IoT_Device_Demo/iot_link/network/lwm2m/wakaama_lwm2m/port\connection.c ****             goto EXIT_CONNECT;
 278:g:/iot/IoT_Device_Demo/iot_link/network/lwm2m/wakaama_lwm2m/port\connection.c ****         }
 279:g:/iot/IoT_Device_Demo/iot_link/network/lwm2m/wakaama_lwm2m/port\connection.c ****     }
 280:g:/iot/IoT_Device_Demo/iot_link/network/lwm2m/wakaama_lwm2m/port\connection.c **** 
 281:g:/iot/IoT_Device_Demo/iot_link/network/lwm2m/wakaama_lwm2m/port\connection.c ****     ret->fd = fd;
 439              		.loc 1 281 13
 440 00d6 FB6A     		ldr	r3, [r7, #44]
 441 00d8 BA6A     		ldr	r2, [r7, #40]
 442 00da 1A60     		str	r2, [r3]
 282:g:/iot/IoT_Device_Demo/iot_link/network/lwm2m/wakaama_lwm2m/port\connection.c ****     return ret;
 443              		.loc 1 282 12
 444 00dc FB6A     		ldr	r3, [r7, #44]
 445 00de 0FE0     		b	.L31
 446              	.L27:
 447              	.L35:
 277:g:/iot/IoT_Device_Demo/iot_link/network/lwm2m/wakaama_lwm2m/port\connection.c ****         }
 448              		.loc 1 277 13
 449 00e0 00BF     		nop
 450              	.L29:
 283:g:/iot/IoT_Device_Demo/iot_link/network/lwm2m/wakaama_lwm2m/port\connection.c **** EXIT_CONNECT:
 284:g:/iot/IoT_Device_Demo/iot_link/network/lwm2m/wakaama_lwm2m/port\connection.c **** EXIT_BIND:
 285:g:/iot/IoT_Device_Demo/iot_link/network/lwm2m/wakaama_lwm2m/port\connection.c ****     (void)sal_closesocket(fd);
 451              		.loc 1 285 11
 452 00e2 B86A     		ldr	r0, [r7, #40]
 453 00e4 FFF7FEFF 		bl	sal_closesocket
 454 00e8 00E0     		b	.L24
 455              	.L34:
 258:g:/iot/IoT_Device_Demo/iot_link/network/lwm2m/wakaama_lwm2m/port\connection.c ****     }
 456              		.loc 1 258 9
ARM GAS  C:\Users\ADMINI~1\AppData\Local\Temp\ccUFOrrb.s 			page 14


 457 00ea 00BF     		nop
 458              	.L24:
 286:g:/iot/IoT_Device_Demo/iot_link/network/lwm2m/wakaama_lwm2m/port\connection.c **** EXIT_SOCKET:
 287:g:/iot/IoT_Device_Demo/iot_link/network/lwm2m/wakaama_lwm2m/port\connection.c ****     osal_free(ret);
 459              		.loc 1 287 5
 460 00ec F86A     		ldr	r0, [r7, #44]
 461 00ee FFF7FEFF 		bl	osal_free
 288:g:/iot/IoT_Device_Demo/iot_link/network/lwm2m/wakaama_lwm2m/port\connection.c ****     ret = NULL;
 462              		.loc 1 288 9
 463 00f2 0023     		movs	r3, #0
 464 00f4 FB62     		str	r3, [r7, #44]
 465 00f6 02E0     		b	.L30
 466              	.L21:
 467              	.L32:
 244:g:/iot/IoT_Device_Demo/iot_link/network/lwm2m/wakaama_lwm2m/port\connection.c ****     }
 468              		.loc 1 244 9
 469 00f8 00BF     		nop
 470 00fa 00E0     		b	.L30
 471              	.L33:
 251:g:/iot/IoT_Device_Demo/iot_link/network/lwm2m/wakaama_lwm2m/port\connection.c ****     }
 472              		.loc 1 251 9
 473 00fc 00BF     		nop
 474              	.L30:
 289:g:/iot/IoT_Device_Demo/iot_link/network/lwm2m/wakaama_lwm2m/port\connection.c **** EXIT_MEM:
 290:g:/iot/IoT_Device_Demo/iot_link/network/lwm2m/wakaama_lwm2m/port\connection.c **** EXIT_GETIP:
 291:g:/iot/IoT_Device_Demo/iot_link/network/lwm2m/wakaama_lwm2m/port\connection.c ****     return ret;
 475              		.loc 1 291 12
 476 00fe FB6A     		ldr	r3, [r7, #44]
 477              	.L31:
 292:g:/iot/IoT_Device_Demo/iot_link/network/lwm2m/wakaama_lwm2m/port\connection.c **** }
 478              		.loc 1 292 1 discriminator 1
 479 0100 1846     		mov	r0, r3
 480 0102 3437     		adds	r7, r7, #52
 481              	.LCFI13:
 482              		.cfi_def_cfa_offset 12
 483 0104 BD46     		mov	sp, r7
 484              	.LCFI14:
 485              		.cfi_def_cfa_register 13
 486              		@ sp needed
 487 0106 90BD     		pop	{r4, r7, pc}
 488              		.cfi_endproc
 489              	.LFE14:
 491              		.section	.text.__socket_free,"ax",%progbits
 492              		.align	1
 493              		.syntax unified
 494              		.thumb
 495              		.thumb_func
 496              		.fpu fpv4-sp-d16
 498              	__socket_free:
 499              	.LFB15:
 293:g:/iot/IoT_Device_Demo/iot_link/network/lwm2m/wakaama_lwm2m/port\connection.c **** 
 294:g:/iot/IoT_Device_Demo/iot_link/network/lwm2m/wakaama_lwm2m/port\connection.c **** static void __socket_free(con_net_conext_t  *context)
 295:g:/iot/IoT_Device_Demo/iot_link/network/lwm2m/wakaama_lwm2m/port\connection.c **** {
 500              		.loc 1 295 1
 501              		.cfi_startproc
 502              		@ args = 0, pretend = 0, frame = 8
 503              		@ frame_needed = 1, uses_anonymous_args = 0
ARM GAS  C:\Users\ADMINI~1\AppData\Local\Temp\ccUFOrrb.s 			page 15


 504 0000 80B5     		push	{r7, lr}
 505              	.LCFI15:
 506              		.cfi_def_cfa_offset 8
 507              		.cfi_offset 7, -8
 508              		.cfi_offset 14, -4
 509 0002 82B0     		sub	sp, sp, #8
 510              	.LCFI16:
 511              		.cfi_def_cfa_offset 16
 512 0004 00AF     		add	r7, sp, #0
 513              	.LCFI17:
 514              		.cfi_def_cfa_register 7
 515 0006 7860     		str	r0, [r7, #4]
 296:g:/iot/IoT_Device_Demo/iot_link/network/lwm2m/wakaama_lwm2m/port\connection.c ****     if (NULL != context)
 516              		.loc 1 296 8
 517 0008 7B68     		ldr	r3, [r7, #4]
 518 000a 002B     		cmp	r3, #0
 519 000c 07D0     		beq	.L38
 297:g:/iot/IoT_Device_Demo/iot_link/network/lwm2m/wakaama_lwm2m/port\connection.c ****     {
 298:g:/iot/IoT_Device_Demo/iot_link/network/lwm2m/wakaama_lwm2m/port\connection.c ****         (void)sal_closesocket(context->fd);
 520              		.loc 1 298 15
 521 000e 7B68     		ldr	r3, [r7, #4]
 522 0010 1B68     		ldr	r3, [r3]
 523 0012 1846     		mov	r0, r3
 524 0014 FFF7FEFF 		bl	sal_closesocket
 299:g:/iot/IoT_Device_Demo/iot_link/network/lwm2m/wakaama_lwm2m/port\connection.c ****         osal_free(context);
 525              		.loc 1 299 9
 526 0018 7868     		ldr	r0, [r7, #4]
 527 001a FFF7FEFF 		bl	osal_free
 528              	.L38:
 300:g:/iot/IoT_Device_Demo/iot_link/network/lwm2m/wakaama_lwm2m/port\connection.c ****     }
 301:g:/iot/IoT_Device_Demo/iot_link/network/lwm2m/wakaama_lwm2m/port\connection.c **** }
 529              		.loc 1 301 1
 530 001e 00BF     		nop
 531 0020 0837     		adds	r7, r7, #8
 532              	.LCFI18:
 533              		.cfi_def_cfa_offset 8
 534 0022 BD46     		mov	sp, r7
 535              	.LCFI19:
 536              		.cfi_def_cfa_register 13
 537              		@ sp needed
 538 0024 80BD     		pop	{r7, pc}
 539              		.cfi_endproc
 540              	.LFE15:
 542              		.section	.text.__socket_recv_timeout,"ax",%progbits
 543              		.align	1
 544              		.syntax unified
 545              		.thumb
 546              		.thumb_func
 547              		.fpu fpv4-sp-d16
 549              	__socket_recv_timeout:
 550              	.LFB16:
 302:g:/iot/IoT_Device_Demo/iot_link/network/lwm2m/wakaama_lwm2m/port\connection.c **** #include <time.h>
 303:g:/iot/IoT_Device_Demo/iot_link/network/lwm2m/wakaama_lwm2m/port\connection.c **** 
 304:g:/iot/IoT_Device_Demo/iot_link/network/lwm2m/wakaama_lwm2m/port\connection.c **** static int __socket_recv_timeout(con_net_conext_t *ctx, unsigned char *buf, size_t len, int timeout
 305:g:/iot/IoT_Device_Demo/iot_link/network/lwm2m/wakaama_lwm2m/port\connection.c **** {
 551              		.loc 1 305 1
 552              		.cfi_startproc
ARM GAS  C:\Users\ADMINI~1\AppData\Local\Temp\ccUFOrrb.s 			page 16


 553              		@ args = 0, pretend = 0, frame = 40
 554              		@ frame_needed = 1, uses_anonymous_args = 0
 555 0000 80B5     		push	{r7, lr}
 556              	.LCFI20:
 557              		.cfi_def_cfa_offset 8
 558              		.cfi_offset 7, -8
 559              		.cfi_offset 14, -4
 560 0002 8CB0     		sub	sp, sp, #48
 561              	.LCFI21:
 562              		.cfi_def_cfa_offset 56
 563 0004 02AF     		add	r7, sp, #8
 564              	.LCFI22:
 565              		.cfi_def_cfa 7, 48
 566 0006 F860     		str	r0, [r7, #12]
 567 0008 B960     		str	r1, [r7, #8]
 568 000a 7A60     		str	r2, [r7, #4]
 569 000c 3B60     		str	r3, [r7]
 306:g:/iot/IoT_Device_Demo/iot_link/network/lwm2m/wakaama_lwm2m/port\connection.c ****     int fd;
 307:g:/iot/IoT_Device_Demo/iot_link/network/lwm2m/wakaama_lwm2m/port\connection.c ****     int ret = -1;
 570              		.loc 1 307 9
 571 000e 4FF0FF33 		mov	r3, #-1
 572 0012 7B62     		str	r3, [r7, #36]
 308:g:/iot/IoT_Device_Demo/iot_link/network/lwm2m/wakaama_lwm2m/port\connection.c ****     struct timeval timedelay;
 309:g:/iot/IoT_Device_Demo/iot_link/network/lwm2m/wakaama_lwm2m/port\connection.c **** 
 310:g:/iot/IoT_Device_Demo/iot_link/network/lwm2m/wakaama_lwm2m/port\connection.c ****     if (NULL == ctx)
 573              		.loc 1 310 8
 574 0014 FB68     		ldr	r3, [r7, #12]
 575 0016 002B     		cmp	r3, #0
 576 0018 01D1     		bne	.L40
 311:g:/iot/IoT_Device_Demo/iot_link/network/lwm2m/wakaama_lwm2m/port\connection.c ****     {
 312:g:/iot/IoT_Device_Demo/iot_link/network/lwm2m/wakaama_lwm2m/port\connection.c ****         return ret;
 577              		.loc 1 312 16
 578 001a 7B6A     		ldr	r3, [r7, #36]
 579 001c 37E0     		b	.L43
 580              	.L40:
 313:g:/iot/IoT_Device_Demo/iot_link/network/lwm2m/wakaama_lwm2m/port\connection.c ****     }
 314:g:/iot/IoT_Device_Demo/iot_link/network/lwm2m/wakaama_lwm2m/port\connection.c **** 
 315:g:/iot/IoT_Device_Demo/iot_link/network/lwm2m/wakaama_lwm2m/port\connection.c ****     fd = ctx->fd;
 581              		.loc 1 315 8
 582 001e FB68     		ldr	r3, [r7, #12]
 583 0020 1B68     		ldr	r3, [r3]
 584 0022 3B62     		str	r3, [r7, #32]
 316:g:/iot/IoT_Device_Demo/iot_link/network/lwm2m/wakaama_lwm2m/port\connection.c ****     timedelay.tv_sec = timeout / 1000;
 585              		.loc 1 316 32
 586 0024 3B68     		ldr	r3, [r7]
 587 0026 1C4A     		ldr	r2, .L44
 588 0028 82FB0312 		smull	r1, r2, r2, r3
 589 002c 9211     		asrs	r2, r2, #6
 590 002e DB17     		asrs	r3, r3, #31
 591 0030 D31A     		subs	r3, r2, r3
 592 0032 1A46     		mov	r2, r3
 593 0034 4FEAE273 		asr	r3, r2, #31
 594              		.loc 1 316 22
 595 0038 C7E90423 		strd	r2, [r7, #16]
 317:g:/iot/IoT_Device_Demo/iot_link/network/lwm2m/wakaama_lwm2m/port\connection.c ****     timedelay.tv_usec = (timeout % 1000) * 1000;
 596              		.loc 1 317 34
 597 003c 3A68     		ldr	r2, [r7]
ARM GAS  C:\Users\ADMINI~1\AppData\Local\Temp\ccUFOrrb.s 			page 17


 598 003e 164B     		ldr	r3, .L44
 599 0040 83FB0213 		smull	r1, r3, r3, r2
 600 0044 9911     		asrs	r1, r3, #6
 601 0046 D317     		asrs	r3, r2, #31
 602 0048 CB1A     		subs	r3, r1, r3
 603 004a 4FF47A71 		mov	r1, #1000
 604 004e 01FB03F3 		mul	r3, r1, r3
 605 0052 D31A     		subs	r3, r2, r3
 606              		.loc 1 317 42
 607 0054 4FF47A72 		mov	r2, #1000
 608 0058 02FB03F3 		mul	r3, r2, r3
 609              		.loc 1 317 23
 610 005c BB61     		str	r3, [r7, #24]
 318:g:/iot/IoT_Device_Demo/iot_link/network/lwm2m/wakaama_lwm2m/port\connection.c **** 
 319:g:/iot/IoT_Device_Demo/iot_link/network/lwm2m/wakaama_lwm2m/port\connection.c ****     ///< set the recv timeout
 320:g:/iot/IoT_Device_Demo/iot_link/network/lwm2m/wakaama_lwm2m/port\connection.c ****     if (0 != sal_setsockopt(fd, SOL_SOCKET, SO_RCVTIMEO, &timedelay, sizeof(timedelay)))
 611              		.loc 1 320 14
 612 005e 07F11003 		add	r3, r7, #16
 613 0062 1022     		movs	r2, #16
 614 0064 0092     		str	r2, [sp]
 615 0066 41F20602 		movw	r2, #4102
 616 006a 4FF6FF71 		movw	r1, #65535
 617 006e 386A     		ldr	r0, [r7, #32]
 618 0070 FFF7FEFF 		bl	sal_setsockopt
 619 0074 0346     		mov	r3, r0
 620              		.loc 1 320 8
 621 0076 002B     		cmp	r3, #0
 622 0078 01D0     		beq	.L42
 321:g:/iot/IoT_Device_Demo/iot_link/network/lwm2m/wakaama_lwm2m/port\connection.c ****     {
 322:g:/iot/IoT_Device_Demo/iot_link/network/lwm2m/wakaama_lwm2m/port\connection.c ****         return ret;  //could not support the rcv timeout
 623              		.loc 1 322 16
 624 007a 7B6A     		ldr	r3, [r7, #36]
 625 007c 07E0     		b	.L43
 626              	.L42:
 323:g:/iot/IoT_Device_Demo/iot_link/network/lwm2m/wakaama_lwm2m/port\connection.c ****     }
 324:g:/iot/IoT_Device_Demo/iot_link/network/lwm2m/wakaama_lwm2m/port\connection.c **** 
 325:g:/iot/IoT_Device_Demo/iot_link/network/lwm2m/wakaama_lwm2m/port\connection.c ****     ret = sal_recv(fd, buf, len, 0);
 627              		.loc 1 325 11
 628 007e 0023     		movs	r3, #0
 629 0080 7A68     		ldr	r2, [r7, #4]
 630 0082 B968     		ldr	r1, [r7, #8]
 631 0084 386A     		ldr	r0, [r7, #32]
 632 0086 FFF7FEFF 		bl	sal_recv
 633 008a 7862     		str	r0, [r7, #36]
 326:g:/iot/IoT_Device_Demo/iot_link/network/lwm2m/wakaama_lwm2m/port\connection.c ****     return ret;
 634              		.loc 1 326 12
 635 008c 7B6A     		ldr	r3, [r7, #36]
 636              	.L43:
 327:g:/iot/IoT_Device_Demo/iot_link/network/lwm2m/wakaama_lwm2m/port\connection.c **** }
 637              		.loc 1 327 1 discriminator 1
 638 008e 1846     		mov	r0, r3
 639 0090 2837     		adds	r7, r7, #40
 640              	.LCFI23:
 641              		.cfi_def_cfa_offset 8
 642 0092 BD46     		mov	sp, r7
 643              	.LCFI24:
 644              		.cfi_def_cfa_register 13
ARM GAS  C:\Users\ADMINI~1\AppData\Local\Temp\ccUFOrrb.s 			page 18


 645              		@ sp needed
 646 0094 80BD     		pop	{r7, pc}
 647              	.L45:
 648 0096 00BF     		.align	2
 649              	.L44:
 650 0098 D34D6210 		.word	274877907
 651              		.cfi_endproc
 652              	.LFE16:
 654              		.section	.text.__socket_send,"ax",%progbits
 655              		.align	1
 656              		.syntax unified
 657              		.thumb
 658              		.thumb_func
 659              		.fpu fpv4-sp-d16
 661              	__socket_send:
 662              	.LFB17:
 328:g:/iot/IoT_Device_Demo/iot_link/network/lwm2m/wakaama_lwm2m/port\connection.c **** 
 329:g:/iot/IoT_Device_Demo/iot_link/network/lwm2m/wakaama_lwm2m/port\connection.c **** static int __socket_send(con_net_conext_t *ctx, const unsigned char *buf, size_t len)
 330:g:/iot/IoT_Device_Demo/iot_link/network/lwm2m/wakaama_lwm2m/port\connection.c **** {
 663              		.loc 1 330 1
 664              		.cfi_startproc
 665              		@ args = 0, pretend = 0, frame = 24
 666              		@ frame_needed = 1, uses_anonymous_args = 0
 667 0000 80B5     		push	{r7, lr}
 668              	.LCFI25:
 669              		.cfi_def_cfa_offset 8
 670              		.cfi_offset 7, -8
 671              		.cfi_offset 14, -4
 672 0002 86B0     		sub	sp, sp, #24
 673              	.LCFI26:
 674              		.cfi_def_cfa_offset 32
 675 0004 00AF     		add	r7, sp, #0
 676              	.LCFI27:
 677              		.cfi_def_cfa_register 7
 678 0006 F860     		str	r0, [r7, #12]
 679 0008 B960     		str	r1, [r7, #8]
 680 000a 7A60     		str	r2, [r7, #4]
 331:g:/iot/IoT_Device_Demo/iot_link/network/lwm2m/wakaama_lwm2m/port\connection.c ****     int fd;
 332:g:/iot/IoT_Device_Demo/iot_link/network/lwm2m/wakaama_lwm2m/port\connection.c ****     int ret = -1;
 681              		.loc 1 332 9
 682 000c 4FF0FF33 		mov	r3, #-1
 683 0010 7B61     		str	r3, [r7, #20]
 333:g:/iot/IoT_Device_Demo/iot_link/network/lwm2m/wakaama_lwm2m/port\connection.c **** 
 334:g:/iot/IoT_Device_Demo/iot_link/network/lwm2m/wakaama_lwm2m/port\connection.c ****     if (NULL == ctx)
 684              		.loc 1 334 8
 685 0012 FB68     		ldr	r3, [r7, #12]
 686 0014 002B     		cmp	r3, #0
 687 0016 01D1     		bne	.L47
 335:g:/iot/IoT_Device_Demo/iot_link/network/lwm2m/wakaama_lwm2m/port\connection.c ****     {
 336:g:/iot/IoT_Device_Demo/iot_link/network/lwm2m/wakaama_lwm2m/port\connection.c ****         return ret;
 688              		.loc 1 336 16
 689 0018 7B69     		ldr	r3, [r7, #20]
 690 001a 0AE0     		b	.L48
 691              	.L47:
 337:g:/iot/IoT_Device_Demo/iot_link/network/lwm2m/wakaama_lwm2m/port\connection.c ****     }
 338:g:/iot/IoT_Device_Demo/iot_link/network/lwm2m/wakaama_lwm2m/port\connection.c **** 
 339:g:/iot/IoT_Device_Demo/iot_link/network/lwm2m/wakaama_lwm2m/port\connection.c ****     fd = ctx->fd;
ARM GAS  C:\Users\ADMINI~1\AppData\Local\Temp\ccUFOrrb.s 			page 19


 692              		.loc 1 339 8
 693 001c FB68     		ldr	r3, [r7, #12]
 694 001e 1B68     		ldr	r3, [r3]
 695 0020 3B61     		str	r3, [r7, #16]
 340:g:/iot/IoT_Device_Demo/iot_link/network/lwm2m/wakaama_lwm2m/port\connection.c ****     ret = sal_send(fd, buf, len, 0);
 696              		.loc 1 340 11
 697 0022 0023     		movs	r3, #0
 698 0024 7A68     		ldr	r2, [r7, #4]
 699 0026 B968     		ldr	r1, [r7, #8]
 700 0028 3869     		ldr	r0, [r7, #16]
 701 002a FFF7FEFF 		bl	sal_send
 702 002e 7861     		str	r0, [r7, #20]
 341:g:/iot/IoT_Device_Demo/iot_link/network/lwm2m/wakaama_lwm2m/port\connection.c ****     return ret;
 703              		.loc 1 341 12
 704 0030 7B69     		ldr	r3, [r7, #20]
 705              	.L48:
 342:g:/iot/IoT_Device_Demo/iot_link/network/lwm2m/wakaama_lwm2m/port\connection.c **** }
 706              		.loc 1 342 1
 707 0032 1846     		mov	r0, r3
 708 0034 1837     		adds	r7, r7, #24
 709              	.LCFI28:
 710              		.cfi_def_cfa_offset 8
 711 0036 BD46     		mov	sp, r7
 712              	.LCFI29:
 713              		.cfi_def_cfa_register 13
 714              		@ sp needed
 715 0038 80BD     		pop	{r7, pc}
 716              		.cfi_endproc
 717              	.LFE17:
 719              		.section	.text.connection_create,"ax",%progbits
 720              		.align	1
 721              		.global	connection_create
 722              		.syntax unified
 723              		.thumb
 724              		.thumb_func
 725              		.fpu fpv4-sp-d16
 727              	connection_create:
 728              	.LFB18:
 343:g:/iot/IoT_Device_Demo/iot_link/network/lwm2m/wakaama_lwm2m/port\connection.c **** 
 344:g:/iot/IoT_Device_Demo/iot_link/network/lwm2m/wakaama_lwm2m/port\connection.c **** 
 345:g:/iot/IoT_Device_Demo/iot_link/network/lwm2m/wakaama_lwm2m/port\connection.c **** connection_t *connection_create(connection_t *connList,
 346:g:/iot/IoT_Device_Demo/iot_link/network/lwm2m/wakaama_lwm2m/port\connection.c ****                                 lwm2m_object_t *securityObj,
 347:g:/iot/IoT_Device_Demo/iot_link/network/lwm2m/wakaama_lwm2m/port\connection.c ****                                 int instanceId,
 348:g:/iot/IoT_Device_Demo/iot_link/network/lwm2m/wakaama_lwm2m/port\connection.c ****                                 lwm2m_context_t *lwm2mH,
 349:g:/iot/IoT_Device_Demo/iot_link/network/lwm2m/wakaama_lwm2m/port\connection.c ****                                 int client_or_server)
 350:g:/iot/IoT_Device_Demo/iot_link/network/lwm2m/wakaama_lwm2m/port\connection.c **** {
 729              		.loc 1 350 1
 730              		.cfi_startproc
 731              		@ args = 4, pretend = 0, frame = 40
 732              		@ frame_needed = 1, uses_anonymous_args = 0
 733 0000 80B5     		push	{r7, lr}
 734              	.LCFI30:
 735              		.cfi_def_cfa_offset 8
 736              		.cfi_offset 7, -8
 737              		.cfi_offset 14, -4
 738 0002 8AB0     		sub	sp, sp, #40
 739              	.LCFI31:
ARM GAS  C:\Users\ADMINI~1\AppData\Local\Temp\ccUFOrrb.s 			page 20


 740              		.cfi_def_cfa_offset 48
 741 0004 00AF     		add	r7, sp, #0
 742              	.LCFI32:
 743              		.cfi_def_cfa_register 7
 744 0006 F860     		str	r0, [r7, #12]
 745 0008 B960     		str	r1, [r7, #8]
 746 000a 7A60     		str	r2, [r7, #4]
 747 000c 3B60     		str	r3, [r7]
 351:g:/iot/IoT_Device_Demo/iot_link/network/lwm2m/wakaama_lwm2m/port\connection.c ****     connection_t *connP = NULL;
 748              		.loc 1 351 19
 749 000e 0023     		movs	r3, #0
 750 0010 7B62     		str	r3, [r7, #36]
 352:g:/iot/IoT_Device_Demo/iot_link/network/lwm2m/wakaama_lwm2m/port\connection.c ****     char *host;
 353:g:/iot/IoT_Device_Demo/iot_link/network/lwm2m/wakaama_lwm2m/port\connection.c ****     char *port;
 354:g:/iot/IoT_Device_Demo/iot_link/network/lwm2m/wakaama_lwm2m/port\connection.c ****     security_instance_t *targetP;
 355:g:/iot/IoT_Device_Demo/iot_link/network/lwm2m/wakaama_lwm2m/port\connection.c ****     char *uri = NULL;
 751              		.loc 1 355 11
 752 0012 0023     		movs	r3, #0
 753 0014 3B62     		str	r3, [r7, #32]
 356:g:/iot/IoT_Device_Demo/iot_link/network/lwm2m/wakaama_lwm2m/port\connection.c ****     connection_t *ret = NULL;
 754              		.loc 1 356 19
 755 0016 0023     		movs	r3, #0
 756 0018 FB61     		str	r3, [r7, #28]
 357:g:/iot/IoT_Device_Demo/iot_link/network/lwm2m/wakaama_lwm2m/port\connection.c ****     ATINY_LOG(LOG_INFO, "now come into connection_create!!!");
 358:g:/iot/IoT_Device_Demo/iot_link/network/lwm2m/wakaama_lwm2m/port\connection.c ****     targetP = (security_instance_t *)LWM2M_LIST_FIND(securityObj->instanceList, instanceId);
 757              		.loc 1 358 38
 758 001a BB68     		ldr	r3, [r7, #8]
 759 001c 9B68     		ldr	r3, [r3, #8]
 760 001e 7A68     		ldr	r2, [r7, #4]
 761 0020 92B2     		uxth	r2, r2
 762 0022 1146     		mov	r1, r2
 763 0024 1846     		mov	r0, r3
 764 0026 FFF7FEFF 		bl	lwm2m_list_find
 765 002a B861     		str	r0, [r7, #24]
 359:g:/iot/IoT_Device_Demo/iot_link/network/lwm2m/wakaama_lwm2m/port\connection.c **** 
 360:g:/iot/IoT_Device_Demo/iot_link/network/lwm2m/wakaama_lwm2m/port\connection.c ****     if ((NULL == targetP) || (NULL == targetP->uri))
 766              		.loc 1 360 8
 767 002c BB69     		ldr	r3, [r7, #24]
 768 002e 002B     		cmp	r3, #0
 769 0030 03D0     		beq	.L50
 770              		.loc 1 360 46 discriminator 1
 771 0032 BB69     		ldr	r3, [r7, #24]
 772 0034 9B68     		ldr	r3, [r3, #8]
 773              		.loc 1 360 27 discriminator 1
 774 0036 002B     		cmp	r3, #0
 775 0038 01D1     		bne	.L51
 776              	.L50:
 361:g:/iot/IoT_Device_Demo/iot_link/network/lwm2m/wakaama_lwm2m/port\connection.c ****     {
 362:g:/iot/IoT_Device_Demo/iot_link/network/lwm2m/wakaama_lwm2m/port\connection.c ****         return NULL;
 777              		.loc 1 362 16
 778 003a 0023     		movs	r3, #0
 779 003c 66E0     		b	.L63
 780              	.L51:
 363:g:/iot/IoT_Device_Demo/iot_link/network/lwm2m/wakaama_lwm2m/port\connection.c ****     }
 364:g:/iot/IoT_Device_Demo/iot_link/network/lwm2m/wakaama_lwm2m/port\connection.c **** 
 365:g:/iot/IoT_Device_Demo/iot_link/network/lwm2m/wakaama_lwm2m/port\connection.c ****     if (LWM2M_IS_CLIENT == client_or_server)
 781              		.loc 1 365 8
ARM GAS  C:\Users\ADMINI~1\AppData\Local\Temp\ccUFOrrb.s 			page 21


 782 003e 3B6B     		ldr	r3, [r7, #48]
 783 0040 002B     		cmp	r3, #0
 784 0042 14D1     		bne	.L53
 366:g:/iot/IoT_Device_Demo/iot_link/network/lwm2m/wakaama_lwm2m/port\connection.c ****     {
 367:g:/iot/IoT_Device_Demo/iot_link/network/lwm2m/wakaama_lwm2m/port\connection.c ****         uri = osal_strdup(targetP->uri);
 785              		.loc 1 367 34
 786 0044 BB69     		ldr	r3, [r7, #24]
 787 0046 9B68     		ldr	r3, [r3, #8]
 788              		.loc 1 367 15
 789 0048 1846     		mov	r0, r3
 790 004a FFF7FEFF 		bl	osal_strdup
 791 004e 3862     		str	r0, [r7, #32]
 368:g:/iot/IoT_Device_Demo/iot_link/network/lwm2m/wakaama_lwm2m/port\connection.c **** 
 369:g:/iot/IoT_Device_Demo/iot_link/network/lwm2m/wakaama_lwm2m/port\connection.c ****         if (NULL == uri)
 792              		.loc 1 369 12
 793 0050 3B6A     		ldr	r3, [r7, #32]
 794 0052 002B     		cmp	r3, #0
 795 0054 45D0     		beq	.L64
 370:g:/iot/IoT_Device_Demo/iot_link/network/lwm2m/wakaama_lwm2m/port\connection.c ****         {
 371:g:/iot/IoT_Device_Demo/iot_link/network/lwm2m/wakaama_lwm2m/port\connection.c ****             ATINY_LOG(LOG_INFO, "osal_strdup null!!!");
 372:g:/iot/IoT_Device_Demo/iot_link/network/lwm2m/wakaama_lwm2m/port\connection.c ****             goto fail;
 373:g:/iot/IoT_Device_Demo/iot_link/network/lwm2m/wakaama_lwm2m/port\connection.c ****         }
 374:g:/iot/IoT_Device_Demo/iot_link/network/lwm2m/wakaama_lwm2m/port\connection.c **** 
 375:g:/iot/IoT_Device_Demo/iot_link/network/lwm2m/wakaama_lwm2m/port\connection.c ****         if (COAP_NO_ERROR != connection_parse_host_ip(uri, &host, &port))
 796              		.loc 1 375 30
 797 0056 07F11002 		add	r2, r7, #16
 798 005a 07F11403 		add	r3, r7, #20
 799 005e 1946     		mov	r1, r3
 800 0060 386A     		ldr	r0, [r7, #32]
 801 0062 FFF7FEFF 		bl	connection_parse_host_ip
 802 0066 0346     		mov	r3, r0
 803              		.loc 1 375 12
 804 0068 002B     		cmp	r3, #0
 805 006a 0AD0     		beq	.L56
 376:g:/iot/IoT_Device_Demo/iot_link/network/lwm2m/wakaama_lwm2m/port\connection.c ****         {
 377:g:/iot/IoT_Device_Demo/iot_link/network/lwm2m/wakaama_lwm2m/port\connection.c ****             goto fail;
 806              		.loc 1 377 13
 807 006c 3EE0     		b	.L55
 808              	.L53:
 378:g:/iot/IoT_Device_Demo/iot_link/network/lwm2m/wakaama_lwm2m/port\connection.c ****         }
 379:g:/iot/IoT_Device_Demo/iot_link/network/lwm2m/wakaama_lwm2m/port\connection.c ****     }
 380:g:/iot/IoT_Device_Demo/iot_link/network/lwm2m/wakaama_lwm2m/port\connection.c ****     else
 381:g:/iot/IoT_Device_Demo/iot_link/network/lwm2m/wakaama_lwm2m/port\connection.c ****     {
 382:g:/iot/IoT_Device_Demo/iot_link/network/lwm2m/wakaama_lwm2m/port\connection.c ****         host = NULL;
 809              		.loc 1 382 14
 810 006e 0023     		movs	r3, #0
 811 0070 7B61     		str	r3, [r7, #20]
 383:g:/iot/IoT_Device_Demo/iot_link/network/lwm2m/wakaama_lwm2m/port\connection.c ****         port = (char *)((LWM2M_SECURITY_MODE_NONE != targetP->securityMode) ? COAPS_PORT : COAP_POR
 812              		.loc 1 383 61
 813 0072 BB69     		ldr	r3, [r7, #24]
 814 0074 5B7B     		ldrb	r3, [r3, #13]	@ zero_extendqisi2
 815              		.loc 1 383 16
 816 0076 032B     		cmp	r3, #3
 817 0078 01D0     		beq	.L57
 818              		.loc 1 383 16 is_stmt 0 discriminator 1
 819 007a 264B     		ldr	r3, .L67
 820 007c 00E0     		b	.L58
ARM GAS  C:\Users\ADMINI~1\AppData\Local\Temp\ccUFOrrb.s 			page 22


 821              	.L57:
 822              		.loc 1 383 16 discriminator 2
 823 007e 264B     		ldr	r3, .L67+4
 824              	.L58:
 825              		.loc 1 383 14 is_stmt 1 discriminator 4
 826 0080 3B61     		str	r3, [r7, #16]
 827              	.L56:
 384:g:/iot/IoT_Device_Demo/iot_link/network/lwm2m/wakaama_lwm2m/port\connection.c ****     }
 385:g:/iot/IoT_Device_Demo/iot_link/network/lwm2m/wakaama_lwm2m/port\connection.c **** 
 386:g:/iot/IoT_Device_Demo/iot_link/network/lwm2m/wakaama_lwm2m/port\connection.c ****     connP = (connection_t *)lwm2m_malloc(sizeof(connection_t));
 828              		.loc 1 386 29
 829 0082 1C20     		movs	r0, #28
 830 0084 FFF7FEFF 		bl	lwm2m_malloc
 831 0088 7862     		str	r0, [r7, #36]
 387:g:/iot/IoT_Device_Demo/iot_link/network/lwm2m/wakaama_lwm2m/port\connection.c **** 
 388:g:/iot/IoT_Device_Demo/iot_link/network/lwm2m/wakaama_lwm2m/port\connection.c ****     if (NULL == connP)
 832              		.loc 1 388 8
 833 008a 7B6A     		ldr	r3, [r7, #36]
 834 008c 002B     		cmp	r3, #0
 835 008e 2AD0     		beq	.L65
 389:g:/iot/IoT_Device_Demo/iot_link/network/lwm2m/wakaama_lwm2m/port\connection.c ****     {
 390:g:/iot/IoT_Device_Demo/iot_link/network/lwm2m/wakaama_lwm2m/port\connection.c ****         ATINY_LOG(LOG_INFO, "connP is NULL!!!");
 391:g:/iot/IoT_Device_Demo/iot_link/network/lwm2m/wakaama_lwm2m/port\connection.c ****         goto fail;
 392:g:/iot/IoT_Device_Demo/iot_link/network/lwm2m/wakaama_lwm2m/port\connection.c ****     }
 393:g:/iot/IoT_Device_Demo/iot_link/network/lwm2m/wakaama_lwm2m/port\connection.c **** 
 394:g:/iot/IoT_Device_Demo/iot_link/network/lwm2m/wakaama_lwm2m/port\connection.c ****     (void) memset(connP, 0, sizeof(connection_t));
 836              		.loc 1 394 12
 837 0090 1C22     		movs	r2, #28
 838 0092 0021     		movs	r1, #0
 839 0094 786A     		ldr	r0, [r7, #36]
 840 0096 FFF7FEFF 		bl	memset
 395:g:/iot/IoT_Device_Demo/iot_link/network/lwm2m/wakaama_lwm2m/port\connection.c **** #ifdef WITH_DTLS
 396:g:/iot/IoT_Device_Demo/iot_link/network/lwm2m/wakaama_lwm2m/port\connection.c **** 
 397:g:/iot/IoT_Device_Demo/iot_link/network/lwm2m/wakaama_lwm2m/port\connection.c ****     if (LWM2M_SECURITY_MODE_NONE != targetP->securityMode)
 398:g:/iot/IoT_Device_Demo/iot_link/network/lwm2m/wakaama_lwm2m/port\connection.c ****     {
 399:g:/iot/IoT_Device_Demo/iot_link/network/lwm2m/wakaama_lwm2m/port\connection.c ****         if (connection_connect_dtls(connP, targetP, host, port, client_or_server) != COAP_NO_ERROR)
 400:g:/iot/IoT_Device_Demo/iot_link/network/lwm2m/wakaama_lwm2m/port\connection.c ****         {
 401:g:/iot/IoT_Device_Demo/iot_link/network/lwm2m/wakaama_lwm2m/port\connection.c ****             goto fail;
 402:g:/iot/IoT_Device_Demo/iot_link/network/lwm2m/wakaama_lwm2m/port\connection.c ****         }
 403:g:/iot/IoT_Device_Demo/iot_link/network/lwm2m/wakaama_lwm2m/port\connection.c ****     }
 404:g:/iot/IoT_Device_Demo/iot_link/network/lwm2m/wakaama_lwm2m/port\connection.c ****     else
 405:g:/iot/IoT_Device_Demo/iot_link/network/lwm2m/wakaama_lwm2m/port\connection.c **** #endif
 406:g:/iot/IoT_Device_Demo/iot_link/network/lwm2m/wakaama_lwm2m/port\connection.c ****     {
 407:g:/iot/IoT_Device_Demo/iot_link/network/lwm2m/wakaama_lwm2m/port\connection.c ****         // no dtls session
 408:g:/iot/IoT_Device_Demo/iot_link/network/lwm2m/wakaama_lwm2m/port\connection.c ****         connP->net_context = __socket_connect(host, port, client_or_server);
 841              		.loc 1 408 30
 842 009a 7B69     		ldr	r3, [r7, #20]
 843 009c 3969     		ldr	r1, [r7, #16]
 844 009e 3A6B     		ldr	r2, [r7, #48]
 845 00a0 1846     		mov	r0, r3
 846 00a2 FFF7FEFF 		bl	__socket_connect
 847 00a6 0246     		mov	r2, r0
 848              		.loc 1 408 28
 849 00a8 7B6A     		ldr	r3, [r7, #36]
 850 00aa 5A60     		str	r2, [r3, #4]
 409:g:/iot/IoT_Device_Demo/iot_link/network/lwm2m/wakaama_lwm2m/port\connection.c **** 
 410:g:/iot/IoT_Device_Demo/iot_link/network/lwm2m/wakaama_lwm2m/port\connection.c ****         if (LWM2M_IS_SERVER   == client_or_server)
ARM GAS  C:\Users\ADMINI~1\AppData\Local\Temp\ccUFOrrb.s 			page 23


 411:g:/iot/IoT_Device_Demo/iot_link/network/lwm2m/wakaama_lwm2m/port\connection.c ****         {
 412:g:/iot/IoT_Device_Demo/iot_link/network/lwm2m/wakaama_lwm2m/port\connection.c **** #ifdef LWM2M_BOOTSTRAP
 413:g:/iot/IoT_Device_Demo/iot_link/network/lwm2m/wakaama_lwm2m/port\connection.c **** 
 414:g:/iot/IoT_Device_Demo/iot_link/network/lwm2m/wakaama_lwm2m/port\connection.c ****             if (connP->net_context)
 415:g:/iot/IoT_Device_Demo/iot_link/network/lwm2m/wakaama_lwm2m/port\connection.c ****             {
 416:g:/iot/IoT_Device_Demo/iot_link/network/lwm2m/wakaama_lwm2m/port\connection.c ****                 connection_striger_server_initiated_bs(connP);
 417:g:/iot/IoT_Device_Demo/iot_link/network/lwm2m/wakaama_lwm2m/port\connection.c ****                 timer_init(&connP->server_triger_timer, LWM2M_TRIGER_SERVER_MODE_INITIATED_TIME, (v
 418:g:/iot/IoT_Device_Demo/iot_link/network/lwm2m/wakaama_lwm2m/port\connection.c ****                 timer_start(&connP->server_triger_timer);
 419:g:/iot/IoT_Device_Demo/iot_link/network/lwm2m/wakaama_lwm2m/port\connection.c ****             }
 420:g:/iot/IoT_Device_Demo/iot_link/network/lwm2m/wakaama_lwm2m/port\connection.c **** 
 421:g:/iot/IoT_Device_Demo/iot_link/network/lwm2m/wakaama_lwm2m/port\connection.c **** #endif
 422:g:/iot/IoT_Device_Demo/iot_link/network/lwm2m/wakaama_lwm2m/port\connection.c ****         }
 423:g:/iot/IoT_Device_Demo/iot_link/network/lwm2m/wakaama_lwm2m/port\connection.c **** 
 424:g:/iot/IoT_Device_Demo/iot_link/network/lwm2m/wakaama_lwm2m/port\connection.c ****         if (NULL == connP->net_context)
 851              		.loc 1 424 26
 852 00ac 7B6A     		ldr	r3, [r7, #36]
 853 00ae 5B68     		ldr	r3, [r3, #4]
 854              		.loc 1 424 12
 855 00b0 002B     		cmp	r3, #0
 856 00b2 1AD0     		beq	.L66
 425:g:/iot/IoT_Device_Demo/iot_link/network/lwm2m/wakaama_lwm2m/port\connection.c ****         {
 426:g:/iot/IoT_Device_Demo/iot_link/network/lwm2m/wakaama_lwm2m/port\connection.c ****             ATINY_LOG(LOG_INFO, "net_context is NULL in connection_create");
 427:g:/iot/IoT_Device_Demo/iot_link/network/lwm2m/wakaama_lwm2m/port\connection.c ****             goto fail;
 428:g:/iot/IoT_Device_Demo/iot_link/network/lwm2m/wakaama_lwm2m/port\connection.c ****         }
 429:g:/iot/IoT_Device_Demo/iot_link/network/lwm2m/wakaama_lwm2m/port\connection.c **** 
 430:g:/iot/IoT_Device_Demo/iot_link/network/lwm2m/wakaama_lwm2m/port\connection.c ****         connP->dtls_flag = false;
 857              		.loc 1 430 26
 858 00b4 7B6A     		ldr	r3, [r7, #36]
 859 00b6 0022     		movs	r2, #0
 860 00b8 1A82     		strh	r2, [r3, #16]	@ movhi
 431:g:/iot/IoT_Device_Demo/iot_link/network/lwm2m/wakaama_lwm2m/port\connection.c ****     }
 432:g:/iot/IoT_Device_Demo/iot_link/network/lwm2m/wakaama_lwm2m/port\connection.c **** 
 433:g:/iot/IoT_Device_Demo/iot_link/network/lwm2m/wakaama_lwm2m/port\connection.c ****     connP->next = connList;
 861              		.loc 1 433 17
 862 00ba 7B6A     		ldr	r3, [r7, #36]
 863 00bc FA68     		ldr	r2, [r7, #12]
 864 00be 1A60     		str	r2, [r3]
 434:g:/iot/IoT_Device_Demo/iot_link/network/lwm2m/wakaama_lwm2m/port\connection.c ****     connP->securityObj = securityObj;
 865              		.loc 1 434 24
 866 00c0 7B6A     		ldr	r3, [r7, #36]
 867 00c2 BA68     		ldr	r2, [r7, #8]
 868 00c4 9A60     		str	r2, [r3, #8]
 435:g:/iot/IoT_Device_Demo/iot_link/network/lwm2m/wakaama_lwm2m/port\connection.c ****     connP->securityInstId = instanceId;
 869              		.loc 1 435 27
 870 00c6 7B6A     		ldr	r3, [r7, #36]
 871 00c8 7A68     		ldr	r2, [r7, #4]
 872 00ca DA60     		str	r2, [r3, #12]
 436:g:/iot/IoT_Device_Demo/iot_link/network/lwm2m/wakaama_lwm2m/port\connection.c ****     connP->lwm2mH = lwm2mH;
 873              		.loc 1 436 19
 874 00cc 7B6A     		ldr	r3, [r7, #36]
 875 00ce 3A68     		ldr	r2, [r7]
 876 00d0 5A61     		str	r2, [r3, #20]
 437:g:/iot/IoT_Device_Demo/iot_link/network/lwm2m/wakaama_lwm2m/port\connection.c ****     connP->bootstrap_flag = targetP->isBootstrap;
 877              		.loc 1 437 36
 878 00d2 BB69     		ldr	r3, [r7, #24]
 879 00d4 1B7B     		ldrb	r3, [r3, #12]	@ zero_extendqisi2
 880 00d6 9AB2     		uxth	r2, r3
ARM GAS  C:\Users\ADMINI~1\AppData\Local\Temp\ccUFOrrb.s 			page 24


 881              		.loc 1 437 27
 882 00d8 7B6A     		ldr	r3, [r7, #36]
 883 00da 5A82     		strh	r2, [r3, #18]	@ movhi
 438:g:/iot/IoT_Device_Demo/iot_link/network/lwm2m/wakaama_lwm2m/port\connection.c ****     ret = connP;
 884              		.loc 1 438 9
 885 00dc 7B6A     		ldr	r3, [r7, #36]
 886 00de FB61     		str	r3, [r7, #28]
 887 00e0 04E0     		b	.L55
 888              	.L64:
 372:g:/iot/IoT_Device_Demo/iot_link/network/lwm2m/wakaama_lwm2m/port\connection.c ****         }
 889              		.loc 1 372 13
 890 00e2 00BF     		nop
 891 00e4 02E0     		b	.L55
 892              	.L65:
 391:g:/iot/IoT_Device_Demo/iot_link/network/lwm2m/wakaama_lwm2m/port\connection.c ****     }
 893              		.loc 1 391 9
 894 00e6 00BF     		nop
 895 00e8 00E0     		b	.L55
 896              	.L66:
 427:g:/iot/IoT_Device_Demo/iot_link/network/lwm2m/wakaama_lwm2m/port\connection.c ****         }
 897              		.loc 1 427 13
 898 00ea 00BF     		nop
 899              	.L55:
 439:g:/iot/IoT_Device_Demo/iot_link/network/lwm2m/wakaama_lwm2m/port\connection.c **** fail:
 440:g:/iot/IoT_Device_Demo/iot_link/network/lwm2m/wakaama_lwm2m/port\connection.c **** 
 441:g:/iot/IoT_Device_Demo/iot_link/network/lwm2m/wakaama_lwm2m/port\connection.c ****     if (uri)
 900              		.loc 1 441 8
 901 00ec 3B6A     		ldr	r3, [r7, #32]
 902 00ee 002B     		cmp	r3, #0
 903 00f0 02D0     		beq	.L61
 442:g:/iot/IoT_Device_Demo/iot_link/network/lwm2m/wakaama_lwm2m/port\connection.c ****     {
 443:g:/iot/IoT_Device_Demo/iot_link/network/lwm2m/wakaama_lwm2m/port\connection.c ****         lwm2m_free(uri);
 904              		.loc 1 443 9
 905 00f2 386A     		ldr	r0, [r7, #32]
 906 00f4 FFF7FEFF 		bl	lwm2m_free
 907              	.L61:
 444:g:/iot/IoT_Device_Demo/iot_link/network/lwm2m/wakaama_lwm2m/port\connection.c ****     }
 445:g:/iot/IoT_Device_Demo/iot_link/network/lwm2m/wakaama_lwm2m/port\connection.c **** 
 446:g:/iot/IoT_Device_Demo/iot_link/network/lwm2m/wakaama_lwm2m/port\connection.c ****     if ((NULL == ret) && connP)
 908              		.loc 1 446 8
 909 00f8 FB69     		ldr	r3, [r7, #28]
 910 00fa 002B     		cmp	r3, #0
 911 00fc 05D1     		bne	.L62
 912              		.loc 1 446 23 discriminator 1
 913 00fe 7B6A     		ldr	r3, [r7, #36]
 914 0100 002B     		cmp	r3, #0
 915 0102 02D0     		beq	.L62
 447:g:/iot/IoT_Device_Demo/iot_link/network/lwm2m/wakaama_lwm2m/port\connection.c ****     {
 448:g:/iot/IoT_Device_Demo/iot_link/network/lwm2m/wakaama_lwm2m/port\connection.c ****         lwm2m_free(connP);
 916              		.loc 1 448 9
 917 0104 786A     		ldr	r0, [r7, #36]
 918 0106 FFF7FEFF 		bl	lwm2m_free
 919              	.L62:
 449:g:/iot/IoT_Device_Demo/iot_link/network/lwm2m/wakaama_lwm2m/port\connection.c ****     }
 450:g:/iot/IoT_Device_Demo/iot_link/network/lwm2m/wakaama_lwm2m/port\connection.c **** 
 451:g:/iot/IoT_Device_Demo/iot_link/network/lwm2m/wakaama_lwm2m/port\connection.c ****     return ret;
 920              		.loc 1 451 12
ARM GAS  C:\Users\ADMINI~1\AppData\Local\Temp\ccUFOrrb.s 			page 25


 921 010a FB69     		ldr	r3, [r7, #28]
 922              	.L63:
 452:g:/iot/IoT_Device_Demo/iot_link/network/lwm2m/wakaama_lwm2m/port\connection.c **** }
 923              		.loc 1 452 1 discriminator 1
 924 010c 1846     		mov	r0, r3
 925 010e 2837     		adds	r7, r7, #40
 926              	.LCFI33:
 927              		.cfi_def_cfa_offset 8
 928 0110 BD46     		mov	sp, r7
 929              	.LCFI34:
 930              		.cfi_def_cfa_register 13
 931              		@ sp needed
 932 0112 80BD     		pop	{r7, pc}
 933              	.L68:
 934              		.align	2
 935              	.L67:
 936 0114 0C000000 		.word	.LC1
 937 0118 1C000000 		.word	.LC3
 938              		.cfi_endproc
 939              	.LFE18:
 941              		.section	.text.connection_free,"ax",%progbits
 942              		.align	1
 943              		.global	connection_free
 944              		.syntax unified
 945              		.thumb
 946              		.thumb_func
 947              		.fpu fpv4-sp-d16
 949              	connection_free:
 950              	.LFB19:
 453:g:/iot/IoT_Device_Demo/iot_link/network/lwm2m/wakaama_lwm2m/port\connection.c **** 
 454:g:/iot/IoT_Device_Demo/iot_link/network/lwm2m/wakaama_lwm2m/port\connection.c **** void connection_free(connection_t *connP)
 455:g:/iot/IoT_Device_Demo/iot_link/network/lwm2m/wakaama_lwm2m/port\connection.c **** {
 951              		.loc 1 455 1
 952              		.cfi_startproc
 953              		@ args = 0, pretend = 0, frame = 8
 954              		@ frame_needed = 1, uses_anonymous_args = 0
 955 0000 80B5     		push	{r7, lr}
 956              	.LCFI35:
 957              		.cfi_def_cfa_offset 8
 958              		.cfi_offset 7, -8
 959              		.cfi_offset 14, -4
 960 0002 82B0     		sub	sp, sp, #8
 961              	.LCFI36:
 962              		.cfi_def_cfa_offset 16
 963 0004 00AF     		add	r7, sp, #0
 964              	.LCFI37:
 965              		.cfi_def_cfa_register 7
 966 0006 7860     		str	r0, [r7, #4]
 456:g:/iot/IoT_Device_Demo/iot_link/network/lwm2m/wakaama_lwm2m/port\connection.c ****     if (NULL == connP)
 967              		.loc 1 456 8
 968 0008 7B68     		ldr	r3, [r7, #4]
 969 000a 002B     		cmp	r3, #0
 970 000c 05D0     		beq	.L72
 457:g:/iot/IoT_Device_Demo/iot_link/network/lwm2m/wakaama_lwm2m/port\connection.c ****     {
 458:g:/iot/IoT_Device_Demo/iot_link/network/lwm2m/wakaama_lwm2m/port\connection.c ****         return;
 459:g:/iot/IoT_Device_Demo/iot_link/network/lwm2m/wakaama_lwm2m/port\connection.c ****     }
 460:g:/iot/IoT_Device_Demo/iot_link/network/lwm2m/wakaama_lwm2m/port\connection.c **** 
ARM GAS  C:\Users\ADMINI~1\AppData\Local\Temp\ccUFOrrb.s 			page 26


 461:g:/iot/IoT_Device_Demo/iot_link/network/lwm2m/wakaama_lwm2m/port\connection.c **** #ifdef WITH_DTLS
 462:g:/iot/IoT_Device_Demo/iot_link/network/lwm2m/wakaama_lwm2m/port\connection.c **** 
 463:g:/iot/IoT_Device_Demo/iot_link/network/lwm2m/wakaama_lwm2m/port\connection.c ****     if (true == connP->dtls_flag)
 464:g:/iot/IoT_Device_Demo/iot_link/network/lwm2m/wakaama_lwm2m/port\connection.c ****     {
 465:g:/iot/IoT_Device_Demo/iot_link/network/lwm2m/wakaama_lwm2m/port\connection.c ****         dtls_ssl_destroy(connP->net_context);
 466:g:/iot/IoT_Device_Demo/iot_link/network/lwm2m/wakaama_lwm2m/port\connection.c ****     }
 467:g:/iot/IoT_Device_Demo/iot_link/network/lwm2m/wakaama_lwm2m/port\connection.c ****     else
 468:g:/iot/IoT_Device_Demo/iot_link/network/lwm2m/wakaama_lwm2m/port\connection.c **** #endif
 469:g:/iot/IoT_Device_Demo/iot_link/network/lwm2m/wakaama_lwm2m/port\connection.c ****     {
 470:g:/iot/IoT_Device_Demo/iot_link/network/lwm2m/wakaama_lwm2m/port\connection.c ****         __socket_free(connP->net_context);
 971              		.loc 1 470 28
 972 000e 7B68     		ldr	r3, [r7, #4]
 973 0010 5B68     		ldr	r3, [r3, #4]
 974              		.loc 1 470 9
 975 0012 1846     		mov	r0, r3
 976 0014 FFF7FEFF 		bl	__socket_free
 471:g:/iot/IoT_Device_Demo/iot_link/network/lwm2m/wakaama_lwm2m/port\connection.c ****     }
 472:g:/iot/IoT_Device_Demo/iot_link/network/lwm2m/wakaama_lwm2m/port\connection.c **** 
 473:g:/iot/IoT_Device_Demo/iot_link/network/lwm2m/wakaama_lwm2m/port\connection.c ****     return;
 977              		.loc 1 473 5
 978 0018 00E0     		b	.L69
 979              	.L72:
 458:g:/iot/IoT_Device_Demo/iot_link/network/lwm2m/wakaama_lwm2m/port\connection.c ****     }
 980              		.loc 1 458 9
 981 001a 00BF     		nop
 982              	.L69:
 474:g:/iot/IoT_Device_Demo/iot_link/network/lwm2m/wakaama_lwm2m/port\connection.c **** }
 983              		.loc 1 474 1
 984 001c 0837     		adds	r7, r7, #8
 985              	.LCFI38:
 986              		.cfi_def_cfa_offset 8
 987 001e BD46     		mov	sp, r7
 988              	.LCFI39:
 989              		.cfi_def_cfa_register 13
 990              		@ sp needed
 991 0020 80BD     		pop	{r7, pc}
 992              		.cfi_endproc
 993              	.LFE19:
 995              		.section	.text.lwm2m_connect_server,"ax",%progbits
 996              		.align	1
 997              		.global	lwm2m_connect_server
 998              		.syntax unified
 999              		.thumb
 1000              		.thumb_func
 1001              		.fpu fpv4-sp-d16
 1003              	lwm2m_connect_server:
 1004              	.LFB20:
 475:g:/iot/IoT_Device_Demo/iot_link/network/lwm2m/wakaama_lwm2m/port\connection.c **** 
 476:g:/iot/IoT_Device_Demo/iot_link/network/lwm2m/wakaama_lwm2m/port\connection.c **** 
 477:g:/iot/IoT_Device_Demo/iot_link/network/lwm2m/wakaama_lwm2m/port\connection.c **** void *lwm2m_connect_server(uint16_t secObjInstID, void *userData, bool isServer)
 478:g:/iot/IoT_Device_Demo/iot_link/network/lwm2m/wakaama_lwm2m/port\connection.c **** {
 1005              		.loc 1 478 1
 1006              		.cfi_startproc
 1007              		@ args = 0, pretend = 0, frame = 24
 1008              		@ frame_needed = 1, uses_anonymous_args = 0
 1009 0000 80B5     		push	{r7, lr}
 1010              	.LCFI40:
ARM GAS  C:\Users\ADMINI~1\AppData\Local\Temp\ccUFOrrb.s 			page 27


 1011              		.cfi_def_cfa_offset 8
 1012              		.cfi_offset 7, -8
 1013              		.cfi_offset 14, -4
 1014 0002 88B0     		sub	sp, sp, #32
 1015              	.LCFI41:
 1016              		.cfi_def_cfa_offset 40
 1017 0004 02AF     		add	r7, sp, #8
 1018              	.LCFI42:
 1019              		.cfi_def_cfa 7, 32
 1020 0006 0346     		mov	r3, r0
 1021 0008 3960     		str	r1, [r7]
 1022 000a FB80     		strh	r3, [r7, #6]	@ movhi
 1023 000c 1346     		mov	r3, r2
 1024 000e 7B71     		strb	r3, [r7, #5]
 479:g:/iot/IoT_Device_Demo/iot_link/network/lwm2m/wakaama_lwm2m/port\connection.c ****     client_data_t *dataP;
 480:g:/iot/IoT_Device_Demo/iot_link/network/lwm2m/wakaama_lwm2m/port\connection.c ****     lwm2m_list_t *instance;
 481:g:/iot/IoT_Device_Demo/iot_link/network/lwm2m/wakaama_lwm2m/port\connection.c ****     connection_t *newConnP = NULL;
 1025              		.loc 1 481 19
 1026 0010 0023     		movs	r3, #0
 1027 0012 7B61     		str	r3, [r7, #20]
 482:g:/iot/IoT_Device_Demo/iot_link/network/lwm2m/wakaama_lwm2m/port\connection.c ****     lwm2m_object_t   *securityObj;
 483:g:/iot/IoT_Device_Demo/iot_link/network/lwm2m/wakaama_lwm2m/port\connection.c ****     dataP = (client_data_t *)userData;
 1028              		.loc 1 483 11
 1029 0014 3B68     		ldr	r3, [r7]
 1030 0016 3B61     		str	r3, [r7, #16]
 484:g:/iot/IoT_Device_Demo/iot_link/network/lwm2m/wakaama_lwm2m/port\connection.c ****     securityObj = dataP->securityObjP;
 1031              		.loc 1 484 17
 1032 0018 3B69     		ldr	r3, [r7, #16]
 1033 001a 1B68     		ldr	r3, [r3]
 1034 001c FB60     		str	r3, [r7, #12]
 485:g:/iot/IoT_Device_Demo/iot_link/network/lwm2m/wakaama_lwm2m/port\connection.c ****     ATINY_LOG(LOG_INFO, "Now come into Connection creation in lwm2m_connect_server %d.\n", isServer
 486:g:/iot/IoT_Device_Demo/iot_link/network/lwm2m/wakaama_lwm2m/port\connection.c ****     instance = LWM2M_LIST_FIND(dataP->securityObjP->instanceList, secObjInstID);
 1035              		.loc 1 486 16
 1036 001e 3B69     		ldr	r3, [r7, #16]
 1037 0020 1B68     		ldr	r3, [r3]
 1038 0022 9B68     		ldr	r3, [r3, #8]
 1039 0024 FA88     		ldrh	r2, [r7, #6]
 1040 0026 1146     		mov	r1, r2
 1041 0028 1846     		mov	r0, r3
 1042 002a FFF7FEFF 		bl	lwm2m_list_find
 1043 002e B860     		str	r0, [r7, #8]
 487:g:/iot/IoT_Device_Demo/iot_link/network/lwm2m/wakaama_lwm2m/port\connection.c **** 
 488:g:/iot/IoT_Device_Demo/iot_link/network/lwm2m/wakaama_lwm2m/port\connection.c ****     if (NULL == instance)
 1044              		.loc 1 488 8
 1045 0030 BB68     		ldr	r3, [r7, #8]
 1046 0032 002B     		cmp	r3, #0
 1047 0034 01D1     		bne	.L74
 489:g:/iot/IoT_Device_Demo/iot_link/network/lwm2m/wakaama_lwm2m/port\connection.c ****     {
 490:g:/iot/IoT_Device_Demo/iot_link/network/lwm2m/wakaama_lwm2m/port\connection.c ****         return NULL;
 1048              		.loc 1 490 16
 1049 0036 0023     		movs	r3, #0
 1050 0038 16E0     		b	.L75
 1051              	.L74:
 491:g:/iot/IoT_Device_Demo/iot_link/network/lwm2m/wakaama_lwm2m/port\connection.c ****     }
 492:g:/iot/IoT_Device_Demo/iot_link/network/lwm2m/wakaama_lwm2m/port\connection.c **** 
 493:g:/iot/IoT_Device_Demo/iot_link/network/lwm2m/wakaama_lwm2m/port\connection.c ****     newConnP = connection_create(dataP->connList, securityObj, instance->id, dataP->lwm2mH,
 1052              		.loc 1 493 16
ARM GAS  C:\Users\ADMINI~1\AppData\Local\Temp\ccUFOrrb.s 			page 28


 1053 003a 3B69     		ldr	r3, [r7, #16]
 1054 003c 9868     		ldr	r0, [r3, #8]
 1055              		.loc 1 493 72
 1056 003e BB68     		ldr	r3, [r7, #8]
 1057 0040 9B88     		ldrh	r3, [r3, #4]
 1058              		.loc 1 493 16
 1059 0042 1946     		mov	r1, r3
 1060 0044 3B69     		ldr	r3, [r7, #16]
 1061 0046 DB68     		ldr	r3, [r3, #12]
 1062 0048 7A79     		ldrb	r2, [r7, #5]	@ zero_extendqisi2
 1063 004a 0092     		str	r2, [sp]
 1064 004c 0A46     		mov	r2, r1
 1065 004e F968     		ldr	r1, [r7, #12]
 1066 0050 FFF7FEFF 		bl	connection_create
 1067 0054 7861     		str	r0, [r7, #20]
 494:g:/iot/IoT_Device_Demo/iot_link/network/lwm2m/wakaama_lwm2m/port\connection.c ****                                  isServer ? LWM2M_IS_SERVER : LWM2M_IS_CLIENT);
 495:g:/iot/IoT_Device_Demo/iot_link/network/lwm2m/wakaama_lwm2m/port\connection.c **** 
 496:g:/iot/IoT_Device_Demo/iot_link/network/lwm2m/wakaama_lwm2m/port\connection.c ****     if (NULL == newConnP)
 1068              		.loc 1 496 8
 1069 0056 7B69     		ldr	r3, [r7, #20]
 1070 0058 002B     		cmp	r3, #0
 1071 005a 01D1     		bne	.L76
 497:g:/iot/IoT_Device_Demo/iot_link/network/lwm2m/wakaama_lwm2m/port\connection.c ****     {
 498:g:/iot/IoT_Device_Demo/iot_link/network/lwm2m/wakaama_lwm2m/port\connection.c ****         ATINY_LOG(LOG_INFO, "Connection creation failed.\n");
 499:g:/iot/IoT_Device_Demo/iot_link/network/lwm2m/wakaama_lwm2m/port\connection.c ****         return NULL;
 1072              		.loc 1 499 16
 1073 005c 0023     		movs	r3, #0
 1074 005e 03E0     		b	.L75
 1075              	.L76:
 500:g:/iot/IoT_Device_Demo/iot_link/network/lwm2m/wakaama_lwm2m/port\connection.c ****     }
 501:g:/iot/IoT_Device_Demo/iot_link/network/lwm2m/wakaama_lwm2m/port\connection.c **** 
 502:g:/iot/IoT_Device_Demo/iot_link/network/lwm2m/wakaama_lwm2m/port\connection.c ****     ATINY_LOG(LOG_INFO, "Connection creation successfully in lwm2m_connect_server.\n");
 503:g:/iot/IoT_Device_Demo/iot_link/network/lwm2m/wakaama_lwm2m/port\connection.c ****     dataP->connList = newConnP;
 1076              		.loc 1 503 21
 1077 0060 3B69     		ldr	r3, [r7, #16]
 1078 0062 7A69     		ldr	r2, [r7, #20]
 1079 0064 9A60     		str	r2, [r3, #8]
 504:g:/iot/IoT_Device_Demo/iot_link/network/lwm2m/wakaama_lwm2m/port\connection.c ****     return (void *)newConnP;
 1080              		.loc 1 504 12
 1081 0066 7B69     		ldr	r3, [r7, #20]
 1082              	.L75:
 505:g:/iot/IoT_Device_Demo/iot_link/network/lwm2m/wakaama_lwm2m/port\connection.c **** }
 1083              		.loc 1 505 1
 1084 0068 1846     		mov	r0, r3
 1085 006a 1837     		adds	r7, r7, #24
 1086              	.LCFI43:
 1087              		.cfi_def_cfa_offset 8
 1088 006c BD46     		mov	sp, r7
 1089              	.LCFI44:
 1090              		.cfi_def_cfa_register 13
 1091              		@ sp needed
 1092 006e 80BD     		pop	{r7, pc}
 1093              		.cfi_endproc
 1094              	.LFE20:
 1096              		.section	.text.lwm2m_close_connection,"ax",%progbits
 1097              		.align	1
 1098              		.global	lwm2m_close_connection
ARM GAS  C:\Users\ADMINI~1\AppData\Local\Temp\ccUFOrrb.s 			page 29


 1099              		.syntax unified
 1100              		.thumb
 1101              		.thumb_func
 1102              		.fpu fpv4-sp-d16
 1104              	lwm2m_close_connection:
 1105              	.LFB21:
 506:g:/iot/IoT_Device_Demo/iot_link/network/lwm2m/wakaama_lwm2m/port\connection.c **** 
 507:g:/iot/IoT_Device_Demo/iot_link/network/lwm2m/wakaama_lwm2m/port\connection.c **** void lwm2m_close_connection(void *sessionH, void *userData)
 508:g:/iot/IoT_Device_Demo/iot_link/network/lwm2m/wakaama_lwm2m/port\connection.c **** {
 1106              		.loc 1 508 1
 1107              		.cfi_startproc
 1108              		@ args = 0, pretend = 0, frame = 24
 1109              		@ frame_needed = 1, uses_anonymous_args = 0
 1110 0000 80B5     		push	{r7, lr}
 1111              	.LCFI45:
 1112              		.cfi_def_cfa_offset 8
 1113              		.cfi_offset 7, -8
 1114              		.cfi_offset 14, -4
 1115 0002 86B0     		sub	sp, sp, #24
 1116              	.LCFI46:
 1117              		.cfi_def_cfa_offset 32
 1118 0004 00AF     		add	r7, sp, #0
 1119              	.LCFI47:
 1120              		.cfi_def_cfa_register 7
 1121 0006 7860     		str	r0, [r7, #4]
 1122 0008 3960     		str	r1, [r7]
 509:g:/iot/IoT_Device_Demo/iot_link/network/lwm2m/wakaama_lwm2m/port\connection.c ****     client_data_t *app_data;
 510:g:/iot/IoT_Device_Demo/iot_link/network/lwm2m/wakaama_lwm2m/port\connection.c ****     connection_t *targetP;
 511:g:/iot/IoT_Device_Demo/iot_link/network/lwm2m/wakaama_lwm2m/port\connection.c ****     app_data = (client_data_t *)userData;
 1123              		.loc 1 511 14
 1124 000a 3B68     		ldr	r3, [r7]
 1125 000c 3B61     		str	r3, [r7, #16]
 512:g:/iot/IoT_Device_Demo/iot_link/network/lwm2m/wakaama_lwm2m/port\connection.c ****     targetP = (connection_t *)sessionH;
 1126              		.loc 1 512 13
 1127 000e 7B68     		ldr	r3, [r7, #4]
 1128 0010 FB60     		str	r3, [r7, #12]
 513:g:/iot/IoT_Device_Demo/iot_link/network/lwm2m/wakaama_lwm2m/port\connection.c **** #ifdef LWM2M_BOOTSTRAP
 514:g:/iot/IoT_Device_Demo/iot_link/network/lwm2m/wakaama_lwm2m/port\connection.c ****     timer_stop(&targetP->server_triger_timer);
 515:g:/iot/IoT_Device_Demo/iot_link/network/lwm2m/wakaama_lwm2m/port\connection.c **** #endif
 516:g:/iot/IoT_Device_Demo/iot_link/network/lwm2m/wakaama_lwm2m/port\connection.c **** 
 517:g:/iot/IoT_Device_Demo/iot_link/network/lwm2m/wakaama_lwm2m/port\connection.c ****     if (targetP == app_data->connList)
 1129              		.loc 1 517 28
 1130 0012 3B69     		ldr	r3, [r7, #16]
 1131 0014 9B68     		ldr	r3, [r3, #8]
 1132              		.loc 1 517 8
 1133 0016 FA68     		ldr	r2, [r7, #12]
 1134 0018 9A42     		cmp	r2, r3
 1135 001a 0AD1     		bne	.L78
 518:g:/iot/IoT_Device_Demo/iot_link/network/lwm2m/wakaama_lwm2m/port\connection.c ****     {
 519:g:/iot/IoT_Device_Demo/iot_link/network/lwm2m/wakaama_lwm2m/port\connection.c ****         app_data->connList = targetP->next;
 1136              		.loc 1 519 37
 1137 001c FB68     		ldr	r3, [r7, #12]
 1138 001e 1A68     		ldr	r2, [r3]
 1139              		.loc 1 519 28
 1140 0020 3B69     		ldr	r3, [r7, #16]
 1141 0022 9A60     		str	r2, [r3, #8]
 520:g:/iot/IoT_Device_Demo/iot_link/network/lwm2m/wakaama_lwm2m/port\connection.c ****         connection_free(targetP);
ARM GAS  C:\Users\ADMINI~1\AppData\Local\Temp\ccUFOrrb.s 			page 30


 1142              		.loc 1 520 9
 1143 0024 F868     		ldr	r0, [r7, #12]
 1144 0026 FFF7FEFF 		bl	connection_free
 521:g:/iot/IoT_Device_Demo/iot_link/network/lwm2m/wakaama_lwm2m/port\connection.c ****         lwm2m_free(targetP);
 1145              		.loc 1 521 9
 1146 002a F868     		ldr	r0, [r7, #12]
 1147 002c FFF7FEFF 		bl	lwm2m_free
 522:g:/iot/IoT_Device_Demo/iot_link/network/lwm2m/wakaama_lwm2m/port\connection.c ****     }
 523:g:/iot/IoT_Device_Demo/iot_link/network/lwm2m/wakaama_lwm2m/port\connection.c ****     else
 524:g:/iot/IoT_Device_Demo/iot_link/network/lwm2m/wakaama_lwm2m/port\connection.c ****     {
 525:g:/iot/IoT_Device_Demo/iot_link/network/lwm2m/wakaama_lwm2m/port\connection.c ****         connection_t *parentP;
 526:g:/iot/IoT_Device_Demo/iot_link/network/lwm2m/wakaama_lwm2m/port\connection.c ****         parentP = app_data->connList;
 527:g:/iot/IoT_Device_Demo/iot_link/network/lwm2m/wakaama_lwm2m/port\connection.c **** 
 528:g:/iot/IoT_Device_Demo/iot_link/network/lwm2m/wakaama_lwm2m/port\connection.c ****         while ((NULL != parentP) && parentP->next != targetP)
 529:g:/iot/IoT_Device_Demo/iot_link/network/lwm2m/wakaama_lwm2m/port\connection.c ****         {
 530:g:/iot/IoT_Device_Demo/iot_link/network/lwm2m/wakaama_lwm2m/port\connection.c ****             parentP = parentP->next;
 531:g:/iot/IoT_Device_Demo/iot_link/network/lwm2m/wakaama_lwm2m/port\connection.c ****         }
 532:g:/iot/IoT_Device_Demo/iot_link/network/lwm2m/wakaama_lwm2m/port\connection.c **** 
 533:g:/iot/IoT_Device_Demo/iot_link/network/lwm2m/wakaama_lwm2m/port\connection.c ****         if (NULL != parentP)
 534:g:/iot/IoT_Device_Demo/iot_link/network/lwm2m/wakaama_lwm2m/port\connection.c ****         {
 535:g:/iot/IoT_Device_Demo/iot_link/network/lwm2m/wakaama_lwm2m/port\connection.c ****             parentP->next = targetP->next;
 536:g:/iot/IoT_Device_Demo/iot_link/network/lwm2m/wakaama_lwm2m/port\connection.c ****             connection_free(targetP);
 537:g:/iot/IoT_Device_Demo/iot_link/network/lwm2m/wakaama_lwm2m/port\connection.c ****             lwm2m_free(targetP);
 538:g:/iot/IoT_Device_Demo/iot_link/network/lwm2m/wakaama_lwm2m/port\connection.c ****         }
 539:g:/iot/IoT_Device_Demo/iot_link/network/lwm2m/wakaama_lwm2m/port\connection.c ****     }
 540:g:/iot/IoT_Device_Demo/iot_link/network/lwm2m/wakaama_lwm2m/port\connection.c **** 
 541:g:/iot/IoT_Device_Demo/iot_link/network/lwm2m/wakaama_lwm2m/port\connection.c ****     return;
 1148              		.loc 1 541 5
 1149 0030 1CE0     		b	.L84
 1150              	.L78:
 1151              	.LBB2:
 526:g:/iot/IoT_Device_Demo/iot_link/network/lwm2m/wakaama_lwm2m/port\connection.c **** 
 1152              		.loc 1 526 17
 1153 0032 3B69     		ldr	r3, [r7, #16]
 1154 0034 9B68     		ldr	r3, [r3, #8]
 1155 0036 7B61     		str	r3, [r7, #20]
 528:g:/iot/IoT_Device_Demo/iot_link/network/lwm2m/wakaama_lwm2m/port\connection.c ****         {
 1156              		.loc 1 528 15
 1157 0038 02E0     		b	.L80
 1158              	.L82:
 530:g:/iot/IoT_Device_Demo/iot_link/network/lwm2m/wakaama_lwm2m/port\connection.c ****         }
 1159              		.loc 1 530 21
 1160 003a 7B69     		ldr	r3, [r7, #20]
 1161 003c 1B68     		ldr	r3, [r3]
 1162 003e 7B61     		str	r3, [r7, #20]
 1163              	.L80:
 528:g:/iot/IoT_Device_Demo/iot_link/network/lwm2m/wakaama_lwm2m/port\connection.c ****         {
 1164              		.loc 1 528 15
 1165 0040 7B69     		ldr	r3, [r7, #20]
 1166 0042 002B     		cmp	r3, #0
 1167 0044 04D0     		beq	.L81
 528:g:/iot/IoT_Device_Demo/iot_link/network/lwm2m/wakaama_lwm2m/port\connection.c ****         {
 1168              		.loc 1 528 44 discriminator 1
 1169 0046 7B69     		ldr	r3, [r7, #20]
 1170 0048 1B68     		ldr	r3, [r3]
 528:g:/iot/IoT_Device_Demo/iot_link/network/lwm2m/wakaama_lwm2m/port\connection.c ****         {
 1171              		.loc 1 528 34 discriminator 1
ARM GAS  C:\Users\ADMINI~1\AppData\Local\Temp\ccUFOrrb.s 			page 31


 1172 004a FA68     		ldr	r2, [r7, #12]
 1173 004c 9A42     		cmp	r2, r3
 1174 004e F4D1     		bne	.L82
 1175              	.L81:
 533:g:/iot/IoT_Device_Demo/iot_link/network/lwm2m/wakaama_lwm2m/port\connection.c ****         {
 1176              		.loc 1 533 12
 1177 0050 7B69     		ldr	r3, [r7, #20]
 1178 0052 002B     		cmp	r3, #0
 1179 0054 0AD0     		beq	.L84
 535:g:/iot/IoT_Device_Demo/iot_link/network/lwm2m/wakaama_lwm2m/port\connection.c ****             connection_free(targetP);
 1180              		.loc 1 535 36
 1181 0056 FB68     		ldr	r3, [r7, #12]
 1182 0058 1A68     		ldr	r2, [r3]
 535:g:/iot/IoT_Device_Demo/iot_link/network/lwm2m/wakaama_lwm2m/port\connection.c ****             connection_free(targetP);
 1183              		.loc 1 535 27
 1184 005a 7B69     		ldr	r3, [r7, #20]
 1185 005c 1A60     		str	r2, [r3]
 536:g:/iot/IoT_Device_Demo/iot_link/network/lwm2m/wakaama_lwm2m/port\connection.c ****             lwm2m_free(targetP);
 1186              		.loc 1 536 13
 1187 005e F868     		ldr	r0, [r7, #12]
 1188 0060 FFF7FEFF 		bl	connection_free
 537:g:/iot/IoT_Device_Demo/iot_link/network/lwm2m/wakaama_lwm2m/port\connection.c ****         }
 1189              		.loc 1 537 13
 1190 0064 F868     		ldr	r0, [r7, #12]
 1191 0066 FFF7FEFF 		bl	lwm2m_free
 1192              	.LBE2:
 1193              		.loc 1 541 5
 1194 006a 00BF     		nop
 1195              	.L84:
 1196 006c 00BF     		nop
 542:g:/iot/IoT_Device_Demo/iot_link/network/lwm2m/wakaama_lwm2m/port\connection.c **** }
 1197              		.loc 1 542 1
 1198 006e 1837     		adds	r7, r7, #24
 1199              	.LCFI48:
 1200              		.cfi_def_cfa_offset 8
 1201 0070 BD46     		mov	sp, r7
 1202              	.LCFI49:
 1203              		.cfi_def_cfa_register 13
 1204              		@ sp needed
 1205 0072 80BD     		pop	{r7, pc}
 1206              		.cfi_endproc
 1207              	.LFE21:
 1209              		.section	.text.lwm2m_buffer_recv,"ax",%progbits
 1210              		.align	1
 1211              		.global	lwm2m_buffer_recv
 1212              		.syntax unified
 1213              		.thumb
 1214              		.thumb_func
 1215              		.fpu fpv4-sp-d16
 1217              	lwm2m_buffer_recv:
 1218              	.LFB22:
 543:g:/iot/IoT_Device_Demo/iot_link/network/lwm2m/wakaama_lwm2m/port\connection.c **** 
 544:g:/iot/IoT_Device_Demo/iot_link/network/lwm2m/wakaama_lwm2m/port\connection.c **** 
 545:g:/iot/IoT_Device_Demo/iot_link/network/lwm2m/wakaama_lwm2m/port\connection.c **** int lwm2m_buffer_recv(void *sessionH, uint8_t *buffer, size_t length, uint32_t timeout)
 546:g:/iot/IoT_Device_Demo/iot_link/network/lwm2m/wakaama_lwm2m/port\connection.c **** {
 1219              		.loc 1 546 1
 1220              		.cfi_startproc
ARM GAS  C:\Users\ADMINI~1\AppData\Local\Temp\ccUFOrrb.s 			page 32


 1221              		@ args = 0, pretend = 0, frame = 24
 1222              		@ frame_needed = 1, uses_anonymous_args = 0
 1223 0000 80B5     		push	{r7, lr}
 1224              	.LCFI50:
 1225              		.cfi_def_cfa_offset 8
 1226              		.cfi_offset 7, -8
 1227              		.cfi_offset 14, -4
 1228 0002 86B0     		sub	sp, sp, #24
 1229              	.LCFI51:
 1230              		.cfi_def_cfa_offset 32
 1231 0004 00AF     		add	r7, sp, #0
 1232              	.LCFI52:
 1233              		.cfi_def_cfa_register 7
 1234 0006 F860     		str	r0, [r7, #12]
 1235 0008 B960     		str	r1, [r7, #8]
 1236 000a 7A60     		str	r2, [r7, #4]
 1237 000c 3B60     		str	r3, [r7]
 547:g:/iot/IoT_Device_Demo/iot_link/network/lwm2m/wakaama_lwm2m/port\connection.c ****     connection_t *connP = (connection_t *) sessionH;
 1238              		.loc 1 547 19
 1239 000e FB68     		ldr	r3, [r7, #12]
 1240 0010 7B61     		str	r3, [r7, #20]
 548:g:/iot/IoT_Device_Demo/iot_link/network/lwm2m/wakaama_lwm2m/port\connection.c ****     int ret = -1;
 1241              		.loc 1 548 9
 1242 0012 4FF0FF33 		mov	r3, #-1
 1243 0016 3B61     		str	r3, [r7, #16]
 549:g:/iot/IoT_Device_Demo/iot_link/network/lwm2m/wakaama_lwm2m/port\connection.c ****     timeout *= 1000;
 1244              		.loc 1 549 13
 1245 0018 3B68     		ldr	r3, [r7]
 1246 001a 4FF47A72 		mov	r2, #1000
 1247 001e 02FB03F3 		mul	r3, r2, r3
 1248 0022 3B60     		str	r3, [r7]
 550:g:/iot/IoT_Device_Demo/iot_link/network/lwm2m/wakaama_lwm2m/port\connection.c **** #ifdef WITH_DTLS
 551:g:/iot/IoT_Device_Demo/iot_link/network/lwm2m/wakaama_lwm2m/port\connection.c **** 
 552:g:/iot/IoT_Device_Demo/iot_link/network/lwm2m/wakaama_lwm2m/port\connection.c ****     if (true == connP->dtls_flag)
 553:g:/iot/IoT_Device_Demo/iot_link/network/lwm2m/wakaama_lwm2m/port\connection.c ****     {
 554:g:/iot/IoT_Device_Demo/iot_link/network/lwm2m/wakaama_lwm2m/port\connection.c ****         // security
 555:g:/iot/IoT_Device_Demo/iot_link/network/lwm2m/wakaama_lwm2m/port\connection.c ****         ret = dtls_read(connP->net_context, buffer, length, timeout);
 556:g:/iot/IoT_Device_Demo/iot_link/network/lwm2m/wakaama_lwm2m/port\connection.c **** 
 557:g:/iot/IoT_Device_Demo/iot_link/network/lwm2m/wakaama_lwm2m/port\connection.c ****         if (0 == ret)
 558:g:/iot/IoT_Device_Demo/iot_link/network/lwm2m/wakaama_lwm2m/port\connection.c ****         {
 559:g:/iot/IoT_Device_Demo/iot_link/network/lwm2m/wakaama_lwm2m/port\connection.c ****             inc_connection_stat(connP, CONNECTION_RECV_ERR);
 560:g:/iot/IoT_Device_Demo/iot_link/network/lwm2m/wakaama_lwm2m/port\connection.c ****         }
 561:g:/iot/IoT_Device_Demo/iot_link/network/lwm2m/wakaama_lwm2m/port\connection.c ****         else
 562:g:/iot/IoT_Device_Demo/iot_link/network/lwm2m/wakaama_lwm2m/port\connection.c ****         {
 563:g:/iot/IoT_Device_Demo/iot_link/network/lwm2m/wakaama_lwm2m/port\connection.c ****             connP->errs[CONNECTION_RECV_ERR] = 0;
 564:g:/iot/IoT_Device_Demo/iot_link/network/lwm2m/wakaama_lwm2m/port\connection.c ****         }
 565:g:/iot/IoT_Device_Demo/iot_link/network/lwm2m/wakaama_lwm2m/port\connection.c ****     }
 566:g:/iot/IoT_Device_Demo/iot_link/network/lwm2m/wakaama_lwm2m/port\connection.c ****     else
 567:g:/iot/IoT_Device_Demo/iot_link/network/lwm2m/wakaama_lwm2m/port\connection.c **** #endif
 568:g:/iot/IoT_Device_Demo/iot_link/network/lwm2m/wakaama_lwm2m/port\connection.c ****     {
 569:g:/iot/IoT_Device_Demo/iot_link/network/lwm2m/wakaama_lwm2m/port\connection.c ****         ret = __socket_recv_timeout(connP->net_context, buffer, length, timeout);
 1249              		.loc 1 569 42
 1250 0024 7B69     		ldr	r3, [r7, #20]
 1251 0026 5868     		ldr	r0, [r3, #4]
 1252              		.loc 1 569 15
 1253 0028 3B68     		ldr	r3, [r7]
 1254 002a 7A68     		ldr	r2, [r7, #4]
ARM GAS  C:\Users\ADMINI~1\AppData\Local\Temp\ccUFOrrb.s 			page 33


 1255 002c B968     		ldr	r1, [r7, #8]
 1256 002e FFF7FEFF 		bl	__socket_recv_timeout
 1257 0032 3861     		str	r0, [r7, #16]
 570:g:/iot/IoT_Device_Demo/iot_link/network/lwm2m/wakaama_lwm2m/port\connection.c **** 
 571:g:/iot/IoT_Device_Demo/iot_link/network/lwm2m/wakaama_lwm2m/port\connection.c ****         if (0 == ret)
 1258              		.loc 1 571 12
 1259 0034 3B69     		ldr	r3, [r7, #16]
 1260 0036 002B     		cmp	r3, #0
 1261 0038 04D1     		bne	.L86
 572:g:/iot/IoT_Device_Demo/iot_link/network/lwm2m/wakaama_lwm2m/port\connection.c ****         {
 573:g:/iot/IoT_Device_Demo/iot_link/network/lwm2m/wakaama_lwm2m/port\connection.c ****             inc_connection_stat(connP, CONNECTION_RECV_ERR);
 1262              		.loc 1 573 13
 1263 003a 0121     		movs	r1, #1
 1264 003c 7869     		ldr	r0, [r7, #20]
 1265 003e FFF7FEFF 		bl	inc_connection_stat
 1266 0042 02E0     		b	.L87
 1267              	.L86:
 574:g:/iot/IoT_Device_Demo/iot_link/network/lwm2m/wakaama_lwm2m/port\connection.c ****         }
 575:g:/iot/IoT_Device_Demo/iot_link/network/lwm2m/wakaama_lwm2m/port\connection.c ****         else
 576:g:/iot/IoT_Device_Demo/iot_link/network/lwm2m/wakaama_lwm2m/port\connection.c ****         {
 577:g:/iot/IoT_Device_Demo/iot_link/network/lwm2m/wakaama_lwm2m/port\connection.c ****             connP->errs[CONNECTION_RECV_ERR] = 0;
 1268              		.loc 1 577 46
 1269 0044 7B69     		ldr	r3, [r7, #20]
 1270 0046 0022     		movs	r2, #0
 1271 0048 5A83     		strh	r2, [r3, #26]	@ movhi
 1272              	.L87:
 578:g:/iot/IoT_Device_Demo/iot_link/network/lwm2m/wakaama_lwm2m/port\connection.c ****         }
 579:g:/iot/IoT_Device_Demo/iot_link/network/lwm2m/wakaama_lwm2m/port\connection.c ****     }
 580:g:/iot/IoT_Device_Demo/iot_link/network/lwm2m/wakaama_lwm2m/port\connection.c **** 
 581:g:/iot/IoT_Device_Demo/iot_link/network/lwm2m/wakaama_lwm2m/port\connection.c ****     return ret;
 1273              		.loc 1 581 12
 1274 004a 3B69     		ldr	r3, [r7, #16]
 582:g:/iot/IoT_Device_Demo/iot_link/network/lwm2m/wakaama_lwm2m/port\connection.c **** }
 1275              		.loc 1 582 1
 1276 004c 1846     		mov	r0, r3
 1277 004e 1837     		adds	r7, r7, #24
 1278              	.LCFI53:
 1279              		.cfi_def_cfa_offset 8
 1280 0050 BD46     		mov	sp, r7
 1281              	.LCFI54:
 1282              		.cfi_def_cfa_register 13
 1283              		@ sp needed
 1284 0052 80BD     		pop	{r7, pc}
 1285              		.cfi_endproc
 1286              	.LFE22:
 1288              		.section	.text.connection_is_valid,"ax",%progbits
 1289              		.align	1
 1290              		.syntax unified
 1291              		.thumb
 1292              		.thumb_func
 1293              		.fpu fpv4-sp-d16
 1295              	connection_is_valid:
 1296              	.LFB23:
 583:g:/iot/IoT_Device_Demo/iot_link/network/lwm2m/wakaama_lwm2m/port\connection.c **** 
 584:g:/iot/IoT_Device_Demo/iot_link/network/lwm2m/wakaama_lwm2m/port\connection.c **** static bool connection_is_valid(void *user_data, void *session)
 585:g:/iot/IoT_Device_Demo/iot_link/network/lwm2m/wakaama_lwm2m/port\connection.c **** {
 1297              		.loc 1 585 1
ARM GAS  C:\Users\ADMINI~1\AppData\Local\Temp\ccUFOrrb.s 			page 34


 1298              		.cfi_startproc
 1299              		@ args = 0, pretend = 0, frame = 16
 1300              		@ frame_needed = 1, uses_anonymous_args = 0
 1301              		@ link register save eliminated.
 1302 0000 80B4     		push	{r7}
 1303              	.LCFI55:
 1304              		.cfi_def_cfa_offset 4
 1305              		.cfi_offset 7, -4
 1306 0002 85B0     		sub	sp, sp, #20
 1307              	.LCFI56:
 1308              		.cfi_def_cfa_offset 24
 1309 0004 00AF     		add	r7, sp, #0
 1310              	.LCFI57:
 1311              		.cfi_def_cfa_register 7
 1312 0006 7860     		str	r0, [r7, #4]
 1313 0008 3960     		str	r1, [r7]
 586:g:/iot/IoT_Device_Demo/iot_link/network/lwm2m/wakaama_lwm2m/port\connection.c ****     client_data_t *data = (client_data_t *)user_data;
 1314              		.loc 1 586 20
 1315 000a 7B68     		ldr	r3, [r7, #4]
 1316 000c BB60     		str	r3, [r7, #8]
 587:g:/iot/IoT_Device_Demo/iot_link/network/lwm2m/wakaama_lwm2m/port\connection.c ****     connection_t *conn;
 588:g:/iot/IoT_Device_Demo/iot_link/network/lwm2m/wakaama_lwm2m/port\connection.c **** 
 589:g:/iot/IoT_Device_Demo/iot_link/network/lwm2m/wakaama_lwm2m/port\connection.c ****     if ((NULL == data) || (NULL == data->connList))
 1317              		.loc 1 589 8
 1318 000e BB68     		ldr	r3, [r7, #8]
 1319 0010 002B     		cmp	r3, #0
 1320 0012 03D0     		beq	.L90
 1321              		.loc 1 589 40 discriminator 1
 1322 0014 BB68     		ldr	r3, [r7, #8]
 1323 0016 9B68     		ldr	r3, [r3, #8]
 1324              		.loc 1 589 24 discriminator 1
 1325 0018 002B     		cmp	r3, #0
 1326 001a 01D1     		bne	.L91
 1327              	.L90:
 590:g:/iot/IoT_Device_Demo/iot_link/network/lwm2m/wakaama_lwm2m/port\connection.c ****     {
 591:g:/iot/IoT_Device_Demo/iot_link/network/lwm2m/wakaama_lwm2m/port\connection.c ****         return false;
 1328              		.loc 1 591 16
 1329 001c 0023     		movs	r3, #0
 1330 001e 10E0     		b	.L92
 1331              	.L91:
 592:g:/iot/IoT_Device_Demo/iot_link/network/lwm2m/wakaama_lwm2m/port\connection.c ****     }
 593:g:/iot/IoT_Device_Demo/iot_link/network/lwm2m/wakaama_lwm2m/port\connection.c **** 
 594:g:/iot/IoT_Device_Demo/iot_link/network/lwm2m/wakaama_lwm2m/port\connection.c ****     conn = data->connList;
 1332              		.loc 1 594 10
 1333 0020 BB68     		ldr	r3, [r7, #8]
 1334 0022 9B68     		ldr	r3, [r3, #8]
 1335 0024 FB60     		str	r3, [r7, #12]
 595:g:/iot/IoT_Device_Demo/iot_link/network/lwm2m/wakaama_lwm2m/port\connection.c **** 
 596:g:/iot/IoT_Device_Demo/iot_link/network/lwm2m/wakaama_lwm2m/port\connection.c ****     while (NULL != conn)
 1336              		.loc 1 596 11
 1337 0026 08E0     		b	.L93
 1338              	.L95:
 597:g:/iot/IoT_Device_Demo/iot_link/network/lwm2m/wakaama_lwm2m/port\connection.c ****     {
 598:g:/iot/IoT_Device_Demo/iot_link/network/lwm2m/wakaama_lwm2m/port\connection.c ****         if (conn == session)
 1339              		.loc 1 598 12
 1340 0028 FA68     		ldr	r2, [r7, #12]
 1341 002a 3B68     		ldr	r3, [r7]
ARM GAS  C:\Users\ADMINI~1\AppData\Local\Temp\ccUFOrrb.s 			page 35


 1342 002c 9A42     		cmp	r2, r3
 1343 002e 01D1     		bne	.L94
 599:g:/iot/IoT_Device_Demo/iot_link/network/lwm2m/wakaama_lwm2m/port\connection.c ****         {
 600:g:/iot/IoT_Device_Demo/iot_link/network/lwm2m/wakaama_lwm2m/port\connection.c ****             return true;
 1344              		.loc 1 600 20
 1345 0030 0123     		movs	r3, #1
 1346 0032 06E0     		b	.L92
 1347              	.L94:
 601:g:/iot/IoT_Device_Demo/iot_link/network/lwm2m/wakaama_lwm2m/port\connection.c ****         }
 602:g:/iot/IoT_Device_Demo/iot_link/network/lwm2m/wakaama_lwm2m/port\connection.c **** 
 603:g:/iot/IoT_Device_Demo/iot_link/network/lwm2m/wakaama_lwm2m/port\connection.c ****         conn = conn->next;
 1348              		.loc 1 603 14
 1349 0034 FB68     		ldr	r3, [r7, #12]
 1350 0036 1B68     		ldr	r3, [r3]
 1351 0038 FB60     		str	r3, [r7, #12]
 1352              	.L93:
 596:g:/iot/IoT_Device_Demo/iot_link/network/lwm2m/wakaama_lwm2m/port\connection.c ****     {
 1353              		.loc 1 596 11
 1354 003a FB68     		ldr	r3, [r7, #12]
 1355 003c 002B     		cmp	r3, #0
 1356 003e F3D1     		bne	.L95
 604:g:/iot/IoT_Device_Demo/iot_link/network/lwm2m/wakaama_lwm2m/port\connection.c ****     }
 605:g:/iot/IoT_Device_Demo/iot_link/network/lwm2m/wakaama_lwm2m/port\connection.c **** 
 606:g:/iot/IoT_Device_Demo/iot_link/network/lwm2m/wakaama_lwm2m/port\connection.c ****     return false;
 1357              		.loc 1 606 12
 1358 0040 0023     		movs	r3, #0
 1359              	.L92:
 607:g:/iot/IoT_Device_Demo/iot_link/network/lwm2m/wakaama_lwm2m/port\connection.c **** }
 1360              		.loc 1 607 1
 1361 0042 1846     		mov	r0, r3
 1362 0044 1437     		adds	r7, r7, #20
 1363              	.LCFI58:
 1364              		.cfi_def_cfa_offset 4
 1365 0046 BD46     		mov	sp, r7
 1366              	.LCFI59:
 1367              		.cfi_def_cfa_register 13
 1368              		@ sp needed
 1369 0048 5DF8047B 		ldr	r7, [sp], #4
 1370              	.LCFI60:
 1371              		.cfi_restore 7
 1372              		.cfi_def_cfa_offset 0
 1373 004c 7047     		bx	lr
 1374              		.cfi_endproc
 1375              	.LFE23:
 1377              		.section	.text.lwm2m_buffer_send,"ax",%progbits
 1378              		.align	1
 1379              		.global	lwm2m_buffer_send
 1380              		.syntax unified
 1381              		.thumb
 1382              		.thumb_func
 1383              		.fpu fpv4-sp-d16
 1385              	lwm2m_buffer_send:
 1386              	.LFB24:
 608:g:/iot/IoT_Device_Demo/iot_link/network/lwm2m/wakaama_lwm2m/port\connection.c **** 
 609:g:/iot/IoT_Device_Demo/iot_link/network/lwm2m/wakaama_lwm2m/port\connection.c **** uint8_t lwm2m_buffer_send(void *sessionH,
 610:g:/iot/IoT_Device_Demo/iot_link/network/lwm2m/wakaama_lwm2m/port\connection.c ****                           uint8_t *buffer,
 611:g:/iot/IoT_Device_Demo/iot_link/network/lwm2m/wakaama_lwm2m/port\connection.c ****                           size_t length,
ARM GAS  C:\Users\ADMINI~1\AppData\Local\Temp\ccUFOrrb.s 			page 36


 612:g:/iot/IoT_Device_Demo/iot_link/network/lwm2m/wakaama_lwm2m/port\connection.c ****                           void *userdata)
 613:g:/iot/IoT_Device_Demo/iot_link/network/lwm2m/wakaama_lwm2m/port\connection.c **** {
 1387              		.loc 1 613 1
 1388              		.cfi_startproc
 1389              		@ args = 0, pretend = 0, frame = 24
 1390              		@ frame_needed = 1, uses_anonymous_args = 0
 1391 0000 80B5     		push	{r7, lr}
 1392              	.LCFI61:
 1393              		.cfi_def_cfa_offset 8
 1394              		.cfi_offset 7, -8
 1395              		.cfi_offset 14, -4
 1396 0002 86B0     		sub	sp, sp, #24
 1397              	.LCFI62:
 1398              		.cfi_def_cfa_offset 32
 1399 0004 00AF     		add	r7, sp, #0
 1400              	.LCFI63:
 1401              		.cfi_def_cfa_register 7
 1402 0006 F860     		str	r0, [r7, #12]
 1403 0008 B960     		str	r1, [r7, #8]
 1404 000a 7A60     		str	r2, [r7, #4]
 1405 000c 3B60     		str	r3, [r7]
 614:g:/iot/IoT_Device_Demo/iot_link/network/lwm2m/wakaama_lwm2m/port\connection.c ****     connection_t *connP = (connection_t *) sessionH;
 1406              		.loc 1 614 19
 1407 000e FB68     		ldr	r3, [r7, #12]
 1408 0010 7B61     		str	r3, [r7, #20]
 615:g:/iot/IoT_Device_Demo/iot_link/network/lwm2m/wakaama_lwm2m/port\connection.c ****     int ret;
 616:g:/iot/IoT_Device_Demo/iot_link/network/lwm2m/wakaama_lwm2m/port\connection.c **** 
 617:g:/iot/IoT_Device_Demo/iot_link/network/lwm2m/wakaama_lwm2m/port\connection.c ****     /* should check the valid of the connection,because coap tranctions does not update the session
 618:g:/iot/IoT_Device_Demo/iot_link/network/lwm2m/wakaama_lwm2m/port\connection.c ****     if ((NULL == connP) || (!connection_is_valid(userdata, sessionH)))
 1409              		.loc 1 618 8
 1410 0012 7B69     		ldr	r3, [r7, #20]
 1411 0014 002B     		cmp	r3, #0
 1412 0016 09D0     		beq	.L97
 1413              		.loc 1 618 30 discriminator 1
 1414 0018 F968     		ldr	r1, [r7, #12]
 1415 001a 3868     		ldr	r0, [r7]
 1416 001c FFF7FEFF 		bl	connection_is_valid
 1417 0020 0346     		mov	r3, r0
 1418              		.loc 1 618 29 discriminator 1
 1419 0022 83F00103 		eor	r3, r3, #1
 1420 0026 DBB2     		uxtb	r3, r3
 1421              		.loc 1 618 25 discriminator 1
 1422 0028 002B     		cmp	r3, #0
 1423 002a 01D0     		beq	.L98
 1424              	.L97:
 619:g:/iot/IoT_Device_Demo/iot_link/network/lwm2m/wakaama_lwm2m/port\connection.c ****     {
 620:g:/iot/IoT_Device_Demo/iot_link/network/lwm2m/wakaama_lwm2m/port\connection.c ****         ATINY_LOG(LOG_INFO, "#> failed sending %lu bytes, missing connection\r\n", (unsigned long)l
 621:g:/iot/IoT_Device_Demo/iot_link/network/lwm2m/wakaama_lwm2m/port\connection.c ****         return COAP_500_INTERNAL_SERVER_ERROR ;
 1425              		.loc 1 621 16
 1426 002c A023     		movs	r3, #160
 1427 002e 14E0     		b	.L99
 1428              	.L98:
 622:g:/iot/IoT_Device_Demo/iot_link/network/lwm2m/wakaama_lwm2m/port\connection.c ****     }
 623:g:/iot/IoT_Device_Demo/iot_link/network/lwm2m/wakaama_lwm2m/port\connection.c **** 
 624:g:/iot/IoT_Device_Demo/iot_link/network/lwm2m/wakaama_lwm2m/port\connection.c ****     ATINY_LOG(LOG_INFO, "call connection_send in lwm2m_buffer_send, length is %d\n", length);
 625:g:/iot/IoT_Device_Demo/iot_link/network/lwm2m/wakaama_lwm2m/port\connection.c **** #ifdef WITH_DTLS
 626:g:/iot/IoT_Device_Demo/iot_link/network/lwm2m/wakaama_lwm2m/port\connection.c **** 
ARM GAS  C:\Users\ADMINI~1\AppData\Local\Temp\ccUFOrrb.s 			page 37


 627:g:/iot/IoT_Device_Demo/iot_link/network/lwm2m/wakaama_lwm2m/port\connection.c ****     if (true == connP->dtls_flag)
 628:g:/iot/IoT_Device_Demo/iot_link/network/lwm2m/wakaama_lwm2m/port\connection.c ****     {
 629:g:/iot/IoT_Device_Demo/iot_link/network/lwm2m/wakaama_lwm2m/port\connection.c ****         // security
 630:g:/iot/IoT_Device_Demo/iot_link/network/lwm2m/wakaama_lwm2m/port\connection.c ****         ret = dtls_write(connP->net_context, buffer, length);
 631:g:/iot/IoT_Device_Demo/iot_link/network/lwm2m/wakaama_lwm2m/port\connection.c **** 
 632:g:/iot/IoT_Device_Demo/iot_link/network/lwm2m/wakaama_lwm2m/port\connection.c ****         if (0 == ret)
 633:g:/iot/IoT_Device_Demo/iot_link/network/lwm2m/wakaama_lwm2m/port\connection.c ****         {
 634:g:/iot/IoT_Device_Demo/iot_link/network/lwm2m/wakaama_lwm2m/port\connection.c ****             inc_connection_stat(connP, CONNECTION_SEND_ERR);
 635:g:/iot/IoT_Device_Demo/iot_link/network/lwm2m/wakaama_lwm2m/port\connection.c ****             return COAP_500_INTERNAL_SERVER_ERROR;
 636:g:/iot/IoT_Device_Demo/iot_link/network/lwm2m/wakaama_lwm2m/port\connection.c ****         }
 637:g:/iot/IoT_Device_Demo/iot_link/network/lwm2m/wakaama_lwm2m/port\connection.c ****         else
 638:g:/iot/IoT_Device_Demo/iot_link/network/lwm2m/wakaama_lwm2m/port\connection.c ****         {
 639:g:/iot/IoT_Device_Demo/iot_link/network/lwm2m/wakaama_lwm2m/port\connection.c ****             connP->errs[CONNECTION_SEND_ERR] = 0;
 640:g:/iot/IoT_Device_Demo/iot_link/network/lwm2m/wakaama_lwm2m/port\connection.c ****             return COAP_NO_ERROR;
 641:g:/iot/IoT_Device_Demo/iot_link/network/lwm2m/wakaama_lwm2m/port\connection.c ****         }
 642:g:/iot/IoT_Device_Demo/iot_link/network/lwm2m/wakaama_lwm2m/port\connection.c ****     }
 643:g:/iot/IoT_Device_Demo/iot_link/network/lwm2m/wakaama_lwm2m/port\connection.c ****     else
 644:g:/iot/IoT_Device_Demo/iot_link/network/lwm2m/wakaama_lwm2m/port\connection.c **** #endif
 645:g:/iot/IoT_Device_Demo/iot_link/network/lwm2m/wakaama_lwm2m/port\connection.c ****     {
 646:g:/iot/IoT_Device_Demo/iot_link/network/lwm2m/wakaama_lwm2m/port\connection.c ****         ret = __socket_send(connP->net_context, buffer, length);
 1429              		.loc 1 646 34
 1430 0030 7B69     		ldr	r3, [r7, #20]
 1431 0032 5B68     		ldr	r3, [r3, #4]
 1432              		.loc 1 646 15
 1433 0034 7A68     		ldr	r2, [r7, #4]
 1434 0036 B968     		ldr	r1, [r7, #8]
 1435 0038 1846     		mov	r0, r3
 1436 003a FFF7FEFF 		bl	__socket_send
 1437 003e 3861     		str	r0, [r7, #16]
 647:g:/iot/IoT_Device_Demo/iot_link/network/lwm2m/wakaama_lwm2m/port\connection.c **** 
 648:g:/iot/IoT_Device_Demo/iot_link/network/lwm2m/wakaama_lwm2m/port\connection.c ****         if (ret > 0)
 1438              		.loc 1 648 12
 1439 0040 3B69     		ldr	r3, [r7, #16]
 1440 0042 002B     		cmp	r3, #0
 1441 0044 04DD     		ble	.L100
 649:g:/iot/IoT_Device_Demo/iot_link/network/lwm2m/wakaama_lwm2m/port\connection.c ****         {
 650:g:/iot/IoT_Device_Demo/iot_link/network/lwm2m/wakaama_lwm2m/port\connection.c ****             connP->errs[CONNECTION_SEND_ERR] = 0;
 1442              		.loc 1 650 46
 1443 0046 7B69     		ldr	r3, [r7, #20]
 1444 0048 0022     		movs	r2, #0
 1445 004a 1A83     		strh	r2, [r3, #24]	@ movhi
 651:g:/iot/IoT_Device_Demo/iot_link/network/lwm2m/wakaama_lwm2m/port\connection.c ****             return COAP_NO_ERROR;
 1446              		.loc 1 651 20
 1447 004c 0023     		movs	r3, #0
 1448 004e 04E0     		b	.L99
 1449              	.L100:
 652:g:/iot/IoT_Device_Demo/iot_link/network/lwm2m/wakaama_lwm2m/port\connection.c ****         }
 653:g:/iot/IoT_Device_Demo/iot_link/network/lwm2m/wakaama_lwm2m/port\connection.c ****         else
 654:g:/iot/IoT_Device_Demo/iot_link/network/lwm2m/wakaama_lwm2m/port\connection.c ****         {
 655:g:/iot/IoT_Device_Demo/iot_link/network/lwm2m/wakaama_lwm2m/port\connection.c ****             inc_connection_stat(connP, CONNECTION_SEND_ERR);
 1450              		.loc 1 655 13
 1451 0050 0021     		movs	r1, #0
 1452 0052 7869     		ldr	r0, [r7, #20]
 1453 0054 FFF7FEFF 		bl	inc_connection_stat
 656:g:/iot/IoT_Device_Demo/iot_link/network/lwm2m/wakaama_lwm2m/port\connection.c ****             return COAP_500_INTERNAL_SERVER_ERROR;
 1454              		.loc 1 656 20
 1455 0058 A023     		movs	r3, #160
ARM GAS  C:\Users\ADMINI~1\AppData\Local\Temp\ccUFOrrb.s 			page 38


 1456              	.L99:
 657:g:/iot/IoT_Device_Demo/iot_link/network/lwm2m/wakaama_lwm2m/port\connection.c ****         }
 658:g:/iot/IoT_Device_Demo/iot_link/network/lwm2m/wakaama_lwm2m/port\connection.c ****     }
 659:g:/iot/IoT_Device_Demo/iot_link/network/lwm2m/wakaama_lwm2m/port\connection.c **** }
 1457              		.loc 1 659 1
 1458 005a 1846     		mov	r0, r3
 1459 005c 1837     		adds	r7, r7, #24
 1460              	.LCFI64:
 1461              		.cfi_def_cfa_offset 8
 1462 005e BD46     		mov	sp, r7
 1463              	.LCFI65:
 1464              		.cfi_def_cfa_register 13
 1465              		@ sp needed
 1466 0060 80BD     		pop	{r7, pc}
 1467              		.cfi_endproc
 1468              	.LFE24:
 1470              		.section	.text.lwm2m_session_is_equal,"ax",%progbits
 1471              		.align	1
 1472              		.global	lwm2m_session_is_equal
 1473              		.syntax unified
 1474              		.thumb
 1475              		.thumb_func
 1476              		.fpu fpv4-sp-d16
 1478              	lwm2m_session_is_equal:
 1479              	.LFB25:
 660:g:/iot/IoT_Device_Demo/iot_link/network/lwm2m/wakaama_lwm2m/port\connection.c **** 
 661:g:/iot/IoT_Device_Demo/iot_link/network/lwm2m/wakaama_lwm2m/port\connection.c **** bool lwm2m_session_is_equal(void *session1, void *session2, void *userData)
 662:g:/iot/IoT_Device_Demo/iot_link/network/lwm2m/wakaama_lwm2m/port\connection.c **** {
 1480              		.loc 1 662 1
 1481              		.cfi_startproc
 1482              		@ args = 0, pretend = 0, frame = 16
 1483              		@ frame_needed = 1, uses_anonymous_args = 0
 1484              		@ link register save eliminated.
 1485 0000 80B4     		push	{r7}
 1486              	.LCFI66:
 1487              		.cfi_def_cfa_offset 4
 1488              		.cfi_offset 7, -4
 1489 0002 85B0     		sub	sp, sp, #20
 1490              	.LCFI67:
 1491              		.cfi_def_cfa_offset 24
 1492 0004 00AF     		add	r7, sp, #0
 1493              	.LCFI68:
 1494              		.cfi_def_cfa_register 7
 1495 0006 F860     		str	r0, [r7, #12]
 1496 0008 B960     		str	r1, [r7, #8]
 1497 000a 7A60     		str	r2, [r7, #4]
 663:g:/iot/IoT_Device_Demo/iot_link/network/lwm2m/wakaama_lwm2m/port\connection.c ****     return (session1 == session2);
 1498              		.loc 1 663 22
 1499 000c FA68     		ldr	r2, [r7, #12]
 1500 000e BB68     		ldr	r3, [r7, #8]
 1501 0010 9A42     		cmp	r2, r3
 1502 0012 0CBF     		ite	eq
 1503 0014 0123     		moveq	r3, #1
 1504 0016 0023     		movne	r3, #0
 1505 0018 DBB2     		uxtb	r3, r3
 664:g:/iot/IoT_Device_Demo/iot_link/network/lwm2m/wakaama_lwm2m/port\connection.c **** }
 1506              		.loc 1 664 1
ARM GAS  C:\Users\ADMINI~1\AppData\Local\Temp\ccUFOrrb.s 			page 39


 1507 001a 1846     		mov	r0, r3
 1508 001c 1437     		adds	r7, r7, #20
 1509              	.LCFI69:
 1510              		.cfi_def_cfa_offset 4
 1511 001e BD46     		mov	sp, r7
 1512              	.LCFI70:
 1513              		.cfi_def_cfa_register 13
 1514              		@ sp needed
 1515 0020 5DF8047B 		ldr	r7, [sp], #4
 1516              	.LCFI71:
 1517              		.cfi_restore 7
 1518              		.cfi_def_cfa_offset 0
 1519 0024 7047     		bx	lr
 1520              		.cfi_endproc
 1521              	.LFE25:
 1523              		.section	.text.lwm2m_register_connection_err_notify,"ax",%progbits
 1524              		.align	1
 1525              		.global	lwm2m_register_connection_err_notify
 1526              		.syntax unified
 1527              		.thumb
 1528              		.thumb_func
 1529              		.fpu fpv4-sp-d16
 1531              	lwm2m_register_connection_err_notify:
 1532              	.LFB26:
 665:g:/iot/IoT_Device_Demo/iot_link/network/lwm2m/wakaama_lwm2m/port\connection.c **** 
 666:g:/iot/IoT_Device_Demo/iot_link/network/lwm2m/wakaama_lwm2m/port\connection.c **** void lwm2m_register_connection_err_notify(lwm2m_connection_err_notify_t nofiy)
 667:g:/iot/IoT_Device_Demo/iot_link/network/lwm2m/wakaama_lwm2m/port\connection.c **** {
 1533              		.loc 1 667 1
 1534              		.cfi_startproc
 1535              		@ args = 0, pretend = 0, frame = 8
 1536              		@ frame_needed = 1, uses_anonymous_args = 0
 1537              		@ link register save eliminated.
 1538 0000 80B4     		push	{r7}
 1539              	.LCFI72:
 1540              		.cfi_def_cfa_offset 4
 1541              		.cfi_offset 7, -4
 1542 0002 83B0     		sub	sp, sp, #12
 1543              	.LCFI73:
 1544              		.cfi_def_cfa_offset 16
 1545 0004 00AF     		add	r7, sp, #0
 1546              	.LCFI74:
 1547              		.cfi_def_cfa_register 7
 1548 0006 7860     		str	r0, [r7, #4]
 668:g:/iot/IoT_Device_Demo/iot_link/network/lwm2m/wakaama_lwm2m/port\connection.c ****     g_connection_err_notify = nofiy;
 1549              		.loc 1 668 29
 1550 0008 044A     		ldr	r2, .L104
 1551 000a 7B68     		ldr	r3, [r7, #4]
 1552 000c 1360     		str	r3, [r2]
 669:g:/iot/IoT_Device_Demo/iot_link/network/lwm2m/wakaama_lwm2m/port\connection.c **** }
 1553              		.loc 1 669 1
 1554 000e 00BF     		nop
 1555 0010 0C37     		adds	r7, r7, #12
 1556              	.LCFI75:
 1557              		.cfi_def_cfa_offset 4
 1558 0012 BD46     		mov	sp, r7
 1559              	.LCFI76:
 1560              		.cfi_def_cfa_register 13
ARM GAS  C:\Users\ADMINI~1\AppData\Local\Temp\ccUFOrrb.s 			page 40


 1561              		@ sp needed
 1562 0014 5DF8047B 		ldr	r7, [sp], #4
 1563              	.LCFI77:
 1564              		.cfi_restore 7
 1565              		.cfi_def_cfa_offset 0
 1566 0018 7047     		bx	lr
 1567              	.L105:
 1568 001a 00BF     		.align	2
 1569              	.L104:
 1570 001c 00000000 		.word	g_connection_err_notify
 1571              		.cfi_endproc
 1572              	.LFE26:
 1574              		.section	.rodata.max_num.9204,"a"
 1575              		.align	2
 1578              	max_num.9204:
 1579 0000 0A00     		.short	10
 1580 0002 0A00     		.short	10
 1581              		.text
 1582              	.Letext0:
 1583              		.file 2 "g:\\iot\\.huawei-liteos-studio\\tools\\arm-none-eabi\\arm-none-eabi\\include\\machine\\_d
 1584              		.file 3 "g:\\iot\\.huawei-liteos-studio\\tools\\arm-none-eabi\\lib\\gcc\\arm-none-eabi\\9.2.1\\inc
 1585              		.file 4 "g:\\iot\\.huawei-liteos-studio\\tools\\arm-none-eabi\\arm-none-eabi\\include\\sys\\_stdin
 1586              		.file 5 "g:\\iot\\.huawei-liteos-studio\\tools\\arm-none-eabi\\arm-none-eabi\\include\\sys\\lock.h
 1587              		.file 6 "g:\\iot\\.huawei-liteos-studio\\tools\\arm-none-eabi\\arm-none-eabi\\include\\sys\\_types
 1588              		.file 7 "g:\\iot\\.huawei-liteos-studio\\tools\\arm-none-eabi\\arm-none-eabi\\include\\sys\\reent.
 1589              		.file 8 "g:\\iot\\.huawei-liteos-studio\\tools\\arm-none-eabi\\arm-none-eabi\\include\\ctype.h"
 1590              		.file 9 "g:\\iot\\.huawei-liteos-studio\\tools\\arm-none-eabi\\arm-none-eabi\\include\\sys\\_timev
 1591              		.file 10 "g:\\iot\\.huawei-liteos-studio\\tools\\arm-none-eabi\\arm-none-eabi\\include\\time.h"
 1592              		.file 11 "g:/iot/IoT_Device_Demo/iot_link/network/lwm2m/wakaama_lwm2m/wakaama-master/core/liblwm2m
 1593              		.file 12 "g:/iot/IoT_Device_Demo/iot_link/network/lwm2m/wakaama_lwm2m/wakaama-master/core/er-coap-
 1594              		.file 13 "g:/iot/IoT_Device_Demo/iot_link/network/lwm2m/wakaama_lwm2m/wakaama-master/core/liblwm2m
 1595              		.file 14 "g:/iot/IoT_Device_Demo/iot_link/network/lwm2m/wakaama_lwm2m/port/connection.h"
 1596              		.file 15 "g:/iot/IoT_Device_Demo/iot_link/inc/sal_types.h"
 1597              		.file 16 "g:\\iot\\.huawei-liteos-studio\\tools\\arm-none-eabi\\arm-none-eabi\\include\\stdlib.h"
 1598              		.file 17 "g:/iot/IoT_Device_Demo/iot_link/network/lwm2m/wakaama_lwm2m/port/object_comm.h"
ARM GAS  C:\Users\ADMINI~1\AppData\Local\Temp\ccUFOrrb.s 			page 41

