ARM GAS  C:\Users\ADMINI~1\AppData\Local\Temp\ccEp9HN1.s 			page 1


   1              		.cpu cortex-m4
   2              		.eabi_attribute 27, 1
   3              		.eabi_attribute 28, 1
   4              		.eabi_attribute 20, 1
   5              		.eabi_attribute 21, 1
   6              		.eabi_attribute 23, 3
   7              		.eabi_attribute 24, 1
   8              		.eabi_attribute 25, 1
   9              		.eabi_attribute 26, 1
  10              		.eabi_attribute 30, 6
  11              		.eabi_attribute 34, 1
  12              		.eabi_attribute 18, 4
  13              		.file	"lwm2m_port.c"
  14              		.text
  15              	.Ltext0:
  16              		.cfi_sections	.debug_frame
  17              		.section	.text.get_resource_uri,"ax",%progbits
  18              		.align	1
  19              		.arch armv7e-m
  20              		.syntax unified
  21              		.thumb
  22              		.thumb_func
  23              		.fpu fpv4-sp-d16
  25              	get_resource_uri:
  26              	.LFB12:
  27              		.file 1 "g:/iot/IoT_Device_Demo/iot_link/network/lwm2m/wakaama_lwm2m/port/lwm2m_rpt.h"
   1:g:/iot/IoT_Device_Demo/iot_link/network/lwm2m/wakaama_lwm2m/port\lwm2m_rpt.h **** /*----------------------------------------------------------------------------
   2:g:/iot/IoT_Device_Demo/iot_link/network/lwm2m/wakaama_lwm2m/port\lwm2m_rpt.h ****  * Copyright (c) <2016-2018>, <Huawei Technologies Co., Ltd>
   3:g:/iot/IoT_Device_Demo/iot_link/network/lwm2m/wakaama_lwm2m/port\lwm2m_rpt.h ****  * All rights reserved.
   4:g:/iot/IoT_Device_Demo/iot_link/network/lwm2m/wakaama_lwm2m/port\lwm2m_rpt.h ****  * Redistribution and use in source and binary forms, with or without modification,
   5:g:/iot/IoT_Device_Demo/iot_link/network/lwm2m/wakaama_lwm2m/port\lwm2m_rpt.h ****  * are permitted provided that the following conditions are met:
   6:g:/iot/IoT_Device_Demo/iot_link/network/lwm2m/wakaama_lwm2m/port\lwm2m_rpt.h ****  * 1. Redistributions of source code must retain the above copyright notice, this list of
   7:g:/iot/IoT_Device_Demo/iot_link/network/lwm2m/wakaama_lwm2m/port\lwm2m_rpt.h ****  * conditions and the following disclaimer.
   8:g:/iot/IoT_Device_Demo/iot_link/network/lwm2m/wakaama_lwm2m/port\lwm2m_rpt.h ****  * 2. Redistributions in binary form must reproduce the above copyright notice, this list
   9:g:/iot/IoT_Device_Demo/iot_link/network/lwm2m/wakaama_lwm2m/port\lwm2m_rpt.h ****  * of conditions and the following disclaimer in the documentation and/or other materials
  10:g:/iot/IoT_Device_Demo/iot_link/network/lwm2m/wakaama_lwm2m/port\lwm2m_rpt.h ****  * provided with the distribution.
  11:g:/iot/IoT_Device_Demo/iot_link/network/lwm2m/wakaama_lwm2m/port\lwm2m_rpt.h ****  * 3. Neither the name of the copyright holder nor the names of its contributors may be used
  12:g:/iot/IoT_Device_Demo/iot_link/network/lwm2m/wakaama_lwm2m/port\lwm2m_rpt.h ****  * to endorse or promote products derived from this software without specific prior written
  13:g:/iot/IoT_Device_Demo/iot_link/network/lwm2m/wakaama_lwm2m/port\lwm2m_rpt.h ****  * permission.
  14:g:/iot/IoT_Device_Demo/iot_link/network/lwm2m/wakaama_lwm2m/port\lwm2m_rpt.h ****  * THIS SOFTWARE IS PROVIDED BY THE COPYRIGHT HOLDERS AND CONTRIBUTORS
  15:g:/iot/IoT_Device_Demo/iot_link/network/lwm2m/wakaama_lwm2m/port\lwm2m_rpt.h ****  * "AS IS" AND ANY EXPRESS OR IMPLIED WARRANTIES, INCLUDING, BUT NOT LIMITED TO,
  16:g:/iot/IoT_Device_Demo/iot_link/network/lwm2m/wakaama_lwm2m/port\lwm2m_rpt.h ****  * THE IMPLIED WARRANTIES OF MERCHANTABILITY AND FITNESS FOR A PARTICULAR
  17:g:/iot/IoT_Device_Demo/iot_link/network/lwm2m/wakaama_lwm2m/port\lwm2m_rpt.h ****  * PURPOSE ARE DISCLAIMED. IN NO EVENT SHALL THE COPYRIGHT HOLDER OR
  18:g:/iot/IoT_Device_Demo/iot_link/network/lwm2m/wakaama_lwm2m/port\lwm2m_rpt.h ****  * CONTRIBUTORS BE LIABLE FOR ANY DIRECT, INDIRECT, INCIDENTAL, SPECIAL,
  19:g:/iot/IoT_Device_Demo/iot_link/network/lwm2m/wakaama_lwm2m/port\lwm2m_rpt.h ****  * EXEMPLARY, OR CONSEQUENTIAL DAMAGES (INCLUDING, BUT NOT LIMITED TO,
  20:g:/iot/IoT_Device_Demo/iot_link/network/lwm2m/wakaama_lwm2m/port\lwm2m_rpt.h ****  * PROCUREMENT OF SUBSTITUTE GOODS OR SERVICES; LOSS OF USE, DATA, OR PROFITS;
  21:g:/iot/IoT_Device_Demo/iot_link/network/lwm2m/wakaama_lwm2m/port\lwm2m_rpt.h ****  * OR BUSINESS INTERRUPTION) HOWEVER CAUSED AND ON ANY THEORY OF LIABILITY,
  22:g:/iot/IoT_Device_Demo/iot_link/network/lwm2m/wakaama_lwm2m/port\lwm2m_rpt.h ****  * WHETHER IN CONTRACT, STRICT LIABILITY, OR TORT (INCLUDING NEGLIGENCE OR
  23:g:/iot/IoT_Device_Demo/iot_link/network/lwm2m/wakaama_lwm2m/port\lwm2m_rpt.h ****  * OTHERWISE) ARISING IN ANY WAY OUT OF THE USE OF THIS SOFTWARE, EVEN IF
  24:g:/iot/IoT_Device_Demo/iot_link/network/lwm2m/wakaama_lwm2m/port\lwm2m_rpt.h ****  * ADVISED OF THE POSSIBILITY OF SUCH DAMAGE.
  25:g:/iot/IoT_Device_Demo/iot_link/network/lwm2m/wakaama_lwm2m/port\lwm2m_rpt.h ****  *---------------------------------------------------------------------------*/
  26:g:/iot/IoT_Device_Demo/iot_link/network/lwm2m/wakaama_lwm2m/port\lwm2m_rpt.h **** /*----------------------------------------------------------------------------
  27:g:/iot/IoT_Device_Demo/iot_link/network/lwm2m/wakaama_lwm2m/port\lwm2m_rpt.h ****  * Notice of Export Control Law
  28:g:/iot/IoT_Device_Demo/iot_link/network/lwm2m/wakaama_lwm2m/port\lwm2m_rpt.h ****  * ===============================================
  29:g:/iot/IoT_Device_Demo/iot_link/network/lwm2m/wakaama_lwm2m/port\lwm2m_rpt.h ****  * Huawei LiteOS may be subject to applicable export control laws and regulations, which might
  30:g:/iot/IoT_Device_Demo/iot_link/network/lwm2m/wakaama_lwm2m/port\lwm2m_rpt.h ****  * include those applicable to Huawei LiteOS of U.S. and the country in which you are located.
  31:g:/iot/IoT_Device_Demo/iot_link/network/lwm2m/wakaama_lwm2m/port\lwm2m_rpt.h ****  * Import, export and usage of Huawei LiteOS in any manner by you shall be in compliance with such
ARM GAS  C:\Users\ADMINI~1\AppData\Local\Temp\ccEp9HN1.s 			page 2


  32:g:/iot/IoT_Device_Demo/iot_link/network/lwm2m/wakaama_lwm2m/port\lwm2m_rpt.h ****  * applicable export control laws and regulations.
  33:g:/iot/IoT_Device_Demo/iot_link/network/lwm2m/wakaama_lwm2m/port\lwm2m_rpt.h ****  *---------------------------------------------------------------------------*/
  34:g:/iot/IoT_Device_Demo/iot_link/network/lwm2m/wakaama_lwm2m/port\lwm2m_rpt.h **** 
  35:g:/iot/IoT_Device_Demo/iot_link/network/lwm2m/wakaama_lwm2m/port\lwm2m_rpt.h **** #ifndef LWM2M_RPT_H
  36:g:/iot/IoT_Device_Demo/iot_link/network/lwm2m/wakaama_lwm2m/port\lwm2m_rpt.h **** #define LWM2M_RPT_H
  37:g:/iot/IoT_Device_Demo/iot_link/network/lwm2m/wakaama_lwm2m/port\lwm2m_rpt.h **** #include <lwm2m_common.h>
  38:g:/iot/IoT_Device_Demo/iot_link/network/lwm2m/wakaama_lwm2m/port\lwm2m_rpt.h **** #include "lwm2m_list.h"
  39:g:/iot/IoT_Device_Demo/iot_link/network/lwm2m/wakaama_lwm2m/port\lwm2m_rpt.h **** #include <liblwm2m.h>
  40:g:/iot/IoT_Device_Demo/iot_link/network/lwm2m/wakaama_lwm2m/port\lwm2m_rpt.h **** 
  41:g:/iot/IoT_Device_Demo/iot_link/network/lwm2m/wakaama_lwm2m/port\lwm2m_rpt.h **** #ifdef __cplusplus
  42:g:/iot/IoT_Device_Demo/iot_link/network/lwm2m/wakaama_lwm2m/port\lwm2m_rpt.h **** extern "C" {
  43:g:/iot/IoT_Device_Demo/iot_link/network/lwm2m/wakaama_lwm2m/port\lwm2m_rpt.h **** #endif
  44:g:/iot/IoT_Device_Demo/iot_link/network/lwm2m/wakaama_lwm2m/port\lwm2m_rpt.h **** 
  45:g:/iot/IoT_Device_Demo/iot_link/network/lwm2m/wakaama_lwm2m/port\lwm2m_rpt.h **** #define URI_FORMAT "uri(flag:0x%x, objId:%d, instId:%d, resId:%d)"
  46:g:/iot/IoT_Device_Demo/iot_link/network/lwm2m/wakaama_lwm2m/port\lwm2m_rpt.h **** #define URI_LOG_PARAM(uri) (uri)->flag, (int)(uri)->objectId, (int)(uri)->instanceId, (int)(uri)->r
  47:g:/iot/IoT_Device_Demo/iot_link/network/lwm2m/wakaama_lwm2m/port\lwm2m_rpt.h **** 
  48:g:/iot/IoT_Device_Demo/iot_link/network/lwm2m/wakaama_lwm2m/port\lwm2m_rpt.h **** LWM2M_INLINE void get_instance_uri(uint16_t object_id, uint16_t instance_id, lwm2m_uri_t *uri)
  49:g:/iot/IoT_Device_Demo/iot_link/network/lwm2m/wakaama_lwm2m/port\lwm2m_rpt.h **** {
  50:g:/iot/IoT_Device_Demo/iot_link/network/lwm2m/wakaama_lwm2m/port\lwm2m_rpt.h ****     if (NULL == uri)
  51:g:/iot/IoT_Device_Demo/iot_link/network/lwm2m/wakaama_lwm2m/port\lwm2m_rpt.h ****     {
  52:g:/iot/IoT_Device_Demo/iot_link/network/lwm2m/wakaama_lwm2m/port\lwm2m_rpt.h ****         return;
  53:g:/iot/IoT_Device_Demo/iot_link/network/lwm2m/wakaama_lwm2m/port\lwm2m_rpt.h ****     }
  54:g:/iot/IoT_Device_Demo/iot_link/network/lwm2m/wakaama_lwm2m/port\lwm2m_rpt.h **** 
  55:g:/iot/IoT_Device_Demo/iot_link/network/lwm2m/wakaama_lwm2m/port\lwm2m_rpt.h ****     uri->flag = LWM2M_URI_FLAG_OBJECT_ID | LWM2M_URI_FLAG_INSTANCE_ID;
  56:g:/iot/IoT_Device_Demo/iot_link/network/lwm2m/wakaama_lwm2m/port\lwm2m_rpt.h ****     uri->objectId = object_id;
  57:g:/iot/IoT_Device_Demo/iot_link/network/lwm2m/wakaama_lwm2m/port\lwm2m_rpt.h ****     uri->instanceId = instance_id;
  58:g:/iot/IoT_Device_Demo/iot_link/network/lwm2m/wakaama_lwm2m/port\lwm2m_rpt.h ****     uri->resourceId = 0;
  59:g:/iot/IoT_Device_Demo/iot_link/network/lwm2m/wakaama_lwm2m/port\lwm2m_rpt.h **** }
  60:g:/iot/IoT_Device_Demo/iot_link/network/lwm2m/wakaama_lwm2m/port\lwm2m_rpt.h **** 
  61:g:/iot/IoT_Device_Demo/iot_link/network/lwm2m/wakaama_lwm2m/port\lwm2m_rpt.h **** LWM2M_INLINE void get_resource_uri(uint16_t object_id, uint16_t instance_id, uint16_t resource_id, 
  62:g:/iot/IoT_Device_Demo/iot_link/network/lwm2m/wakaama_lwm2m/port\lwm2m_rpt.h **** {
  28              		.loc 1 62 1
  29              		.cfi_startproc
  30              		@ args = 0, pretend = 0, frame = 16
  31              		@ frame_needed = 1, uses_anonymous_args = 0
  32              		@ link register save eliminated.
  33 0000 80B4     		push	{r7}
  34              	.LCFI0:
  35              		.cfi_def_cfa_offset 4
  36              		.cfi_offset 7, -4
  37 0002 85B0     		sub	sp, sp, #20
  38              	.LCFI1:
  39              		.cfi_def_cfa_offset 24
  40 0004 00AF     		add	r7, sp, #0
  41              	.LCFI2:
  42              		.cfi_def_cfa_register 7
  43 0006 7B60     		str	r3, [r7, #4]
  44 0008 0346     		mov	r3, r0	@ movhi
  45 000a FB81     		strh	r3, [r7, #14]	@ movhi
  46 000c 0B46     		mov	r3, r1	@ movhi
  47 000e BB81     		strh	r3, [r7, #12]	@ movhi
  48 0010 1346     		mov	r3, r2	@ movhi
  49 0012 7B81     		strh	r3, [r7, #10]	@ movhi
  63:g:/iot/IoT_Device_Demo/iot_link/network/lwm2m/wakaama_lwm2m/port\lwm2m_rpt.h ****     if (NULL == uri)
  50              		.loc 1 63 8
  51 0014 7B68     		ldr	r3, [r7, #4]
  52 0016 002B     		cmp	r3, #0
ARM GAS  C:\Users\ADMINI~1\AppData\Local\Temp\ccEp9HN1.s 			page 3


  53 0018 0CD0     		beq	.L4
  64:g:/iot/IoT_Device_Demo/iot_link/network/lwm2m/wakaama_lwm2m/port\lwm2m_rpt.h ****     {
  65:g:/iot/IoT_Device_Demo/iot_link/network/lwm2m/wakaama_lwm2m/port\lwm2m_rpt.h ****         return;
  66:g:/iot/IoT_Device_Demo/iot_link/network/lwm2m/wakaama_lwm2m/port\lwm2m_rpt.h ****     }
  67:g:/iot/IoT_Device_Demo/iot_link/network/lwm2m/wakaama_lwm2m/port\lwm2m_rpt.h **** 
  68:g:/iot/IoT_Device_Demo/iot_link/network/lwm2m/wakaama_lwm2m/port\lwm2m_rpt.h ****     uri->flag = LWM2M_URI_FLAG_OBJECT_ID | LWM2M_URI_FLAG_INSTANCE_ID | LWM2M_URI_FLAG_RESOURCE_ID;
  54              		.loc 1 68 15
  55 001a 7B68     		ldr	r3, [r7, #4]
  56 001c 0722     		movs	r2, #7
  57 001e 1A70     		strb	r2, [r3]
  69:g:/iot/IoT_Device_Demo/iot_link/network/lwm2m/wakaama_lwm2m/port\lwm2m_rpt.h ****     uri->objectId = object_id;
  58              		.loc 1 69 19
  59 0020 7B68     		ldr	r3, [r7, #4]
  60 0022 FA89     		ldrh	r2, [r7, #14]	@ movhi
  61 0024 5A80     		strh	r2, [r3, #2]	@ movhi
  70:g:/iot/IoT_Device_Demo/iot_link/network/lwm2m/wakaama_lwm2m/port\lwm2m_rpt.h ****     uri->instanceId = instance_id;
  62              		.loc 1 70 21
  63 0026 7B68     		ldr	r3, [r7, #4]
  64 0028 BA89     		ldrh	r2, [r7, #12]	@ movhi
  65 002a 9A80     		strh	r2, [r3, #4]	@ movhi
  71:g:/iot/IoT_Device_Demo/iot_link/network/lwm2m/wakaama_lwm2m/port\lwm2m_rpt.h ****     uri->resourceId = resource_id;
  66              		.loc 1 71 21
  67 002c 7B68     		ldr	r3, [r7, #4]
  68 002e 7A89     		ldrh	r2, [r7, #10]	@ movhi
  69 0030 DA80     		strh	r2, [r3, #6]	@ movhi
  70 0032 00E0     		b	.L1
  71              	.L4:
  65:g:/iot/IoT_Device_Demo/iot_link/network/lwm2m/wakaama_lwm2m/port\lwm2m_rpt.h ****     }
  72              		.loc 1 65 9
  73 0034 00BF     		nop
  74              	.L1:
  72:g:/iot/IoT_Device_Demo/iot_link/network/lwm2m/wakaama_lwm2m/port\lwm2m_rpt.h **** }
  75              		.loc 1 72 1
  76 0036 1437     		adds	r7, r7, #20
  77              	.LCFI3:
  78              		.cfi_def_cfa_offset 4
  79 0038 BD46     		mov	sp, r7
  80              	.LCFI4:
  81              		.cfi_def_cfa_register 13
  82              		@ sp needed
  83 003a 5DF8047B 		ldr	r7, [sp], #4
  84              	.LCFI5:
  85              		.cfi_restore 7
  86              		.cfi_def_cfa_offset 0
  87 003e 7047     		bx	lr
  88              		.cfi_endproc
  89              	.LFE12:
  91              		.section	.text.dm_isUriOpaqueHandle,"ax",%progbits
  92              		.align	1
  93              		.syntax unified
  94              		.thumb
  95              		.thumb_func
  96              		.fpu fpv4-sp-d16
  98              	dm_isUriOpaqueHandle:
  99              	.LFB13:
 100              		.file 2 "g:/iot/IoT_Device_Demo/iot_link/network/lwm2m/wakaama_lwm2m/wakaama-master/core/internals
   1:g:/iot/IoT_Device_Demo/iot_link/network/lwm2m/wakaama_lwm2m/wakaama-master/core\internals.h **** /*----------------------------------------------------------------------------
ARM GAS  C:\Users\ADMINI~1\AppData\Local\Temp\ccEp9HN1.s 			page 4


   2:g:/iot/IoT_Device_Demo/iot_link/network/lwm2m/wakaama_lwm2m/wakaama-master/core\internals.h ****  * Copyright (c) <2016-2018>, <Huawei Technologies Co., Ltd>
   3:g:/iot/IoT_Device_Demo/iot_link/network/lwm2m/wakaama_lwm2m/wakaama-master/core\internals.h ****  * All rights reserved.
   4:g:/iot/IoT_Device_Demo/iot_link/network/lwm2m/wakaama_lwm2m/wakaama-master/core\internals.h ****  * Redistribution and use in source and binary forms, with or without modification,
   5:g:/iot/IoT_Device_Demo/iot_link/network/lwm2m/wakaama_lwm2m/wakaama-master/core\internals.h ****  * are permitted provided that the following conditions are met:
   6:g:/iot/IoT_Device_Demo/iot_link/network/lwm2m/wakaama_lwm2m/wakaama-master/core\internals.h ****  * 1. Redistributions of source code must retain the above copyright notice, this list of
   7:g:/iot/IoT_Device_Demo/iot_link/network/lwm2m/wakaama_lwm2m/wakaama-master/core\internals.h ****  * conditions and the following disclaimer.
   8:g:/iot/IoT_Device_Demo/iot_link/network/lwm2m/wakaama_lwm2m/wakaama-master/core\internals.h ****  * 2. Redistributions in binary form must reproduce the above copyright notice, this list
   9:g:/iot/IoT_Device_Demo/iot_link/network/lwm2m/wakaama_lwm2m/wakaama-master/core\internals.h ****  * of conditions and the following disclaimer in the documentation and/or other materials
  10:g:/iot/IoT_Device_Demo/iot_link/network/lwm2m/wakaama_lwm2m/wakaama-master/core\internals.h ****  * provided with the distribution.
  11:g:/iot/IoT_Device_Demo/iot_link/network/lwm2m/wakaama_lwm2m/wakaama-master/core\internals.h ****  * 3. Neither the name of the copyright holder nor the names of its contributors may be used
  12:g:/iot/IoT_Device_Demo/iot_link/network/lwm2m/wakaama_lwm2m/wakaama-master/core\internals.h ****  * to endorse or promote products derived from this software without specific prior written
  13:g:/iot/IoT_Device_Demo/iot_link/network/lwm2m/wakaama_lwm2m/wakaama-master/core\internals.h ****  * permission.
  14:g:/iot/IoT_Device_Demo/iot_link/network/lwm2m/wakaama_lwm2m/wakaama-master/core\internals.h ****  * THIS SOFTWARE IS PROVIDED BY THE COPYRIGHT HOLDERS AND CONTRIBUTORS
  15:g:/iot/IoT_Device_Demo/iot_link/network/lwm2m/wakaama_lwm2m/wakaama-master/core\internals.h ****  * "AS IS" AND ANY EXPRESS OR IMPLIED WARRANTIES, INCLUDING, BUT NOT LIMITED TO,
  16:g:/iot/IoT_Device_Demo/iot_link/network/lwm2m/wakaama_lwm2m/wakaama-master/core\internals.h ****  * THE IMPLIED WARRANTIES OF MERCHANTABILITY AND FITNESS FOR A PARTICULAR
  17:g:/iot/IoT_Device_Demo/iot_link/network/lwm2m/wakaama_lwm2m/wakaama-master/core\internals.h ****  * PURPOSE ARE DISCLAIMED. IN NO EVENT SHALL THE COPYRIGHT HOLDER OR
  18:g:/iot/IoT_Device_Demo/iot_link/network/lwm2m/wakaama_lwm2m/wakaama-master/core\internals.h ****  * CONTRIBUTORS BE LIABLE FOR ANY DIRECT, INDIRECT, INCIDENTAL, SPECIAL,
  19:g:/iot/IoT_Device_Demo/iot_link/network/lwm2m/wakaama_lwm2m/wakaama-master/core\internals.h ****  * EXEMPLARY, OR CONSEQUENTIAL DAMAGES (INCLUDING, BUT NOT LIMITED TO,
  20:g:/iot/IoT_Device_Demo/iot_link/network/lwm2m/wakaama_lwm2m/wakaama-master/core\internals.h ****  * PROCUREMENT OF SUBSTITUTE GOODS OR SERVICES; LOSS OF USE, DATA, OR PROFITS;
  21:g:/iot/IoT_Device_Demo/iot_link/network/lwm2m/wakaama_lwm2m/wakaama-master/core\internals.h ****  * OR BUSINESS INTERRUPTION) HOWEVER CAUSED AND ON ANY THEORY OF LIABILITY,
  22:g:/iot/IoT_Device_Demo/iot_link/network/lwm2m/wakaama_lwm2m/wakaama-master/core\internals.h ****  * WHETHER IN CONTRACT, STRICT LIABILITY, OR TORT (INCLUDING NEGLIGENCE OR
  23:g:/iot/IoT_Device_Demo/iot_link/network/lwm2m/wakaama_lwm2m/wakaama-master/core\internals.h ****  * OTHERWISE) ARISING IN ANY WAY OUT OF THE USE OF THIS SOFTWARE, EVEN IF
  24:g:/iot/IoT_Device_Demo/iot_link/network/lwm2m/wakaama_lwm2m/wakaama-master/core\internals.h ****  * ADVISED OF THE POSSIBILITY OF SUCH DAMAGE.
  25:g:/iot/IoT_Device_Demo/iot_link/network/lwm2m/wakaama_lwm2m/wakaama-master/core\internals.h ****  *---------------------------------------------------------------------------*/
  26:g:/iot/IoT_Device_Demo/iot_link/network/lwm2m/wakaama_lwm2m/wakaama-master/core\internals.h **** /*----------------------------------------------------------------------------
  27:g:/iot/IoT_Device_Demo/iot_link/network/lwm2m/wakaama_lwm2m/wakaama-master/core\internals.h ****  * Notice of Export Control Law
  28:g:/iot/IoT_Device_Demo/iot_link/network/lwm2m/wakaama_lwm2m/wakaama-master/core\internals.h ****  * ===============================================
  29:g:/iot/IoT_Device_Demo/iot_link/network/lwm2m/wakaama_lwm2m/wakaama-master/core\internals.h ****  * Huawei LiteOS may be subject to applicable export control laws and regulations, which might
  30:g:/iot/IoT_Device_Demo/iot_link/network/lwm2m/wakaama_lwm2m/wakaama-master/core\internals.h ****  * include those applicable to Huawei LiteOS of U.S. and the country in which you are located.
  31:g:/iot/IoT_Device_Demo/iot_link/network/lwm2m/wakaama_lwm2m/wakaama-master/core\internals.h ****  * Import, export and usage of Huawei LiteOS in any manner by you shall be in compliance with such
  32:g:/iot/IoT_Device_Demo/iot_link/network/lwm2m/wakaama_lwm2m/wakaama-master/core\internals.h ****  * applicable export control laws and regulations.
  33:g:/iot/IoT_Device_Demo/iot_link/network/lwm2m/wakaama_lwm2m/wakaama-master/core\internals.h ****  *---------------------------------------------------------------------------*/
  34:g:/iot/IoT_Device_Demo/iot_link/network/lwm2m/wakaama_lwm2m/wakaama-master/core\internals.h **** 
  35:g:/iot/IoT_Device_Demo/iot_link/network/lwm2m/wakaama_lwm2m/wakaama-master/core\internals.h **** /*******************************************************************************
  36:g:/iot/IoT_Device_Demo/iot_link/network/lwm2m/wakaama_lwm2m/wakaama-master/core\internals.h ****  *
  37:g:/iot/IoT_Device_Demo/iot_link/network/lwm2m/wakaama_lwm2m/wakaama-master/core\internals.h ****  * Copyright (c) 2013, 2014 Intel Corporation and others.
  38:g:/iot/IoT_Device_Demo/iot_link/network/lwm2m/wakaama_lwm2m/wakaama-master/core\internals.h ****  * All rights reserved. This program and the accompanying materials
  39:g:/iot/IoT_Device_Demo/iot_link/network/lwm2m/wakaama_lwm2m/wakaama-master/core\internals.h ****  * are made available under the terms of the Eclipse Public License v1.0
  40:g:/iot/IoT_Device_Demo/iot_link/network/lwm2m/wakaama_lwm2m/wakaama-master/core\internals.h ****  * and Eclipse Distribution License v1.0 which accompany this distribution.
  41:g:/iot/IoT_Device_Demo/iot_link/network/lwm2m/wakaama_lwm2m/wakaama-master/core\internals.h ****  *
  42:g:/iot/IoT_Device_Demo/iot_link/network/lwm2m/wakaama_lwm2m/wakaama-master/core\internals.h ****  * The Eclipse Public License is available at
  43:g:/iot/IoT_Device_Demo/iot_link/network/lwm2m/wakaama_lwm2m/wakaama-master/core\internals.h ****  *    http://www.eclipse.org/legal/epl-v10.html
  44:g:/iot/IoT_Device_Demo/iot_link/network/lwm2m/wakaama_lwm2m/wakaama-master/core\internals.h ****  * The Eclipse Distribution License is available at
  45:g:/iot/IoT_Device_Demo/iot_link/network/lwm2m/wakaama_lwm2m/wakaama-master/core\internals.h ****  *    http://www.eclipse.org/org/documents/edl-v10.php.
  46:g:/iot/IoT_Device_Demo/iot_link/network/lwm2m/wakaama_lwm2m/wakaama-master/core\internals.h ****  *
  47:g:/iot/IoT_Device_Demo/iot_link/network/lwm2m/wakaama_lwm2m/wakaama-master/core\internals.h ****  * Contributors:
  48:g:/iot/IoT_Device_Demo/iot_link/network/lwm2m/wakaama_lwm2m/wakaama-master/core\internals.h ****  *    David Navarro, Intel Corporation - initial API and implementation
  49:g:/iot/IoT_Device_Demo/iot_link/network/lwm2m/wakaama_lwm2m/wakaama-master/core\internals.h ****  *    Fabien Fleutot - Please refer to git log
  50:g:/iot/IoT_Device_Demo/iot_link/network/lwm2m/wakaama_lwm2m/wakaama-master/core\internals.h ****  *    Toby Jaffey - Please refer to git log
  51:g:/iot/IoT_Device_Demo/iot_link/network/lwm2m/wakaama_lwm2m/wakaama-master/core\internals.h ****  *    Bosch Software Innovations GmbH - Please refer to git log
  52:g:/iot/IoT_Device_Demo/iot_link/network/lwm2m/wakaama_lwm2m/wakaama-master/core\internals.h ****  *    Pascal Rieux - Please refer to git log
  53:g:/iot/IoT_Device_Demo/iot_link/network/lwm2m/wakaama_lwm2m/wakaama-master/core\internals.h ****  *    Scott Bertin - Please refer to git log
  54:g:/iot/IoT_Device_Demo/iot_link/network/lwm2m/wakaama_lwm2m/wakaama-master/core\internals.h ****  *
  55:g:/iot/IoT_Device_Demo/iot_link/network/lwm2m/wakaama_lwm2m/wakaama-master/core\internals.h ****  *******************************************************************************/
  56:g:/iot/IoT_Device_Demo/iot_link/network/lwm2m/wakaama_lwm2m/wakaama-master/core\internals.h **** /*
  57:g:/iot/IoT_Device_Demo/iot_link/network/lwm2m/wakaama_lwm2m/wakaama-master/core\internals.h ****  Copyright (c) 2013, 2014 Intel Corporation
  58:g:/iot/IoT_Device_Demo/iot_link/network/lwm2m/wakaama_lwm2m/wakaama-master/core\internals.h **** 
ARM GAS  C:\Users\ADMINI~1\AppData\Local\Temp\ccEp9HN1.s 			page 5


  59:g:/iot/IoT_Device_Demo/iot_link/network/lwm2m/wakaama_lwm2m/wakaama-master/core\internals.h ****  Redistribution and use in source and binary forms, with or without modification,
  60:g:/iot/IoT_Device_Demo/iot_link/network/lwm2m/wakaama_lwm2m/wakaama-master/core\internals.h ****  are permitted provided that the following conditions are met:
  61:g:/iot/IoT_Device_Demo/iot_link/network/lwm2m/wakaama_lwm2m/wakaama-master/core\internals.h **** 
  62:g:/iot/IoT_Device_Demo/iot_link/network/lwm2m/wakaama_lwm2m/wakaama-master/core\internals.h ****      * Redistributions of source code must retain the above copyright notice,
  63:g:/iot/IoT_Device_Demo/iot_link/network/lwm2m/wakaama_lwm2m/wakaama-master/core\internals.h ****        this list of conditions and the following disclaimer.
  64:g:/iot/IoT_Device_Demo/iot_link/network/lwm2m/wakaama_lwm2m/wakaama-master/core\internals.h ****      * Redistributions in binary form must reproduce the above copyright notice,
  65:g:/iot/IoT_Device_Demo/iot_link/network/lwm2m/wakaama_lwm2m/wakaama-master/core\internals.h ****        this list of conditions and the following disclaimer in the documentation
  66:g:/iot/IoT_Device_Demo/iot_link/network/lwm2m/wakaama_lwm2m/wakaama-master/core\internals.h ****        and/or other materials provided with the distribution.
  67:g:/iot/IoT_Device_Demo/iot_link/network/lwm2m/wakaama_lwm2m/wakaama-master/core\internals.h ****      * Neither the name of Intel Corporation nor the names of its contributors
  68:g:/iot/IoT_Device_Demo/iot_link/network/lwm2m/wakaama_lwm2m/wakaama-master/core\internals.h ****        may be used to endorse or promote products derived from this software
  69:g:/iot/IoT_Device_Demo/iot_link/network/lwm2m/wakaama_lwm2m/wakaama-master/core\internals.h ****        without specific prior written permission.
  70:g:/iot/IoT_Device_Demo/iot_link/network/lwm2m/wakaama_lwm2m/wakaama-master/core\internals.h **** 
  71:g:/iot/IoT_Device_Demo/iot_link/network/lwm2m/wakaama_lwm2m/wakaama-master/core\internals.h ****  THIS SOFTWARE IS PROVIDED BY THE COPYRIGHT HOLDERS AND CONTRIBUTORS "AS IS" AND
  72:g:/iot/IoT_Device_Demo/iot_link/network/lwm2m/wakaama_lwm2m/wakaama-master/core\internals.h ****  ANY EXPRESS OR IMPLIED WARRANTIES, INCLUDING, BUT NOT LIMITED TO, THE IMPLIED
  73:g:/iot/IoT_Device_Demo/iot_link/network/lwm2m/wakaama_lwm2m/wakaama-master/core\internals.h ****  WARRANTIES OF MERCHANTABILITY AND FITNESS FOR A PARTICULAR PURPOSE ARE DISCLAIMED.
  74:g:/iot/IoT_Device_Demo/iot_link/network/lwm2m/wakaama_lwm2m/wakaama-master/core\internals.h ****  IN NO EVENT SHALL THE COPYRIGHT OWNER OR CONTRIBUTORS BE LIABLE FOR ANY DIRECT,
  75:g:/iot/IoT_Device_Demo/iot_link/network/lwm2m/wakaama_lwm2m/wakaama-master/core\internals.h ****  INDIRECT, INCIDENTAL, SPECIAL, EXEMPLARY, OR CONSEQUENTIAL DAMAGES (INCLUDING,
  76:g:/iot/IoT_Device_Demo/iot_link/network/lwm2m/wakaama_lwm2m/wakaama-master/core\internals.h ****  BUT NOT LIMITED TO, PROCUREMENT OF SUBSTITUTE GOODS OR SERVICES; LOSS OF USE,
  77:g:/iot/IoT_Device_Demo/iot_link/network/lwm2m/wakaama_lwm2m/wakaama-master/core\internals.h ****  DATA, OR PROFITS; OR BUSINESS INTERRUPTION) HOWEVER CAUSED AND ON ANY THEORY OF
  78:g:/iot/IoT_Device_Demo/iot_link/network/lwm2m/wakaama_lwm2m/wakaama-master/core\internals.h ****  LIABILITY, WHETHER IN CONTRACT, STRICT LIABILITY, OR TORT (INCLUDING NEGLIGENCE OR
  79:g:/iot/IoT_Device_Demo/iot_link/network/lwm2m/wakaama_lwm2m/wakaama-master/core\internals.h ****  OTHERWISE) ARISING IN ANY WAY OUT OF THE USE OF THIS SOFTWARE, EVEN IF ADVISED OF
  80:g:/iot/IoT_Device_Demo/iot_link/network/lwm2m/wakaama_lwm2m/wakaama-master/core\internals.h ****  THE POSSIBILITY OF SUCH DAMAGE.
  81:g:/iot/IoT_Device_Demo/iot_link/network/lwm2m/wakaama_lwm2m/wakaama-master/core\internals.h **** 
  82:g:/iot/IoT_Device_Demo/iot_link/network/lwm2m/wakaama_lwm2m/wakaama-master/core\internals.h ****  David Navarro <david.navarro@intel.com>
  83:g:/iot/IoT_Device_Demo/iot_link/network/lwm2m/wakaama_lwm2m/wakaama-master/core\internals.h **** 
  84:g:/iot/IoT_Device_Demo/iot_link/network/lwm2m/wakaama_lwm2m/wakaama-master/core\internals.h **** */
  85:g:/iot/IoT_Device_Demo/iot_link/network/lwm2m/wakaama_lwm2m/wakaama-master/core\internals.h **** 
  86:g:/iot/IoT_Device_Demo/iot_link/network/lwm2m/wakaama_lwm2m/wakaama-master/core\internals.h **** #ifndef _LWM2M_INTERNALS_H_
  87:g:/iot/IoT_Device_Demo/iot_link/network/lwm2m/wakaama_lwm2m/wakaama-master/core\internals.h **** #define _LWM2M_INTERNALS_H_
  88:g:/iot/IoT_Device_Demo/iot_link/network/lwm2m/wakaama_lwm2m/wakaama-master/core\internals.h **** 
  89:g:/iot/IoT_Device_Demo/iot_link/network/lwm2m/wakaama_lwm2m/wakaama-master/core\internals.h **** #include "liblwm2m.h"
  90:g:/iot/IoT_Device_Demo/iot_link/network/lwm2m/wakaama_lwm2m/wakaama-master/core\internals.h **** 
  91:g:/iot/IoT_Device_Demo/iot_link/network/lwm2m/wakaama_lwm2m/wakaama-master/core\internals.h **** #include <stdlib.h>
  92:g:/iot/IoT_Device_Demo/iot_link/network/lwm2m/wakaama_lwm2m/wakaama-master/core\internals.h **** #include <string.h>
  93:g:/iot/IoT_Device_Demo/iot_link/network/lwm2m/wakaama_lwm2m/wakaama-master/core\internals.h **** #include <stdio.h>
  94:g:/iot/IoT_Device_Demo/iot_link/network/lwm2m/wakaama_lwm2m/wakaama-master/core\internals.h **** #include <ctype.h>
  95:g:/iot/IoT_Device_Demo/iot_link/network/lwm2m/wakaama_lwm2m/wakaama-master/core\internals.h **** #include <stdint.h>
  96:g:/iot/IoT_Device_Demo/iot_link/network/lwm2m/wakaama_lwm2m/wakaama-master/core\internals.h **** #include <stddef.h>
  97:g:/iot/IoT_Device_Demo/iot_link/network/lwm2m/wakaama_lwm2m/wakaama-master/core\internals.h **** #include <stdbool.h>
  98:g:/iot/IoT_Device_Demo/iot_link/network/lwm2m/wakaama_lwm2m/wakaama-master/core\internals.h **** 
  99:g:/iot/IoT_Device_Demo/iot_link/network/lwm2m/wakaama_lwm2m/wakaama-master/core\internals.h **** #include "er-coap-13/er-coap-13.h"
 100:g:/iot/IoT_Device_Demo/iot_link/network/lwm2m/wakaama_lwm2m/wakaama-master/core\internals.h **** #include "connection.h"
 101:g:/iot/IoT_Device_Demo/iot_link/network/lwm2m/wakaama_lwm2m/wakaama-master/core\internals.h **** 
 102:g:/iot/IoT_Device_Demo/iot_link/network/lwm2m/wakaama_lwm2m/wakaama-master/core\internals.h **** 
 103:g:/iot/IoT_Device_Demo/iot_link/network/lwm2m/wakaama_lwm2m/wakaama-master/core\internals.h **** #ifdef LWM2M_WITH_LOGS
 104:g:/iot/IoT_Device_Demo/iot_link/network/lwm2m/wakaama_lwm2m/wakaama-master/core\internals.h **** #include <inttypes.h>
 105:g:/iot/IoT_Device_Demo/iot_link/network/lwm2m/wakaama_lwm2m/wakaama-master/core\internals.h **** #define LOG(STR)    lwm2m_printf("[%d][%s:%d] " STR "\r\n", (int)lwm2m_gettime(), __func__ , __LINE
 106:g:/iot/IoT_Device_Demo/iot_link/network/lwm2m/wakaama_lwm2m/wakaama-master/core\internals.h **** #define LOG_ARG(FMT, ...) lwm2m_printf("[%d][%s:%d] " FMT "\r\n", (int)lwm2m_gettime(), __func__ , 
 107:g:/iot/IoT_Device_Demo/iot_link/network/lwm2m/wakaama_lwm2m/wakaama-master/core\internals.h **** #define LOG_URI(URI)                                                                \
 108:g:/iot/IoT_Device_Demo/iot_link/network/lwm2m/wakaama_lwm2m/wakaama-master/core\internals.h **** {                                                                                   \
 109:g:/iot/IoT_Device_Demo/iot_link/network/lwm2m/wakaama_lwm2m/wakaama-master/core\internals.h ****     if ((URI) == NULL) lwm2m_printf("[%s:%d] NULL\r\n", __func__ , __LINE__);     \
 110:g:/iot/IoT_Device_Demo/iot_link/network/lwm2m/wakaama_lwm2m/wakaama-master/core\internals.h ****     else                                                                            \
 111:g:/iot/IoT_Device_Demo/iot_link/network/lwm2m/wakaama_lwm2m/wakaama-master/core\internals.h ****     {                                                                               \
 112:g:/iot/IoT_Device_Demo/iot_link/network/lwm2m/wakaama_lwm2m/wakaama-master/core\internals.h ****         lwm2m_printf("[%s:%d] /%d", __func__ , __LINE__ , (int)(URI)->objectId);       \
 113:g:/iot/IoT_Device_Demo/iot_link/network/lwm2m/wakaama_lwm2m/wakaama-master/core\internals.h ****         if (LWM2M_URI_IS_SET_INSTANCE(URI)) lwm2m_printf("/%d",(int)(URI)->instanceId); \
 114:g:/iot/IoT_Device_Demo/iot_link/network/lwm2m/wakaama_lwm2m/wakaama-master/core\internals.h ****         if (LWM2M_URI_IS_SET_RESOURCE(URI)) lwm2m_printf("/%d", (int)(URI)->resourceId); \
 115:g:/iot/IoT_Device_Demo/iot_link/network/lwm2m/wakaama_lwm2m/wakaama-master/core\internals.h ****           lwm2m_printf("\r\n");                                                       \
ARM GAS  C:\Users\ADMINI~1\AppData\Local\Temp\ccEp9HN1.s 			page 6


 116:g:/iot/IoT_Device_Demo/iot_link/network/lwm2m/wakaama_lwm2m/wakaama-master/core\internals.h ****     }                                                                               \
 117:g:/iot/IoT_Device_Demo/iot_link/network/lwm2m/wakaama_lwm2m/wakaama-master/core\internals.h **** }
 118:g:/iot/IoT_Device_Demo/iot_link/network/lwm2m/wakaama_lwm2m/wakaama-master/core\internals.h **** #define UNUSEX(x)
 119:g:/iot/IoT_Device_Demo/iot_link/network/lwm2m/wakaama_lwm2m/wakaama-master/core\internals.h **** #define STR_STATUS(S)                                           \
 120:g:/iot/IoT_Device_Demo/iot_link/network/lwm2m/wakaama_lwm2m/wakaama-master/core\internals.h **** ((S) == STATE_DEREGISTERED ? "STATE_DEREGISTERED" :             \
 121:g:/iot/IoT_Device_Demo/iot_link/network/lwm2m/wakaama_lwm2m/wakaama-master/core\internals.h **** ((S) == STATE_REG_PENDING ? "STATE_REG_PENDING" :               \
 122:g:/iot/IoT_Device_Demo/iot_link/network/lwm2m/wakaama_lwm2m/wakaama-master/core\internals.h **** ((S) == STATE_REGISTERED ? "STATE_REGISTERED" :                 \
 123:g:/iot/IoT_Device_Demo/iot_link/network/lwm2m/wakaama_lwm2m/wakaama-master/core\internals.h **** ((S) == STATE_REG_FAILED ? "STATE_REG_FAILED" :                 \
 124:g:/iot/IoT_Device_Demo/iot_link/network/lwm2m/wakaama_lwm2m/wakaama-master/core\internals.h **** ((S) == STATE_REG_UPDATE_PENDING ? "STATE_REG_UPDATE_PENDING" : \
 125:g:/iot/IoT_Device_Demo/iot_link/network/lwm2m/wakaama_lwm2m/wakaama-master/core\internals.h **** ((S) == STATE_REG_UPDATE_NEEDED ? "STATE_REG_UPDATE_NEEDED" :   \
 126:g:/iot/IoT_Device_Demo/iot_link/network/lwm2m/wakaama_lwm2m/wakaama-master/core\internals.h **** ((S) == STATE_REG_FULL_UPDATE_NEEDED ? "STATE_REG_FULL_UPDATE_NEEDED" :   \
 127:g:/iot/IoT_Device_Demo/iot_link/network/lwm2m/wakaama_lwm2m/wakaama-master/core\internals.h **** ((S) == STATE_DEREG_PENDING ? "STATE_DEREG_PENDING" :           \
 128:g:/iot/IoT_Device_Demo/iot_link/network/lwm2m/wakaama_lwm2m/wakaama-master/core\internals.h **** ((S) == STATE_BS_HOLD_OFF ? "STATE_BS_HOLD_OFF" :               \
 129:g:/iot/IoT_Device_Demo/iot_link/network/lwm2m/wakaama_lwm2m/wakaama-master/core\internals.h **** ((S) == STATE_BS_INITIATED ? "STATE_BS_INITIATED" :             \
 130:g:/iot/IoT_Device_Demo/iot_link/network/lwm2m/wakaama_lwm2m/wakaama-master/core\internals.h **** ((S) == STATE_BS_PENDING ? "STATE_BS_PENDING" :                 \
 131:g:/iot/IoT_Device_Demo/iot_link/network/lwm2m/wakaama_lwm2m/wakaama-master/core\internals.h **** ((S) == STATE_BS_FINISHED ? "STATE_BS_FINISHED" :               \
 132:g:/iot/IoT_Device_Demo/iot_link/network/lwm2m/wakaama_lwm2m/wakaama-master/core\internals.h **** ((S) == STATE_BS_FINISHING ? "STATE_BS_FINISHING" :             \
 133:g:/iot/IoT_Device_Demo/iot_link/network/lwm2m/wakaama_lwm2m/wakaama-master/core\internals.h **** ((S) == STATE_BS_FAILING ? "STATE_BS_FAILING" :                 \
 134:g:/iot/IoT_Device_Demo/iot_link/network/lwm2m/wakaama_lwm2m/wakaama-master/core\internals.h **** ((S) == STATE_BS_FAILED ? "STATE_BS_FAILED" :                   \
 135:g:/iot/IoT_Device_Demo/iot_link/network/lwm2m/wakaama_lwm2m/wakaama-master/core\internals.h **** "Unknown")))))))))))))))
 136:g:/iot/IoT_Device_Demo/iot_link/network/lwm2m/wakaama_lwm2m/wakaama-master/core\internals.h **** #define STR_MEDIA_TYPE(M)                                \
 137:g:/iot/IoT_Device_Demo/iot_link/network/lwm2m/wakaama_lwm2m/wakaama-master/core\internals.h **** ((M) == LWM2M_CONTENT_TEXT ? "LWM2M_CONTENT_TEXT" :      \
 138:g:/iot/IoT_Device_Demo/iot_link/network/lwm2m/wakaama_lwm2m/wakaama-master/core\internals.h **** ((M) == LWM2M_CONTENT_LINK ? "LWM2M_CONTENT_LINK" :      \
 139:g:/iot/IoT_Device_Demo/iot_link/network/lwm2m/wakaama_lwm2m/wakaama-master/core\internals.h **** ((M) == LWM2M_CONTENT_OPAQUE ? "LWM2M_CONTENT_OPAQUE" :  \
 140:g:/iot/IoT_Device_Demo/iot_link/network/lwm2m/wakaama_lwm2m/wakaama-master/core\internals.h **** ((M) == LWM2M_CONTENT_TLV ? "LWM2M_CONTENT_TLV" :        \
 141:g:/iot/IoT_Device_Demo/iot_link/network/lwm2m/wakaama_lwm2m/wakaama-master/core\internals.h **** ((M) == LWM2M_CONTENT_JSON ? "LWM2M_CONTENT_JSON" :      \
 142:g:/iot/IoT_Device_Demo/iot_link/network/lwm2m/wakaama_lwm2m/wakaama-master/core\internals.h **** "Unknown")))))
 143:g:/iot/IoT_Device_Demo/iot_link/network/lwm2m/wakaama_lwm2m/wakaama-master/core\internals.h **** #define STR_STATE(S)                                \
 144:g:/iot/IoT_Device_Demo/iot_link/network/lwm2m/wakaama_lwm2m/wakaama-master/core\internals.h **** ((S) == STATE_INITIAL ? "STATE_INITIAL" :      \
 145:g:/iot/IoT_Device_Demo/iot_link/network/lwm2m/wakaama_lwm2m/wakaama-master/core\internals.h **** ((S) == STATE_BOOTSTRAP_REQUIRED ? "STATE_BOOTSTRAP_REQUIRED" :      \
 146:g:/iot/IoT_Device_Demo/iot_link/network/lwm2m/wakaama_lwm2m/wakaama-master/core\internals.h **** ((S) == STATE_BOOTSTRAPPING ? "STATE_BOOTSTRAPPING" :  \
 147:g:/iot/IoT_Device_Demo/iot_link/network/lwm2m/wakaama_lwm2m/wakaama-master/core\internals.h **** ((S) == STATE_REGISTER_REQUIRED ? "STATE_REGISTER_REQUIRED" :        \
 148:g:/iot/IoT_Device_Demo/iot_link/network/lwm2m/wakaama_lwm2m/wakaama-master/core\internals.h **** ((S) == STATE_REGISTERING ? "STATE_REGISTERING" :      \
 149:g:/iot/IoT_Device_Demo/iot_link/network/lwm2m/wakaama_lwm2m/wakaama-master/core\internals.h **** ((S) == STATE_READY ? "STATE_READY" :      \
 150:g:/iot/IoT_Device_Demo/iot_link/network/lwm2m/wakaama_lwm2m/wakaama-master/core\internals.h **** "Unknown"))))))
 151:g:/iot/IoT_Device_Demo/iot_link/network/lwm2m/wakaama_lwm2m/wakaama-master/core\internals.h **** #else
 152:g:/iot/IoT_Device_Demo/iot_link/network/lwm2m/wakaama_lwm2m/wakaama-master/core\internals.h **** #define UNUSEX(x) (x)=(x)
 153:g:/iot/IoT_Device_Demo/iot_link/network/lwm2m/wakaama_lwm2m/wakaama-master/core\internals.h **** #define LOG_ARG(FMT, ...)
 154:g:/iot/IoT_Device_Demo/iot_link/network/lwm2m/wakaama_lwm2m/wakaama-master/core\internals.h **** #define LOG(STR)
 155:g:/iot/IoT_Device_Demo/iot_link/network/lwm2m/wakaama_lwm2m/wakaama-master/core\internals.h **** #define LOG_URI(URI)
 156:g:/iot/IoT_Device_Demo/iot_link/network/lwm2m/wakaama_lwm2m/wakaama-master/core\internals.h **** #endif
 157:g:/iot/IoT_Device_Demo/iot_link/network/lwm2m/wakaama_lwm2m/wakaama-master/core\internals.h **** 
 158:g:/iot/IoT_Device_Demo/iot_link/network/lwm2m/wakaama_lwm2m/wakaama-master/core\internals.h **** #define LWM2M_DEFAULT_LIFETIME  86400
 159:g:/iot/IoT_Device_Demo/iot_link/network/lwm2m/wakaama_lwm2m/wakaama-master/core\internals.h **** 
 160:g:/iot/IoT_Device_Demo/iot_link/network/lwm2m/wakaama_lwm2m/wakaama-master/core\internals.h **** #ifdef LWM2M_SUPPORT_JSON
 161:g:/iot/IoT_Device_Demo/iot_link/network/lwm2m/wakaama_lwm2m/wakaama-master/core\internals.h **** #define REG_LWM2M_RESOURCE_TYPE     ">;rt=\"oma.lwm2m\";ct=11543,"
 162:g:/iot/IoT_Device_Demo/iot_link/network/lwm2m/wakaama_lwm2m/wakaama-master/core\internals.h **** #define REG_LWM2M_RESOURCE_TYPE_LEN 25
 163:g:/iot/IoT_Device_Demo/iot_link/network/lwm2m/wakaama_lwm2m/wakaama-master/core\internals.h **** #else
 164:g:/iot/IoT_Device_Demo/iot_link/network/lwm2m/wakaama_lwm2m/wakaama-master/core\internals.h **** #define REG_LWM2M_RESOURCE_TYPE     ">;rt=\"oma.lwm2m\","
 165:g:/iot/IoT_Device_Demo/iot_link/network/lwm2m/wakaama_lwm2m/wakaama-master/core\internals.h **** #define REG_LWM2M_RESOURCE_TYPE_LEN 17
 166:g:/iot/IoT_Device_Demo/iot_link/network/lwm2m/wakaama_lwm2m/wakaama-master/core\internals.h **** #endif
 167:g:/iot/IoT_Device_Demo/iot_link/network/lwm2m/wakaama_lwm2m/wakaama-master/core\internals.h **** #define REG_START           "<"
 168:g:/iot/IoT_Device_Demo/iot_link/network/lwm2m/wakaama_lwm2m/wakaama-master/core\internals.h **** #define REG_DEFAULT_PATH    "/"
 169:g:/iot/IoT_Device_Demo/iot_link/network/lwm2m/wakaama_lwm2m/wakaama-master/core\internals.h **** 
 170:g:/iot/IoT_Device_Demo/iot_link/network/lwm2m/wakaama_lwm2m/wakaama-master/core\internals.h **** #define REG_OBJECT_MIN_LEN  5   // "</n>,"
 171:g:/iot/IoT_Device_Demo/iot_link/network/lwm2m/wakaama_lwm2m/wakaama-master/core\internals.h **** #define REG_PATH_END        ">,"
 172:g:/iot/IoT_Device_Demo/iot_link/network/lwm2m/wakaama_lwm2m/wakaama-master/core\internals.h **** #define REG_PATH_SEPARATOR  "/"
ARM GAS  C:\Users\ADMINI~1\AppData\Local\Temp\ccEp9HN1.s 			page 7


 173:g:/iot/IoT_Device_Demo/iot_link/network/lwm2m/wakaama_lwm2m/wakaama-master/core\internals.h **** 
 174:g:/iot/IoT_Device_Demo/iot_link/network/lwm2m/wakaama_lwm2m/wakaama-master/core\internals.h **** #define REG_OBJECT_PATH             "<%s/%hu>,"
 175:g:/iot/IoT_Device_Demo/iot_link/network/lwm2m/wakaama_lwm2m/wakaama-master/core\internals.h **** #define REG_OBJECT_INSTANCE_PATH    "<%s/%hu/%hu>,"
 176:g:/iot/IoT_Device_Demo/iot_link/network/lwm2m/wakaama_lwm2m/wakaama-master/core\internals.h **** 
 177:g:/iot/IoT_Device_Demo/iot_link/network/lwm2m/wakaama_lwm2m/wakaama-master/core\internals.h **** #define URI_REGISTRATION_SEGMENT        "rd"
 178:g:/iot/IoT_Device_Demo/iot_link/network/lwm2m/wakaama_lwm2m/wakaama-master/core\internals.h **** #define URI_REGISTRATION_SEGMENT_LEN    2
 179:g:/iot/IoT_Device_Demo/iot_link/network/lwm2m/wakaama_lwm2m/wakaama-master/core\internals.h **** #define URI_BOOTSTRAP_SEGMENT           "bs"
 180:g:/iot/IoT_Device_Demo/iot_link/network/lwm2m/wakaama_lwm2m/wakaama-master/core\internals.h **** #define URI_BOOTSTRAP_SEGMENT_LEN       2
 181:g:/iot/IoT_Device_Demo/iot_link/network/lwm2m/wakaama_lwm2m/wakaama-master/core\internals.h **** 
 182:g:/iot/IoT_Device_Demo/iot_link/network/lwm2m/wakaama_lwm2m/wakaama-master/core\internals.h **** #define QUERY_STARTER       "?"
 183:g:/iot/IoT_Device_Demo/iot_link/network/lwm2m/wakaama_lwm2m/wakaama-master/core\internals.h **** #define QUERY_NAME          "ep="
 184:g:/iot/IoT_Device_Demo/iot_link/network/lwm2m/wakaama_lwm2m/wakaama-master/core\internals.h **** #define QUERY_NAME_LEN      3       // strlen("ep=")
 185:g:/iot/IoT_Device_Demo/iot_link/network/lwm2m/wakaama_lwm2m/wakaama-master/core\internals.h **** #define QUERY_SMS           "sms="
 186:g:/iot/IoT_Device_Demo/iot_link/network/lwm2m/wakaama_lwm2m/wakaama-master/core\internals.h **** #define QUERY_SMS_LEN       4
 187:g:/iot/IoT_Device_Demo/iot_link/network/lwm2m/wakaama_lwm2m/wakaama-master/core\internals.h **** #define QUERY_LIFETIME      "lt="
 188:g:/iot/IoT_Device_Demo/iot_link/network/lwm2m/wakaama_lwm2m/wakaama-master/core\internals.h **** #define QUERY_LIFETIME_LEN  3
 189:g:/iot/IoT_Device_Demo/iot_link/network/lwm2m/wakaama_lwm2m/wakaama-master/core\internals.h **** #define QUERY_VERSION       "lwm2m="
 190:g:/iot/IoT_Device_Demo/iot_link/network/lwm2m/wakaama_lwm2m/wakaama-master/core\internals.h **** #define QUERY_VERSION_LEN   6
 191:g:/iot/IoT_Device_Demo/iot_link/network/lwm2m/wakaama_lwm2m/wakaama-master/core\internals.h **** #define QUERY_BINDING       "b="
 192:g:/iot/IoT_Device_Demo/iot_link/network/lwm2m/wakaama_lwm2m/wakaama-master/core\internals.h **** #define QUERY_BINDING_LEN   2
 193:g:/iot/IoT_Device_Demo/iot_link/network/lwm2m/wakaama_lwm2m/wakaama-master/core\internals.h **** #define QUERY_DELIMITER     "&"
 194:g:/iot/IoT_Device_Demo/iot_link/network/lwm2m/wakaama_lwm2m/wakaama-master/core\internals.h **** 
 195:g:/iot/IoT_Device_Demo/iot_link/network/lwm2m/wakaama_lwm2m/wakaama-master/core\internals.h **** #define LWM2M_VERSION      "1.0"
 196:g:/iot/IoT_Device_Demo/iot_link/network/lwm2m/wakaama_lwm2m/wakaama-master/core\internals.h **** #define LWM2M_VERSION_LEN  3
 197:g:/iot/IoT_Device_Demo/iot_link/network/lwm2m/wakaama_lwm2m/wakaama-master/core\internals.h **** 
 198:g:/iot/IoT_Device_Demo/iot_link/network/lwm2m/wakaama_lwm2m/wakaama-master/core\internals.h **** #define QUERY_VERSION_FULL      QUERY_VERSION LWM2M_VERSION
 199:g:/iot/IoT_Device_Demo/iot_link/network/lwm2m/wakaama_lwm2m/wakaama-master/core\internals.h **** #define QUERY_VERSION_FULL_LEN  QUERY_VERSION_LEN+LWM2M_VERSION_LEN
 200:g:/iot/IoT_Device_Demo/iot_link/network/lwm2m/wakaama_lwm2m/wakaama-master/core\internals.h **** 
 201:g:/iot/IoT_Device_Demo/iot_link/network/lwm2m/wakaama_lwm2m/wakaama-master/core\internals.h **** #define REG_URI_START       '<'
 202:g:/iot/IoT_Device_Demo/iot_link/network/lwm2m/wakaama_lwm2m/wakaama-master/core\internals.h **** #define REG_URI_END         '>'
 203:g:/iot/IoT_Device_Demo/iot_link/network/lwm2m/wakaama_lwm2m/wakaama-master/core\internals.h **** #define REG_DELIMITER       ','
 204:g:/iot/IoT_Device_Demo/iot_link/network/lwm2m/wakaama_lwm2m/wakaama-master/core\internals.h **** #define REG_ATTR_SEPARATOR  ';'
 205:g:/iot/IoT_Device_Demo/iot_link/network/lwm2m/wakaama_lwm2m/wakaama-master/core\internals.h **** #define REG_ATTR_EQUALS     '='
 206:g:/iot/IoT_Device_Demo/iot_link/network/lwm2m/wakaama_lwm2m/wakaama-master/core\internals.h **** #define REG_ATTR_TYPE_KEY           "rt"
 207:g:/iot/IoT_Device_Demo/iot_link/network/lwm2m/wakaama_lwm2m/wakaama-master/core\internals.h **** #define REG_ATTR_TYPE_KEY_LEN       2
 208:g:/iot/IoT_Device_Demo/iot_link/network/lwm2m/wakaama_lwm2m/wakaama-master/core\internals.h **** #define REG_ATTR_TYPE_VALUE         "\"oma.lwm2m\""
 209:g:/iot/IoT_Device_Demo/iot_link/network/lwm2m/wakaama_lwm2m/wakaama-master/core\internals.h **** #define REG_ATTR_TYPE_VALUE_LEN     11
 210:g:/iot/IoT_Device_Demo/iot_link/network/lwm2m/wakaama_lwm2m/wakaama-master/core\internals.h **** #define REG_ATTR_CONTENT_KEY        "ct"
 211:g:/iot/IoT_Device_Demo/iot_link/network/lwm2m/wakaama_lwm2m/wakaama-master/core\internals.h **** #define REG_ATTR_CONTENT_KEY_LEN    2
 212:g:/iot/IoT_Device_Demo/iot_link/network/lwm2m/wakaama_lwm2m/wakaama-master/core\internals.h **** #define REG_ATTR_CONTENT_JSON       "11543"   // Temporary value
 213:g:/iot/IoT_Device_Demo/iot_link/network/lwm2m/wakaama_lwm2m/wakaama-master/core\internals.h **** #define REG_ATTR_CONTENT_JSON_LEN   5
 214:g:/iot/IoT_Device_Demo/iot_link/network/lwm2m/wakaama_lwm2m/wakaama-master/core\internals.h **** 
 215:g:/iot/IoT_Device_Demo/iot_link/network/lwm2m/wakaama_lwm2m/wakaama-master/core\internals.h **** #define ATTR_SERVER_ID_STR       "ep="
 216:g:/iot/IoT_Device_Demo/iot_link/network/lwm2m/wakaama_lwm2m/wakaama-master/core\internals.h **** #define ATTR_SERVER_ID_LEN       3
 217:g:/iot/IoT_Device_Demo/iot_link/network/lwm2m/wakaama_lwm2m/wakaama-master/core\internals.h **** #define ATTR_MIN_PERIOD_STR      "pmin="
 218:g:/iot/IoT_Device_Demo/iot_link/network/lwm2m/wakaama_lwm2m/wakaama-master/core\internals.h **** #define ATTR_MIN_PERIOD_LEN      5
 219:g:/iot/IoT_Device_Demo/iot_link/network/lwm2m/wakaama_lwm2m/wakaama-master/core\internals.h **** #define ATTR_MAX_PERIOD_STR      "pmax="
 220:g:/iot/IoT_Device_Demo/iot_link/network/lwm2m/wakaama_lwm2m/wakaama-master/core\internals.h **** #define ATTR_MAX_PERIOD_LEN      5
 221:g:/iot/IoT_Device_Demo/iot_link/network/lwm2m/wakaama_lwm2m/wakaama-master/core\internals.h **** #define ATTR_GREATER_THAN_STR    "gt="
 222:g:/iot/IoT_Device_Demo/iot_link/network/lwm2m/wakaama_lwm2m/wakaama-master/core\internals.h **** #define ATTR_GREATER_THAN_LEN    3
 223:g:/iot/IoT_Device_Demo/iot_link/network/lwm2m/wakaama_lwm2m/wakaama-master/core\internals.h **** #define ATTR_LESS_THAN_STR       "lt="
 224:g:/iot/IoT_Device_Demo/iot_link/network/lwm2m/wakaama_lwm2m/wakaama-master/core\internals.h **** #define ATTR_LESS_THAN_LEN       3
 225:g:/iot/IoT_Device_Demo/iot_link/network/lwm2m/wakaama_lwm2m/wakaama-master/core\internals.h **** #define ATTR_STEP_STR            "st="
 226:g:/iot/IoT_Device_Demo/iot_link/network/lwm2m/wakaama_lwm2m/wakaama-master/core\internals.h **** #define ATTR_STEP_LEN            3
 227:g:/iot/IoT_Device_Demo/iot_link/network/lwm2m/wakaama_lwm2m/wakaama-master/core\internals.h **** #define ATTR_DIMENSION_STR       "dim="
 228:g:/iot/IoT_Device_Demo/iot_link/network/lwm2m/wakaama_lwm2m/wakaama-master/core\internals.h **** #define ATTR_DIMENSION_LEN       4
 229:g:/iot/IoT_Device_Demo/iot_link/network/lwm2m/wakaama_lwm2m/wakaama-master/core\internals.h **** 
ARM GAS  C:\Users\ADMINI~1\AppData\Local\Temp\ccEp9HN1.s 			page 8


 230:g:/iot/IoT_Device_Demo/iot_link/network/lwm2m/wakaama_lwm2m/wakaama-master/core\internals.h **** #define URI_MAX_STRING_LEN    18      // /65535/65535/65535
 231:g:/iot/IoT_Device_Demo/iot_link/network/lwm2m/wakaama_lwm2m/wakaama-master/core\internals.h **** #define _PRV_64BIT_BUFFER_SIZE 8
 232:g:/iot/IoT_Device_Demo/iot_link/network/lwm2m/wakaama_lwm2m/wakaama-master/core\internals.h **** 
 233:g:/iot/IoT_Device_Demo/iot_link/network/lwm2m/wakaama_lwm2m/wakaama-master/core\internals.h **** #define LINK_ITEM_START             "<"
 234:g:/iot/IoT_Device_Demo/iot_link/network/lwm2m/wakaama_lwm2m/wakaama-master/core\internals.h **** #define LINK_ITEM_START_SIZE        1
 235:g:/iot/IoT_Device_Demo/iot_link/network/lwm2m/wakaama_lwm2m/wakaama-master/core\internals.h **** #define LINK_ITEM_END               ">,"
 236:g:/iot/IoT_Device_Demo/iot_link/network/lwm2m/wakaama_lwm2m/wakaama-master/core\internals.h **** #define LINK_ITEM_END_SIZE          2
 237:g:/iot/IoT_Device_Demo/iot_link/network/lwm2m/wakaama_lwm2m/wakaama-master/core\internals.h **** #define LINK_ITEM_DIM_START         ">;dim="
 238:g:/iot/IoT_Device_Demo/iot_link/network/lwm2m/wakaama_lwm2m/wakaama-master/core\internals.h **** #define LINK_ITEM_DIM_START_SIZE    6
 239:g:/iot/IoT_Device_Demo/iot_link/network/lwm2m/wakaama_lwm2m/wakaama-master/core\internals.h **** #define LINK_ITEM_ATTR_END          ","
 240:g:/iot/IoT_Device_Demo/iot_link/network/lwm2m/wakaama_lwm2m/wakaama-master/core\internals.h **** #define LINK_ITEM_ATTR_END_SIZE     1
 241:g:/iot/IoT_Device_Demo/iot_link/network/lwm2m/wakaama_lwm2m/wakaama-master/core\internals.h **** #define LINK_URI_SEPARATOR          "/"
 242:g:/iot/IoT_Device_Demo/iot_link/network/lwm2m/wakaama_lwm2m/wakaama-master/core\internals.h **** #define LINK_URI_SEPARATOR_SIZE     1
 243:g:/iot/IoT_Device_Demo/iot_link/network/lwm2m/wakaama_lwm2m/wakaama-master/core\internals.h **** #define LINK_ATTR_SEPARATOR         ";"
 244:g:/iot/IoT_Device_Demo/iot_link/network/lwm2m/wakaama_lwm2m/wakaama-master/core\internals.h **** #define LINK_ATTR_SEPARATOR_SIZE    1
 245:g:/iot/IoT_Device_Demo/iot_link/network/lwm2m/wakaama_lwm2m/wakaama-master/core\internals.h **** 
 246:g:/iot/IoT_Device_Demo/iot_link/network/lwm2m/wakaama_lwm2m/wakaama-master/core\internals.h **** #define ATTR_FLAG_NUMERIC (uint8_t)(LWM2M_ATTR_FLAG_LESS_THAN | LWM2M_ATTR_FLAG_GREATER_THAN | LWM2
 247:g:/iot/IoT_Device_Demo/iot_link/network/lwm2m/wakaama_lwm2m/wakaama-master/core\internals.h **** 
 248:g:/iot/IoT_Device_Demo/iot_link/network/lwm2m/wakaama_lwm2m/wakaama-master/core\internals.h **** #define LWM2M_URI_FLAG_DM           (uint8_t)0x00
 249:g:/iot/IoT_Device_Demo/iot_link/network/lwm2m/wakaama_lwm2m/wakaama-master/core\internals.h **** #define LWM2M_URI_FLAG_DELETE_ALL   (uint8_t)0x10
 250:g:/iot/IoT_Device_Demo/iot_link/network/lwm2m/wakaama_lwm2m/wakaama-master/core\internals.h **** #define LWM2M_URI_FLAG_REGISTRATION (uint8_t)0x20
 251:g:/iot/IoT_Device_Demo/iot_link/network/lwm2m/wakaama_lwm2m/wakaama-master/core\internals.h **** #define LWM2M_URI_FLAG_BOOTSTRAP    (uint8_t)0x40
 252:g:/iot/IoT_Device_Demo/iot_link/network/lwm2m/wakaama_lwm2m/wakaama-master/core\internals.h **** 
 253:g:/iot/IoT_Device_Demo/iot_link/network/lwm2m/wakaama_lwm2m/wakaama-master/core\internals.h **** #define LWM2M_URI_MASK_TYPE (uint8_t)0x70
 254:g:/iot/IoT_Device_Demo/iot_link/network/lwm2m/wakaama_lwm2m/wakaama-master/core\internals.h **** #define LWM2M_URI_MASK_ID   (uint8_t)0x07
 255:g:/iot/IoT_Device_Demo/iot_link/network/lwm2m/wakaama_lwm2m/wakaama-master/core\internals.h **** 
 256:g:/iot/IoT_Device_Demo/iot_link/network/lwm2m/wakaama_lwm2m/wakaama-master/core\internals.h **** typedef struct
 257:g:/iot/IoT_Device_Demo/iot_link/network/lwm2m/wakaama_lwm2m/wakaama-master/core\internals.h **** {
 258:g:/iot/IoT_Device_Demo/iot_link/network/lwm2m/wakaama_lwm2m/wakaama-master/core\internals.h ****     uint16_t clientID;
 259:g:/iot/IoT_Device_Demo/iot_link/network/lwm2m/wakaama_lwm2m/wakaama-master/core\internals.h ****     lwm2m_uri_t uri;
 260:g:/iot/IoT_Device_Demo/iot_link/network/lwm2m/wakaama_lwm2m/wakaama-master/core\internals.h ****     lwm2m_result_callback_t callback;
 261:g:/iot/IoT_Device_Demo/iot_link/network/lwm2m/wakaama_lwm2m/wakaama-master/core\internals.h ****     void * userData;
 262:g:/iot/IoT_Device_Demo/iot_link/network/lwm2m/wakaama_lwm2m/wakaama-master/core\internals.h **** } dm_data_t;
 263:g:/iot/IoT_Device_Demo/iot_link/network/lwm2m/wakaama_lwm2m/wakaama-master/core\internals.h **** 
 264:g:/iot/IoT_Device_Demo/iot_link/network/lwm2m/wakaama_lwm2m/wakaama-master/core\internals.h **** typedef enum
 265:g:/iot/IoT_Device_Demo/iot_link/network/lwm2m/wakaama_lwm2m/wakaama-master/core\internals.h **** {
 266:g:/iot/IoT_Device_Demo/iot_link/network/lwm2m/wakaama_lwm2m/wakaama-master/core\internals.h ****     URI_DEPTH_OBJECT,
 267:g:/iot/IoT_Device_Demo/iot_link/network/lwm2m/wakaama_lwm2m/wakaama-master/core\internals.h ****     URI_DEPTH_OBJECT_INSTANCE,
 268:g:/iot/IoT_Device_Demo/iot_link/network/lwm2m/wakaama_lwm2m/wakaama-master/core\internals.h ****     URI_DEPTH_RESOURCE,
 269:g:/iot/IoT_Device_Demo/iot_link/network/lwm2m/wakaama_lwm2m/wakaama-master/core\internals.h ****     URI_DEPTH_RESOURCE_INSTANCE
 270:g:/iot/IoT_Device_Demo/iot_link/network/lwm2m/wakaama_lwm2m/wakaama-master/core\internals.h **** } uri_depth_t;
 271:g:/iot/IoT_Device_Demo/iot_link/network/lwm2m/wakaama_lwm2m/wakaama-master/core\internals.h **** 
 272:g:/iot/IoT_Device_Demo/iot_link/network/lwm2m/wakaama_lwm2m/wakaama-master/core\internals.h **** #ifdef LWM2M_BOOTSTRAP_SERVER_MODE
 273:g:/iot/IoT_Device_Demo/iot_link/network/lwm2m/wakaama_lwm2m/wakaama-master/core\internals.h **** typedef struct
 274:g:/iot/IoT_Device_Demo/iot_link/network/lwm2m/wakaama_lwm2m/wakaama-master/core\internals.h **** {
 275:g:/iot/IoT_Device_Demo/iot_link/network/lwm2m/wakaama_lwm2m/wakaama-master/core\internals.h ****     bool        isUri;
 276:g:/iot/IoT_Device_Demo/iot_link/network/lwm2m/wakaama_lwm2m/wakaama-master/core\internals.h ****     lwm2m_uri_t uri;
 277:g:/iot/IoT_Device_Demo/iot_link/network/lwm2m/wakaama_lwm2m/wakaama-master/core\internals.h ****     lwm2m_bootstrap_callback_t callback;
 278:g:/iot/IoT_Device_Demo/iot_link/network/lwm2m/wakaama_lwm2m/wakaama-master/core\internals.h ****     void *      userData;
 279:g:/iot/IoT_Device_Demo/iot_link/network/lwm2m/wakaama_lwm2m/wakaama-master/core\internals.h **** } bs_data_t;
 280:g:/iot/IoT_Device_Demo/iot_link/network/lwm2m/wakaama_lwm2m/wakaama-master/core\internals.h **** #endif
 281:g:/iot/IoT_Device_Demo/iot_link/network/lwm2m/wakaama_lwm2m/wakaama-master/core\internals.h **** 
 282:g:/iot/IoT_Device_Demo/iot_link/network/lwm2m/wakaama_lwm2m/wakaama-master/core\internals.h **** // defined in uri.c
 283:g:/iot/IoT_Device_Demo/iot_link/network/lwm2m/wakaama_lwm2m/wakaama-master/core\internals.h **** lwm2m_uri_t * uri_decode(char * altPath, multi_option_t *uriPath);
 284:g:/iot/IoT_Device_Demo/iot_link/network/lwm2m/wakaama_lwm2m/wakaama-master/core\internals.h **** int uri_getNumber(uint8_t * uriString, size_t uriLength);
 285:g:/iot/IoT_Device_Demo/iot_link/network/lwm2m/wakaama_lwm2m/wakaama-master/core\internals.h **** int uri_toString(lwm2m_uri_t * uriP, uint8_t * buffer, size_t bufferLen, uri_depth_t * depthP);
 286:g:/iot/IoT_Device_Demo/iot_link/network/lwm2m/wakaama_lwm2m/wakaama-master/core\internals.h **** 
ARM GAS  C:\Users\ADMINI~1\AppData\Local\Temp\ccEp9HN1.s 			page 9


 287:g:/iot/IoT_Device_Demo/iot_link/network/lwm2m/wakaama_lwm2m/wakaama-master/core\internals.h **** // defined in objects.c
 288:g:/iot/IoT_Device_Demo/iot_link/network/lwm2m/wakaama_lwm2m/wakaama-master/core\internals.h **** uint8_t object_readData(lwm2m_context_t * contextP, lwm2m_uri_t * uriP, int * sizeP, lwm2m_data_t *
 289:g:/iot/IoT_Device_Demo/iot_link/network/lwm2m/wakaama_lwm2m/wakaama-master/core\internals.h **** uint8_t object_read(lwm2m_context_t * contextP, lwm2m_uri_t * uriP, lwm2m_media_type_t * formatP, u
 290:g:/iot/IoT_Device_Demo/iot_link/network/lwm2m/wakaama_lwm2m/wakaama-master/core\internals.h **** uint8_t object_write(lwm2m_context_t * contextP, lwm2m_uri_t * uriP, lwm2m_media_type_t format, uin
 291:g:/iot/IoT_Device_Demo/iot_link/network/lwm2m/wakaama_lwm2m/wakaama-master/core\internals.h **** uint8_t object_create(lwm2m_context_t * contextP, lwm2m_uri_t * uriP, lwm2m_media_type_t format, ui
 292:g:/iot/IoT_Device_Demo/iot_link/network/lwm2m/wakaama_lwm2m/wakaama-master/core\internals.h **** uint8_t object_execute(lwm2m_context_t * contextP, lwm2m_uri_t * uriP, uint8_t * buffer, size_t len
 293:g:/iot/IoT_Device_Demo/iot_link/network/lwm2m/wakaama_lwm2m/wakaama-master/core\internals.h **** uint8_t object_delete(lwm2m_context_t * contextP, lwm2m_uri_t * uriP);
 294:g:/iot/IoT_Device_Demo/iot_link/network/lwm2m/wakaama_lwm2m/wakaama-master/core\internals.h **** uint8_t object_discover(lwm2m_context_t * contextP, lwm2m_uri_t * uriP, lwm2m_server_t * serverP, u
 295:g:/iot/IoT_Device_Demo/iot_link/network/lwm2m/wakaama_lwm2m/wakaama-master/core\internals.h **** uint8_t object_checkReadable(lwm2m_context_t * contextP, lwm2m_uri_t * uriP);
 296:g:/iot/IoT_Device_Demo/iot_link/network/lwm2m/wakaama_lwm2m/wakaama-master/core\internals.h **** uint8_t object_checkNumeric(lwm2m_context_t * contextP, lwm2m_uri_t * uriP);
 297:g:/iot/IoT_Device_Demo/iot_link/network/lwm2m/wakaama_lwm2m/wakaama-master/core\internals.h **** bool object_isInstanceNew(lwm2m_context_t * contextP, uint16_t objectId, uint16_t instanceId);
 298:g:/iot/IoT_Device_Demo/iot_link/network/lwm2m/wakaama_lwm2m/wakaama-master/core\internals.h **** int object_getRegisterPayloadBufferLength(lwm2m_context_t * contextP);
 299:g:/iot/IoT_Device_Demo/iot_link/network/lwm2m/wakaama_lwm2m/wakaama-master/core\internals.h **** int object_getRegisterPayload(lwm2m_context_t * contextP, uint8_t * buffer, size_t length);
 300:g:/iot/IoT_Device_Demo/iot_link/network/lwm2m/wakaama_lwm2m/wakaama-master/core\internals.h **** int object_getServers(lwm2m_context_t * contextP, bool checkOnly);
 301:g:/iot/IoT_Device_Demo/iot_link/network/lwm2m/wakaama_lwm2m/wakaama-master/core\internals.h **** uint8_t object_createInstance(lwm2m_context_t * contextP, lwm2m_uri_t * uriP, lwm2m_data_t * dataP)
 302:g:/iot/IoT_Device_Demo/iot_link/network/lwm2m/wakaama_lwm2m/wakaama-master/core\internals.h **** uint8_t object_writeInstance(lwm2m_context_t * contextP, lwm2m_uri_t * uriP, lwm2m_data_t * dataP);
 303:g:/iot/IoT_Device_Demo/iot_link/network/lwm2m/wakaama_lwm2m/wakaama-master/core\internals.h **** 
 304:g:/iot/IoT_Device_Demo/iot_link/network/lwm2m/wakaama_lwm2m/wakaama-master/core\internals.h **** // defined in transaction.c
 305:g:/iot/IoT_Device_Demo/iot_link/network/lwm2m/wakaama_lwm2m/wakaama-master/core\internals.h **** lwm2m_transaction_t * transaction_new(void * sessionH, unsigned char method, char * altPath, lwm2m_
 306:g:/iot/IoT_Device_Demo/iot_link/network/lwm2m/wakaama_lwm2m/wakaama-master/core\internals.h **** int transaction_send(lwm2m_context_t * contextP, lwm2m_transaction_t * transacP);
 307:g:/iot/IoT_Device_Demo/iot_link/network/lwm2m/wakaama_lwm2m/wakaama-master/core\internals.h **** void transaction_free(lwm2m_transaction_t * transacP);
 308:g:/iot/IoT_Device_Demo/iot_link/network/lwm2m/wakaama_lwm2m/wakaama-master/core\internals.h **** void transaction_remove(lwm2m_context_t * contextP, lwm2m_transaction_t * transacP);
 309:g:/iot/IoT_Device_Demo/iot_link/network/lwm2m/wakaama_lwm2m/wakaama-master/core\internals.h **** bool transaction_handleResponse(lwm2m_context_t * contextP, void * fromSessionH, coap_packet_t * me
 310:g:/iot/IoT_Device_Demo/iot_link/network/lwm2m/wakaama_lwm2m/wakaama-master/core\internals.h **** void transaction_step(lwm2m_context_t * contextP, time_t currentTime, time_t * timeoutP);
 311:g:/iot/IoT_Device_Demo/iot_link/network/lwm2m/wakaama_lwm2m/wakaama-master/core\internals.h **** 
 312:g:/iot/IoT_Device_Demo/iot_link/network/lwm2m/wakaama_lwm2m/wakaama-master/core\internals.h **** // defined in management.c
 313:g:/iot/IoT_Device_Demo/iot_link/network/lwm2m/wakaama_lwm2m/wakaama-master/core\internals.h **** uint8_t dm_handleRequest(lwm2m_context_t * contextP, lwm2m_uri_t * uriP, lwm2m_server_t * serverP, 
 314:g:/iot/IoT_Device_Demo/iot_link/network/lwm2m/wakaama_lwm2m/wakaama-master/core\internals.h **** 
 315:g:/iot/IoT_Device_Demo/iot_link/network/lwm2m/wakaama_lwm2m/wakaama-master/core\internals.h **** // defined in observe.c
 316:g:/iot/IoT_Device_Demo/iot_link/network/lwm2m/wakaama_lwm2m/wakaama-master/core\internals.h **** uint8_t observe_handleRequest(lwm2m_context_t * contextP, lwm2m_uri_t * uriP, lwm2m_server_t * serv
 317:g:/iot/IoT_Device_Demo/iot_link/network/lwm2m/wakaama_lwm2m/wakaama-master/core\internals.h **** void observe_cancel(lwm2m_context_t * contextP, uint16_t mid, void * fromSessionH);
 318:g:/iot/IoT_Device_Demo/iot_link/network/lwm2m/wakaama_lwm2m/wakaama-master/core\internals.h **** uint8_t observe_setParameters(lwm2m_context_t * contextP, lwm2m_uri_t * uriP, lwm2m_server_t * serv
 319:g:/iot/IoT_Device_Demo/iot_link/network/lwm2m/wakaama_lwm2m/wakaama-master/core\internals.h **** void observe_step(lwm2m_context_t * contextP, time_t currentTime, time_t * timeoutP);
 320:g:/iot/IoT_Device_Demo/iot_link/network/lwm2m/wakaama_lwm2m/wakaama-master/core\internals.h **** void observe_clear(lwm2m_context_t * contextP, lwm2m_uri_t * uriP);
 321:g:/iot/IoT_Device_Demo/iot_link/network/lwm2m/wakaama_lwm2m/wakaama-master/core\internals.h **** //bool observe_handleNotify(lwm2m_context_t * contextP, void * fromSessionH, coap_packet_t * messag
 322:g:/iot/IoT_Device_Demo/iot_link/network/lwm2m/wakaama_lwm2m/wakaama-master/core\internals.h **** void observe_remove(lwm2m_observation_t * observationP);
 323:g:/iot/IoT_Device_Demo/iot_link/network/lwm2m/wakaama_lwm2m/wakaama-master/core\internals.h **** lwm2m_observed_t * observe_findByUri(lwm2m_context_t * contextP, lwm2m_uri_t * uriP);
 324:g:/iot/IoT_Device_Demo/iot_link/network/lwm2m/wakaama_lwm2m/wakaama-master/core\internals.h **** 
 325:g:/iot/IoT_Device_Demo/iot_link/network/lwm2m/wakaama_lwm2m/wakaama-master/core\internals.h **** // defined in registration.c
 326:g:/iot/IoT_Device_Demo/iot_link/network/lwm2m/wakaama_lwm2m/wakaama-master/core\internals.h **** //uint8_t registration_handleRequest(lwm2m_context_t * contextP, lwm2m_uri_t * uriP, void * fromSes
 327:g:/iot/IoT_Device_Demo/iot_link/network/lwm2m/wakaama_lwm2m/wakaama-master/core\internals.h **** void registration_deregister(lwm2m_context_t * contextP, lwm2m_server_t * serverP);
 328:g:/iot/IoT_Device_Demo/iot_link/network/lwm2m/wakaama_lwm2m/wakaama-master/core\internals.h **** void registration_freeClient(lwm2m_client_t * clientP);
 329:g:/iot/IoT_Device_Demo/iot_link/network/lwm2m/wakaama_lwm2m/wakaama-master/core\internals.h **** uint8_t registration_start(lwm2m_context_t * contextP);
 330:g:/iot/IoT_Device_Demo/iot_link/network/lwm2m/wakaama_lwm2m/wakaama-master/core\internals.h **** void registration_step(lwm2m_context_t * contextP, time_t currentTime, time_t * timeoutP);
 331:g:/iot/IoT_Device_Demo/iot_link/network/lwm2m/wakaama_lwm2m/wakaama-master/core\internals.h **** lwm2m_status_t registration_getStatus(lwm2m_context_t * contextP);
 332:g:/iot/IoT_Device_Demo/iot_link/network/lwm2m/wakaama_lwm2m/wakaama-master/core\internals.h **** void registration_reset(lwm2m_context_t * contextP, lwm2m_server_t * serverP);
 333:g:/iot/IoT_Device_Demo/iot_link/network/lwm2m/wakaama_lwm2m/wakaama-master/core\internals.h **** 
 334:g:/iot/IoT_Device_Demo/iot_link/network/lwm2m/wakaama_lwm2m/wakaama-master/core\internals.h **** // defined in packet.c
 335:g:/iot/IoT_Device_Demo/iot_link/network/lwm2m/wakaama_lwm2m/wakaama-master/core\internals.h **** uint8_t message_send(lwm2m_context_t * contextP, coap_packet_t * message, void * sessionH);
 336:g:/iot/IoT_Device_Demo/iot_link/network/lwm2m/wakaama_lwm2m/wakaama-master/core\internals.h **** 
 337:g:/iot/IoT_Device_Demo/iot_link/network/lwm2m/wakaama_lwm2m/wakaama-master/core\internals.h **** // defined in bootstrap.c
 338:g:/iot/IoT_Device_Demo/iot_link/network/lwm2m/wakaama_lwm2m/wakaama-master/core\internals.h **** void bootstrap_step(lwm2m_context_t * contextP, uint32_t currentTime, time_t* timeoutP);
 339:g:/iot/IoT_Device_Demo/iot_link/network/lwm2m/wakaama_lwm2m/wakaama-master/core\internals.h **** uint8_t bootstrap_handleCommand(lwm2m_context_t * contextP, lwm2m_uri_t * uriP, lwm2m_server_t * se
 340:g:/iot/IoT_Device_Demo/iot_link/network/lwm2m/wakaama_lwm2m/wakaama-master/core\internals.h **** uint8_t bootstrap_handleDeleteAll(lwm2m_context_t * context, void * fromSessionH);
 341:g:/iot/IoT_Device_Demo/iot_link/network/lwm2m/wakaama_lwm2m/wakaama-master/core\internals.h **** uint8_t bootstrap_handleFinish(lwm2m_context_t * context, void * fromSessionH);
 342:g:/iot/IoT_Device_Demo/iot_link/network/lwm2m/wakaama_lwm2m/wakaama-master/core\internals.h **** uint8_t bootstrap_handleRequest(lwm2m_context_t * contextP, lwm2m_uri_t * uriP, void * fromSessionH
 343:g:/iot/IoT_Device_Demo/iot_link/network/lwm2m/wakaama_lwm2m/wakaama-master/core\internals.h **** void bootstrap_start(lwm2m_context_t * contextP);
ARM GAS  C:\Users\ADMINI~1\AppData\Local\Temp\ccEp9HN1.s 			page 10


 344:g:/iot/IoT_Device_Demo/iot_link/network/lwm2m/wakaama_lwm2m/wakaama-master/core\internals.h **** lwm2m_status_t bootstrap_getStatus(lwm2m_context_t * contextP);
 345:g:/iot/IoT_Device_Demo/iot_link/network/lwm2m/wakaama_lwm2m/wakaama-master/core\internals.h **** bool bootstrap_isBsServerIpValid(const lwm2m_context_t *contextP);
 346:g:/iot/IoT_Device_Demo/iot_link/network/lwm2m/wakaama_lwm2m/wakaama-master/core\internals.h **** 
 347:g:/iot/IoT_Device_Demo/iot_link/network/lwm2m/wakaama_lwm2m/wakaama-master/core\internals.h **** 
 348:g:/iot/IoT_Device_Demo/iot_link/network/lwm2m/wakaama_lwm2m/wakaama-master/core\internals.h **** // defined in tlv.c
 349:g:/iot/IoT_Device_Demo/iot_link/network/lwm2m/wakaama_lwm2m/wakaama-master/core\internals.h **** int tlv_parse(uint8_t * buffer, size_t bufferLen, lwm2m_data_t ** dataP);
 350:g:/iot/IoT_Device_Demo/iot_link/network/lwm2m/wakaama_lwm2m/wakaama-master/core\internals.h **** int tlv_serialize(bool isResourceInstance, int size, lwm2m_data_t * dataP, uint8_t ** bufferP);
 351:g:/iot/IoT_Device_Demo/iot_link/network/lwm2m/wakaama_lwm2m/wakaama-master/core\internals.h **** 
 352:g:/iot/IoT_Device_Demo/iot_link/network/lwm2m/wakaama_lwm2m/wakaama-master/core\internals.h **** // defined in json.c
 353:g:/iot/IoT_Device_Demo/iot_link/network/lwm2m/wakaama_lwm2m/wakaama-master/core\internals.h **** #ifdef LWM2M_SUPPORT_JSON
 354:g:/iot/IoT_Device_Demo/iot_link/network/lwm2m/wakaama_lwm2m/wakaama-master/core\internals.h **** int json_parse(lwm2m_uri_t * uriP, uint8_t * buffer, size_t bufferLen, lwm2m_data_t ** dataP);
 355:g:/iot/IoT_Device_Demo/iot_link/network/lwm2m/wakaama_lwm2m/wakaama-master/core\internals.h **** int json_serialize(lwm2m_uri_t * uriP, int size, lwm2m_data_t * tlvP, uint8_t ** bufferP);
 356:g:/iot/IoT_Device_Demo/iot_link/network/lwm2m/wakaama_lwm2m/wakaama-master/core\internals.h **** #endif
 357:g:/iot/IoT_Device_Demo/iot_link/network/lwm2m/wakaama_lwm2m/wakaama-master/core\internals.h **** 
 358:g:/iot/IoT_Device_Demo/iot_link/network/lwm2m/wakaama_lwm2m/wakaama-master/core\internals.h **** // defined in discover.c
 359:g:/iot/IoT_Device_Demo/iot_link/network/lwm2m/wakaama_lwm2m/wakaama-master/core\internals.h **** int discover_serialize(lwm2m_context_t * contextP, lwm2m_uri_t * uriP, lwm2m_server_t * serverP, in
 360:g:/iot/IoT_Device_Demo/iot_link/network/lwm2m/wakaama_lwm2m/wakaama-master/core\internals.h **** 
 361:g:/iot/IoT_Device_Demo/iot_link/network/lwm2m/wakaama_lwm2m/wakaama-master/core\internals.h **** // defined in block1.c
 362:g:/iot/IoT_Device_Demo/iot_link/network/lwm2m/wakaama_lwm2m/wakaama-master/core\internals.h **** uint8_t coap_block1_handler(lwm2m_block1_data_t ** block1Data, uint16_t mid, uint8_t * buffer, size
 363:g:/iot/IoT_Device_Demo/iot_link/network/lwm2m/wakaama_lwm2m/wakaama-master/core\internals.h **** void free_block1_buffer(lwm2m_block1_data_t * block1Data);
 364:g:/iot/IoT_Device_Demo/iot_link/network/lwm2m/wakaama_lwm2m/wakaama-master/core\internals.h **** 
 365:g:/iot/IoT_Device_Demo/iot_link/network/lwm2m/wakaama_lwm2m/wakaama-master/core\internals.h **** // defined in utils.c
 366:g:/iot/IoT_Device_Demo/iot_link/network/lwm2m/wakaama_lwm2m/wakaama-master/core\internals.h **** lwm2m_data_type_t utils_depthToDatatype(uri_depth_t depth);
 367:g:/iot/IoT_Device_Demo/iot_link/network/lwm2m/wakaama_lwm2m/wakaama-master/core\internals.h **** lwm2m_binding_t utils_stringToBinding(uint8_t *buffer, size_t length);
 368:g:/iot/IoT_Device_Demo/iot_link/network/lwm2m/wakaama_lwm2m/wakaama-master/core\internals.h **** lwm2m_media_type_t utils_convertMediaType(coap_content_type_t type);
 369:g:/iot/IoT_Device_Demo/iot_link/network/lwm2m/wakaama_lwm2m/wakaama-master/core\internals.h **** int utils_isAltPathValid(const char * altPath);
 370:g:/iot/IoT_Device_Demo/iot_link/network/lwm2m/wakaama_lwm2m/wakaama-master/core\internals.h **** int utils_stringCopy(char * buffer, size_t length, const char * str);
 371:g:/iot/IoT_Device_Demo/iot_link/network/lwm2m/wakaama_lwm2m/wakaama-master/core\internals.h **** size_t utils_intToText(int64_t data, uint8_t * string, size_t length);
 372:g:/iot/IoT_Device_Demo/iot_link/network/lwm2m/wakaama_lwm2m/wakaama-master/core\internals.h **** size_t utils_floatToText(double data, uint8_t * string, size_t length);
 373:g:/iot/IoT_Device_Demo/iot_link/network/lwm2m/wakaama_lwm2m/wakaama-master/core\internals.h **** int utils_textToInt(uint8_t * buffer, int length, int64_t * dataP);
 374:g:/iot/IoT_Device_Demo/iot_link/network/lwm2m/wakaama_lwm2m/wakaama-master/core\internals.h **** int utils_textToFloat(uint8_t * buffer, int length, double * dataP);
 375:g:/iot/IoT_Device_Demo/iot_link/network/lwm2m/wakaama_lwm2m/wakaama-master/core\internals.h **** void utils_copyValue(void * dst, const void * src, size_t len);
 376:g:/iot/IoT_Device_Demo/iot_link/network/lwm2m/wakaama_lwm2m/wakaama-master/core\internals.h **** size_t utils_base64GetSize(size_t dataLen);
 377:g:/iot/IoT_Device_Demo/iot_link/network/lwm2m/wakaama_lwm2m/wakaama-master/core\internals.h **** size_t utils_base64Encode(uint8_t * dataP, size_t dataLen, uint8_t * bufferP, size_t bufferLen);
 378:g:/iot/IoT_Device_Demo/iot_link/network/lwm2m/wakaama_lwm2m/wakaama-master/core\internals.h **** #ifdef LWM2M_CLIENT_MODE
 379:g:/iot/IoT_Device_Demo/iot_link/network/lwm2m/wakaama_lwm2m/wakaama-master/core\internals.h **** lwm2m_server_t * utils_findServer(lwm2m_context_t * contextP, void * fromSessionH);
 380:g:/iot/IoT_Device_Demo/iot_link/network/lwm2m/wakaama_lwm2m/wakaama-master/core\internals.h **** lwm2m_server_t * utils_findBootstrapServer(lwm2m_context_t * contextP, void * fromSessionH);
 381:g:/iot/IoT_Device_Demo/iot_link/network/lwm2m/wakaama_lwm2m/wakaama-master/core\internals.h **** #endif
 382:g:/iot/IoT_Device_Demo/iot_link/network/lwm2m/wakaama_lwm2m/wakaama-master/core\internals.h **** static inline int dm_isUriOpaqueHandle(const lwm2m_uri_t * uriP)
 383:g:/iot/IoT_Device_Demo/iot_link/network/lwm2m/wakaama_lwm2m/wakaama-master/core\internals.h **** {
 101              		.loc 2 383 1
 102              		.cfi_startproc
 103              		@ args = 0, pretend = 0, frame = 8
 104              		@ frame_needed = 1, uses_anonymous_args = 0
 105              		@ link register save eliminated.
 106 0000 80B4     		push	{r7}
 107              	.LCFI6:
 108              		.cfi_def_cfa_offset 4
 109              		.cfi_offset 7, -4
 110 0002 83B0     		sub	sp, sp, #12
 111              	.LCFI7:
 112              		.cfi_def_cfa_offset 16
 113 0004 00AF     		add	r7, sp, #0
 114              	.LCFI8:
 115              		.cfi_def_cfa_register 7
 116 0006 7860     		str	r0, [r7, #4]
 384:g:/iot/IoT_Device_Demo/iot_link/network/lwm2m/wakaama_lwm2m/wakaama-master/core\internals.h ****     return (19 == uriP->objectId);
ARM GAS  C:\Users\ADMINI~1\AppData\Local\Temp\ccEp9HN1.s 			page 11


 117              		.loc 2 384 23
 118 0008 7B68     		ldr	r3, [r7, #4]
 119 000a 5B88     		ldrh	r3, [r3, #2]
 120              		.loc 2 384 16
 121 000c 132B     		cmp	r3, #19
 122 000e 0CBF     		ite	eq
 123 0010 0123     		moveq	r3, #1
 124 0012 0023     		movne	r3, #0
 125 0014 DBB2     		uxtb	r3, r3
 385:g:/iot/IoT_Device_Demo/iot_link/network/lwm2m/wakaama_lwm2m/wakaama-master/core\internals.h **** }
 126              		.loc 2 385 1
 127 0016 1846     		mov	r0, r3
 128 0018 0C37     		adds	r7, r7, #12
 129              	.LCFI9:
 130              		.cfi_def_cfa_offset 4
 131 001a BD46     		mov	sp, r7
 132              	.LCFI10:
 133              		.cfi_def_cfa_register 13
 134              		@ sp needed
 135 001c 5DF8047B 		ldr	r7, [sp], #4
 136              	.LCFI11:
 137              		.cfi_restore 7
 138              		.cfi_def_cfa_offset 0
 139 0020 7047     		bx	lr
 140              		.cfi_endproc
 141              	.LFE13:
 143              		.global	g_reboot
 144              		.section	.bss.g_reboot,"aw",%nobits
 145              		.align	2
 148              	g_reboot:
 149 0000 00000000 		.space	4
 150              		.section	.data.g_data_mutex,"aw"
 151              		.align	2
 154              	g_data_mutex:
 155 0000 FFFFFFFF 		.word	-1
 156              		.section	.text.generate_new_object_instance_id,"ax",%progbits
 157              		.align	1
 158              		.syntax unified
 159              		.thumb
 160              		.thumb_func
 161              		.fpu fpv4-sp-d16
 163              	generate_new_object_instance_id:
 164              	.LFB14:
 165              		.file 3 "g:/iot/IoT_Device_Demo/iot_link/network/lwm2m/wakaama_lwm2m/port/lwm2m_port.c"
   1:g:/iot/IoT_Device_Demo/iot_link/network/lwm2m/wakaama_lwm2m/port\lwm2m_port.c **** /*----------------------------------------------------------------------------
   2:g:/iot/IoT_Device_Demo/iot_link/network/lwm2m/wakaama_lwm2m/port\lwm2m_port.c ****  * Copyright (c) <2019>, <Huawei Technologies Co., Ltd>
   3:g:/iot/IoT_Device_Demo/iot_link/network/lwm2m/wakaama_lwm2m/port\lwm2m_port.c ****  * All rights reserved.
   4:g:/iot/IoT_Device_Demo/iot_link/network/lwm2m/wakaama_lwm2m/port\lwm2m_port.c ****  * Redistribution and use in source and binary forms, with or without modification,
   5:g:/iot/IoT_Device_Demo/iot_link/network/lwm2m/wakaama_lwm2m/port\lwm2m_port.c ****  * are permitted provided that the following conditions are met:
   6:g:/iot/IoT_Device_Demo/iot_link/network/lwm2m/wakaama_lwm2m/port\lwm2m_port.c ****  * 1. Redistributions of source code must retain the above copyright notice, this list of
   7:g:/iot/IoT_Device_Demo/iot_link/network/lwm2m/wakaama_lwm2m/port\lwm2m_port.c ****  * conditions and the following disclaimer.
   8:g:/iot/IoT_Device_Demo/iot_link/network/lwm2m/wakaama_lwm2m/port\lwm2m_port.c ****  * 2. Redistributions in binary form must reproduce the above copyright notice, this list
   9:g:/iot/IoT_Device_Demo/iot_link/network/lwm2m/wakaama_lwm2m/port\lwm2m_port.c ****  * of conditions and the following disclaimer in the documentation and/or other materials
  10:g:/iot/IoT_Device_Demo/iot_link/network/lwm2m/wakaama_lwm2m/port\lwm2m_port.c ****  * provided with the distribution.
  11:g:/iot/IoT_Device_Demo/iot_link/network/lwm2m/wakaama_lwm2m/port\lwm2m_port.c ****  * 3. Neither the name of the copyright holder nor the names of its contributors may be used
  12:g:/iot/IoT_Device_Demo/iot_link/network/lwm2m/wakaama_lwm2m/port\lwm2m_port.c ****  * to endorse or promote products derived from this software without specific prior written
  13:g:/iot/IoT_Device_Demo/iot_link/network/lwm2m/wakaama_lwm2m/port\lwm2m_port.c ****  * permission.
ARM GAS  C:\Users\ADMINI~1\AppData\Local\Temp\ccEp9HN1.s 			page 12


  14:g:/iot/IoT_Device_Demo/iot_link/network/lwm2m/wakaama_lwm2m/port\lwm2m_port.c ****  * THIS SOFTWARE IS PROVIDED BY THE COPYRIGHT HOLDERS AND CONTRIBUTORS
  15:g:/iot/IoT_Device_Demo/iot_link/network/lwm2m/wakaama_lwm2m/port\lwm2m_port.c ****  * "AS IS" AND ANY EXPRESS OR IMPLIED WARRANTIES, INCLUDING, BUT NOT LIMITED TO,
  16:g:/iot/IoT_Device_Demo/iot_link/network/lwm2m/wakaama_lwm2m/port\lwm2m_port.c ****  * THE IMPLIED WARRANTIES OF MERCHANTABILITY AND FITNESS FOR A PARTICULAR
  17:g:/iot/IoT_Device_Demo/iot_link/network/lwm2m/wakaama_lwm2m/port\lwm2m_port.c ****  * PURPOSE ARE DISCLAIMED. IN NO EVENT SHALL THE COPYRIGHT HOLDER OR
  18:g:/iot/IoT_Device_Demo/iot_link/network/lwm2m/wakaama_lwm2m/port\lwm2m_port.c ****  * CONTRIBUTORS BE LIABLE FOR ANY DIRECT, INDIRECT, INCIDENTAL, SPECIAL,
  19:g:/iot/IoT_Device_Demo/iot_link/network/lwm2m/wakaama_lwm2m/port\lwm2m_port.c ****  * EXEMPLARY, OR CONSEQUENTIAL DAMAGES (INCLUDING, BUT NOT LIMITED TO,
  20:g:/iot/IoT_Device_Demo/iot_link/network/lwm2m/wakaama_lwm2m/port\lwm2m_port.c ****  * PROCUREMENT OF SUBSTITUTE GOODS OR SERVICES; LOSS OF USE, DATA, OR PROFITS;
  21:g:/iot/IoT_Device_Demo/iot_link/network/lwm2m/wakaama_lwm2m/port\lwm2m_port.c ****  * OR BUSINESS INTERRUPTION) HOWEVER CAUSED AND ON ANY THEORY OF LIABILITY,
  22:g:/iot/IoT_Device_Demo/iot_link/network/lwm2m/wakaama_lwm2m/port\lwm2m_port.c ****  * WHETHER IN CONTRACT, STRICT LIABILITY, OR TORT (INCLUDING NEGLIGENCE OR
  23:g:/iot/IoT_Device_Demo/iot_link/network/lwm2m/wakaama_lwm2m/port\lwm2m_port.c ****  * OTHERWISE) ARISING IN ANY WAY OUT OF THE USE OF THIS SOFTWARE, EVEN IF
  24:g:/iot/IoT_Device_Demo/iot_link/network/lwm2m/wakaama_lwm2m/port\lwm2m_port.c ****  * ADVISED OF THE POSSIBILITY OF SUCH DAMAGE.
  25:g:/iot/IoT_Device_Demo/iot_link/network/lwm2m/wakaama_lwm2m/port\lwm2m_port.c ****  *---------------------------------------------------------------------------*/
  26:g:/iot/IoT_Device_Demo/iot_link/network/lwm2m/wakaama_lwm2m/port\lwm2m_port.c **** /*----------------------------------------------------------------------------
  27:g:/iot/IoT_Device_Demo/iot_link/network/lwm2m/wakaama_lwm2m/port\lwm2m_port.c ****  * Notice of Export Control Law
  28:g:/iot/IoT_Device_Demo/iot_link/network/lwm2m/wakaama_lwm2m/port\lwm2m_port.c ****  * ===============================================
  29:g:/iot/IoT_Device_Demo/iot_link/network/lwm2m/wakaama_lwm2m/port\lwm2m_port.c ****  * Huawei LiteOS may be subject to applicable export control laws and regulations, which might
  30:g:/iot/IoT_Device_Demo/iot_link/network/lwm2m/wakaama_lwm2m/port\lwm2m_port.c ****  * include those applicable to Huawei LiteOS of U.S. and the country in which you are located.
  31:g:/iot/IoT_Device_Demo/iot_link/network/lwm2m/wakaama_lwm2m/port\lwm2m_port.c ****  * Import, export and usage of Huawei LiteOS in any manner by you shall be in compliance with such
  32:g:/iot/IoT_Device_Demo/iot_link/network/lwm2m/wakaama_lwm2m/port\lwm2m_port.c ****  * applicable export control laws and regulations.
  33:g:/iot/IoT_Device_Demo/iot_link/network/lwm2m/wakaama_lwm2m/port\lwm2m_port.c ****  *---------------------------------------------------------------------------*/
  34:g:/iot/IoT_Device_Demo/iot_link/network/lwm2m/wakaama_lwm2m/port\lwm2m_port.c **** /**
  35:g:/iot/IoT_Device_Demo/iot_link/network/lwm2m/wakaama_lwm2m/port\lwm2m_port.c ****  *  DATE                AUTHOR      INSTRUCTION
  36:g:/iot/IoT_Device_Demo/iot_link/network/lwm2m/wakaama_lwm2m/port\lwm2m_port.c ****  *  2019-11-13          zhuzongru   define interface
  37:g:/iot/IoT_Device_Demo/iot_link/network/lwm2m/wakaama_lwm2m/port\lwm2m_port.c ****  *
  38:g:/iot/IoT_Device_Demo/iot_link/network/lwm2m/wakaama_lwm2m/port\lwm2m_port.c ****  */
  39:g:/iot/IoT_Device_Demo/iot_link/network/lwm2m/wakaama_lwm2m/port\lwm2m_port.c **** 
  40:g:/iot/IoT_Device_Demo/iot_link/network/lwm2m/wakaama_lwm2m/port\lwm2m_port.c **** #include "lwm2m_port.h"
  41:g:/iot/IoT_Device_Demo/iot_link/network/lwm2m/wakaama_lwm2m/port\lwm2m_port.c **** #include <lwm2m_al.h>
  42:g:/iot/IoT_Device_Demo/iot_link/network/lwm2m/wakaama_lwm2m/port\lwm2m_port.c **** #include "lwm2m_rpt.h"
  43:g:/iot/IoT_Device_Demo/iot_link/network/lwm2m/wakaama_lwm2m/port\lwm2m_port.c **** #include "lwm2m_context.h"
  44:g:/iot/IoT_Device_Demo/iot_link/network/lwm2m/wakaama_lwm2m/port\lwm2m_port.c **** #include "internals.h"
  45:g:/iot/IoT_Device_Demo/iot_link/network/lwm2m/wakaama_lwm2m/port\lwm2m_port.c **** //#include "lwm2m_common.h"
  46:g:/iot/IoT_Device_Demo/iot_link/network/lwm2m/wakaama_lwm2m/port\lwm2m_port.c **** //#include <atiny_log.h>
  47:g:/iot/IoT_Device_Demo/iot_link/network/lwm2m/wakaama_lwm2m/port\lwm2m_port.c **** //#include "connection.h"
  48:g:/iot/IoT_Device_Demo/iot_link/network/lwm2m/wakaama_lwm2m/port\lwm2m_port.c **** //
  49:g:/iot/IoT_Device_Demo/iot_link/network/lwm2m/wakaama_lwm2m/port\lwm2m_port.c **** //#include <stdio.h>
  50:g:/iot/IoT_Device_Demo/iot_link/network/lwm2m/wakaama_lwm2m/port\lwm2m_port.c **** 
  51:g:/iot/IoT_Device_Demo/iot_link/network/lwm2m/wakaama_lwm2m/port\lwm2m_port.c **** #ifdef CONFIG_FEATURE_FOTA
  52:g:/iot/IoT_Device_Demo/iot_link/network/lwm2m/wakaama_lwm2m/port\lwm2m_port.c ****     #include "lwm2m_fota_manager.h"
  53:g:/iot/IoT_Device_Demo/iot_link/network/lwm2m/wakaama_lwm2m/port\lwm2m_port.c **** #endif
  54:g:/iot/IoT_Device_Demo/iot_link/network/lwm2m/wakaama_lwm2m/port\lwm2m_port.c **** 
  55:g:/iot/IoT_Device_Demo/iot_link/network/lwm2m/wakaama_lwm2m/port\lwm2m_port.c **** typedef enum
  56:g:/iot/IoT_Device_Demo/iot_link/network/lwm2m/wakaama_lwm2m/port\lwm2m_port.c **** {
  57:g:/iot/IoT_Device_Demo/iot_link/network/lwm2m/wakaama_lwm2m/port\lwm2m_port.c ****     MSG_NONCONFIRMABLE,
  58:g:/iot/IoT_Device_Demo/iot_link/network/lwm2m/wakaama_lwm2m/port\lwm2m_port.c ****     MSG_CONFIRMABLE
  59:g:/iot/IoT_Device_Demo/iot_link/network/lwm2m/wakaama_lwm2m/port\lwm2m_port.c **** } lwm2m_message_type_e;
  60:g:/iot/IoT_Device_Demo/iot_link/network/lwm2m/wakaama_lwm2m/port\lwm2m_port.c **** 
  61:g:/iot/IoT_Device_Demo/iot_link/network/lwm2m/wakaama_lwm2m/port\lwm2m_port.c **** int g_reboot = 0;
  62:g:/iot/IoT_Device_Demo/iot_link/network/lwm2m/wakaama_lwm2m/port\lwm2m_port.c **** 
  63:g:/iot/IoT_Device_Demo/iot_link/network/lwm2m/wakaama_lwm2m/port\lwm2m_port.c **** /* data access control */
  64:g:/iot/IoT_Device_Demo/iot_link/network/lwm2m/wakaama_lwm2m/port\lwm2m_port.c **** static osal_mutex_t g_data_mutex = cn_mutex_invalid;
  65:g:/iot/IoT_Device_Demo/iot_link/network/lwm2m/wakaama_lwm2m/port\lwm2m_port.c **** 
  66:g:/iot/IoT_Device_Demo/iot_link/network/lwm2m/wakaama_lwm2m/port\lwm2m_port.c **** static int __disconnect(void *handle);
  67:g:/iot/IoT_Device_Demo/iot_link/network/lwm2m/wakaama_lwm2m/port\lwm2m_port.c **** 
  68:g:/iot/IoT_Device_Demo/iot_link/network/lwm2m/wakaama_lwm2m/port\lwm2m_port.c **** static int generate_new_object_instance_id(lwm2m_list_t* instance_list)
  69:g:/iot/IoT_Device_Demo/iot_link/network/lwm2m/wakaama_lwm2m/port\lwm2m_port.c **** {
 166              		.loc 3 69 1
ARM GAS  C:\Users\ADMINI~1\AppData\Local\Temp\ccEp9HN1.s 			page 13


 167              		.cfi_startproc
 168              		@ args = 0, pretend = 0, frame = 16
 169              		@ frame_needed = 1, uses_anonymous_args = 0
 170              		@ link register save eliminated.
 171 0000 80B4     		push	{r7}
 172              	.LCFI12:
 173              		.cfi_def_cfa_offset 4
 174              		.cfi_offset 7, -4
 175 0002 85B0     		sub	sp, sp, #20
 176              	.LCFI13:
 177              		.cfi_def_cfa_offset 24
 178 0004 00AF     		add	r7, sp, #0
 179              	.LCFI14:
 180              		.cfi_def_cfa_register 7
 181 0006 7860     		str	r0, [r7, #4]
  70:g:/iot/IoT_Device_Demo/iot_link/network/lwm2m/wakaama_lwm2m/port\lwm2m_port.c ****     int id = 0;
 182              		.loc 3 70 9
 183 0008 0023     		movs	r3, #0
 184 000a FB60     		str	r3, [r7, #12]
  71:g:/iot/IoT_Device_Demo/iot_link/network/lwm2m/wakaama_lwm2m/port\lwm2m_port.c ****     lwm2m_list_t *head = instance_list;
 185              		.loc 3 71 19
 186 000c 7B68     		ldr	r3, [r7, #4]
 187 000e BB60     		str	r3, [r7, #8]
  72:g:/iot/IoT_Device_Demo/iot_link/network/lwm2m/wakaama_lwm2m/port\lwm2m_port.c **** 
  73:g:/iot/IoT_Device_Demo/iot_link/network/lwm2m/wakaama_lwm2m/port\lwm2m_port.c ****     if (NULL == instance_list)
 188              		.loc 3 73 8
 189 0010 7B68     		ldr	r3, [r7, #4]
 190 0012 002B     		cmp	r3, #0
 191 0014 0DD1     		bne	.L10
  74:g:/iot/IoT_Device_Demo/iot_link/network/lwm2m/wakaama_lwm2m/port\lwm2m_port.c ****     {
  75:g:/iot/IoT_Device_Demo/iot_link/network/lwm2m/wakaama_lwm2m/port\lwm2m_port.c ****         return id;
 192              		.loc 3 75 16
 193 0016 FB68     		ldr	r3, [r7, #12]
 194 0018 11E0     		b	.L9
 195              	.L13:
  76:g:/iot/IoT_Device_Demo/iot_link/network/lwm2m/wakaama_lwm2m/port\lwm2m_port.c ****     }
  77:g:/iot/IoT_Device_Demo/iot_link/network/lwm2m/wakaama_lwm2m/port\lwm2m_port.c **** 
  78:g:/iot/IoT_Device_Demo/iot_link/network/lwm2m/wakaama_lwm2m/port\lwm2m_port.c ****     while (NULL != head)
  79:g:/iot/IoT_Device_Demo/iot_link/network/lwm2m/wakaama_lwm2m/port\lwm2m_port.c ****     {
  80:g:/iot/IoT_Device_Demo/iot_link/network/lwm2m/wakaama_lwm2m/port\lwm2m_port.c ****         if (id < head->id)
 196              		.loc 3 80 22
 197 001a BB68     		ldr	r3, [r7, #8]
 198 001c 9B88     		ldrh	r3, [r3, #4]
 199 001e 1A46     		mov	r2, r3
 200              		.loc 3 80 12
 201 0020 FB68     		ldr	r3, [r7, #12]
 202 0022 9342     		cmp	r3, r2
 203 0024 09DB     		blt	.L14
  81:g:/iot/IoT_Device_Demo/iot_link/network/lwm2m/wakaama_lwm2m/port\lwm2m_port.c ****         {
  82:g:/iot/IoT_Device_Demo/iot_link/network/lwm2m/wakaama_lwm2m/port\lwm2m_port.c ****             break;
  83:g:/iot/IoT_Device_Demo/iot_link/network/lwm2m/wakaama_lwm2m/port\lwm2m_port.c ****         }
  84:g:/iot/IoT_Device_Demo/iot_link/network/lwm2m/wakaama_lwm2m/port\lwm2m_port.c **** 
  85:g:/iot/IoT_Device_Demo/iot_link/network/lwm2m/wakaama_lwm2m/port\lwm2m_port.c ****         id++;
 204              		.loc 3 85 11
 205 0026 FB68     		ldr	r3, [r7, #12]
 206 0028 0133     		adds	r3, r3, #1
 207 002a FB60     		str	r3, [r7, #12]
ARM GAS  C:\Users\ADMINI~1\AppData\Local\Temp\ccEp9HN1.s 			page 14


  86:g:/iot/IoT_Device_Demo/iot_link/network/lwm2m/wakaama_lwm2m/port\lwm2m_port.c **** 
  87:g:/iot/IoT_Device_Demo/iot_link/network/lwm2m/wakaama_lwm2m/port\lwm2m_port.c ****         head = head->next;
 208              		.loc 3 87 14
 209 002c BB68     		ldr	r3, [r7, #8]
 210 002e 1B68     		ldr	r3, [r3]
 211 0030 BB60     		str	r3, [r7, #8]
 212              	.L10:
  78:g:/iot/IoT_Device_Demo/iot_link/network/lwm2m/wakaama_lwm2m/port\lwm2m_port.c ****     {
 213              		.loc 3 78 11
 214 0032 BB68     		ldr	r3, [r7, #8]
 215 0034 002B     		cmp	r3, #0
 216 0036 F0D1     		bne	.L13
 217 0038 00E0     		b	.L12
 218              	.L14:
  82:g:/iot/IoT_Device_Demo/iot_link/network/lwm2m/wakaama_lwm2m/port\lwm2m_port.c ****         }
 219              		.loc 3 82 13
 220 003a 00BF     		nop
 221              	.L12:
  88:g:/iot/IoT_Device_Demo/iot_link/network/lwm2m/wakaama_lwm2m/port\lwm2m_port.c ****     }
  89:g:/iot/IoT_Device_Demo/iot_link/network/lwm2m/wakaama_lwm2m/port\lwm2m_port.c **** 
  90:g:/iot/IoT_Device_Demo/iot_link/network/lwm2m/wakaama_lwm2m/port\lwm2m_port.c ****     return id;
 222              		.loc 3 90 12
 223 003c FB68     		ldr	r3, [r7, #12]
 224              	.L9:
  91:g:/iot/IoT_Device_Demo/iot_link/network/lwm2m/wakaama_lwm2m/port\lwm2m_port.c **** }
 225              		.loc 3 91 1
 226 003e 1846     		mov	r0, r3
 227 0040 1437     		adds	r7, r7, #20
 228              	.LCFI15:
 229              		.cfi_def_cfa_offset 4
 230 0042 BD46     		mov	sp, r7
 231              	.LCFI16:
 232              		.cfi_def_cfa_register 13
 233              		@ sp needed
 234 0044 5DF8047B 		ldr	r7, [sp], #4
 235              	.LCFI17:
 236              		.cfi_restore 7
 237              		.cfi_def_cfa_offset 0
 238 0048 7047     		bx	lr
 239              		.cfi_endproc
 240              	.LFE14:
 242              		.section	.text.config_object,"ax",%progbits
 243              		.align	1
 244              		.syntax unified
 245              		.thumb
 246              		.thumb_func
 247              		.fpu fpv4-sp-d16
 249              	config_object:
 250              	.LFB15:
  92:g:/iot/IoT_Device_Demo/iot_link/network/lwm2m/wakaama_lwm2m/port\lwm2m_port.c **** 
  93:g:/iot/IoT_Device_Demo/iot_link/network/lwm2m/wakaama_lwm2m/port\lwm2m_port.c **** static int config_object(lwm2m_object_t *obj, void *param)
  94:g:/iot/IoT_Device_Demo/iot_link/network/lwm2m/wakaama_lwm2m/port\lwm2m_port.c **** {
 251              		.loc 3 94 1
 252              		.cfi_startproc
 253              		@ args = 0, pretend = 0, frame = 16
 254              		@ frame_needed = 1, uses_anonymous_args = 0
 255 0000 80B5     		push	{r7, lr}
ARM GAS  C:\Users\ADMINI~1\AppData\Local\Temp\ccEp9HN1.s 			page 15


 256              	.LCFI18:
 257              		.cfi_def_cfa_offset 8
 258              		.cfi_offset 7, -8
 259              		.cfi_offset 14, -4
 260 0002 84B0     		sub	sp, sp, #16
 261              	.LCFI19:
 262              		.cfi_def_cfa_offset 24
 263 0004 00AF     		add	r7, sp, #0
 264              	.LCFI20:
 265              		.cfi_def_cfa_register 7
 266 0006 7860     		str	r0, [r7, #4]
 267 0008 3960     		str	r1, [r7]
  95:g:/iot/IoT_Device_Demo/iot_link/network/lwm2m/wakaama_lwm2m/port\lwm2m_port.c ****     int ret = (int) LWM2M_ERR;
 268              		.loc 3 95 9
 269 000a 6FF00803 		mvn	r3, #8
 270 000e FB60     		str	r3, [r7, #12]
  96:g:/iot/IoT_Device_Demo/iot_link/network/lwm2m/wakaama_lwm2m/port\lwm2m_port.c **** 
  97:g:/iot/IoT_Device_Demo/iot_link/network/lwm2m/wakaama_lwm2m/port\lwm2m_port.c ****     if (NULL == obj)
 271              		.loc 3 97 8
 272 0010 7B68     		ldr	r3, [r7, #4]
 273 0012 002B     		cmp	r3, #0
 274 0014 02D1     		bne	.L16
  98:g:/iot/IoT_Device_Demo/iot_link/network/lwm2m/wakaama_lwm2m/port\lwm2m_port.c ****     {
  99:g:/iot/IoT_Device_Demo/iot_link/network/lwm2m/wakaama_lwm2m/port\lwm2m_port.c ****         return (int) LWM2M_ARG_INVALID;
 275              		.loc 3 99 16
 276 0016 4FF0FF33 		mov	r3, #-1
 277 001a 5BE0     		b	.L17
 278              	.L16:
 100:g:/iot/IoT_Device_Demo/iot_link/network/lwm2m/wakaama_lwm2m/port\lwm2m_port.c ****     }
 101:g:/iot/IoT_Device_Demo/iot_link/network/lwm2m/wakaama_lwm2m/port\lwm2m_port.c **** 
 102:g:/iot/IoT_Device_Demo/iot_link/network/lwm2m/wakaama_lwm2m/port\lwm2m_port.c ****     switch (obj->objID)
 279              		.loc 3 102 16
 280 001c 7B68     		ldr	r3, [r7, #4]
 281 001e 9B88     		ldrh	r3, [r3, #4]
 282 0020 132B     		cmp	r3, #19
 283 0022 55D8     		bhi	.L28
 284 0024 01A2     		adr	r2, .L20
 285 0026 52F823F0 		ldr	pc, [r2, r3, lsl #2]
 286 002a 00BF     		.p2align 2
 287              	.L20:
 288 002c 7D000000 		.word	.L26+1
 289 0030 89000000 		.word	.L25+1
 290 0034 95000000 		.word	.L24+1
 291 0038 A1000000 		.word	.L23+1
 292 003c AD000000 		.word	.L22+1
 293 0040 D1000000 		.word	.L28+1
 294 0044 B9000000 		.word	.L21+1
 295 0048 D1000000 		.word	.L28+1
 296 004c D1000000 		.word	.L28+1
 297 0050 D1000000 		.word	.L28+1
 298 0054 D1000000 		.word	.L28+1
 299 0058 D1000000 		.word	.L28+1
 300 005c D1000000 		.word	.L28+1
 301 0060 D1000000 		.word	.L28+1
 302 0064 D1000000 		.word	.L28+1
 303 0068 D1000000 		.word	.L28+1
 304 006c D1000000 		.word	.L28+1
ARM GAS  C:\Users\ADMINI~1\AppData\Local\Temp\ccEp9HN1.s 			page 16


 305 0070 D1000000 		.word	.L28+1
 306 0074 D1000000 		.word	.L28+1
 307 0078 C5000000 		.word	.L19+1
 308              		.p2align 1
 309              	.L26:
 103:g:/iot/IoT_Device_Demo/iot_link/network/lwm2m/wakaama_lwm2m/port\lwm2m_port.c ****     {
 104:g:/iot/IoT_Device_Demo/iot_link/network/lwm2m/wakaama_lwm2m/port\lwm2m_port.c ****         case OBJ_SECURITY_ID:
 105:g:/iot/IoT_Device_Demo/iot_link/network/lwm2m/wakaama_lwm2m/port\lwm2m_port.c ****         {
 106:g:/iot/IoT_Device_Demo/iot_link/network/lwm2m/wakaama_lwm2m/port\lwm2m_port.c ****             ret = config_security_object(obj, param);
 310              		.loc 3 106 19
 311 007c 3968     		ldr	r1, [r7]
 312 007e 7868     		ldr	r0, [r7, #4]
 313 0080 FFF7FEFF 		bl	config_security_object
 314 0084 F860     		str	r0, [r7, #12]
 107:g:/iot/IoT_Device_Demo/iot_link/network/lwm2m/wakaama_lwm2m/port\lwm2m_port.c ****             break;
 315              		.loc 3 107 13
 316 0086 24E0     		b	.L27
 317              	.L25:
 108:g:/iot/IoT_Device_Demo/iot_link/network/lwm2m/wakaama_lwm2m/port\lwm2m_port.c ****         }
 109:g:/iot/IoT_Device_Demo/iot_link/network/lwm2m/wakaama_lwm2m/port\lwm2m_port.c **** 
 110:g:/iot/IoT_Device_Demo/iot_link/network/lwm2m/wakaama_lwm2m/port\lwm2m_port.c ****         case OBJ_SERVER_ID:
 111:g:/iot/IoT_Device_Demo/iot_link/network/lwm2m/wakaama_lwm2m/port\lwm2m_port.c ****         {
 112:g:/iot/IoT_Device_Demo/iot_link/network/lwm2m/wakaama_lwm2m/port\lwm2m_port.c ****             ret = config_server_object(obj, param);
 318              		.loc 3 112 19
 319 0088 3968     		ldr	r1, [r7]
 320 008a 7868     		ldr	r0, [r7, #4]
 321 008c FFF7FEFF 		bl	config_server_object
 322 0090 F860     		str	r0, [r7, #12]
 113:g:/iot/IoT_Device_Demo/iot_link/network/lwm2m/wakaama_lwm2m/port\lwm2m_port.c ****             break;
 323              		.loc 3 113 13
 324 0092 1EE0     		b	.L27
 325              	.L24:
 114:g:/iot/IoT_Device_Demo/iot_link/network/lwm2m/wakaama_lwm2m/port\lwm2m_port.c ****         }
 115:g:/iot/IoT_Device_Demo/iot_link/network/lwm2m/wakaama_lwm2m/port\lwm2m_port.c **** 
 116:g:/iot/IoT_Device_Demo/iot_link/network/lwm2m/wakaama_lwm2m/port\lwm2m_port.c ****         case OBJ_ACCESS_CONTROL_ID:
 117:g:/iot/IoT_Device_Demo/iot_link/network/lwm2m/wakaama_lwm2m/port\lwm2m_port.c ****         {
 118:g:/iot/IoT_Device_Demo/iot_link/network/lwm2m/wakaama_lwm2m/port\lwm2m_port.c ****             ret = config_access_control_object(obj, param);
 326              		.loc 3 118 19
 327 0094 3968     		ldr	r1, [r7]
 328 0096 7868     		ldr	r0, [r7, #4]
 329 0098 FFF7FEFF 		bl	config_access_control_object
 330 009c F860     		str	r0, [r7, #12]
 119:g:/iot/IoT_Device_Demo/iot_link/network/lwm2m/wakaama_lwm2m/port\lwm2m_port.c ****             break;
 331              		.loc 3 119 13
 332 009e 18E0     		b	.L27
 333              	.L23:
 120:g:/iot/IoT_Device_Demo/iot_link/network/lwm2m/wakaama_lwm2m/port\lwm2m_port.c ****         }
 121:g:/iot/IoT_Device_Demo/iot_link/network/lwm2m/wakaama_lwm2m/port\lwm2m_port.c **** 
 122:g:/iot/IoT_Device_Demo/iot_link/network/lwm2m/wakaama_lwm2m/port\lwm2m_port.c ****         case OBJ_DEVICE_ID:
 123:g:/iot/IoT_Device_Demo/iot_link/network/lwm2m/wakaama_lwm2m/port\lwm2m_port.c ****         {
 124:g:/iot/IoT_Device_Demo/iot_link/network/lwm2m/wakaama_lwm2m/port\lwm2m_port.c ****             ret = config_device_object(obj, param);
 334              		.loc 3 124 19
 335 00a0 3968     		ldr	r1, [r7]
 336 00a2 7868     		ldr	r0, [r7, #4]
 337 00a4 FFF7FEFF 		bl	config_device_object
 338 00a8 F860     		str	r0, [r7, #12]
 125:g:/iot/IoT_Device_Demo/iot_link/network/lwm2m/wakaama_lwm2m/port\lwm2m_port.c ****             break;
ARM GAS  C:\Users\ADMINI~1\AppData\Local\Temp\ccEp9HN1.s 			page 17


 339              		.loc 3 125 13
 340 00aa 12E0     		b	.L27
 341              	.L22:
 126:g:/iot/IoT_Device_Demo/iot_link/network/lwm2m/wakaama_lwm2m/port\lwm2m_port.c ****         }
 127:g:/iot/IoT_Device_Demo/iot_link/network/lwm2m/wakaama_lwm2m/port\lwm2m_port.c **** 
 128:g:/iot/IoT_Device_Demo/iot_link/network/lwm2m/wakaama_lwm2m/port\lwm2m_port.c ****         case OBJ_CONNECTIVITY_MONITORING_ID:
 129:g:/iot/IoT_Device_Demo/iot_link/network/lwm2m/wakaama_lwm2m/port\lwm2m_port.c ****         {
 130:g:/iot/IoT_Device_Demo/iot_link/network/lwm2m/wakaama_lwm2m/port\lwm2m_port.c ****             ret = config_connectivity_monitoring_object(obj, param);
 342              		.loc 3 130 19
 343 00ac 3968     		ldr	r1, [r7]
 344 00ae 7868     		ldr	r0, [r7, #4]
 345 00b0 FFF7FEFF 		bl	config_connectivity_monitoring_object
 346 00b4 F860     		str	r0, [r7, #12]
 131:g:/iot/IoT_Device_Demo/iot_link/network/lwm2m/wakaama_lwm2m/port\lwm2m_port.c ****             break;
 347              		.loc 3 131 13
 348 00b6 0CE0     		b	.L27
 349              	.L21:
 132:g:/iot/IoT_Device_Demo/iot_link/network/lwm2m/wakaama_lwm2m/port\lwm2m_port.c ****         }
 133:g:/iot/IoT_Device_Demo/iot_link/network/lwm2m/wakaama_lwm2m/port\lwm2m_port.c **** 
 134:g:/iot/IoT_Device_Demo/iot_link/network/lwm2m/wakaama_lwm2m/port\lwm2m_port.c **** #ifdef CONFIG_FEATURE_FOTA
 135:g:/iot/IoT_Device_Demo/iot_link/network/lwm2m/wakaama_lwm2m/port\lwm2m_port.c **** 
 136:g:/iot/IoT_Device_Demo/iot_link/network/lwm2m/wakaama_lwm2m/port\lwm2m_port.c ****         case OBJ_FIRMWARE_UPDATE_ID:
 137:g:/iot/IoT_Device_Demo/iot_link/network/lwm2m/wakaama_lwm2m/port\lwm2m_port.c ****         {
 138:g:/iot/IoT_Device_Demo/iot_link/network/lwm2m/wakaama_lwm2m/port\lwm2m_port.c ****             ret = config_firmware_update_object(obj, param);
 139:g:/iot/IoT_Device_Demo/iot_link/network/lwm2m/wakaama_lwm2m/port\lwm2m_port.c ****             break;
 140:g:/iot/IoT_Device_Demo/iot_link/network/lwm2m/wakaama_lwm2m/port\lwm2m_port.c ****         }
 141:g:/iot/IoT_Device_Demo/iot_link/network/lwm2m/wakaama_lwm2m/port\lwm2m_port.c **** 
 142:g:/iot/IoT_Device_Demo/iot_link/network/lwm2m/wakaama_lwm2m/port\lwm2m_port.c **** #endif
 143:g:/iot/IoT_Device_Demo/iot_link/network/lwm2m/wakaama_lwm2m/port\lwm2m_port.c **** 
 144:g:/iot/IoT_Device_Demo/iot_link/network/lwm2m/wakaama_lwm2m/port\lwm2m_port.c ****         case OBJ_LOCATION_ID:
 145:g:/iot/IoT_Device_Demo/iot_link/network/lwm2m/wakaama_lwm2m/port\lwm2m_port.c ****         {
 146:g:/iot/IoT_Device_Demo/iot_link/network/lwm2m/wakaama_lwm2m/port\lwm2m_port.c ****             ret = config_location_object(obj, param);
 350              		.loc 3 146 19
 351 00b8 3968     		ldr	r1, [r7]
 352 00ba 7868     		ldr	r0, [r7, #4]
 353 00bc FFF7FEFF 		bl	config_location_object
 354 00c0 F860     		str	r0, [r7, #12]
 147:g:/iot/IoT_Device_Demo/iot_link/network/lwm2m/wakaama_lwm2m/port\lwm2m_port.c ****             break;
 355              		.loc 3 147 13
 356 00c2 06E0     		b	.L27
 357              	.L19:
 148:g:/iot/IoT_Device_Demo/iot_link/network/lwm2m/wakaama_lwm2m/port\lwm2m_port.c ****         }
 149:g:/iot/IoT_Device_Demo/iot_link/network/lwm2m/wakaama_lwm2m/port\lwm2m_port.c **** 
 150:g:/iot/IoT_Device_Demo/iot_link/network/lwm2m/wakaama_lwm2m/port\lwm2m_port.c ****         case OBJ_APP_DATA_ID:
 151:g:/iot/IoT_Device_Demo/iot_link/network/lwm2m/wakaama_lwm2m/port\lwm2m_port.c ****         {
 152:g:/iot/IoT_Device_Demo/iot_link/network/lwm2m/wakaama_lwm2m/port\lwm2m_port.c ****             ret = config_app_data_object(obj, param);
 358              		.loc 3 152 19
 359 00c4 3968     		ldr	r1, [r7]
 360 00c6 7868     		ldr	r0, [r7, #4]
 361 00c8 FFF7FEFF 		bl	config_app_data_object
 362 00cc F860     		str	r0, [r7, #12]
 153:g:/iot/IoT_Device_Demo/iot_link/network/lwm2m/wakaama_lwm2m/port\lwm2m_port.c ****             break;
 363              		.loc 3 153 13
 364 00ce 00E0     		b	.L27
 365              	.L28:
 154:g:/iot/IoT_Device_Demo/iot_link/network/lwm2m/wakaama_lwm2m/port\lwm2m_port.c ****         }
 155:g:/iot/IoT_Device_Demo/iot_link/network/lwm2m/wakaama_lwm2m/port\lwm2m_port.c **** 
ARM GAS  C:\Users\ADMINI~1\AppData\Local\Temp\ccEp9HN1.s 			page 18


 156:g:/iot/IoT_Device_Demo/iot_link/network/lwm2m/wakaama_lwm2m/port\lwm2m_port.c ****         default:
 157:g:/iot/IoT_Device_Demo/iot_link/network/lwm2m/wakaama_lwm2m/port\lwm2m_port.c ****         {
 158:g:/iot/IoT_Device_Demo/iot_link/network/lwm2m/wakaama_lwm2m/port\lwm2m_port.c ****             break;
 366              		.loc 3 158 13
 367 00d0 00BF     		nop
 368              	.L27:
 159:g:/iot/IoT_Device_Demo/iot_link/network/lwm2m/wakaama_lwm2m/port\lwm2m_port.c ****         }
 160:g:/iot/IoT_Device_Demo/iot_link/network/lwm2m/wakaama_lwm2m/port\lwm2m_port.c ****     }
 161:g:/iot/IoT_Device_Demo/iot_link/network/lwm2m/wakaama_lwm2m/port\lwm2m_port.c **** 
 162:g:/iot/IoT_Device_Demo/iot_link/network/lwm2m/wakaama_lwm2m/port\lwm2m_port.c ****     return ret;
 369              		.loc 3 162 12
 370 00d2 FB68     		ldr	r3, [r7, #12]
 371              	.L17:
 163:g:/iot/IoT_Device_Demo/iot_link/network/lwm2m/wakaama_lwm2m/port\lwm2m_port.c **** }
 372              		.loc 3 163 1
 373 00d4 1846     		mov	r0, r3
 374 00d6 1037     		adds	r7, r7, #16
 375              	.LCFI21:
 376              		.cfi_def_cfa_offset 8
 377 00d8 BD46     		mov	sp, r7
 378              	.LCFI22:
 379              		.cfi_def_cfa_register 13
 380              		@ sp needed
 381 00da 80BD     		pop	{r7, pc}
 382              		.cfi_endproc
 383              	.LFE15:
 385              		.section	.text.add_object_instance,"ax",%progbits
 386              		.align	1
 387              		.syntax unified
 388              		.thumb
 389              		.thumb_func
 390              		.fpu fpv4-sp-d16
 392              	add_object_instance:
 393              	.LFB16:
 164:g:/iot/IoT_Device_Demo/iot_link/network/lwm2m/wakaama_lwm2m/port\lwm2m_port.c **** 
 165:g:/iot/IoT_Device_Demo/iot_link/network/lwm2m/wakaama_lwm2m/port\lwm2m_port.c **** static int add_object_instance(lwm2m_object_t *obj,
 166:g:/iot/IoT_Device_Demo/iot_link/network/lwm2m/wakaama_lwm2m/port\lwm2m_port.c ****                                lwm2m_list_t *obj_instance,
 167:g:/iot/IoT_Device_Demo/iot_link/network/lwm2m/wakaama_lwm2m/port\lwm2m_port.c ****                                int object_instance_id,
 168:g:/iot/IoT_Device_Demo/iot_link/network/lwm2m/wakaama_lwm2m/port\lwm2m_port.c ****                                uint16_t resource_id,
 169:g:/iot/IoT_Device_Demo/iot_link/network/lwm2m/wakaama_lwm2m/port\lwm2m_port.c ****                                void *param)
 170:g:/iot/IoT_Device_Demo/iot_link/network/lwm2m/wakaama_lwm2m/port\lwm2m_port.c **** {
 394              		.loc 3 170 1
 395              		.cfi_startproc
 396              		@ args = 4, pretend = 0, frame = 24
 397              		@ frame_needed = 1, uses_anonymous_args = 0
 398 0000 80B5     		push	{r7, lr}
 399              	.LCFI23:
 400              		.cfi_def_cfa_offset 8
 401              		.cfi_offset 7, -8
 402              		.cfi_offset 14, -4
 403 0002 88B0     		sub	sp, sp, #32
 404              	.LCFI24:
 405              		.cfi_def_cfa_offset 40
 406 0004 02AF     		add	r7, sp, #8
 407              	.LCFI25:
 408              		.cfi_def_cfa 7, 32
 409 0006 F860     		str	r0, [r7, #12]
ARM GAS  C:\Users\ADMINI~1\AppData\Local\Temp\ccEp9HN1.s 			page 19


 410 0008 B960     		str	r1, [r7, #8]
 411 000a 7A60     		str	r2, [r7, #4]
 412 000c 7B80     		strh	r3, [r7, #2]	@ movhi
 171:g:/iot/IoT_Device_Demo/iot_link/network/lwm2m/wakaama_lwm2m/port\lwm2m_port.c ****     int ret = (int) LWM2M_ERR;
 413              		.loc 3 171 9
 414 000e 6FF00803 		mvn	r3, #8
 415 0012 7B61     		str	r3, [r7, #20]
 172:g:/iot/IoT_Device_Demo/iot_link/network/lwm2m/wakaama_lwm2m/port\lwm2m_port.c **** 
 173:g:/iot/IoT_Device_Demo/iot_link/network/lwm2m/wakaama_lwm2m/port\lwm2m_port.c ****     if (NULL == obj)
 416              		.loc 3 173 8
 417 0014 FB68     		ldr	r3, [r7, #12]
 418 0016 002B     		cmp	r3, #0
 419 0018 02D1     		bne	.L30
 174:g:/iot/IoT_Device_Demo/iot_link/network/lwm2m/wakaama_lwm2m/port\lwm2m_port.c ****     {
 175:g:/iot/IoT_Device_Demo/iot_link/network/lwm2m/wakaama_lwm2m/port\lwm2m_port.c ****         return (int) LWM2M_ARG_INVALID;
 420              		.loc 3 175 16
 421 001a 4FF0FF33 		mov	r3, #-1
 422 001e 61E0     		b	.L31
 423              	.L30:
 176:g:/iot/IoT_Device_Demo/iot_link/network/lwm2m/wakaama_lwm2m/port\lwm2m_port.c ****     }
 177:g:/iot/IoT_Device_Demo/iot_link/network/lwm2m/wakaama_lwm2m/port\lwm2m_port.c **** 
 178:g:/iot/IoT_Device_Demo/iot_link/network/lwm2m/wakaama_lwm2m/port\lwm2m_port.c ****     switch (obj->objID)
 424              		.loc 3 178 16
 425 0020 FB68     		ldr	r3, [r7, #12]
 426 0022 9B88     		ldrh	r3, [r3, #4]
 427 0024 132B     		cmp	r3, #19
 428 0026 5BD8     		bhi	.L42
 429 0028 01A2     		adr	r2, .L34
 430 002a 52F823F0 		ldr	pc, [r2, r3, lsl #2]
 431 002e 00BF     		.p2align 2
 432              	.L34:
 433 0030 81000000 		.word	.L40+1
 434 0034 8F000000 		.word	.L39+1
 435 0038 9D000000 		.word	.L38+1
 436 003c A7000000 		.word	.L37+1
 437 0040 B3000000 		.word	.L36+1
 438 0044 E1000000 		.word	.L42+1
 439 0048 BF000000 		.word	.L35+1
 440 004c E1000000 		.word	.L42+1
 441 0050 E1000000 		.word	.L42+1
 442 0054 E1000000 		.word	.L42+1
 443 0058 E1000000 		.word	.L42+1
 444 005c E1000000 		.word	.L42+1
 445 0060 E1000000 		.word	.L42+1
 446 0064 E1000000 		.word	.L42+1
 447 0068 E1000000 		.word	.L42+1
 448 006c E1000000 		.word	.L42+1
 449 0070 E1000000 		.word	.L42+1
 450 0074 E1000000 		.word	.L42+1
 451 0078 E1000000 		.word	.L42+1
 452 007c CB000000 		.word	.L33+1
 453              		.p2align 1
 454              	.L40:
 179:g:/iot/IoT_Device_Demo/iot_link/network/lwm2m/wakaama_lwm2m/port\lwm2m_port.c ****     {
 180:g:/iot/IoT_Device_Demo/iot_link/network/lwm2m/wakaama_lwm2m/port\lwm2m_port.c ****         case OBJ_SECURITY_ID:
 181:g:/iot/IoT_Device_Demo/iot_link/network/lwm2m/wakaama_lwm2m/port\lwm2m_port.c ****         {
 182:g:/iot/IoT_Device_Demo/iot_link/network/lwm2m/wakaama_lwm2m/port\lwm2m_port.c ****             ret = add_security_object_instance(obj, object_instance_id, param);
ARM GAS  C:\Users\ADMINI~1\AppData\Local\Temp\ccEp9HN1.s 			page 20


 455              		.loc 3 182 19
 456 0080 3A6A     		ldr	r2, [r7, #32]
 457 0082 7968     		ldr	r1, [r7, #4]
 458 0084 F868     		ldr	r0, [r7, #12]
 459 0086 FFF7FEFF 		bl	add_security_object_instance
 460 008a 7861     		str	r0, [r7, #20]
 183:g:/iot/IoT_Device_Demo/iot_link/network/lwm2m/wakaama_lwm2m/port\lwm2m_port.c ****             break;
 461              		.loc 3 183 13
 462 008c 29E0     		b	.L41
 463              	.L39:
 184:g:/iot/IoT_Device_Demo/iot_link/network/lwm2m/wakaama_lwm2m/port\lwm2m_port.c ****         }
 185:g:/iot/IoT_Device_Demo/iot_link/network/lwm2m/wakaama_lwm2m/port\lwm2m_port.c **** 
 186:g:/iot/IoT_Device_Demo/iot_link/network/lwm2m/wakaama_lwm2m/port\lwm2m_port.c ****         case OBJ_SERVER_ID:
 187:g:/iot/IoT_Device_Demo/iot_link/network/lwm2m/wakaama_lwm2m/port\lwm2m_port.c ****         {
 188:g:/iot/IoT_Device_Demo/iot_link/network/lwm2m/wakaama_lwm2m/port\lwm2m_port.c ****             ret = add_server_object_instance(obj, object_instance_id, param);
 464              		.loc 3 188 19
 465 008e 3A6A     		ldr	r2, [r7, #32]
 466 0090 7968     		ldr	r1, [r7, #4]
 467 0092 F868     		ldr	r0, [r7, #12]
 468 0094 FFF7FEFF 		bl	add_server_object_instance
 469 0098 7861     		str	r0, [r7, #20]
 189:g:/iot/IoT_Device_Demo/iot_link/network/lwm2m/wakaama_lwm2m/port\lwm2m_port.c ****             break;
 470              		.loc 3 189 13
 471 009a 22E0     		b	.L41
 472              	.L38:
 190:g:/iot/IoT_Device_Demo/iot_link/network/lwm2m/wakaama_lwm2m/port\lwm2m_port.c ****         }
 191:g:/iot/IoT_Device_Demo/iot_link/network/lwm2m/wakaama_lwm2m/port\lwm2m_port.c **** 
 192:g:/iot/IoT_Device_Demo/iot_link/network/lwm2m/wakaama_lwm2m/port\lwm2m_port.c ****         case OBJ_ACCESS_CONTROL_ID:
 193:g:/iot/IoT_Device_Demo/iot_link/network/lwm2m/wakaama_lwm2m/port\lwm2m_port.c ****         {
 194:g:/iot/IoT_Device_Demo/iot_link/network/lwm2m/wakaama_lwm2m/port\lwm2m_port.c ****             ret = add_access_control_object_instance(obj);
 473              		.loc 3 194 19
 474 009c F868     		ldr	r0, [r7, #12]
 475 009e FFF7FEFF 		bl	add_access_control_object_instance
 476 00a2 7861     		str	r0, [r7, #20]
 195:g:/iot/IoT_Device_Demo/iot_link/network/lwm2m/wakaama_lwm2m/port\lwm2m_port.c ****             break;
 477              		.loc 3 195 13
 478 00a4 1DE0     		b	.L41
 479              	.L37:
 196:g:/iot/IoT_Device_Demo/iot_link/network/lwm2m/wakaama_lwm2m/port\lwm2m_port.c ****         }
 197:g:/iot/IoT_Device_Demo/iot_link/network/lwm2m/wakaama_lwm2m/port\lwm2m_port.c **** 
 198:g:/iot/IoT_Device_Demo/iot_link/network/lwm2m/wakaama_lwm2m/port\lwm2m_port.c ****         case OBJ_DEVICE_ID:
 199:g:/iot/IoT_Device_Demo/iot_link/network/lwm2m/wakaama_lwm2m/port\lwm2m_port.c ****         {
 200:g:/iot/IoT_Device_Demo/iot_link/network/lwm2m/wakaama_lwm2m/port\lwm2m_port.c ****             ret = add_device_object_instance(obj, object_instance_id);
 480              		.loc 3 200 19
 481 00a6 7968     		ldr	r1, [r7, #4]
 482 00a8 F868     		ldr	r0, [r7, #12]
 483 00aa FFF7FEFF 		bl	add_device_object_instance
 484 00ae 7861     		str	r0, [r7, #20]
 201:g:/iot/IoT_Device_Demo/iot_link/network/lwm2m/wakaama_lwm2m/port\lwm2m_port.c ****             break;
 485              		.loc 3 201 13
 486 00b0 17E0     		b	.L41
 487              	.L36:
 202:g:/iot/IoT_Device_Demo/iot_link/network/lwm2m/wakaama_lwm2m/port\lwm2m_port.c ****         }
 203:g:/iot/IoT_Device_Demo/iot_link/network/lwm2m/wakaama_lwm2m/port\lwm2m_port.c **** 
 204:g:/iot/IoT_Device_Demo/iot_link/network/lwm2m/wakaama_lwm2m/port\lwm2m_port.c ****         case OBJ_CONNECTIVITY_MONITORING_ID:
 205:g:/iot/IoT_Device_Demo/iot_link/network/lwm2m/wakaama_lwm2m/port\lwm2m_port.c ****         {
 206:g:/iot/IoT_Device_Demo/iot_link/network/lwm2m/wakaama_lwm2m/port\lwm2m_port.c ****             ret = add_connectivity_monitoring_object_instance(obj, object_instance_id);
ARM GAS  C:\Users\ADMINI~1\AppData\Local\Temp\ccEp9HN1.s 			page 21


 488              		.loc 3 206 19
 489 00b2 7968     		ldr	r1, [r7, #4]
 490 00b4 F868     		ldr	r0, [r7, #12]
 491 00b6 FFF7FEFF 		bl	add_connectivity_monitoring_object_instance
 492 00ba 7861     		str	r0, [r7, #20]
 207:g:/iot/IoT_Device_Demo/iot_link/network/lwm2m/wakaama_lwm2m/port\lwm2m_port.c ****             break;
 493              		.loc 3 207 13
 494 00bc 11E0     		b	.L41
 495              	.L35:
 208:g:/iot/IoT_Device_Demo/iot_link/network/lwm2m/wakaama_lwm2m/port\lwm2m_port.c ****         }
 209:g:/iot/IoT_Device_Demo/iot_link/network/lwm2m/wakaama_lwm2m/port\lwm2m_port.c **** 
 210:g:/iot/IoT_Device_Demo/iot_link/network/lwm2m/wakaama_lwm2m/port\lwm2m_port.c **** #ifdef CONFIG_FEATURE_FOTA
 211:g:/iot/IoT_Device_Demo/iot_link/network/lwm2m/wakaama_lwm2m/port\lwm2m_port.c **** 
 212:g:/iot/IoT_Device_Demo/iot_link/network/lwm2m/wakaama_lwm2m/port\lwm2m_port.c ****         case OBJ_FIRMWARE_UPDATE_ID:
 213:g:/iot/IoT_Device_Demo/iot_link/network/lwm2m/wakaama_lwm2m/port\lwm2m_port.c ****         {
 214:g:/iot/IoT_Device_Demo/iot_link/network/lwm2m/wakaama_lwm2m/port\lwm2m_port.c ****             ret = add_firmware_update_object_instance(obj, object_instance_id);
 215:g:/iot/IoT_Device_Demo/iot_link/network/lwm2m/wakaama_lwm2m/port\lwm2m_port.c ****             break;
 216:g:/iot/IoT_Device_Demo/iot_link/network/lwm2m/wakaama_lwm2m/port\lwm2m_port.c ****         }
 217:g:/iot/IoT_Device_Demo/iot_link/network/lwm2m/wakaama_lwm2m/port\lwm2m_port.c **** 
 218:g:/iot/IoT_Device_Demo/iot_link/network/lwm2m/wakaama_lwm2m/port\lwm2m_port.c **** #endif
 219:g:/iot/IoT_Device_Demo/iot_link/network/lwm2m/wakaama_lwm2m/port\lwm2m_port.c **** 
 220:g:/iot/IoT_Device_Demo/iot_link/network/lwm2m/wakaama_lwm2m/port\lwm2m_port.c ****         case OBJ_LOCATION_ID:
 221:g:/iot/IoT_Device_Demo/iot_link/network/lwm2m/wakaama_lwm2m/port\lwm2m_port.c ****         {
 222:g:/iot/IoT_Device_Demo/iot_link/network/lwm2m/wakaama_lwm2m/port\lwm2m_port.c ****             ret = add_location_object_instance(obj, object_instance_id);
 496              		.loc 3 222 19
 497 00be 7968     		ldr	r1, [r7, #4]
 498 00c0 F868     		ldr	r0, [r7, #12]
 499 00c2 FFF7FEFF 		bl	add_location_object_instance
 500 00c6 7861     		str	r0, [r7, #20]
 223:g:/iot/IoT_Device_Demo/iot_link/network/lwm2m/wakaama_lwm2m/port\lwm2m_port.c ****             break;
 501              		.loc 3 223 13
 502 00c8 0BE0     		b	.L41
 503              	.L33:
 224:g:/iot/IoT_Device_Demo/iot_link/network/lwm2m/wakaama_lwm2m/port\lwm2m_port.c ****         }
 225:g:/iot/IoT_Device_Demo/iot_link/network/lwm2m/wakaama_lwm2m/port\lwm2m_port.c **** 
 226:g:/iot/IoT_Device_Demo/iot_link/network/lwm2m/wakaama_lwm2m/port\lwm2m_port.c ****         case OBJ_APP_DATA_ID:
 227:g:/iot/IoT_Device_Demo/iot_link/network/lwm2m/wakaama_lwm2m/port\lwm2m_port.c ****         {
 228:g:/iot/IoT_Device_Demo/iot_link/network/lwm2m/wakaama_lwm2m/port\lwm2m_port.c ****             ret = add_app_data_object_instance(obj, obj_instance, object_instance_id, resource_id, 
 504              		.loc 3 228 19
 505 00ca 7A88     		ldrh	r2, [r7, #2]
 506 00cc 3B6A     		ldr	r3, [r7, #32]
 507 00ce 0093     		str	r3, [sp]
 508 00d0 1346     		mov	r3, r2
 509 00d2 7A68     		ldr	r2, [r7, #4]
 510 00d4 B968     		ldr	r1, [r7, #8]
 511 00d6 F868     		ldr	r0, [r7, #12]
 512 00d8 FFF7FEFF 		bl	add_app_data_object_instance
 513 00dc 7861     		str	r0, [r7, #20]
 229:g:/iot/IoT_Device_Demo/iot_link/network/lwm2m/wakaama_lwm2m/port\lwm2m_port.c ****             break;
 514              		.loc 3 229 13
 515 00de 00E0     		b	.L41
 516              	.L42:
 230:g:/iot/IoT_Device_Demo/iot_link/network/lwm2m/wakaama_lwm2m/port\lwm2m_port.c ****         }
 231:g:/iot/IoT_Device_Demo/iot_link/network/lwm2m/wakaama_lwm2m/port\lwm2m_port.c **** 
 232:g:/iot/IoT_Device_Demo/iot_link/network/lwm2m/wakaama_lwm2m/port\lwm2m_port.c ****         default:
 233:g:/iot/IoT_Device_Demo/iot_link/network/lwm2m/wakaama_lwm2m/port\lwm2m_port.c ****         {
 234:g:/iot/IoT_Device_Demo/iot_link/network/lwm2m/wakaama_lwm2m/port\lwm2m_port.c ****             break;
ARM GAS  C:\Users\ADMINI~1\AppData\Local\Temp\ccEp9HN1.s 			page 22


 517              		.loc 3 234 13
 518 00e0 00BF     		nop
 519              	.L41:
 235:g:/iot/IoT_Device_Demo/iot_link/network/lwm2m/wakaama_lwm2m/port\lwm2m_port.c ****         }
 236:g:/iot/IoT_Device_Demo/iot_link/network/lwm2m/wakaama_lwm2m/port\lwm2m_port.c ****     }
 237:g:/iot/IoT_Device_Demo/iot_link/network/lwm2m/wakaama_lwm2m/port\lwm2m_port.c **** 
 238:g:/iot/IoT_Device_Demo/iot_link/network/lwm2m/wakaama_lwm2m/port\lwm2m_port.c ****     return ret;
 520              		.loc 3 238 12
 521 00e2 7B69     		ldr	r3, [r7, #20]
 522              	.L31:
 239:g:/iot/IoT_Device_Demo/iot_link/network/lwm2m/wakaama_lwm2m/port\lwm2m_port.c **** }
 523              		.loc 3 239 1
 524 00e4 1846     		mov	r0, r3
 525 00e6 1837     		adds	r7, r7, #24
 526              	.LCFI26:
 527              		.cfi_def_cfa_offset 8
 528 00e8 BD46     		mov	sp, r7
 529              	.LCFI27:
 530              		.cfi_def_cfa_register 13
 531              		@ sp needed
 532 00ea 80BD     		pop	{r7, pc}
 533              		.cfi_endproc
 534              	.LFE16:
 536              		.section	.text.lwm2m_check_mandatory_objects,"ax",%progbits
 537              		.align	1
 538              		.syntax unified
 539              		.thumb
 540              		.thumb_func
 541              		.fpu fpv4-sp-d16
 543              	lwm2m_check_mandatory_objects:
 544              	.LFB17:
 240:g:/iot/IoT_Device_Demo/iot_link/network/lwm2m/wakaama_lwm2m/port\lwm2m_port.c **** 
 241:g:/iot/IoT_Device_Demo/iot_link/network/lwm2m/wakaama_lwm2m/port\lwm2m_port.c **** 
 242:g:/iot/IoT_Device_Demo/iot_link/network/lwm2m/wakaama_lwm2m/port\lwm2m_port.c **** /*
 243:g:/iot/IoT_Device_Demo/iot_link/network/lwm2m/wakaama_lwm2m/port\lwm2m_port.c **** int lwm2m_receive(int type, char *msg, int len)
 244:g:/iot/IoT_Device_Demo/iot_link/network/lwm2m/wakaama_lwm2m/port\lwm2m_port.c **** {
 245:g:/iot/IoT_Device_Demo/iot_link/network/lwm2m/wakaama_lwm2m/port\lwm2m_port.c ****     if(g_cmd_func != NULL)
 246:g:/iot/IoT_Device_Demo/iot_link/network/lwm2m/wakaama_lwm2m/port\lwm2m_port.c ****     {
 247:g:/iot/IoT_Device_Demo/iot_link/network/lwm2m/wakaama_lwm2m/port\lwm2m_port.c ****         g_cmd_func(type, msg, len);
 248:g:/iot/IoT_Device_Demo/iot_link/network/lwm2m/wakaama_lwm2m/port\lwm2m_port.c ****     }
 249:g:/iot/IoT_Device_Demo/iot_link/network/lwm2m/wakaama_lwm2m/port\lwm2m_port.c **** 
 250:g:/iot/IoT_Device_Demo/iot_link/network/lwm2m/wakaama_lwm2m/port\lwm2m_port.c ****     return 0;
 251:g:/iot/IoT_Device_Demo/iot_link/network/lwm2m/wakaama_lwm2m/port\lwm2m_port.c **** }*/
 252:g:/iot/IoT_Device_Demo/iot_link/network/lwm2m/wakaama_lwm2m/port\lwm2m_port.c **** 
 253:g:/iot/IoT_Device_Demo/iot_link/network/lwm2m/wakaama_lwm2m/port\lwm2m_port.c **** static int lwm2m_check_mandatory_objects(lwm2m_object_t *object_list)
 254:g:/iot/IoT_Device_Demo/iot_link/network/lwm2m/wakaama_lwm2m/port\lwm2m_port.c **** {
 545              		.loc 3 254 1
 546              		.cfi_startproc
 547              		@ args = 0, pretend = 0, frame = 24
 548              		@ frame_needed = 1, uses_anonymous_args = 0
 549              		@ link register save eliminated.
 550 0000 80B4     		push	{r7}
 551              	.LCFI28:
 552              		.cfi_def_cfa_offset 4
 553              		.cfi_offset 7, -4
 554 0002 87B0     		sub	sp, sp, #28
 555              	.LCFI29:
ARM GAS  C:\Users\ADMINI~1\AppData\Local\Temp\ccEp9HN1.s 			page 23


 556              		.cfi_def_cfa_offset 32
 557 0004 00AF     		add	r7, sp, #0
 558              	.LCFI30:
 559              		.cfi_def_cfa_register 7
 560 0006 7860     		str	r0, [r7, #4]
 255:g:/iot/IoT_Device_Demo/iot_link/network/lwm2m/wakaama_lwm2m/port\lwm2m_port.c ****     lwm2m_object_t *obj = NULL;
 561              		.loc 3 255 21
 562 0008 0023     		movs	r3, #0
 563 000a 7B61     		str	r3, [r7, #20]
 256:g:/iot/IoT_Device_Demo/iot_link/network/lwm2m/wakaama_lwm2m/port\lwm2m_port.c ****     int object_num = 0;
 564              		.loc 3 256 9
 565 000c 0023     		movs	r3, #0
 566 000e 3B61     		str	r3, [r7, #16]
 257:g:/iot/IoT_Device_Demo/iot_link/network/lwm2m/wakaama_lwm2m/port\lwm2m_port.c ****     uint8_t found = 0;
 567              		.loc 3 257 13
 568 0010 0023     		movs	r3, #0
 569 0012 FB73     		strb	r3, [r7, #15]
 258:g:/iot/IoT_Device_Demo/iot_link/network/lwm2m/wakaama_lwm2m/port\lwm2m_port.c **** 
 259:g:/iot/IoT_Device_Demo/iot_link/network/lwm2m/wakaama_lwm2m/port\lwm2m_port.c ****     if (NULL == object_list)
 570              		.loc 3 259 8
 571 0014 7B68     		ldr	r3, [r7, #4]
 572 0016 002B     		cmp	r3, #0
 573 0018 02D1     		bne	.L44
 260:g:/iot/IoT_Device_Demo/iot_link/network/lwm2m/wakaama_lwm2m/port\lwm2m_port.c ****     {
 261:g:/iot/IoT_Device_Demo/iot_link/network/lwm2m/wakaama_lwm2m/port\lwm2m_port.c ****         return (int) LWM2M_ARG_INVALID;
 574              		.loc 3 261 16
 575 001a 4FF0FF33 		mov	r3, #-1
 576 001e 2FE0     		b	.L45
 577              	.L44:
 262:g:/iot/IoT_Device_Demo/iot_link/network/lwm2m/wakaama_lwm2m/port\lwm2m_port.c ****     }
 263:g:/iot/IoT_Device_Demo/iot_link/network/lwm2m/wakaama_lwm2m/port\lwm2m_port.c **** 
 264:g:/iot/IoT_Device_Demo/iot_link/network/lwm2m/wakaama_lwm2m/port\lwm2m_port.c ****     obj = object_list;
 578              		.loc 3 264 9
 579 0020 7B68     		ldr	r3, [r7, #4]
 580 0022 7B61     		str	r3, [r7, #20]
 265:g:/iot/IoT_Device_Demo/iot_link/network/lwm2m/wakaama_lwm2m/port\lwm2m_port.c **** 
 266:g:/iot/IoT_Device_Demo/iot_link/network/lwm2m/wakaama_lwm2m/port\lwm2m_port.c ****     while (NULL != obj)
 581              		.loc 3 266 11
 582 0024 1FE0     		b	.L46
 583              	.L50:
 267:g:/iot/IoT_Device_Demo/iot_link/network/lwm2m/wakaama_lwm2m/port\lwm2m_port.c ****     {
 268:g:/iot/IoT_Device_Demo/iot_link/network/lwm2m/wakaama_lwm2m/port\lwm2m_port.c ****         object_num++;
 584              		.loc 3 268 19
 585 0026 3B69     		ldr	r3, [r7, #16]
 586 0028 0133     		adds	r3, r3, #1
 587 002a 3B61     		str	r3, [r7, #16]
 269:g:/iot/IoT_Device_Demo/iot_link/network/lwm2m/wakaama_lwm2m/port\lwm2m_port.c **** 
 270:g:/iot/IoT_Device_Demo/iot_link/network/lwm2m/wakaama_lwm2m/port\lwm2m_port.c ****         if ((int)OBJ_SECURITY_ID == obj->objID)
 588              		.loc 3 270 40
 589 002c 7B69     		ldr	r3, [r7, #20]
 590 002e 9B88     		ldrh	r3, [r3, #4]
 591              		.loc 3 270 12
 592 0030 002B     		cmp	r3, #0
 593 0032 04D1     		bne	.L47
 271:g:/iot/IoT_Device_Demo/iot_link/network/lwm2m/wakaama_lwm2m/port\lwm2m_port.c ****         {
 272:g:/iot/IoT_Device_Demo/iot_link/network/lwm2m/wakaama_lwm2m/port\lwm2m_port.c ****             found |= 0x01;
 594              		.loc 3 272 19
ARM GAS  C:\Users\ADMINI~1\AppData\Local\Temp\ccEp9HN1.s 			page 24


 595 0034 FB7B     		ldrb	r3, [r7, #15]
 596 0036 43F00103 		orr	r3, r3, #1
 597 003a FB73     		strb	r3, [r7, #15]
 598 003c 10E0     		b	.L48
 599              	.L47:
 273:g:/iot/IoT_Device_Demo/iot_link/network/lwm2m/wakaama_lwm2m/port\lwm2m_port.c ****         }
 274:g:/iot/IoT_Device_Demo/iot_link/network/lwm2m/wakaama_lwm2m/port\lwm2m_port.c ****         else if ((int)OBJ_SERVER_ID == obj->objID)
 600              		.loc 3 274 43
 601 003e 7B69     		ldr	r3, [r7, #20]
 602 0040 9B88     		ldrh	r3, [r3, #4]
 603              		.loc 3 274 17
 604 0042 012B     		cmp	r3, #1
 605 0044 04D1     		bne	.L49
 275:g:/iot/IoT_Device_Demo/iot_link/network/lwm2m/wakaama_lwm2m/port\lwm2m_port.c ****         {
 276:g:/iot/IoT_Device_Demo/iot_link/network/lwm2m/wakaama_lwm2m/port\lwm2m_port.c ****             found |= 0x02;
 606              		.loc 3 276 19
 607 0046 FB7B     		ldrb	r3, [r7, #15]
 608 0048 43F00203 		orr	r3, r3, #2
 609 004c FB73     		strb	r3, [r7, #15]
 610 004e 07E0     		b	.L48
 611              	.L49:
 277:g:/iot/IoT_Device_Demo/iot_link/network/lwm2m/wakaama_lwm2m/port\lwm2m_port.c ****         }
 278:g:/iot/IoT_Device_Demo/iot_link/network/lwm2m/wakaama_lwm2m/port\lwm2m_port.c ****         else if ((int)OBJ_DEVICE_ID == obj->objID)
 612              		.loc 3 278 43
 613 0050 7B69     		ldr	r3, [r7, #20]
 614 0052 9B88     		ldrh	r3, [r3, #4]
 615              		.loc 3 278 17
 616 0054 032B     		cmp	r3, #3
 617 0056 03D1     		bne	.L48
 279:g:/iot/IoT_Device_Demo/iot_link/network/lwm2m/wakaama_lwm2m/port\lwm2m_port.c ****         {
 280:g:/iot/IoT_Device_Demo/iot_link/network/lwm2m/wakaama_lwm2m/port\lwm2m_port.c ****             found |= 0x04;
 618              		.loc 3 280 19
 619 0058 FB7B     		ldrb	r3, [r7, #15]
 620 005a 43F00403 		orr	r3, r3, #4
 621 005e FB73     		strb	r3, [r7, #15]
 622              	.L48:
 281:g:/iot/IoT_Device_Demo/iot_link/network/lwm2m/wakaama_lwm2m/port\lwm2m_port.c ****         }
 282:g:/iot/IoT_Device_Demo/iot_link/network/lwm2m/wakaama_lwm2m/port\lwm2m_port.c **** 
 283:g:/iot/IoT_Device_Demo/iot_link/network/lwm2m/wakaama_lwm2m/port\lwm2m_port.c ****         obj = obj->next;
 623              		.loc 3 283 13
 624 0060 7B69     		ldr	r3, [r7, #20]
 625 0062 1B68     		ldr	r3, [r3]
 626 0064 7B61     		str	r3, [r7, #20]
 627              	.L46:
 266:g:/iot/IoT_Device_Demo/iot_link/network/lwm2m/wakaama_lwm2m/port\lwm2m_port.c ****     {
 628              		.loc 3 266 11
 629 0066 7B69     		ldr	r3, [r7, #20]
 630 0068 002B     		cmp	r3, #0
 631 006a DCD1     		bne	.L50
 284:g:/iot/IoT_Device_Demo/iot_link/network/lwm2m/wakaama_lwm2m/port\lwm2m_port.c ****     }
 285:g:/iot/IoT_Device_Demo/iot_link/network/lwm2m/wakaama_lwm2m/port\lwm2m_port.c **** 
 286:g:/iot/IoT_Device_Demo/iot_link/network/lwm2m/wakaama_lwm2m/port\lwm2m_port.c ****     if ((object_num < 3) || (0x07 != found))
 632              		.loc 3 286 8
 633 006c 3B69     		ldr	r3, [r7, #16]
 634 006e 022B     		cmp	r3, #2
 635 0070 02DD     		ble	.L51
 636              		.loc 3 286 26 discriminator 1
ARM GAS  C:\Users\ADMINI~1\AppData\Local\Temp\ccEp9HN1.s 			page 25


 637 0072 FB7B     		ldrb	r3, [r7, #15]	@ zero_extendqisi2
 638 0074 072B     		cmp	r3, #7
 639 0076 02D0     		beq	.L52
 640              	.L51:
 287:g:/iot/IoT_Device_Demo/iot_link/network/lwm2m/wakaama_lwm2m/port\lwm2m_port.c ****     {
 288:g:/iot/IoT_Device_Demo/iot_link/network/lwm2m/wakaama_lwm2m/port\lwm2m_port.c ****         return (int)LWM2M_COAP_400_BAD_REQUEST;
 641              		.loc 3 288 16
 642 0078 6FF00D03 		mvn	r3, #13
 643 007c 00E0     		b	.L45
 644              	.L52:
 289:g:/iot/IoT_Device_Demo/iot_link/network/lwm2m/wakaama_lwm2m/port\lwm2m_port.c ****     }
 290:g:/iot/IoT_Device_Demo/iot_link/network/lwm2m/wakaama_lwm2m/port\lwm2m_port.c **** 
 291:g:/iot/IoT_Device_Demo/iot_link/network/lwm2m/wakaama_lwm2m/port\lwm2m_port.c ****     return (int)(int) LWM2M_OK;
 645              		.loc 3 291 12
 646 007e 0023     		movs	r3, #0
 647              	.L45:
 292:g:/iot/IoT_Device_Demo/iot_link/network/lwm2m/wakaama_lwm2m/port\lwm2m_port.c **** }
 648              		.loc 3 292 1
 649 0080 1846     		mov	r0, r3
 650 0082 1C37     		adds	r7, r7, #28
 651              	.LCFI31:
 652              		.cfi_def_cfa_offset 4
 653 0084 BD46     		mov	sp, r7
 654              	.LCFI32:
 655              		.cfi_def_cfa_register 13
 656              		@ sp needed
 657 0086 5DF8047B 		ldr	r7, [sp], #4
 658              	.LCFI33:
 659              		.cfi_restore 7
 660              		.cfi_def_cfa_offset 0
 661 008a 7047     		bx	lr
 662              		.cfi_endproc
 663              	.LFE17:
 665              		.section	.text.lwm2m_set_bootstrap_sequence_state,"ax",%progbits
 666              		.align	1
 667              		.syntax unified
 668              		.thumb
 669              		.thumb_func
 670              		.fpu fpv4-sp-d16
 672              	lwm2m_set_bootstrap_sequence_state:
 673              	.LFB18:
 293:g:/iot/IoT_Device_Demo/iot_link/network/lwm2m/wakaama_lwm2m/port\lwm2m_port.c **** 
 294:g:/iot/IoT_Device_Demo/iot_link/network/lwm2m/wakaama_lwm2m/port\lwm2m_port.c **** /*
 295:g:/iot/IoT_Device_Demo/iot_link/network/lwm2m/wakaama_lwm2m/port\lwm2m_port.c ****  * add date:     2018-06-05
 296:g:/iot/IoT_Device_Demo/iot_link/network/lwm2m/wakaama_lwm2m/port\lwm2m_port.c ****  * description:  get bootstrap info from atiny_params which from user, set bs_sequence_state and bs
 297:g:/iot/IoT_Device_Demo/iot_link/network/lwm2m/wakaama_lwm2m/port\lwm2m_port.c **** lwm2m_context.
 298:g:/iot/IoT_Device_Demo/iot_link/network/lwm2m/wakaama_lwm2m/port\lwm2m_port.c ****  *
 299:g:/iot/IoT_Device_Demo/iot_link/network/lwm2m/wakaama_lwm2m/port\lwm2m_port.c ****  * return:       none
 300:g:/iot/IoT_Device_Demo/iot_link/network/lwm2m/wakaama_lwm2m/port\lwm2m_port.c ****  * param:
 301:g:/iot/IoT_Device_Demo/iot_link/network/lwm2m/wakaama_lwm2m/port\lwm2m_port.c ****  *     in:  atiny_params
 302:g:/iot/IoT_Device_Demo/iot_link/network/lwm2m/wakaama_lwm2m/port\lwm2m_port.c ****  *     out: lwm2m_context
 303:g:/iot/IoT_Device_Demo/iot_link/network/lwm2m/wakaama_lwm2m/port\lwm2m_port.c ****  */
 304:g:/iot/IoT_Device_Demo/iot_link/network/lwm2m/wakaama_lwm2m/port\lwm2m_port.c **** static void lwm2m_set_bootstrap_sequence_state(lwm2m_al_init_param_t *lwm2m_params, lwm2m_context_t
 305:g:/iot/IoT_Device_Demo/iot_link/network/lwm2m/wakaama_lwm2m/port\lwm2m_port.c **** {
 674              		.loc 3 305 1
 675              		.cfi_startproc
 676              		@ args = 0, pretend = 0, frame = 8
ARM GAS  C:\Users\ADMINI~1\AppData\Local\Temp\ccEp9HN1.s 			page 26


 677              		@ frame_needed = 1, uses_anonymous_args = 0
 678 0000 80B5     		push	{r7, lr}
 679              	.LCFI34:
 680              		.cfi_def_cfa_offset 8
 681              		.cfi_offset 7, -8
 682              		.cfi_offset 14, -4
 683 0002 82B0     		sub	sp, sp, #8
 684              	.LCFI35:
 685              		.cfi_def_cfa_offset 16
 686 0004 00AF     		add	r7, sp, #0
 687              	.LCFI36:
 688              		.cfi_def_cfa_register 7
 689 0006 7860     		str	r0, [r7, #4]
 690 0008 3960     		str	r1, [r7]
 306:g:/iot/IoT_Device_Demo/iot_link/network/lwm2m/wakaama_lwm2m/port\lwm2m_port.c ****     (void)lwm2m_initBootStrap(lwm2m_context, (lwm2m_bootstrap_type_e)(lwm2m_params->bootstrap_type)
 691              		.loc 3 306 83
 692 000a 7B68     		ldr	r3, [r7, #4]
 693 000c DB68     		ldr	r3, [r3, #12]
 694              		.loc 3 306 11
 695 000e DBB2     		uxtb	r3, r3
 696 0010 1946     		mov	r1, r3
 697 0012 3868     		ldr	r0, [r7]
 698 0014 FFF7FEFF 		bl	lwm2m_initBootStrap
 307:g:/iot/IoT_Device_Demo/iot_link/network/lwm2m/wakaama_lwm2m/port\lwm2m_port.c **** }
 699              		.loc 3 307 1
 700 0018 00BF     		nop
 701 001a 0837     		adds	r7, r7, #8
 702              	.LCFI37:
 703              		.cfi_def_cfa_offset 8
 704 001c BD46     		mov	sp, r7
 705              	.LCFI38:
 706              		.cfi_def_cfa_register 13
 707              		@ sp needed
 708 001e 80BD     		pop	{r7, pc}
 709              		.cfi_endproc
 710              	.LFE18:
 712              		.section	.rodata
 713              		.align	2
 714              	.LC1:
 715 0000 5B25735D 		.ascii	"[%s][%u][%s:%d] type:%d cookie:%d status:%d\012\015"
 715      5B25755D 
 715      5B25733A 
 715      25645D20 
 715      74797065 
 716 002d 0A00     		.ascii	"\012\000"
 717              		.section	.text.lwm2m_send_ack_callback,"ax",%progbits
 718              		.align	1
 719              		.syntax unified
 720              		.thumb
 721              		.thumb_func
 722              		.fpu fpv4-sp-d16
 724              	lwm2m_send_ack_callback:
 725              	.LFB19:
 308:g:/iot/IoT_Device_Demo/iot_link/network/lwm2m/wakaama_lwm2m/port\lwm2m_port.c **** 
 309:g:/iot/IoT_Device_Demo/iot_link/network/lwm2m/wakaama_lwm2m/port\lwm2m_port.c **** 
 310:g:/iot/IoT_Device_Demo/iot_link/network/lwm2m/wakaama_lwm2m/port\lwm2m_port.c **** static void lwm2m_send_ack_callback(lwm2m_report_type_e type, int cookie, data_send_status_e status
 311:g:/iot/IoT_Device_Demo/iot_link/network/lwm2m/wakaama_lwm2m/port\lwm2m_port.c **** {
ARM GAS  C:\Users\ADMINI~1\AppData\Local\Temp\ccEp9HN1.s 			page 27


 726              		.loc 3 311 1
 727              		.cfi_startproc
 728              		@ args = 0, pretend = 0, frame = 8
 729              		@ frame_needed = 1, uses_anonymous_args = 0
 730 0000 90B5     		push	{r4, r7, lr}
 731              	.LCFI39:
 732              		.cfi_def_cfa_offset 12
 733              		.cfi_offset 4, -12
 734              		.cfi_offset 7, -8
 735              		.cfi_offset 14, -4
 736 0002 87B0     		sub	sp, sp, #28
 737              	.LCFI40:
 738              		.cfi_def_cfa_offset 40
 739 0004 04AF     		add	r7, sp, #16
 740              	.LCFI41:
 741              		.cfi_def_cfa 7, 24
 742 0006 0346     		mov	r3, r0
 743 0008 3960     		str	r1, [r7]
 744 000a FB71     		strb	r3, [r7, #7]
 745 000c 1346     		mov	r3, r2
 746 000e BB71     		strb	r3, [r7, #6]
 312:g:/iot/IoT_Device_Demo/iot_link/network/lwm2m/wakaama_lwm2m/port\lwm2m_port.c ****     LINK_LOG_DEBUG("type:%d cookie:%d status:%d\n", (int)type, cookie, (int)status);
 747              		.loc 3 312 5
 748 0010 FFF7FEFF 		bl	link_log_level_get
 749 0014 0346     		mov	r3, r0
 750 0016 012B     		cmp	r3, #1
 751 0018 17D8     		bhi	.L56
 752              		.loc 3 312 5 is_stmt 0 discriminator 1
 753 001a 0120     		movs	r0, #1
 754 001c FFF7FEFF 		bl	link_log_level_name
 755 0020 0446     		mov	r4, r0
 756 0022 FFF7FEFF 		bl	osal_sys_time
 757 0026 0246     		mov	r2, r0
 758 0028 0B46     		mov	r3, r1
 759 002a 1146     		mov	r1, r2
 760 002c FB79     		ldrb	r3, [r7, #7]	@ zero_extendqisi2
 761 002e BA79     		ldrb	r2, [r7, #6]	@ zero_extendqisi2
 762 0030 0392     		str	r2, [sp, #12]
 763 0032 3A68     		ldr	r2, [r7]
 764 0034 0292     		str	r2, [sp, #8]
 765 0036 0193     		str	r3, [sp, #4]
 766 0038 4FF49C73 		mov	r3, #312
 767 003c 0093     		str	r3, [sp]
 768 003e 054B     		ldr	r3, .L57
 769 0040 0A46     		mov	r2, r1
 770 0042 2146     		mov	r1, r4
 771 0044 0448     		ldr	r0, .L57+4
 772 0046 FFF7FEFF 		bl	printf
 773              	.L56:
 313:g:/iot/IoT_Device_Demo/iot_link/network/lwm2m/wakaama_lwm2m/port\lwm2m_port.c **** }
 774              		.loc 3 313 1 is_stmt 1
 775 004a 00BF     		nop
 776 004c 0C37     		adds	r7, r7, #12
 777              	.LCFI42:
 778              		.cfi_def_cfa_offset 12
 779 004e BD46     		mov	sp, r7
 780              	.LCFI43:
ARM GAS  C:\Users\ADMINI~1\AppData\Local\Temp\ccEp9HN1.s 			page 28


 781              		.cfi_def_cfa_register 13
 782              		@ sp needed
 783 0050 90BD     		pop	{r4, r7, pc}
 784              	.L58:
 785 0052 00BF     		.align	2
 786              	.L57:
 787 0054 00000000 		.word	__FUNCTION__.9203
 788 0058 00000000 		.word	.LC1
 789              		.cfi_endproc
 790              	.LFE19:
 792              		.section	.text.observe_handle_ack,"ax",%progbits
 793              		.align	1
 794              		.syntax unified
 795              		.thumb
 796              		.thumb_func
 797              		.fpu fpv4-sp-d16
 799              	observe_handle_ack:
 800              	.LFB20:
 314:g:/iot/IoT_Device_Demo/iot_link/network/lwm2m/wakaama_lwm2m/port\lwm2m_port.c **** 
 315:g:/iot/IoT_Device_Demo/iot_link/network/lwm2m/wakaama_lwm2m/port\lwm2m_port.c **** static void observe_handle_ack(lwm2m_transaction_t *transacP, void *message)
 316:g:/iot/IoT_Device_Demo/iot_link/network/lwm2m/wakaama_lwm2m/port\lwm2m_port.c **** {
 801              		.loc 3 316 1
 802              		.cfi_startproc
 803              		@ args = 0, pretend = 0, frame = 16
 804              		@ frame_needed = 1, uses_anonymous_args = 0
 805 0000 80B5     		push	{r7, lr}
 806              	.LCFI44:
 807              		.cfi_def_cfa_offset 8
 808              		.cfi_offset 7, -8
 809              		.cfi_offset 14, -4
 810 0002 84B0     		sub	sp, sp, #16
 811              	.LCFI45:
 812              		.cfi_def_cfa_offset 24
 813 0004 00AF     		add	r7, sp, #0
 814              	.LCFI46:
 815              		.cfi_def_cfa_register 7
 816 0006 7860     		str	r0, [r7, #4]
 817 0008 3960     		str	r1, [r7]
 317:g:/iot/IoT_Device_Demo/iot_link/network/lwm2m/wakaama_lwm2m/port\lwm2m_port.c ****     lwm2m_ack_callback ack_callback = (lwm2m_ack_callback)transacP->cfg.callback;
 818              		.loc 3 317 24
 819 000a 7B68     		ldr	r3, [r7, #4]
 820 000c DB6B     		ldr	r3, [r3, #60]
 821 000e FB60     		str	r3, [r7, #12]
 318:g:/iot/IoT_Device_Demo/iot_link/network/lwm2m/wakaama_lwm2m/port\lwm2m_port.c **** 
 319:g:/iot/IoT_Device_Demo/iot_link/network/lwm2m/wakaama_lwm2m/port\lwm2m_port.c ****     if (transacP->ack_received)
 822              		.loc 3 319 17
 823 0010 7B68     		ldr	r3, [r7, #4]
 824 0012 1B7B     		ldrb	r3, [r3, #12]	@ zero_extendqisi2
 825              		.loc 3 319 8
 826 0014 002B     		cmp	r3, #0
 827 0016 08D0     		beq	.L60
 320:g:/iot/IoT_Device_Demo/iot_link/network/lwm2m/wakaama_lwm2m/port\lwm2m_port.c ****     {
 321:g:/iot/IoT_Device_Demo/iot_link/network/lwm2m/wakaama_lwm2m/port\lwm2m_port.c ****         ack_callback((lwm2m_report_type_e)(transacP->cfg.type), transacP->cfg.cookie, SENT_SUCCESS)
 828              		.loc 3 321 57
 829 0018 7B68     		ldr	r3, [r7, #4]
 830 001a 5B6B     		ldr	r3, [r3, #52]
 831              		.loc 3 321 9
ARM GAS  C:\Users\ADMINI~1\AppData\Local\Temp\ccEp9HN1.s 			page 29


 832 001c D8B2     		uxtb	r0, r3
 833 001e 7B68     		ldr	r3, [r7, #4]
 834 0020 996B     		ldr	r1, [r3, #56]
 835 0022 FB68     		ldr	r3, [r7, #12]
 836 0024 0422     		movs	r2, #4
 837 0026 9847     		blx	r3
 838              	.LVL0:
 322:g:/iot/IoT_Device_Demo/iot_link/network/lwm2m/wakaama_lwm2m/port\lwm2m_port.c ****     }
 323:g:/iot/IoT_Device_Demo/iot_link/network/lwm2m/wakaama_lwm2m/port\lwm2m_port.c ****     else if (transacP->retrans_counter > COAP_MAX_RETRANSMIT)
 324:g:/iot/IoT_Device_Demo/iot_link/network/lwm2m/wakaama_lwm2m/port\lwm2m_port.c ****     {
 325:g:/iot/IoT_Device_Demo/iot_link/network/lwm2m/wakaama_lwm2m/port\lwm2m_port.c ****         ack_callback((lwm2m_report_type_e)(transacP->cfg.type), transacP->cfg.cookie, SENT_TIME_OUT
 326:g:/iot/IoT_Device_Demo/iot_link/network/lwm2m/wakaama_lwm2m/port\lwm2m_port.c ****     }
 327:g:/iot/IoT_Device_Demo/iot_link/network/lwm2m/wakaama_lwm2m/port\lwm2m_port.c ****     else
 328:g:/iot/IoT_Device_Demo/iot_link/network/lwm2m/wakaama_lwm2m/port\lwm2m_port.c ****     {
 329:g:/iot/IoT_Device_Demo/iot_link/network/lwm2m/wakaama_lwm2m/port\lwm2m_port.c ****         ack_callback((lwm2m_report_type_e)(transacP->cfg.type), transacP->cfg.cookie, SENT_FAIL);
 330:g:/iot/IoT_Device_Demo/iot_link/network/lwm2m/wakaama_lwm2m/port\lwm2m_port.c ****     }
 331:g:/iot/IoT_Device_Demo/iot_link/network/lwm2m/wakaama_lwm2m/port\lwm2m_port.c **** }
 839              		.loc 3 331 1
 840 0028 14E0     		b	.L63
 841              	.L60:
 323:g:/iot/IoT_Device_Demo/iot_link/network/lwm2m/wakaama_lwm2m/port\lwm2m_port.c ****     {
 842              		.loc 3 323 22
 843 002a 7B68     		ldr	r3, [r7, #4]
 844 002c 1B7E     		ldrb	r3, [r3, #24]	@ zero_extendqisi2
 323:g:/iot/IoT_Device_Demo/iot_link/network/lwm2m/wakaama_lwm2m/port\lwm2m_port.c ****     {
 845              		.loc 3 323 13
 846 002e 042B     		cmp	r3, #4
 847 0030 08D9     		bls	.L62
 325:g:/iot/IoT_Device_Demo/iot_link/network/lwm2m/wakaama_lwm2m/port\lwm2m_port.c ****     }
 848              		.loc 3 325 57
 849 0032 7B68     		ldr	r3, [r7, #4]
 850 0034 5B6B     		ldr	r3, [r3, #52]
 325:g:/iot/IoT_Device_Demo/iot_link/network/lwm2m/wakaama_lwm2m/port\lwm2m_port.c ****     }
 851              		.loc 3 325 9
 852 0036 D8B2     		uxtb	r0, r3
 853 0038 7B68     		ldr	r3, [r7, #4]
 854 003a 996B     		ldr	r1, [r3, #56]
 855 003c FB68     		ldr	r3, [r7, #12]
 856 003e 0322     		movs	r2, #3
 857 0040 9847     		blx	r3
 858              	.LVL1:
 859              		.loc 3 331 1
 860 0042 07E0     		b	.L63
 861              	.L62:
 329:g:/iot/IoT_Device_Demo/iot_link/network/lwm2m/wakaama_lwm2m/port\lwm2m_port.c ****     }
 862              		.loc 3 329 57
 863 0044 7B68     		ldr	r3, [r7, #4]
 864 0046 5B6B     		ldr	r3, [r3, #52]
 329:g:/iot/IoT_Device_Demo/iot_link/network/lwm2m/wakaama_lwm2m/port\lwm2m_port.c ****     }
 865              		.loc 3 329 9
 866 0048 D8B2     		uxtb	r0, r3
 867 004a 7B68     		ldr	r3, [r7, #4]
 868 004c 996B     		ldr	r1, [r3, #56]
 869 004e FB68     		ldr	r3, [r7, #12]
 870 0050 0222     		movs	r2, #2
 871 0052 9847     		blx	r3
 872              	.LVL2:
ARM GAS  C:\Users\ADMINI~1\AppData\Local\Temp\ccEp9HN1.s 			page 30


 873              	.L63:
 874              		.loc 3 331 1
 875 0054 00BF     		nop
 876 0056 1037     		adds	r7, r7, #16
 877              	.LCFI47:
 878              		.cfi_def_cfa_offset 8
 879 0058 BD46     		mov	sp, r7
 880              	.LCFI48:
 881              		.cfi_def_cfa_register 13
 882              		@ sp needed
 883 005a 80BD     		pop	{r7, pc}
 884              		.cfi_endproc
 885              	.LFE20:
 887              		.section	.text.lwm2m_event_handle,"ax",%progbits
 888              		.align	1
 889              		.syntax unified
 890              		.thumb
 891              		.thumb_func
 892              		.fpu fpv4-sp-d16
 894              	lwm2m_event_handle:
 895              	.LFB21:
 332:g:/iot/IoT_Device_Demo/iot_link/network/lwm2m/wakaama_lwm2m/port\lwm2m_port.c **** 
 333:g:/iot/IoT_Device_Demo/iot_link/network/lwm2m/wakaama_lwm2m/port\lwm2m_port.c **** static void lwm2m_event_handle(module_type_t type, int code, const char *arg, int arg_len)
 334:g:/iot/IoT_Device_Demo/iot_link/network/lwm2m/wakaama_lwm2m/port\lwm2m_port.c **** {
 896              		.loc 3 334 1
 897              		.cfi_startproc
 898              		@ args = 0, pretend = 0, frame = 24
 899              		@ frame_needed = 1, uses_anonymous_args = 0
 900 0000 80B5     		push	{r7, lr}
 901              	.LCFI49:
 902              		.cfi_def_cfa_offset 8
 903              		.cfi_offset 7, -8
 904              		.cfi_offset 14, -4
 905 0002 86B0     		sub	sp, sp, #24
 906              	.LCFI50:
 907              		.cfi_def_cfa_offset 32
 908 0004 00AF     		add	r7, sp, #0
 909              	.LCFI51:
 910              		.cfi_def_cfa_register 7
 911 0006 B960     		str	r1, [r7, #8]
 912 0008 7A60     		str	r2, [r7, #4]
 913 000a 3B60     		str	r3, [r7]
 914 000c 0346     		mov	r3, r0
 915 000e FB73     		strb	r3, [r7, #15]
 335:g:/iot/IoT_Device_Demo/iot_link/network/lwm2m/wakaama_lwm2m/port\lwm2m_port.c ****     switch (type)
 916              		.loc 3 335 5
 917 0010 FB7B     		ldrb	r3, [r7, #15]	@ zero_extendqisi2
 918 0012 022B     		cmp	r3, #2
 919 0014 18D0     		beq	.L65
 920 0016 022B     		cmp	r3, #2
 921 0018 46DC     		bgt	.L75
 922 001a 002B     		cmp	r3, #0
 923 001c 02D0     		beq	.L67
 924 001e 012B     		cmp	r3, #1
 925 0020 44D0     		beq	.L76
 336:g:/iot/IoT_Device_Demo/iot_link/network/lwm2m/wakaama_lwm2m/port\lwm2m_port.c ****     {
 337:g:/iot/IoT_Device_Demo/iot_link/network/lwm2m/wakaama_lwm2m/port\lwm2m_port.c ****         case MODULE_LWM2M:
ARM GAS  C:\Users\ADMINI~1\AppData\Local\Temp\ccEp9HN1.s 			page 31


 338:g:/iot/IoT_Device_Demo/iot_link/network/lwm2m/wakaama_lwm2m/port\lwm2m_port.c ****         {
 339:g:/iot/IoT_Device_Demo/iot_link/network/lwm2m/wakaama_lwm2m/port\lwm2m_port.c ****             if ((int)STATE_REGISTERED == code)
 340:g:/iot/IoT_Device_Demo/iot_link/network/lwm2m/wakaama_lwm2m/port\lwm2m_port.c ****             {
 341:g:/iot/IoT_Device_Demo/iot_link/network/lwm2m/wakaama_lwm2m/port\lwm2m_port.c ****                 lwm2m_event_notify(LWM2M_REG_OK, NULL, 0);
 342:g:/iot/IoT_Device_Demo/iot_link/network/lwm2m/wakaama_lwm2m/port\lwm2m_port.c **** #ifdef CONFIG_FEATURE_FOTA
 343:g:/iot/IoT_Device_Demo/iot_link/network/lwm2m/wakaama_lwm2m/port\lwm2m_port.c ****                 (void)lwm2m_fota_manager_repot_result(lwm2m_fota_manager_get_instance());
 344:g:/iot/IoT_Device_Demo/iot_link/network/lwm2m/wakaama_lwm2m/port\lwm2m_port.c **** #endif
 345:g:/iot/IoT_Device_Demo/iot_link/network/lwm2m/wakaama_lwm2m/port\lwm2m_port.c ****             }
 346:g:/iot/IoT_Device_Demo/iot_link/network/lwm2m/wakaama_lwm2m/port\lwm2m_port.c ****             else if ((int)STATE_REG_FAILED == code)
 347:g:/iot/IoT_Device_Demo/iot_link/network/lwm2m/wakaama_lwm2m/port\lwm2m_port.c ****             {
 348:g:/iot/IoT_Device_Demo/iot_link/network/lwm2m/wakaama_lwm2m/port\lwm2m_port.c ****                 lwm2m_event_notify(LWM2M_REG_FAIL, NULL, 0);
 349:g:/iot/IoT_Device_Demo/iot_link/network/lwm2m/wakaama_lwm2m/port\lwm2m_port.c ****             }
 350:g:/iot/IoT_Device_Demo/iot_link/network/lwm2m/wakaama_lwm2m/port\lwm2m_port.c **** 
 351:g:/iot/IoT_Device_Demo/iot_link/network/lwm2m/wakaama_lwm2m/port\lwm2m_port.c ****             break;
 352:g:/iot/IoT_Device_Demo/iot_link/network/lwm2m/wakaama_lwm2m/port\lwm2m_port.c ****         }
 353:g:/iot/IoT_Device_Demo/iot_link/network/lwm2m/wakaama_lwm2m/port\lwm2m_port.c **** 
 354:g:/iot/IoT_Device_Demo/iot_link/network/lwm2m/wakaama_lwm2m/port\lwm2m_port.c ****         case MODULE_NET:
 355:g:/iot/IoT_Device_Demo/iot_link/network/lwm2m/wakaama_lwm2m/port\lwm2m_port.c ****         {
 356:g:/iot/IoT_Device_Demo/iot_link/network/lwm2m/wakaama_lwm2m/port\lwm2m_port.c ****             break;
 357:g:/iot/IoT_Device_Demo/iot_link/network/lwm2m/wakaama_lwm2m/port\lwm2m_port.c ****         }
 358:g:/iot/IoT_Device_Demo/iot_link/network/lwm2m/wakaama_lwm2m/port\lwm2m_port.c **** 
 359:g:/iot/IoT_Device_Demo/iot_link/network/lwm2m/wakaama_lwm2m/port\lwm2m_port.c ****         case MODULE_URI:
 360:g:/iot/IoT_Device_Demo/iot_link/network/lwm2m/wakaama_lwm2m/port\lwm2m_port.c ****         {
 361:g:/iot/IoT_Device_Demo/iot_link/network/lwm2m/wakaama_lwm2m/port\lwm2m_port.c ****             if ((NULL == arg) || ((size_t)arg_len < sizeof(lwm2m_uri_t)))
 362:g:/iot/IoT_Device_Demo/iot_link/network/lwm2m/wakaama_lwm2m/port\lwm2m_port.c ****             {
 363:g:/iot/IoT_Device_Demo/iot_link/network/lwm2m/wakaama_lwm2m/port\lwm2m_port.c ****                 break;
 364:g:/iot/IoT_Device_Demo/iot_link/network/lwm2m/wakaama_lwm2m/port\lwm2m_port.c ****             }
 365:g:/iot/IoT_Device_Demo/iot_link/network/lwm2m/wakaama_lwm2m/port\lwm2m_port.c **** 
 366:g:/iot/IoT_Device_Demo/iot_link/network/lwm2m/wakaama_lwm2m/port\lwm2m_port.c ****             if (OBSERVE_UNSUBSCRIBE == code)
 367:g:/iot/IoT_Device_Demo/iot_link/network/lwm2m/wakaama_lwm2m/port\lwm2m_port.c ****             {
 368:g:/iot/IoT_Device_Demo/iot_link/network/lwm2m/wakaama_lwm2m/port\lwm2m_port.c ****                 if (dm_isUriOpaqueHandle((lwm2m_uri_t *)arg))
 369:g:/iot/IoT_Device_Demo/iot_link/network/lwm2m/wakaama_lwm2m/port\lwm2m_port.c ****                 {
 370:g:/iot/IoT_Device_Demo/iot_link/network/lwm2m/wakaama_lwm2m/port\lwm2m_port.c ****                     lwm2m_report_type_e rpt_type = APP_DATA;
 371:g:/iot/IoT_Device_Demo/iot_link/network/lwm2m/wakaama_lwm2m/port\lwm2m_port.c ****                     lwm2m_event_notify(LWM2M_DATA_UNSUBSCRIBLE, (char *)&rpt_type, sizeof(rpt_type)
 372:g:/iot/IoT_Device_Demo/iot_link/network/lwm2m/wakaama_lwm2m/port\lwm2m_port.c ****                 }
 373:g:/iot/IoT_Device_Demo/iot_link/network/lwm2m/wakaama_lwm2m/port\lwm2m_port.c **** 
 374:g:/iot/IoT_Device_Demo/iot_link/network/lwm2m/wakaama_lwm2m/port\lwm2m_port.c ****                 (void)lwm2m_clear_rpt_data((lwm2m_uri_t *)arg, (int)SENT_FAIL);
 375:g:/iot/IoT_Device_Demo/iot_link/network/lwm2m/wakaama_lwm2m/port\lwm2m_port.c ****             }
 376:g:/iot/IoT_Device_Demo/iot_link/network/lwm2m/wakaama_lwm2m/port\lwm2m_port.c ****             else if (OBSERVE_SUBSCRIBE == code)
 377:g:/iot/IoT_Device_Demo/iot_link/network/lwm2m/wakaama_lwm2m/port\lwm2m_port.c ****             {
 378:g:/iot/IoT_Device_Demo/iot_link/network/lwm2m/wakaama_lwm2m/port\lwm2m_port.c ****                 if (dm_isUriOpaqueHandle((lwm2m_uri_t *)arg))
 379:g:/iot/IoT_Device_Demo/iot_link/network/lwm2m/wakaama_lwm2m/port\lwm2m_port.c ****                 {
 380:g:/iot/IoT_Device_Demo/iot_link/network/lwm2m/wakaama_lwm2m/port\lwm2m_port.c ****                     lwm2m_report_type_e rpt_type = APP_DATA;
 381:g:/iot/IoT_Device_Demo/iot_link/network/lwm2m/wakaama_lwm2m/port\lwm2m_port.c ****                     lwm2m_event_notify(LWM2M_DATA_SUBSCRIBLE, (char *)&rpt_type, sizeof(rpt_type));
 382:g:/iot/IoT_Device_Demo/iot_link/network/lwm2m/wakaama_lwm2m/port\lwm2m_port.c ****                 }
 383:g:/iot/IoT_Device_Demo/iot_link/network/lwm2m/wakaama_lwm2m/port\lwm2m_port.c ****             }
 384:g:/iot/IoT_Device_Demo/iot_link/network/lwm2m/wakaama_lwm2m/port\lwm2m_port.c **** 
 385:g:/iot/IoT_Device_Demo/iot_link/network/lwm2m/wakaama_lwm2m/port\lwm2m_port.c ****             break;
 386:g:/iot/IoT_Device_Demo/iot_link/network/lwm2m/wakaama_lwm2m/port\lwm2m_port.c ****         }
 387:g:/iot/IoT_Device_Demo/iot_link/network/lwm2m/wakaama_lwm2m/port\lwm2m_port.c **** 
 388:g:/iot/IoT_Device_Demo/iot_link/network/lwm2m/wakaama_lwm2m/port\lwm2m_port.c ****         default:
 389:g:/iot/IoT_Device_Demo/iot_link/network/lwm2m/wakaama_lwm2m/port\lwm2m_port.c ****         {
 390:g:/iot/IoT_Device_Demo/iot_link/network/lwm2m/wakaama_lwm2m/port\lwm2m_port.c ****             break;
 926              		.loc 3 390 13
 927 0022 41E0     		b	.L75
 928              	.L67:
 339:g:/iot/IoT_Device_Demo/iot_link/network/lwm2m/wakaama_lwm2m/port\lwm2m_port.c ****             {
ARM GAS  C:\Users\ADMINI~1\AppData\Local\Temp\ccEp9HN1.s 			page 32


 929              		.loc 3 339 16
 930 0024 BB68     		ldr	r3, [r7, #8]
 931 0026 022B     		cmp	r3, #2
 932 0028 05D1     		bne	.L69
 341:g:/iot/IoT_Device_Demo/iot_link/network/lwm2m/wakaama_lwm2m/port\lwm2m_port.c **** #ifdef CONFIG_FEATURE_FOTA
 933              		.loc 3 341 17
 934 002a 0022     		movs	r2, #0
 935 002c 0021     		movs	r1, #0
 936 002e 0020     		movs	r0, #0
 937 0030 FFF7FEFF 		bl	lwm2m_event_notify
 351:g:/iot/IoT_Device_Demo/iot_link/network/lwm2m/wakaama_lwm2m/port\lwm2m_port.c ****         }
 938              		.loc 3 351 13
 939 0034 3CE0     		b	.L77
 940              	.L69:
 346:g:/iot/IoT_Device_Demo/iot_link/network/lwm2m/wakaama_lwm2m/port\lwm2m_port.c ****             {
 941              		.loc 3 346 21
 942 0036 BB68     		ldr	r3, [r7, #8]
 943 0038 032B     		cmp	r3, #3
 944 003a 39D1     		bne	.L77
 348:g:/iot/IoT_Device_Demo/iot_link/network/lwm2m/wakaama_lwm2m/port\lwm2m_port.c ****             }
 945              		.loc 3 348 17
 946 003c 0022     		movs	r2, #0
 947 003e 0021     		movs	r1, #0
 948 0040 0120     		movs	r0, #1
 949 0042 FFF7FEFF 		bl	lwm2m_event_notify
 351:g:/iot/IoT_Device_Demo/iot_link/network/lwm2m/wakaama_lwm2m/port\lwm2m_port.c ****         }
 950              		.loc 3 351 13
 951 0046 33E0     		b	.L77
 952              	.L65:
 361:g:/iot/IoT_Device_Demo/iot_link/network/lwm2m/wakaama_lwm2m/port\lwm2m_port.c ****             {
 953              		.loc 3 361 16
 954 0048 7B68     		ldr	r3, [r7, #4]
 955 004a 002B     		cmp	r3, #0
 956 004c 33D0     		beq	.L78
 361:g:/iot/IoT_Device_Demo/iot_link/network/lwm2m/wakaama_lwm2m/port\lwm2m_port.c ****             {
 957              		.loc 3 361 35 discriminator 1
 958 004e 3B68     		ldr	r3, [r7]
 361:g:/iot/IoT_Device_Demo/iot_link/network/lwm2m/wakaama_lwm2m/port\lwm2m_port.c ****             {
 959              		.loc 3 361 31 discriminator 1
 960 0050 072B     		cmp	r3, #7
 961 0052 30D9     		bls	.L78
 366:g:/iot/IoT_Device_Demo/iot_link/network/lwm2m/wakaama_lwm2m/port\lwm2m_port.c ****             {
 962              		.loc 3 366 16
 963 0054 BB68     		ldr	r3, [r7, #8]
 964 0056 002B     		cmp	r3, #0
 965 0058 13D1     		bne	.L72
 368:g:/iot/IoT_Device_Demo/iot_link/network/lwm2m/wakaama_lwm2m/port\lwm2m_port.c ****                 {
 966              		.loc 3 368 21
 967 005a 7868     		ldr	r0, [r7, #4]
 968 005c FFF7FEFF 		bl	dm_isUriOpaqueHandle
 969 0060 0346     		mov	r3, r0
 368:g:/iot/IoT_Device_Demo/iot_link/network/lwm2m/wakaama_lwm2m/port\lwm2m_port.c ****                 {
 970              		.loc 3 368 20
 971 0062 002B     		cmp	r3, #0
 972 0064 08D0     		beq	.L73
 973              	.LBB2:
 370:g:/iot/IoT_Device_Demo/iot_link/network/lwm2m/wakaama_lwm2m/port\lwm2m_port.c ****                     lwm2m_event_notify(LWM2M_DATA_UNSUBSCRIBLE, (char *)&rpt_type, sizeof(rpt_type)
ARM GAS  C:\Users\ADMINI~1\AppData\Local\Temp\ccEp9HN1.s 			page 33


 974              		.loc 3 370 41
 975 0066 0123     		movs	r3, #1
 976 0068 FB75     		strb	r3, [r7, #23]
 371:g:/iot/IoT_Device_Demo/iot_link/network/lwm2m/wakaama_lwm2m/port\lwm2m_port.c ****                 }
 977              		.loc 3 371 21
 978 006a 07F11703 		add	r3, r7, #23
 979 006e 0122     		movs	r2, #1
 980 0070 1946     		mov	r1, r3
 981 0072 0320     		movs	r0, #3
 982 0074 FFF7FEFF 		bl	lwm2m_event_notify
 983              	.L73:
 984              	.LBE2:
 374:g:/iot/IoT_Device_Demo/iot_link/network/lwm2m/wakaama_lwm2m/port\lwm2m_port.c ****             }
 985              		.loc 3 374 23
 986 0078 0221     		movs	r1, #2
 987 007a 7868     		ldr	r0, [r7, #4]
 988 007c FFF7FEFF 		bl	lwm2m_clear_rpt_data
 385:g:/iot/IoT_Device_Demo/iot_link/network/lwm2m/wakaama_lwm2m/port\lwm2m_port.c ****         }
 989              		.loc 3 385 13
 990 0080 18E0     		b	.L79
 991              	.L72:
 376:g:/iot/IoT_Device_Demo/iot_link/network/lwm2m/wakaama_lwm2m/port\lwm2m_port.c ****             {
 992              		.loc 3 376 21
 993 0082 BB68     		ldr	r3, [r7, #8]
 994 0084 012B     		cmp	r3, #1
 995 0086 15D1     		bne	.L79
 378:g:/iot/IoT_Device_Demo/iot_link/network/lwm2m/wakaama_lwm2m/port\lwm2m_port.c ****                 {
 996              		.loc 3 378 21
 997 0088 7868     		ldr	r0, [r7, #4]
 998 008a FFF7FEFF 		bl	dm_isUriOpaqueHandle
 999 008e 0346     		mov	r3, r0
 378:g:/iot/IoT_Device_Demo/iot_link/network/lwm2m/wakaama_lwm2m/port\lwm2m_port.c ****                 {
 1000              		.loc 3 378 20
 1001 0090 002B     		cmp	r3, #0
 1002 0092 0FD0     		beq	.L79
 1003              	.LBB3:
 380:g:/iot/IoT_Device_Demo/iot_link/network/lwm2m/wakaama_lwm2m/port\lwm2m_port.c ****                     lwm2m_event_notify(LWM2M_DATA_SUBSCRIBLE, (char *)&rpt_type, sizeof(rpt_type));
 1004              		.loc 3 380 41
 1005 0094 0123     		movs	r3, #1
 1006 0096 BB75     		strb	r3, [r7, #22]
 381:g:/iot/IoT_Device_Demo/iot_link/network/lwm2m/wakaama_lwm2m/port\lwm2m_port.c ****                 }
 1007              		.loc 3 381 21
 1008 0098 07F11603 		add	r3, r7, #22
 1009 009c 0122     		movs	r2, #1
 1010 009e 1946     		mov	r1, r3
 1011 00a0 0220     		movs	r0, #2
 1012 00a2 FFF7FEFF 		bl	lwm2m_event_notify
 1013              	.LBE3:
 385:g:/iot/IoT_Device_Demo/iot_link/network/lwm2m/wakaama_lwm2m/port\lwm2m_port.c ****         }
 1014              		.loc 3 385 13
 1015 00a6 05E0     		b	.L79
 1016              	.L75:
 1017              		.loc 3 390 13
 1018 00a8 00BF     		nop
 1019 00aa 04E0     		b	.L78
 1020              	.L76:
 356:g:/iot/IoT_Device_Demo/iot_link/network/lwm2m/wakaama_lwm2m/port\lwm2m_port.c ****         }
ARM GAS  C:\Users\ADMINI~1\AppData\Local\Temp\ccEp9HN1.s 			page 34


 1021              		.loc 3 356 13
 1022 00ac 00BF     		nop
 1023 00ae 02E0     		b	.L78
 1024              	.L77:
 351:g:/iot/IoT_Device_Demo/iot_link/network/lwm2m/wakaama_lwm2m/port\lwm2m_port.c ****         }
 1025              		.loc 3 351 13
 1026 00b0 00BF     		nop
 1027 00b2 00E0     		b	.L78
 1028              	.L79:
 385:g:/iot/IoT_Device_Demo/iot_link/network/lwm2m/wakaama_lwm2m/port\lwm2m_port.c ****         }
 1029              		.loc 3 385 13
 1030 00b4 00BF     		nop
 1031              	.L78:
 391:g:/iot/IoT_Device_Demo/iot_link/network/lwm2m/wakaama_lwm2m/port\lwm2m_port.c ****         }
 392:g:/iot/IoT_Device_Demo/iot_link/network/lwm2m/wakaama_lwm2m/port\lwm2m_port.c ****     }
 393:g:/iot/IoT_Device_Demo/iot_link/network/lwm2m/wakaama_lwm2m/port\lwm2m_port.c **** }
 1032              		.loc 3 393 1
 1033 00b6 00BF     		nop
 1034 00b8 1837     		adds	r7, r7, #24
 1035              	.LCFI52:
 1036              		.cfi_def_cfa_offset 8
 1037 00ba BD46     		mov	sp, r7
 1038              	.LCFI53:
 1039              		.cfi_def_cfa_register 13
 1040              		@ sp needed
 1041 00bc 80BD     		pop	{r7, pc}
 1042              		.cfi_endproc
 1043              	.LFE21:
 1045              		.section	.text.lwm2m_connection_err_notify,"ax",%progbits
 1046              		.align	1
 1047              		.syntax unified
 1048              		.thumb
 1049              		.thumb_func
 1050              		.fpu fpv4-sp-d16
 1052              	lwm2m_connection_err_notify:
 1053              	.LFB22:
 394:g:/iot/IoT_Device_Demo/iot_link/network/lwm2m/wakaama_lwm2m/port\lwm2m_port.c **** 
 395:g:/iot/IoT_Device_Demo/iot_link/network/lwm2m/wakaama_lwm2m/port\lwm2m_port.c **** static void lwm2m_connection_err_notify(lwm2m_context_t *context, connection_err_e err_type, bool b
 396:g:/iot/IoT_Device_Demo/iot_link/network/lwm2m/wakaama_lwm2m/port\lwm2m_port.c **** {
 1054              		.loc 3 396 1
 1055              		.cfi_startproc
 1056              		@ args = 0, pretend = 0, frame = 16
 1057              		@ frame_needed = 1, uses_anonymous_args = 0
 1058 0000 80B5     		push	{r7, lr}
 1059              	.LCFI54:
 1060              		.cfi_def_cfa_offset 8
 1061              		.cfi_offset 7, -8
 1062              		.cfi_offset 14, -4
 1063 0002 84B0     		sub	sp, sp, #16
 1064              	.LCFI55:
 1065              		.cfi_def_cfa_offset 24
 1066 0004 00AF     		add	r7, sp, #0
 1067              	.LCFI56:
 1068              		.cfi_def_cfa_register 7
 1069 0006 7860     		str	r0, [r7, #4]
 1070 0008 0B46     		mov	r3, r1
 1071 000a FB70     		strb	r3, [r7, #3]
ARM GAS  C:\Users\ADMINI~1\AppData\Local\Temp\ccEp9HN1.s 			page 35


 1072 000c 1346     		mov	r3, r2
 1073 000e BB70     		strb	r3, [r7, #2]
 397:g:/iot/IoT_Device_Demo/iot_link/network/lwm2m/wakaama_lwm2m/port\lwm2m_port.c ****     handle_data_t *handle = NULL;
 1074              		.loc 3 397 20
 1075 0010 0023     		movs	r3, #0
 1076 0012 FB60     		str	r3, [r7, #12]
 398:g:/iot/IoT_Device_Demo/iot_link/network/lwm2m/wakaama_lwm2m/port\lwm2m_port.c **** 
 399:g:/iot/IoT_Device_Demo/iot_link/network/lwm2m/wakaama_lwm2m/port\lwm2m_port.c ****     if ((NULL == context) || (NULL == context->userData))
 1077              		.loc 3 399 8
 1078 0014 7B68     		ldr	r3, [r7, #4]
 1079 0016 002B     		cmp	r3, #0
 1080 0018 11D0     		beq	.L84
 1081              		.loc 3 399 46 discriminator 1
 1082 001a 7B68     		ldr	r3, [r7, #4]
 1083 001c 5B6B     		ldr	r3, [r3, #52]
 1084              		.loc 3 399 27 discriminator 1
 1085 001e 002B     		cmp	r3, #0
 1086 0020 0DD0     		beq	.L84
 400:g:/iot/IoT_Device_Demo/iot_link/network/lwm2m/wakaama_lwm2m/port\lwm2m_port.c ****     {
 401:g:/iot/IoT_Device_Demo/iot_link/network/lwm2m/wakaama_lwm2m/port\lwm2m_port.c ****         ATINY_LOG(LOG_ERR, "null point");
 402:g:/iot/IoT_Device_Demo/iot_link/network/lwm2m/wakaama_lwm2m/port\lwm2m_port.c ****         return;
 403:g:/iot/IoT_Device_Demo/iot_link/network/lwm2m/wakaama_lwm2m/port\lwm2m_port.c ****     }
 404:g:/iot/IoT_Device_Demo/iot_link/network/lwm2m/wakaama_lwm2m/port\lwm2m_port.c **** 
 405:g:/iot/IoT_Device_Demo/iot_link/network/lwm2m/wakaama_lwm2m/port\lwm2m_port.c ****     if (!boostrap_flag)
 1087              		.loc 3 405 9
 1088 0022 BB78     		ldrb	r3, [r7, #2]
 1089 0024 83F00103 		eor	r3, r3, #1
 1090 0028 DBB2     		uxtb	r3, r3
 1091              		.loc 3 405 8
 1092 002a 002B     		cmp	r3, #0
 1093 002c 08D0     		beq	.L80
 406:g:/iot/IoT_Device_Demo/iot_link/network/lwm2m/wakaama_lwm2m/port\lwm2m_port.c ****     {
 407:g:/iot/IoT_Device_Demo/iot_link/network/lwm2m/wakaama_lwm2m/port\lwm2m_port.c ****         handle = LWM2M_FIELD_TO_STRUCT(context->userData, handle_data_t, client_data);
 1094              		.loc 3 407 18
 1095 002e 7B68     		ldr	r3, [r7, #4]
 1096 0030 5B6B     		ldr	r3, [r3, #52]
 1097              		.loc 3 407 16
 1098 0032 043B     		subs	r3, r3, #4
 1099 0034 FB60     		str	r3, [r7, #12]
 408:g:/iot/IoT_Device_Demo/iot_link/network/lwm2m/wakaama_lwm2m/port\lwm2m_port.c ****         (void)lwm2m_reconnect_ex(handle);
 1100              		.loc 3 408 15
 1101 0036 F868     		ldr	r0, [r7, #12]
 1102 0038 FFF7FEFF 		bl	lwm2m_reconnect_ex
 1103 003c 00E0     		b	.L80
 1104              	.L84:
 402:g:/iot/IoT_Device_Demo/iot_link/network/lwm2m/wakaama_lwm2m/port\lwm2m_port.c ****     }
 1105              		.loc 3 402 9
 1106 003e 00BF     		nop
 1107              	.L80:
 409:g:/iot/IoT_Device_Demo/iot_link/network/lwm2m/wakaama_lwm2m/port\lwm2m_port.c ****     }
 410:g:/iot/IoT_Device_Demo/iot_link/network/lwm2m/wakaama_lwm2m/port\lwm2m_port.c **** 
 411:g:/iot/IoT_Device_Demo/iot_link/network/lwm2m/wakaama_lwm2m/port\lwm2m_port.c ****     ATINY_LOG(LOG_INFO, "connection err type %d bootstrap %d", (int)err_type, boostrap_flag);
 412:g:/iot/IoT_Device_Demo/iot_link/network/lwm2m/wakaama_lwm2m/port\lwm2m_port.c **** }
 1108              		.loc 3 412 1
 1109 0040 1037     		adds	r7, r7, #16
 1110              	.LCFI57:
 1111              		.cfi_def_cfa_offset 8
ARM GAS  C:\Users\ADMINI~1\AppData\Local\Temp\ccEp9HN1.s 			page 36


 1112 0042 BD46     		mov	sp, r7
 1113              	.LCFI58:
 1114              		.cfi_def_cfa_register 13
 1115              		@ sp needed
 1116 0044 80BD     		pop	{r7, pc}
 1117              		.cfi_endproc
 1118              	.LFE22:
 1120              		.section	.text.lwm2m_poll,"ax",%progbits
 1121              		.align	1
 1122              		.syntax unified
 1123              		.thumb
 1124              		.thumb_func
 1125              		.fpu fpv4-sp-d16
 1127              	lwm2m_poll:
 1128              	.LFB23:
 413:g:/iot/IoT_Device_Demo/iot_link/network/lwm2m/wakaama_lwm2m/port\lwm2m_port.c **** 
 414:g:/iot/IoT_Device_Demo/iot_link/network/lwm2m/wakaama_lwm2m/port\lwm2m_port.c **** static int lwm2m_poll(handle_data_t *phandle, uint32_t timeout)
 415:g:/iot/IoT_Device_Demo/iot_link/network/lwm2m/wakaama_lwm2m/port\lwm2m_port.c **** {
 1129              		.loc 3 415 1
 1130              		.cfi_startproc
 1131              		@ args = 0, pretend = 0, frame = 32
 1132              		@ frame_needed = 1, uses_anonymous_args = 0
 1133 0000 80B5     		push	{r7, lr}
 1134              	.LCFI59:
 1135              		.cfi_def_cfa_offset 8
 1136              		.cfi_offset 7, -8
 1137              		.cfi_offset 14, -4
 1138 0002 88B0     		sub	sp, sp, #32
 1139              	.LCFI60:
 1140              		.cfi_def_cfa_offset 40
 1141 0004 00AF     		add	r7, sp, #0
 1142              	.LCFI61:
 1143              		.cfi_def_cfa_register 7
 1144 0006 7860     		str	r0, [r7, #4]
 1145 0008 3960     		str	r1, [r7]
 416:g:/iot/IoT_Device_Demo/iot_link/network/lwm2m/wakaama_lwm2m/port\lwm2m_port.c ****     client_data_t *dataP;
 417:g:/iot/IoT_Device_Demo/iot_link/network/lwm2m/wakaama_lwm2m/port\lwm2m_port.c ****     int numBytes;
 418:g:/iot/IoT_Device_Demo/iot_link/network/lwm2m/wakaama_lwm2m/port\lwm2m_port.c ****     connection_t *connP;
 419:g:/iot/IoT_Device_Demo/iot_link/network/lwm2m/wakaama_lwm2m/port\lwm2m_port.c ****     lwm2m_context_t *contextP = NULL;
 1146              		.loc 3 419 22
 1147 000a 0023     		movs	r3, #0
 1148 000c BB61     		str	r3, [r7, #24]
 420:g:/iot/IoT_Device_Demo/iot_link/network/lwm2m/wakaama_lwm2m/port\lwm2m_port.c ****     uint8_t *recv_buffer = NULL;
 1149              		.loc 3 420 14
 1150 000e 0023     		movs	r3, #0
 1151 0010 7B61     		str	r3, [r7, #20]
 421:g:/iot/IoT_Device_Demo/iot_link/network/lwm2m/wakaama_lwm2m/port\lwm2m_port.c **** 
 422:g:/iot/IoT_Device_Demo/iot_link/network/lwm2m/wakaama_lwm2m/port\lwm2m_port.c ****     if ((NULL == phandle) || (NULL == phandle->recv_buffer))
 1152              		.loc 3 422 8
 1153 0012 7B68     		ldr	r3, [r7, #4]
 1154 0014 002B     		cmp	r3, #0
 1155 0016 03D0     		beq	.L86
 1156              		.loc 3 422 46 discriminator 1
 1157 0018 7B68     		ldr	r3, [r7, #4]
 1158 001a 5B6A     		ldr	r3, [r3, #36]
 1159              		.loc 3 422 27 discriminator 1
 1160 001c 002B     		cmp	r3, #0
ARM GAS  C:\Users\ADMINI~1\AppData\Local\Temp\ccEp9HN1.s 			page 37


 1161 001e 02D1     		bne	.L87
 1162              	.L86:
 423:g:/iot/IoT_Device_Demo/iot_link/network/lwm2m/wakaama_lwm2m/port\lwm2m_port.c ****     {
 424:g:/iot/IoT_Device_Demo/iot_link/network/lwm2m/wakaama_lwm2m/port\lwm2m_port.c ****         return (int) LWM2M_ARG_INVALID;
 1163              		.loc 3 424 16
 1164 0020 4FF0FF33 		mov	r3, #-1
 1165 0024 2CE0     		b	.L88
 1166              	.L87:
 425:g:/iot/IoT_Device_Demo/iot_link/network/lwm2m/wakaama_lwm2m/port\lwm2m_port.c ****     }
 426:g:/iot/IoT_Device_Demo/iot_link/network/lwm2m/wakaama_lwm2m/port\lwm2m_port.c **** 
 427:g:/iot/IoT_Device_Demo/iot_link/network/lwm2m/wakaama_lwm2m/port\lwm2m_port.c ****     recv_buffer = phandle->recv_buffer;
 1167              		.loc 3 427 17
 1168 0026 7B68     		ldr	r3, [r7, #4]
 1169 0028 5B6A     		ldr	r3, [r3, #36]
 1170 002a 7B61     		str	r3, [r7, #20]
 428:g:/iot/IoT_Device_Demo/iot_link/network/lwm2m/wakaama_lwm2m/port\lwm2m_port.c ****     contextP = phandle->lwm2m_context;
 1171              		.loc 3 428 14
 1172 002c 7B68     		ldr	r3, [r7, #4]
 1173 002e 1B68     		ldr	r3, [r3]
 1174 0030 BB61     		str	r3, [r7, #24]
 429:g:/iot/IoT_Device_Demo/iot_link/network/lwm2m/wakaama_lwm2m/port\lwm2m_port.c ****     dataP = (client_data_t *)(contextP->userData);
 1175              		.loc 3 429 11
 1176 0032 BB69     		ldr	r3, [r7, #24]
 1177 0034 5B6B     		ldr	r3, [r3, #52]
 1178 0036 3B61     		str	r3, [r7, #16]
 430:g:/iot/IoT_Device_Demo/iot_link/network/lwm2m/wakaama_lwm2m/port\lwm2m_port.c ****     connP = dataP->connList;
 1179              		.loc 3 430 11
 1180 0038 3B69     		ldr	r3, [r7, #16]
 1181 003a 9B68     		ldr	r3, [r3, #8]
 1182 003c FB61     		str	r3, [r7, #28]
 431:g:/iot/IoT_Device_Demo/iot_link/network/lwm2m/wakaama_lwm2m/port\lwm2m_port.c **** 
 432:g:/iot/IoT_Device_Demo/iot_link/network/lwm2m/wakaama_lwm2m/port\lwm2m_port.c ****     while (NULL != connP)
 1183              		.loc 3 432 11
 1184 003e 1BE0     		b	.L89
 1185              	.L91:
 433:g:/iot/IoT_Device_Demo/iot_link/network/lwm2m/wakaama_lwm2m/port\lwm2m_port.c ****     {
 434:g:/iot/IoT_Device_Demo/iot_link/network/lwm2m/wakaama_lwm2m/port\lwm2m_port.c ****         numBytes = lwm2m_buffer_recv(connP, recv_buffer, MAX_PACKET_SIZE, timeout);
 1186              		.loc 3 434 20
 1187 0040 3B68     		ldr	r3, [r7]
 1188 0042 4FF48062 		mov	r2, #1024
 1189 0046 7969     		ldr	r1, [r7, #20]
 1190 0048 F869     		ldr	r0, [r7, #28]
 1191 004a FFF7FEFF 		bl	lwm2m_buffer_recv
 1192 004e F860     		str	r0, [r7, #12]
 435:g:/iot/IoT_Device_Demo/iot_link/network/lwm2m/wakaama_lwm2m/port\lwm2m_port.c **** 
 436:g:/iot/IoT_Device_Demo/iot_link/network/lwm2m/wakaama_lwm2m/port\lwm2m_port.c ****         if (numBytes <= 0)
 1193              		.loc 3 436 12
 1194 0050 FB68     		ldr	r3, [r7, #12]
 1195 0052 002B     		cmp	r3, #0
 1196 0054 0DDD     		ble	.L90
 437:g:/iot/IoT_Device_Demo/iot_link/network/lwm2m/wakaama_lwm2m/port\lwm2m_port.c ****         {
 438:g:/iot/IoT_Device_Demo/iot_link/network/lwm2m/wakaama_lwm2m/port\lwm2m_port.c ****             ATINY_LOG(LOG_INFO, "no packet arrived!");
 439:g:/iot/IoT_Device_Demo/iot_link/network/lwm2m/wakaama_lwm2m/port\lwm2m_port.c ****         }
 440:g:/iot/IoT_Device_Demo/iot_link/network/lwm2m/wakaama_lwm2m/port\lwm2m_port.c ****         else
 441:g:/iot/IoT_Device_Demo/iot_link/network/lwm2m/wakaama_lwm2m/port\lwm2m_port.c ****         {
 442:g:/iot/IoT_Device_Demo/iot_link/network/lwm2m/wakaama_lwm2m/port\lwm2m_port.c ****             output_buffer(stderr, recv_buffer, numBytes, 0);
 1197              		.loc 3 442 27
ARM GAS  C:\Users\ADMINI~1\AppData\Local\Temp\ccEp9HN1.s 			page 38


 1198 0056 0C4B     		ldr	r3, .L92
 1199 0058 1B68     		ldr	r3, [r3]
 1200 005a D868     		ldr	r0, [r3, #12]
 1201              		.loc 3 442 13
 1202 005c 0023     		movs	r3, #0
 1203 005e FA68     		ldr	r2, [r7, #12]
 1204 0060 7969     		ldr	r1, [r7, #20]
 1205 0062 FFF7FEFF 		bl	output_buffer
 443:g:/iot/IoT_Device_Demo/iot_link/network/lwm2m/wakaama_lwm2m/port\lwm2m_port.c ****             lwm2m_handle_packet(contextP, recv_buffer, numBytes, connP);
 1206              		.loc 3 443 13
 1207 0066 FB69     		ldr	r3, [r7, #28]
 1208 0068 FA68     		ldr	r2, [r7, #12]
 1209 006a 7969     		ldr	r1, [r7, #20]
 1210 006c B869     		ldr	r0, [r7, #24]
 1211 006e FFF7FEFF 		bl	lwm2m_handle_packet
 1212              	.L90:
 444:g:/iot/IoT_Device_Demo/iot_link/network/lwm2m/wakaama_lwm2m/port\lwm2m_port.c ****         }
 445:g:/iot/IoT_Device_Demo/iot_link/network/lwm2m/wakaama_lwm2m/port\lwm2m_port.c **** 
 446:g:/iot/IoT_Device_Demo/iot_link/network/lwm2m/wakaama_lwm2m/port\lwm2m_port.c ****         connP = connP->next;
 1213              		.loc 3 446 15
 1214 0072 FB69     		ldr	r3, [r7, #28]
 1215 0074 1B68     		ldr	r3, [r3]
 1216 0076 FB61     		str	r3, [r7, #28]
 1217              	.L89:
 432:g:/iot/IoT_Device_Demo/iot_link/network/lwm2m/wakaama_lwm2m/port\lwm2m_port.c ****     {
 1218              		.loc 3 432 11
 1219 0078 FB69     		ldr	r3, [r7, #28]
 1220 007a 002B     		cmp	r3, #0
 1221 007c E0D1     		bne	.L91
 447:g:/iot/IoT_Device_Demo/iot_link/network/lwm2m/wakaama_lwm2m/port\lwm2m_port.c ****     }
 448:g:/iot/IoT_Device_Demo/iot_link/network/lwm2m/wakaama_lwm2m/port\lwm2m_port.c **** 
 449:g:/iot/IoT_Device_Demo/iot_link/network/lwm2m/wakaama_lwm2m/port\lwm2m_port.c ****     return (int) LWM2M_OK;
 1222              		.loc 3 449 12
 1223 007e 0023     		movs	r3, #0
 1224              	.L88:
 450:g:/iot/IoT_Device_Demo/iot_link/network/lwm2m/wakaama_lwm2m/port\lwm2m_port.c **** }
 1225              		.loc 3 450 1
 1226 0080 1846     		mov	r0, r3
 1227 0082 2037     		adds	r7, r7, #32
 1228              	.LCFI62:
 1229              		.cfi_def_cfa_offset 8
 1230 0084 BD46     		mov	sp, r7
 1231              	.LCFI63:
 1232              		.cfi_def_cfa_register 13
 1233              		@ sp needed
 1234 0086 80BD     		pop	{r7, pc}
 1235              	.L93:
 1236              		.align	2
 1237              	.L92:
 1238 0088 00000000 		.word	_impure_ptr
 1239              		.cfi_endproc
 1240              	.LFE23:
 1242              		.section	.text.lwm2m_destroy,"ax",%progbits
 1243              		.align	1
 1244              		.global	lwm2m_destroy
 1245              		.syntax unified
 1246              		.thumb
ARM GAS  C:\Users\ADMINI~1\AppData\Local\Temp\ccEp9HN1.s 			page 39


 1247              		.thumb_func
 1248              		.fpu fpv4-sp-d16
 1250              	lwm2m_destroy:
 1251              	.LFB24:
 451:g:/iot/IoT_Device_Demo/iot_link/network/lwm2m/wakaama_lwm2m/port\lwm2m_port.c **** 
 452:g:/iot/IoT_Device_Demo/iot_link/network/lwm2m/wakaama_lwm2m/port\lwm2m_port.c **** int lwm2m_destroy(void *handle)
 453:g:/iot/IoT_Device_Demo/iot_link/network/lwm2m/wakaama_lwm2m/port\lwm2m_port.c **** {
 1252              		.loc 3 453 1
 1253              		.cfi_startproc
 1254              		@ args = 0, pretend = 0, frame = 16
 1255              		@ frame_needed = 1, uses_anonymous_args = 0
 1256 0000 80B5     		push	{r7, lr}
 1257              	.LCFI64:
 1258              		.cfi_def_cfa_offset 8
 1259              		.cfi_offset 7, -8
 1260              		.cfi_offset 14, -4
 1261 0002 84B0     		sub	sp, sp, #16
 1262              	.LCFI65:
 1263              		.cfi_def_cfa_offset 24
 1264 0004 00AF     		add	r7, sp, #0
 1265              	.LCFI66:
 1266              		.cfi_def_cfa_register 7
 1267 0006 7860     		str	r0, [r7, #4]
 454:g:/iot/IoT_Device_Demo/iot_link/network/lwm2m/wakaama_lwm2m/port\lwm2m_port.c ****     handle_data_t *handle_data = NULL;
 1268              		.loc 3 454 20
 1269 0008 0023     		movs	r3, #0
 1270 000a FB60     		str	r3, [r7, #12]
 455:g:/iot/IoT_Device_Demo/iot_link/network/lwm2m/wakaama_lwm2m/port\lwm2m_port.c **** 
 456:g:/iot/IoT_Device_Demo/iot_link/network/lwm2m/wakaama_lwm2m/port\lwm2m_port.c ****     if (NULL == handle)
 1271              		.loc 3 456 8
 1272 000c 7B68     		ldr	r3, [r7, #4]
 1273 000e 002B     		cmp	r3, #0
 1274 0010 02D1     		bne	.L95
 457:g:/iot/IoT_Device_Demo/iot_link/network/lwm2m/wakaama_lwm2m/port\lwm2m_port.c ****     {
 458:g:/iot/IoT_Device_Demo/iot_link/network/lwm2m/wakaama_lwm2m/port\lwm2m_port.c ****         return (int) LWM2M_ARG_INVALID;
 1275              		.loc 3 458 16
 1276 0012 4FF0FF33 		mov	r3, #-1
 1277 0016 30E0     		b	.L96
 1278              	.L95:
 459:g:/iot/IoT_Device_Demo/iot_link/network/lwm2m/wakaama_lwm2m/port\lwm2m_port.c ****     }
 460:g:/iot/IoT_Device_Demo/iot_link/network/lwm2m/wakaama_lwm2m/port\lwm2m_port.c **** 
 461:g:/iot/IoT_Device_Demo/iot_link/network/lwm2m/wakaama_lwm2m/port\lwm2m_port.c ****     handle_data = (handle_data_t *)handle;
 1279              		.loc 3 461 17
 1280 0018 7B68     		ldr	r3, [r7, #4]
 1281 001a FB60     		str	r3, [r7, #12]
 462:g:/iot/IoT_Device_Demo/iot_link/network/lwm2m/wakaama_lwm2m/port\lwm2m_port.c **** #ifdef CONFIG_FEATURE_FOTA
 463:g:/iot/IoT_Device_Demo/iot_link/network/lwm2m/wakaama_lwm2m/port\lwm2m_port.c ****     lwm2m_fota_manager_destroy(lwm2m_fota_manager_get_instance());
 464:g:/iot/IoT_Device_Demo/iot_link/network/lwm2m/wakaama_lwm2m/port\lwm2m_port.c **** #endif
 465:g:/iot/IoT_Device_Demo/iot_link/network/lwm2m/wakaama_lwm2m/port\lwm2m_port.c ****     lwm2m_destroy_rpt();
 1282              		.loc 3 465 5
 1283 001c FFF7FEFF 		bl	lwm2m_destroy_rpt
 466:g:/iot/IoT_Device_Demo/iot_link/network/lwm2m/wakaama_lwm2m/port\lwm2m_port.c **** 
 467:g:/iot/IoT_Device_Demo/iot_link/network/lwm2m/wakaama_lwm2m/port\lwm2m_port.c ****     if (NULL != handle_data->lwm2m_context)
 1284              		.loc 3 467 28
 1285 0020 FB68     		ldr	r3, [r7, #12]
 1286 0022 1B68     		ldr	r3, [r3]
 1287              		.loc 3 467 8
ARM GAS  C:\Users\ADMINI~1\AppData\Local\Temp\ccEp9HN1.s 			page 40


 1288 0024 002B     		cmp	r3, #0
 1289 0026 0AD0     		beq	.L97
 468:g:/iot/IoT_Device_Demo/iot_link/network/lwm2m/wakaama_lwm2m/port\lwm2m_port.c ****     {
 469:g:/iot/IoT_Device_Demo/iot_link/network/lwm2m/wakaama_lwm2m/port\lwm2m_port.c **** 
 470:g:/iot/IoT_Device_Demo/iot_link/network/lwm2m/wakaama_lwm2m/port\lwm2m_port.c **** #ifdef LWM2M_CLIENT_MODE
 471:g:/iot/IoT_Device_Demo/iot_link/network/lwm2m/wakaama_lwm2m/port\lwm2m_port.c ****         (void) osal_mutex_del(handle_data->lwm2m_context->observe_mutex);
 1290              		.loc 3 471 42
 1291 0028 FB68     		ldr	r3, [r7, #12]
 1292 002a 1B68     		ldr	r3, [r3]
 1293              		.loc 3 471 16
 1294 002c 1B6A     		ldr	r3, [r3, #32]
 1295 002e 1846     		mov	r0, r3
 1296 0030 FFF7FEFF 		bl	osal_mutex_del
 472:g:/iot/IoT_Device_Demo/iot_link/network/lwm2m/wakaama_lwm2m/port\lwm2m_port.c **** #endif
 473:g:/iot/IoT_Device_Demo/iot_link/network/lwm2m/wakaama_lwm2m/port\lwm2m_port.c **** 
 474:g:/iot/IoT_Device_Demo/iot_link/network/lwm2m/wakaama_lwm2m/port\lwm2m_port.c ****         lwm2m_close(handle_data->lwm2m_context);
 1297              		.loc 3 474 9
 1298 0034 FB68     		ldr	r3, [r7, #12]
 1299 0036 1B68     		ldr	r3, [r3]
 1300 0038 1846     		mov	r0, r3
 1301 003a FFF7FEFF 		bl	lwm2m_close
 1302              	.L97:
 475:g:/iot/IoT_Device_Demo/iot_link/network/lwm2m/wakaama_lwm2m/port\lwm2m_port.c ****     }
 476:g:/iot/IoT_Device_Demo/iot_link/network/lwm2m/wakaama_lwm2m/port\lwm2m_port.c **** 
 477:g:/iot/IoT_Device_Demo/iot_link/network/lwm2m/wakaama_lwm2m/port\lwm2m_port.c ****     (void) osal_semp_del(handle_data->quit_sem);
 1303              		.loc 3 477 12
 1304 003e FB68     		ldr	r3, [r7, #12]
 1305 0040 DB69     		ldr	r3, [r3, #28]
 1306 0042 1846     		mov	r0, r3
 1307 0044 FFF7FEFF 		bl	osal_semp_del
 478:g:/iot/IoT_Device_Demo/iot_link/network/lwm2m/wakaama_lwm2m/port\lwm2m_port.c ****     handle_data->quit_sem = cn_semp_invalid;
 1308              		.loc 3 478 27
 1309 0048 FB68     		ldr	r3, [r7, #12]
 1310 004a 4FF0FF32 		mov	r2, #-1
 1311 004e DA61     		str	r2, [r3, #28]
 479:g:/iot/IoT_Device_Demo/iot_link/network/lwm2m/wakaama_lwm2m/port\lwm2m_port.c **** 
 480:g:/iot/IoT_Device_Demo/iot_link/network/lwm2m/wakaama_lwm2m/port\lwm2m_port.c ****     /* release receive data buffer */
 481:g:/iot/IoT_Device_Demo/iot_link/network/lwm2m/wakaama_lwm2m/port\lwm2m_port.c ****     if (NULL != handle_data->recv_buffer)
 1312              		.loc 3 481 28
 1313 0050 FB68     		ldr	r3, [r7, #12]
 1314 0052 5B6A     		ldr	r3, [r3, #36]
 1315              		.loc 3 481 8
 1316 0054 002B     		cmp	r3, #0
 1317 0056 07D0     		beq	.L98
 482:g:/iot/IoT_Device_Demo/iot_link/network/lwm2m/wakaama_lwm2m/port\lwm2m_port.c ****     {
 483:g:/iot/IoT_Device_Demo/iot_link/network/lwm2m/wakaama_lwm2m/port\lwm2m_port.c ****         lwm2m_free(handle_data->recv_buffer);
 1318              		.loc 3 483 31
 1319 0058 FB68     		ldr	r3, [r7, #12]
 1320 005a 5B6A     		ldr	r3, [r3, #36]
 1321              		.loc 3 483 9
 1322 005c 1846     		mov	r0, r3
 1323 005e FFF7FEFF 		bl	lwm2m_free
 484:g:/iot/IoT_Device_Demo/iot_link/network/lwm2m/wakaama_lwm2m/port\lwm2m_port.c ****         handle_data->recv_buffer = NULL;
 1324              		.loc 3 484 34
 1325 0062 FB68     		ldr	r3, [r7, #12]
 1326 0064 0022     		movs	r2, #0
 1327 0066 5A62     		str	r2, [r3, #36]
ARM GAS  C:\Users\ADMINI~1\AppData\Local\Temp\ccEp9HN1.s 			page 41


 1328              	.L98:
 485:g:/iot/IoT_Device_Demo/iot_link/network/lwm2m/wakaama_lwm2m/port\lwm2m_port.c ****     }
 486:g:/iot/IoT_Device_Demo/iot_link/network/lwm2m/wakaama_lwm2m/port\lwm2m_port.c **** 
 487:g:/iot/IoT_Device_Demo/iot_link/network/lwm2m/wakaama_lwm2m/port\lwm2m_port.c ****     lwm2m_free(handle_data);
 1329              		.loc 3 487 5
 1330 0068 F868     		ldr	r0, [r7, #12]
 1331 006a FFF7FEFF 		bl	lwm2m_free
 488:g:/iot/IoT_Device_Demo/iot_link/network/lwm2m/wakaama_lwm2m/port\lwm2m_port.c ****     (void) osal_mutex_del(g_data_mutex);
 1332              		.loc 3 488 5
 1333 006e 054B     		ldr	r3, .L99
 1334 0070 1B68     		ldr	r3, [r3]
 1335              		.loc 3 488 12
 1336 0072 1846     		mov	r0, r3
 1337 0074 FFF7FEFF 		bl	osal_mutex_del
 489:g:/iot/IoT_Device_Demo/iot_link/network/lwm2m/wakaama_lwm2m/port\lwm2m_port.c ****     return (int) LWM2M_OK;
 1338              		.loc 3 489 12
 1339 0078 0023     		movs	r3, #0
 1340              	.L96:
 490:g:/iot/IoT_Device_Demo/iot_link/network/lwm2m/wakaama_lwm2m/port\lwm2m_port.c **** }
 1341              		.loc 3 490 1
 1342 007a 1846     		mov	r0, r3
 1343 007c 1037     		adds	r7, r7, #16
 1344              	.LCFI67:
 1345              		.cfi_def_cfa_offset 8
 1346 007e BD46     		mov	sp, r7
 1347              	.LCFI68:
 1348              		.cfi_def_cfa_register 13
 1349              		@ sp needed
 1350 0080 80BD     		pop	{r7, pc}
 1351              	.L100:
 1352 0082 00BF     		.align	2
 1353              	.L99:
 1354 0084 00000000 		.word	g_data_mutex
 1355              		.cfi_endproc
 1356              	.LFE24:
 1358              		.section	.text.reboot_check,"ax",%progbits
 1359              		.align	1
 1360              		.global	reboot_check
 1361              		.syntax unified
 1362              		.thumb
 1363              		.thumb_func
 1364              		.fpu fpv4-sp-d16
 1366              	reboot_check:
 1367              	.LFB25:
 491:g:/iot/IoT_Device_Demo/iot_link/network/lwm2m/wakaama_lwm2m/port\lwm2m_port.c **** 
 492:g:/iot/IoT_Device_Demo/iot_link/network/lwm2m/wakaama_lwm2m/port\lwm2m_port.c **** void reboot_check(void)
 493:g:/iot/IoT_Device_Demo/iot_link/network/lwm2m/wakaama_lwm2m/port\lwm2m_port.c **** {
 1368              		.loc 3 493 1
 1369              		.cfi_startproc
 1370              		@ args = 0, pretend = 0, frame = 0
 1371              		@ frame_needed = 1, uses_anonymous_args = 0
 1372 0000 80B5     		push	{r7, lr}
 1373              	.LCFI69:
 1374              		.cfi_def_cfa_offset 8
 1375              		.cfi_offset 7, -8
 1376              		.cfi_offset 14, -4
 1377 0002 00AF     		add	r7, sp, #0
ARM GAS  C:\Users\ADMINI~1\AppData\Local\Temp\ccEp9HN1.s 			page 42


 1378              	.LCFI70:
 1379              		.cfi_def_cfa_register 7
 494:g:/iot/IoT_Device_Demo/iot_link/network/lwm2m/wakaama_lwm2m/port\lwm2m_port.c ****     if (1 == g_reboot)
 1380              		.loc 3 494 11
 1381 0004 054B     		ldr	r3, .L104
 1382 0006 1B68     		ldr	r3, [r3]
 1383              		.loc 3 494 8
 1384 0008 012B     		cmp	r3, #1
 1385 000a 04D1     		bne	.L103
 495:g:/iot/IoT_Device_Demo/iot_link/network/lwm2m/wakaama_lwm2m/port\lwm2m_port.c ****     {
 496:g:/iot/IoT_Device_Demo/iot_link/network/lwm2m/wakaama_lwm2m/port\lwm2m_port.c ****         (void)lwm2m_cmd_ioctl(LWM2M_DO_DEV_REBOOT, NULL, 0);
 1386              		.loc 3 496 15
 1387 000c 0022     		movs	r2, #0
 1388 000e 0021     		movs	r1, #0
 1389 0010 0420     		movs	r0, #4
 1390 0012 FFF7FEFF 		bl	lwm2m_cmd_ioctl
 1391              	.L103:
 497:g:/iot/IoT_Device_Demo/iot_link/network/lwm2m/wakaama_lwm2m/port\lwm2m_port.c ****     }
 498:g:/iot/IoT_Device_Demo/iot_link/network/lwm2m/wakaama_lwm2m/port\lwm2m_port.c **** }
 1392              		.loc 3 498 1
 1393 0016 00BF     		nop
 1394 0018 80BD     		pop	{r7, pc}
 1395              	.L105:
 1396 001a 00BF     		.align	2
 1397              	.L104:
 1398 001c 00000000 		.word	g_reboot
 1399              		.cfi_endproc
 1400              	.LFE25:
 1402              		.section	.text.lwm2m_handle_reconnect,"ax",%progbits
 1403              		.align	1
 1404              		.syntax unified
 1405              		.thumb
 1406              		.thumb_func
 1407              		.fpu fpv4-sp-d16
 1409              	lwm2m_handle_reconnect:
 1410              	.LFB26:
 499:g:/iot/IoT_Device_Demo/iot_link/network/lwm2m/wakaama_lwm2m/port\lwm2m_port.c **** 
 500:g:/iot/IoT_Device_Demo/iot_link/network/lwm2m/wakaama_lwm2m/port\lwm2m_port.c **** static void lwm2m_handle_reconnect(handle_data_t *handle)
 501:g:/iot/IoT_Device_Demo/iot_link/network/lwm2m/wakaama_lwm2m/port\lwm2m_port.c **** {
 1411              		.loc 3 501 1
 1412              		.cfi_startproc
 1413              		@ args = 0, pretend = 0, frame = 8
 1414              		@ frame_needed = 1, uses_anonymous_args = 0
 1415 0000 80B5     		push	{r7, lr}
 1416              	.LCFI71:
 1417              		.cfi_def_cfa_offset 8
 1418              		.cfi_offset 7, -8
 1419              		.cfi_offset 14, -4
 1420 0002 82B0     		sub	sp, sp, #8
 1421              	.LCFI72:
 1422              		.cfi_def_cfa_offset 16
 1423 0004 00AF     		add	r7, sp, #0
 1424              	.LCFI73:
 1425              		.cfi_def_cfa_register 7
 1426 0006 7860     		str	r0, [r7, #4]
 502:g:/iot/IoT_Device_Demo/iot_link/network/lwm2m/wakaama_lwm2m/port\lwm2m_port.c ****     if ((NULL != handle) && handle->reconnect_flag)
 1427              		.loc 3 502 8
ARM GAS  C:\Users\ADMINI~1\AppData\Local\Temp\ccEp9HN1.s 			page 43


 1428 0008 7B68     		ldr	r3, [r7, #4]
 1429 000a 002B     		cmp	r3, #0
 1430 000c 0BD0     		beq	.L108
 1431              		.loc 3 502 35 discriminator 1
 1432 000e 7B68     		ldr	r3, [r7, #4]
 1433 0010 9B69     		ldr	r3, [r3, #24]
 1434              		.loc 3 502 26 discriminator 1
 1435 0012 002B     		cmp	r3, #0
 1436 0014 07D0     		beq	.L108
 503:g:/iot/IoT_Device_Demo/iot_link/network/lwm2m/wakaama_lwm2m/port\lwm2m_port.c ****     {
 504:g:/iot/IoT_Device_Demo/iot_link/network/lwm2m/wakaama_lwm2m/port\lwm2m_port.c ****         (void)lwm2m_reconnect(handle->lwm2m_context);
 1437              		.loc 3 504 15
 1438 0016 7B68     		ldr	r3, [r7, #4]
 1439 0018 1B68     		ldr	r3, [r3]
 1440 001a 1846     		mov	r0, r3
 1441 001c FFF7FEFF 		bl	lwm2m_reconnect
 505:g:/iot/IoT_Device_Demo/iot_link/network/lwm2m/wakaama_lwm2m/port\lwm2m_port.c ****         handle->reconnect_flag = false;
 1442              		.loc 3 505 32
 1443 0020 7B68     		ldr	r3, [r7, #4]
 1444 0022 0022     		movs	r2, #0
 1445 0024 9A61     		str	r2, [r3, #24]
 1446              	.L108:
 506:g:/iot/IoT_Device_Demo/iot_link/network/lwm2m/wakaama_lwm2m/port\lwm2m_port.c ****         ATINY_LOG(LOG_INFO, "lwm2m reconnect");
 507:g:/iot/IoT_Device_Demo/iot_link/network/lwm2m/wakaama_lwm2m/port\lwm2m_port.c ****     }
 508:g:/iot/IoT_Device_Demo/iot_link/network/lwm2m/wakaama_lwm2m/port\lwm2m_port.c **** }
 1447              		.loc 3 508 1
 1448 0026 00BF     		nop
 1449 0028 0837     		adds	r7, r7, #8
 1450              	.LCFI74:
 1451              		.cfi_def_cfa_offset 8
 1452 002a BD46     		mov	sp, r7
 1453              	.LCFI75:
 1454              		.cfi_def_cfa_register 13
 1455              		@ sp needed
 1456 002c 80BD     		pop	{r7, pc}
 1457              		.cfi_endproc
 1458              	.LFE26:
 1460              		.section	.text.lwm2m_wait_task,"ax",%progbits
 1461              		.align	1
 1462              		.global	lwm2m_wait_task
 1463              		.syntax unified
 1464              		.thumb
 1465              		.thumb_func
 1466              		.fpu fpv4-sp-d16
 1468              	lwm2m_wait_task:
 1469              	.LFB27:
 509:g:/iot/IoT_Device_Demo/iot_link/network/lwm2m/wakaama_lwm2m/port\lwm2m_port.c **** 
 510:g:/iot/IoT_Device_Demo/iot_link/network/lwm2m/wakaama_lwm2m/port\lwm2m_port.c **** void lwm2m_wait_task(void *phandle)
 511:g:/iot/IoT_Device_Demo/iot_link/network/lwm2m/wakaama_lwm2m/port\lwm2m_port.c **** {
 1470              		.loc 3 511 1
 1471              		.cfi_startproc
 1472              		@ args = 0, pretend = 0, frame = 16
 1473              		@ frame_needed = 1, uses_anonymous_args = 0
 1474 0000 80B5     		push	{r7, lr}
 1475              	.LCFI76:
 1476              		.cfi_def_cfa_offset 8
 1477              		.cfi_offset 7, -8
ARM GAS  C:\Users\ADMINI~1\AppData\Local\Temp\ccEp9HN1.s 			page 44


 1478              		.cfi_offset 14, -4
 1479 0002 84B0     		sub	sp, sp, #16
 1480              	.LCFI77:
 1481              		.cfi_def_cfa_offset 24
 1482 0004 00AF     		add	r7, sp, #0
 1483              	.LCFI78:
 1484              		.cfi_def_cfa_register 7
 1485 0006 7860     		str	r0, [r7, #4]
 512:g:/iot/IoT_Device_Demo/iot_link/network/lwm2m/wakaama_lwm2m/port\lwm2m_port.c ****     handle_data_t *handle;
 513:g:/iot/IoT_Device_Demo/iot_link/network/lwm2m/wakaama_lwm2m/port\lwm2m_port.c **** 
 514:g:/iot/IoT_Device_Demo/iot_link/network/lwm2m/wakaama_lwm2m/port\lwm2m_port.c ****     if (NULL == phandle)
 1486              		.loc 3 514 8
 1487 0008 7B68     		ldr	r3, [r7, #4]
 1488 000a 002B     		cmp	r3, #0
 1489 000c 0CD0     		beq	.L112
 515:g:/iot/IoT_Device_Demo/iot_link/network/lwm2m/wakaama_lwm2m/port\lwm2m_port.c ****     {
 516:g:/iot/IoT_Device_Demo/iot_link/network/lwm2m/wakaama_lwm2m/port\lwm2m_port.c ****         return;
 517:g:/iot/IoT_Device_Demo/iot_link/network/lwm2m/wakaama_lwm2m/port\lwm2m_port.c ****     }
 518:g:/iot/IoT_Device_Demo/iot_link/network/lwm2m/wakaama_lwm2m/port\lwm2m_port.c **** 
 519:g:/iot/IoT_Device_Demo/iot_link/network/lwm2m/wakaama_lwm2m/port\lwm2m_port.c ****     handle = (handle_data_t *)phandle;
 1490              		.loc 3 519 12
 1491 000e 7B68     		ldr	r3, [r7, #4]
 1492 0010 FB60     		str	r3, [r7, #12]
 520:g:/iot/IoT_Device_Demo/iot_link/network/lwm2m/wakaama_lwm2m/port\lwm2m_port.c ****     handle->lwm2m_quit = 1;
 1493              		.loc 3 520 24
 1494 0012 FB68     		ldr	r3, [r7, #12]
 1495 0014 0122     		movs	r2, #1
 1496 0016 5A61     		str	r2, [r3, #20]
 521:g:/iot/IoT_Device_Demo/iot_link/network/lwm2m/wakaama_lwm2m/port\lwm2m_port.c ****     osal_semp_pend(handle->quit_sem, cn_osal_timeout_forever);
 1497              		.loc 3 521 5
 1498 0018 FB68     		ldr	r3, [r7, #12]
 1499 001a DB69     		ldr	r3, [r3, #28]
 1500 001c 4FF0FF31 		mov	r1, #-1
 1501 0020 1846     		mov	r0, r3
 1502 0022 FFF7FEFF 		bl	osal_semp_pend
 1503 0026 00E0     		b	.L109
 1504              	.L112:
 516:g:/iot/IoT_Device_Demo/iot_link/network/lwm2m/wakaama_lwm2m/port\lwm2m_port.c ****     }
 1505              		.loc 3 516 9
 1506 0028 00BF     		nop
 1507              	.L109:
 522:g:/iot/IoT_Device_Demo/iot_link/network/lwm2m/wakaama_lwm2m/port\lwm2m_port.c **** }
 1508              		.loc 3 522 1
 1509 002a 1037     		adds	r7, r7, #16
 1510              	.LCFI79:
 1511              		.cfi_def_cfa_offset 8
 1512 002c BD46     		mov	sp, r7
 1513              	.LCFI80:
 1514              		.cfi_def_cfa_register 13
 1515              		@ sp needed
 1516 002e 80BD     		pop	{r7, pc}
 1517              		.cfi_endproc
 1518              	.LFE27:
 1520              		.section	.text.lwm2m_reconnect_ex,"ax",%progbits
 1521              		.align	1
 1522              		.global	lwm2m_reconnect_ex
 1523              		.syntax unified
ARM GAS  C:\Users\ADMINI~1\AppData\Local\Temp\ccEp9HN1.s 			page 45


 1524              		.thumb
 1525              		.thumb_func
 1526              		.fpu fpv4-sp-d16
 1528              	lwm2m_reconnect_ex:
 1529              	.LFB28:
 523:g:/iot/IoT_Device_Demo/iot_link/network/lwm2m/wakaama_lwm2m/port\lwm2m_port.c **** 
 524:g:/iot/IoT_Device_Demo/iot_link/network/lwm2m/wakaama_lwm2m/port\lwm2m_port.c **** int lwm2m_reconnect_ex(void *phandle)
 525:g:/iot/IoT_Device_Demo/iot_link/network/lwm2m/wakaama_lwm2m/port\lwm2m_port.c **** {
 1530              		.loc 3 525 1
 1531              		.cfi_startproc
 1532              		@ args = 0, pretend = 0, frame = 16
 1533              		@ frame_needed = 1, uses_anonymous_args = 0
 1534              		@ link register save eliminated.
 1535 0000 80B4     		push	{r7}
 1536              	.LCFI81:
 1537              		.cfi_def_cfa_offset 4
 1538              		.cfi_offset 7, -4
 1539 0002 85B0     		sub	sp, sp, #20
 1540              	.LCFI82:
 1541              		.cfi_def_cfa_offset 24
 1542 0004 00AF     		add	r7, sp, #0
 1543              	.LCFI83:
 1544              		.cfi_def_cfa_register 7
 1545 0006 7860     		str	r0, [r7, #4]
 526:g:/iot/IoT_Device_Demo/iot_link/network/lwm2m/wakaama_lwm2m/port\lwm2m_port.c ****     handle_data_t *handle = (handle_data_t *)phandle;
 1546              		.loc 3 526 20
 1547 0008 7B68     		ldr	r3, [r7, #4]
 1548 000a FB60     		str	r3, [r7, #12]
 527:g:/iot/IoT_Device_Demo/iot_link/network/lwm2m/wakaama_lwm2m/port\lwm2m_port.c **** 
 528:g:/iot/IoT_Device_Demo/iot_link/network/lwm2m/wakaama_lwm2m/port\lwm2m_port.c ****     if (NULL == phandle)
 1549              		.loc 3 528 8
 1550 000c 7B68     		ldr	r3, [r7, #4]
 1551 000e 002B     		cmp	r3, #0
 1552 0010 02D1     		bne	.L114
 529:g:/iot/IoT_Device_Demo/iot_link/network/lwm2m/wakaama_lwm2m/port\lwm2m_port.c ****     {
 530:g:/iot/IoT_Device_Demo/iot_link/network/lwm2m/wakaama_lwm2m/port\lwm2m_port.c ****         ATINY_LOG(LOG_FATAL, "Parameter null");
 531:g:/iot/IoT_Device_Demo/iot_link/network/lwm2m/wakaama_lwm2m/port\lwm2m_port.c ****         return (int) LWM2M_ARG_INVALID;
 1553              		.loc 3 531 16
 1554 0012 4FF0FF33 		mov	r3, #-1
 1555 0016 03E0     		b	.L115
 1556              	.L114:
 532:g:/iot/IoT_Device_Demo/iot_link/network/lwm2m/wakaama_lwm2m/port\lwm2m_port.c ****     }
 533:g:/iot/IoT_Device_Demo/iot_link/network/lwm2m/wakaama_lwm2m/port\lwm2m_port.c **** 
 534:g:/iot/IoT_Device_Demo/iot_link/network/lwm2m/wakaama_lwm2m/port\lwm2m_port.c ****     handle->reconnect_flag = true;
 1557              		.loc 3 534 28
 1558 0018 FB68     		ldr	r3, [r7, #12]
 1559 001a 0122     		movs	r2, #1
 1560 001c 9A61     		str	r2, [r3, #24]
 535:g:/iot/IoT_Device_Demo/iot_link/network/lwm2m/wakaama_lwm2m/port\lwm2m_port.c ****     return (int) LWM2M_OK;
 1561              		.loc 3 535 12
 1562 001e 0023     		movs	r3, #0
 1563              	.L115:
 536:g:/iot/IoT_Device_Demo/iot_link/network/lwm2m/wakaama_lwm2m/port\lwm2m_port.c **** }
 1564              		.loc 3 536 1
 1565 0020 1846     		mov	r0, r3
 1566 0022 1437     		adds	r7, r7, #20
 1567              	.LCFI84:
ARM GAS  C:\Users\ADMINI~1\AppData\Local\Temp\ccEp9HN1.s 			page 46


 1568              		.cfi_def_cfa_offset 4
 1569 0024 BD46     		mov	sp, r7
 1570              	.LCFI85:
 1571              		.cfi_def_cfa_register 13
 1572              		@ sp needed
 1573 0026 5DF8047B 		ldr	r7, [sp], #4
 1574              	.LCFI86:
 1575              		.cfi_restore 7
 1576              		.cfi_def_cfa_offset 0
 1577 002a 7047     		bx	lr
 1578              		.cfi_endproc
 1579              	.LFE28:
 1581              		.section	.text.lwm2m_set_reboot_flag,"ax",%progbits
 1582              		.align	1
 1583              		.global	lwm2m_set_reboot_flag
 1584              		.syntax unified
 1585              		.thumb
 1586              		.thumb_func
 1587              		.fpu fpv4-sp-d16
 1589              	lwm2m_set_reboot_flag:
 1590              	.LFB29:
 537:g:/iot/IoT_Device_Demo/iot_link/network/lwm2m/wakaama_lwm2m/port\lwm2m_port.c **** 
 538:g:/iot/IoT_Device_Demo/iot_link/network/lwm2m/wakaama_lwm2m/port\lwm2m_port.c **** void lwm2m_set_reboot_flag()
 539:g:/iot/IoT_Device_Demo/iot_link/network/lwm2m/wakaama_lwm2m/port\lwm2m_port.c **** {
 1591              		.loc 3 539 1
 1592              		.cfi_startproc
 1593              		@ args = 0, pretend = 0, frame = 0
 1594              		@ frame_needed = 1, uses_anonymous_args = 0
 1595              		@ link register save eliminated.
 1596 0000 80B4     		push	{r7}
 1597              	.LCFI87:
 1598              		.cfi_def_cfa_offset 4
 1599              		.cfi_offset 7, -4
 1600 0002 00AF     		add	r7, sp, #0
 1601              	.LCFI88:
 1602              		.cfi_def_cfa_register 7
 540:g:/iot/IoT_Device_Demo/iot_link/network/lwm2m/wakaama_lwm2m/port\lwm2m_port.c ****     g_reboot = true;
 1603              		.loc 3 540 14
 1604 0004 034B     		ldr	r3, .L117
 1605 0006 0122     		movs	r2, #1
 1606 0008 1A60     		str	r2, [r3]
 541:g:/iot/IoT_Device_Demo/iot_link/network/lwm2m/wakaama_lwm2m/port\lwm2m_port.c **** }
 1607              		.loc 3 541 1
 1608 000a 00BF     		nop
 1609 000c BD46     		mov	sp, r7
 1610              	.LCFI89:
 1611              		.cfi_def_cfa_register 13
 1612              		@ sp needed
 1613 000e 5DF8047B 		ldr	r7, [sp], #4
 1614              	.LCFI90:
 1615              		.cfi_restore 7
 1616              		.cfi_def_cfa_offset 0
 1617 0012 7047     		bx	lr
 1618              	.L118:
 1619              		.align	2
 1620              	.L117:
 1621 0014 00000000 		.word	g_reboot
ARM GAS  C:\Users\ADMINI~1\AppData\Local\Temp\ccEp9HN1.s 			page 47


 1622              		.cfi_endproc
 1623              	.LFE29:
 1625              		.section	.text.__lwm2m_task_entry,"ax",%progbits
 1626              		.align	1
 1627              		.global	__lwm2m_task_entry
 1628              		.syntax unified
 1629              		.thumb
 1630              		.thumb_func
 1631              		.fpu fpv4-sp-d16
 1633              	__lwm2m_task_entry:
 1634              	.LFB30:
 542:g:/iot/IoT_Device_Demo/iot_link/network/lwm2m/wakaama_lwm2m/port\lwm2m_port.c **** 
 543:g:/iot/IoT_Device_Demo/iot_link/network/lwm2m/wakaama_lwm2m/port\lwm2m_port.c **** int __lwm2m_task_entry(void *args)
 544:g:/iot/IoT_Device_Demo/iot_link/network/lwm2m/wakaama_lwm2m/port\lwm2m_port.c **** {
 1635              		.loc 3 544 1
 1636              		.cfi_startproc
 1637              		@ args = 0, pretend = 0, frame = 16
 1638              		@ frame_needed = 1, uses_anonymous_args = 0
 1639 0000 80B5     		push	{r7, lr}
 1640              	.LCFI91:
 1641              		.cfi_def_cfa_offset 8
 1642              		.cfi_offset 7, -8
 1643              		.cfi_offset 14, -4
 1644 0002 84B0     		sub	sp, sp, #16
 1645              	.LCFI92:
 1646              		.cfi_def_cfa_offset 24
 1647 0004 00AF     		add	r7, sp, #0
 1648              	.LCFI93:
 1649              		.cfi_def_cfa_register 7
 1650 0006 7860     		str	r0, [r7, #4]
 545:g:/iot/IoT_Device_Demo/iot_link/network/lwm2m/wakaama_lwm2m/port\lwm2m_port.c ****     uint32_t timeout;
 546:g:/iot/IoT_Device_Demo/iot_link/network/lwm2m/wakaama_lwm2m/port\lwm2m_port.c ****     static handle_data_t *hd = NULL;
 547:g:/iot/IoT_Device_Demo/iot_link/network/lwm2m/wakaama_lwm2m/port\lwm2m_port.c ****     if (NULL == args)
 1651              		.loc 3 547 8
 1652 0008 7B68     		ldr	r3, [r7, #4]
 1653 000a 002B     		cmp	r3, #0
 1654 000c 02D1     		bne	.L120
 548:g:/iot/IoT_Device_Demo/iot_link/network/lwm2m/wakaama_lwm2m/port\lwm2m_port.c ****     {
 549:g:/iot/IoT_Device_Demo/iot_link/network/lwm2m/wakaama_lwm2m/port\lwm2m_port.c ****         ATINY_LOG(LOG_ERR, "args is an invalid parameter!");
 550:g:/iot/IoT_Device_Demo/iot_link/network/lwm2m/wakaama_lwm2m/port\lwm2m_port.c ****         return (int) LWM2M_ARG_INVALID;
 1655              		.loc 3 550 16
 1656 000e 4FF0FF33 		mov	r3, #-1
 1657 0012 33E0     		b	.L125
 1658              	.L120:
 551:g:/iot/IoT_Device_Demo/iot_link/network/lwm2m/wakaama_lwm2m/port\lwm2m_port.c ****     }
 552:g:/iot/IoT_Device_Demo/iot_link/network/lwm2m/wakaama_lwm2m/port\lwm2m_port.c **** 
 553:g:/iot/IoT_Device_Demo/iot_link/network/lwm2m/wakaama_lwm2m/port\lwm2m_port.c ****     hd = (handle_data_t *)args;
 1659              		.loc 3 553 8
 1660 0014 1B4A     		ldr	r2, .L126
 1661 0016 7B68     		ldr	r3, [r7, #4]
 1662 0018 1360     		str	r3, [r2]
 554:g:/iot/IoT_Device_Demo/iot_link/network/lwm2m/wakaama_lwm2m/port\lwm2m_port.c ****     // (void) memcpy(&hd, args, sizeof(handle_data_t));
 555:g:/iot/IoT_Device_Demo/iot_link/network/lwm2m/wakaama_lwm2m/port\lwm2m_port.c **** 
 556:g:/iot/IoT_Device_Demo/iot_link/network/lwm2m/wakaama_lwm2m/port\lwm2m_port.c ****     while (!hd->lwm2m_quit)
 1663              		.loc 3 556 11
 1664 001a 23E0     		b	.L122
 1665              	.L124:
ARM GAS  C:\Users\ADMINI~1\AppData\Local\Temp\ccEp9HN1.s 			page 48


 557:g:/iot/IoT_Device_Demo/iot_link/network/lwm2m/wakaama_lwm2m/port\lwm2m_port.c ****     {
 558:g:/iot/IoT_Device_Demo/iot_link/network/lwm2m/wakaama_lwm2m/port\lwm2m_port.c ****         timeout = BIND_TIMEOUT;
 1666              		.loc 3 558 17
 1667 001c 0A23     		movs	r3, #10
 1668 001e FB60     		str	r3, [r7, #12]
 559:g:/iot/IoT_Device_Demo/iot_link/network/lwm2m/wakaama_lwm2m/port\lwm2m_port.c ****         (void)lwm2m_step_rpt(hd->lwm2m_context);
 1669              		.loc 3 559 32
 1670 0020 184B     		ldr	r3, .L126
 1671 0022 1B68     		ldr	r3, [r3]
 1672              		.loc 3 559 15
 1673 0024 1B68     		ldr	r3, [r3]
 1674 0026 1846     		mov	r0, r3
 1675 0028 FFF7FEFF 		bl	lwm2m_step_rpt
 560:g:/iot/IoT_Device_Demo/iot_link/network/lwm2m/wakaama_lwm2m/port\lwm2m_port.c ****         lwm2m_handle_reconnect(hd);
 1676              		.loc 3 560 9
 1677 002c 154B     		ldr	r3, .L126
 1678 002e 1B68     		ldr	r3, [r3]
 1679 0030 1846     		mov	r0, r3
 1680 0032 FFF7FEFF 		bl	lwm2m_handle_reconnect
 561:g:/iot/IoT_Device_Demo/iot_link/network/lwm2m/wakaama_lwm2m/port\lwm2m_port.c **** 
 562:g:/iot/IoT_Device_Demo/iot_link/network/lwm2m/wakaama_lwm2m/port\lwm2m_port.c ****         (void)lwm2m_step(hd->lwm2m_context, (time_t *)(uint32_t *)&timeout);
 1681              		.loc 3 562 28
 1682 0036 134B     		ldr	r3, .L126
 1683 0038 1B68     		ldr	r3, [r3]
 1684              		.loc 3 562 15
 1685 003a 1B68     		ldr	r3, [r3]
 1686 003c 07F10C02 		add	r2, r7, #12
 1687 0040 1146     		mov	r1, r2
 1688 0042 1846     		mov	r0, r3
 1689 0044 FFF7FEFF 		bl	lwm2m_step
 563:g:/iot/IoT_Device_Demo/iot_link/network/lwm2m/wakaama_lwm2m/port\lwm2m_port.c **** 
 564:g:/iot/IoT_Device_Demo/iot_link/network/lwm2m/wakaama_lwm2m/port\lwm2m_port.c ****         reboot_check();
 1690              		.loc 3 564 9
 1691 0048 FFF7FEFF 		bl	reboot_check
 565:g:/iot/IoT_Device_Demo/iot_link/network/lwm2m/wakaama_lwm2m/port\lwm2m_port.c **** 
 566:g:/iot/IoT_Device_Demo/iot_link/network/lwm2m/wakaama_lwm2m/port\lwm2m_port.c ****         if (0 == timeout)
 1692              		.loc 3 566 15
 1693 004c FB68     		ldr	r3, [r7, #12]
 1694              		.loc 3 566 12
 1695 004e 002B     		cmp	r3, #0
 1696 0050 01D1     		bne	.L123
 567:g:/iot/IoT_Device_Demo/iot_link/network/lwm2m/wakaama_lwm2m/port\lwm2m_port.c ****         {
 568:g:/iot/IoT_Device_Demo/iot_link/network/lwm2m/wakaama_lwm2m/port\lwm2m_port.c ****             timeout = 1;
 1697              		.loc 3 568 21
 1698 0052 0123     		movs	r3, #1
 1699 0054 FB60     		str	r3, [r7, #12]
 1700              	.L123:
 569:g:/iot/IoT_Device_Demo/iot_link/network/lwm2m/wakaama_lwm2m/port\lwm2m_port.c ****         }
 570:g:/iot/IoT_Device_Demo/iot_link/network/lwm2m/wakaama_lwm2m/port\lwm2m_port.c **** 
 571:g:/iot/IoT_Device_Demo/iot_link/network/lwm2m/wakaama_lwm2m/port\lwm2m_port.c ****         (void)lwm2m_poll(hd, timeout);
 1701              		.loc 3 571 9
 1702 0056 0B4B     		ldr	r3, .L126
 1703 0058 1B68     		ldr	r3, [r3]
 1704 005a FA68     		ldr	r2, [r7, #12]
 1705              		.loc 3 571 15
 1706 005c 1146     		mov	r1, r2
 1707 005e 1846     		mov	r0, r3
ARM GAS  C:\Users\ADMINI~1\AppData\Local\Temp\ccEp9HN1.s 			page 49


 1708 0060 FFF7FEFF 		bl	lwm2m_poll
 1709              	.L122:
 556:g:/iot/IoT_Device_Demo/iot_link/network/lwm2m/wakaama_lwm2m/port\lwm2m_port.c ****     {
 1710              		.loc 3 556 15
 1711 0064 074B     		ldr	r3, .L126
 1712 0066 1B68     		ldr	r3, [r3]
 1713 0068 5B69     		ldr	r3, [r3, #20]
 556:g:/iot/IoT_Device_Demo/iot_link/network/lwm2m/wakaama_lwm2m/port\lwm2m_port.c ****     {
 1714              		.loc 3 556 11
 1715 006a 002B     		cmp	r3, #0
 1716 006c D6D0     		beq	.L124
 572:g:/iot/IoT_Device_Demo/iot_link/network/lwm2m/wakaama_lwm2m/port\lwm2m_port.c ****     }
 573:g:/iot/IoT_Device_Demo/iot_link/network/lwm2m/wakaama_lwm2m/port\lwm2m_port.c **** 
 574:g:/iot/IoT_Device_Demo/iot_link/network/lwm2m/wakaama_lwm2m/port\lwm2m_port.c ****     /* notify task quit */
 575:g:/iot/IoT_Device_Demo/iot_link/network/lwm2m/wakaama_lwm2m/port\lwm2m_port.c ****     (void) osal_semp_post(hd->quit_sem);
 1717              		.loc 3 575 29
 1718 006e 054B     		ldr	r3, .L126
 1719 0070 1B68     		ldr	r3, [r3]
 1720              		.loc 3 575 12
 1721 0072 DB69     		ldr	r3, [r3, #28]
 1722 0074 1846     		mov	r0, r3
 1723 0076 FFF7FEFF 		bl	osal_semp_post
 576:g:/iot/IoT_Device_Demo/iot_link/network/lwm2m/wakaama_lwm2m/port\lwm2m_port.c ****     return (int) LWM2M_OK;
 1724              		.loc 3 576 12
 1725 007a 0023     		movs	r3, #0
 1726              	.L125:
 577:g:/iot/IoT_Device_Demo/iot_link/network/lwm2m/wakaama_lwm2m/port\lwm2m_port.c **** }
 1727              		.loc 3 577 1 discriminator 1
 1728 007c 1846     		mov	r0, r3
 1729 007e 1037     		adds	r7, r7, #16
 1730              	.LCFI94:
 1731              		.cfi_def_cfa_offset 8
 1732 0080 BD46     		mov	sp, r7
 1733              	.LCFI95:
 1734              		.cfi_def_cfa_register 13
 1735              		@ sp needed
 1736 0082 80BD     		pop	{r7, pc}
 1737              	.L127:
 1738              		.align	2
 1739              	.L126:
 1740 0084 00000000 		.word	hd.9264
 1741              		.cfi_endproc
 1742              	.LFE30:
 1744              		.section	.text.__config,"ax",%progbits
 1745              		.align	1
 1746              		.syntax unified
 1747              		.thumb
 1748              		.thumb_func
 1749              		.fpu fpv4-sp-d16
 1751              	__config:
 1752              	.LFB31:
 578:g:/iot/IoT_Device_Demo/iot_link/network/lwm2m/wakaama_lwm2m/port\lwm2m_port.c **** 
 579:g:/iot/IoT_Device_Demo/iot_link/network/lwm2m/wakaama_lwm2m/port\lwm2m_port.c **** static int __config(void **handle, lwm2m_al_init_param_t *init_param)
 580:g:/iot/IoT_Device_Demo/iot_link/network/lwm2m/wakaama_lwm2m/port\lwm2m_port.c **** {
 1753              		.loc 3 580 1
 1754              		.cfi_startproc
 1755              		@ args = 0, pretend = 0, frame = 24
ARM GAS  C:\Users\ADMINI~1\AppData\Local\Temp\ccEp9HN1.s 			page 50


 1756              		@ frame_needed = 1, uses_anonymous_args = 0
 1757 0000 80B5     		push	{r7, lr}
 1758              	.LCFI96:
 1759              		.cfi_def_cfa_offset 8
 1760              		.cfi_offset 7, -8
 1761              		.cfi_offset 14, -4
 1762 0002 86B0     		sub	sp, sp, #24
 1763              	.LCFI97:
 1764              		.cfi_def_cfa_offset 32
 1765 0004 00AF     		add	r7, sp, #0
 1766              	.LCFI98:
 1767              		.cfi_def_cfa_register 7
 1768 0006 7860     		str	r0, [r7, #4]
 1769 0008 3960     		str	r1, [r7]
 581:g:/iot/IoT_Device_Demo/iot_link/network/lwm2m/wakaama_lwm2m/port\lwm2m_port.c ****     int result = 0;
 1770              		.loc 3 581 9
 1771 000a 0023     		movs	r3, #0
 1772 000c 7B61     		str	r3, [r7, #20]
 582:g:/iot/IoT_Device_Demo/iot_link/network/lwm2m/wakaama_lwm2m/port\lwm2m_port.c ****     lwm2m_context_t  *lwm2m_context = NULL;
 1773              		.loc 3 582 23
 1774 000e 0023     		movs	r3, #0
 1775 0010 3B61     		str	r3, [r7, #16]
 583:g:/iot/IoT_Device_Demo/iot_link/network/lwm2m/wakaama_lwm2m/port\lwm2m_port.c ****     handle_data_t *hd = NULL;
 1776              		.loc 3 583 20
 1777 0012 0023     		movs	r3, #0
 1778 0014 FB60     		str	r3, [r7, #12]
 584:g:/iot/IoT_Device_Demo/iot_link/network/lwm2m/wakaama_lwm2m/port\lwm2m_port.c **** 
 585:g:/iot/IoT_Device_Demo/iot_link/network/lwm2m/wakaama_lwm2m/port\lwm2m_port.c ****     /* check input parameters */
 586:g:/iot/IoT_Device_Demo/iot_link/network/lwm2m/wakaama_lwm2m/port\lwm2m_port.c ****     if (NULL == handle)
 1779              		.loc 3 586 8
 1780 0016 7B68     		ldr	r3, [r7, #4]
 1781 0018 002B     		cmp	r3, #0
 1782 001a 02D1     		bne	.L129
 587:g:/iot/IoT_Device_Demo/iot_link/network/lwm2m/wakaama_lwm2m/port\lwm2m_port.c ****     {
 588:g:/iot/IoT_Device_Demo/iot_link/network/lwm2m/wakaama_lwm2m/port\lwm2m_port.c ****         ATINY_LOG(LOG_ERR, "handle is an invalid parameter!");
 589:g:/iot/IoT_Device_Demo/iot_link/network/lwm2m/wakaama_lwm2m/port\lwm2m_port.c ****         return (int) LWM2M_ARG_INVALID;
 1783              		.loc 3 589 16
 1784 001c 4FF0FF33 		mov	r3, #-1
 1785 0020 C8E0     		b	.L130
 1786              	.L129:
 590:g:/iot/IoT_Device_Demo/iot_link/network/lwm2m/wakaama_lwm2m/port\lwm2m_port.c ****     }
 591:g:/iot/IoT_Device_Demo/iot_link/network/lwm2m/wakaama_lwm2m/port\lwm2m_port.c **** 
 592:g:/iot/IoT_Device_Demo/iot_link/network/lwm2m/wakaama_lwm2m/port\lwm2m_port.c ****     if (NULL == init_param)
 1787              		.loc 3 592 8
 1788 0022 3B68     		ldr	r3, [r7]
 1789 0024 002B     		cmp	r3, #0
 1790 0026 02D1     		bne	.L131
 593:g:/iot/IoT_Device_Demo/iot_link/network/lwm2m/wakaama_lwm2m/port\lwm2m_port.c ****     {
 594:g:/iot/IoT_Device_Demo/iot_link/network/lwm2m/wakaama_lwm2m/port\lwm2m_port.c ****         ATINY_LOG(LOG_ERR, "init_param is an invalid parameter!");
 595:g:/iot/IoT_Device_Demo/iot_link/network/lwm2m/wakaama_lwm2m/port\lwm2m_port.c ****         return (int) LWM2M_ARG_INVALID;
 1791              		.loc 3 595 16
 1792 0028 4FF0FF33 		mov	r3, #-1
 1793 002c C2E0     		b	.L130
 1794              	.L131:
 596:g:/iot/IoT_Device_Demo/iot_link/network/lwm2m/wakaama_lwm2m/port\lwm2m_port.c ****     }
 597:g:/iot/IoT_Device_Demo/iot_link/network/lwm2m/wakaama_lwm2m/port\lwm2m_port.c **** 
 598:g:/iot/IoT_Device_Demo/iot_link/network/lwm2m/wakaama_lwm2m/port\lwm2m_port.c ****     /* check msg handle callback */
ARM GAS  C:\Users\ADMINI~1\AppData\Local\Temp\ccEp9HN1.s 			page 51


 599:g:/iot/IoT_Device_Demo/iot_link/network/lwm2m/wakaama_lwm2m/port\lwm2m_port.c ****     if (NULL == init_param->dealer)
 1795              		.loc 3 599 27
 1796 002e 3B68     		ldr	r3, [r7]
 1797 0030 5B68     		ldr	r3, [r3, #4]
 1798              		.loc 3 599 8
 1799 0032 002B     		cmp	r3, #0
 1800 0034 02D1     		bne	.L132
 600:g:/iot/IoT_Device_Demo/iot_link/network/lwm2m/wakaama_lwm2m/port\lwm2m_port.c ****     {
 601:g:/iot/IoT_Device_Demo/iot_link/network/lwm2m/wakaama_lwm2m/port\lwm2m_port.c ****         ATINY_LOG(LOG_ERR, "init_param->dealer is NULL!");
 602:g:/iot/IoT_Device_Demo/iot_link/network/lwm2m/wakaama_lwm2m/port\lwm2m_port.c ****         return (int) LWM2M_ARG_INVALID;
 1801              		.loc 3 602 16
 1802 0036 4FF0FF33 		mov	r3, #-1
 1803 003a BBE0     		b	.L130
 1804              	.L132:
 603:g:/iot/IoT_Device_Demo/iot_link/network/lwm2m/wakaama_lwm2m/port\lwm2m_port.c ****     }
 604:g:/iot/IoT_Device_Demo/iot_link/network/lwm2m/wakaama_lwm2m/port\lwm2m_port.c **** 
 605:g:/iot/IoT_Device_Demo/iot_link/network/lwm2m/wakaama_lwm2m/port\lwm2m_port.c ****     hd = lwm2m_malloc(sizeof(handle_data_t));
 1805              		.loc 3 605 10
 1806 003c 2C20     		movs	r0, #44
 1807 003e FFF7FEFF 		bl	lwm2m_malloc
 1808 0042 F860     		str	r0, [r7, #12]
 606:g:/iot/IoT_Device_Demo/iot_link/network/lwm2m/wakaama_lwm2m/port\lwm2m_port.c **** 
 607:g:/iot/IoT_Device_Demo/iot_link/network/lwm2m/wakaama_lwm2m/port\lwm2m_port.c ****     if (NULL == hd)
 1809              		.loc 3 607 8
 1810 0044 FB68     		ldr	r3, [r7, #12]
 1811 0046 002B     		cmp	r3, #0
 1812 0048 02D1     		bne	.L133
 608:g:/iot/IoT_Device_Demo/iot_link/network/lwm2m/wakaama_lwm2m/port\lwm2m_port.c ****     {
 609:g:/iot/IoT_Device_Demo/iot_link/network/lwm2m/wakaama_lwm2m/port\lwm2m_port.c ****         ATINY_LOG(LOG_FATAL, "memory not enough");
 610:g:/iot/IoT_Device_Demo/iot_link/network/lwm2m/wakaama_lwm2m/port\lwm2m_port.c ****         return LWM2M_MALLOC_FAILED;
 1813              		.loc 3 610 16
 1814 004a 6FF00303 		mvn	r3, #3
 1815 004e B1E0     		b	.L130
 1816              	.L133:
 611:g:/iot/IoT_Device_Demo/iot_link/network/lwm2m/wakaama_lwm2m/port\lwm2m_port.c ****     }
 612:g:/iot/IoT_Device_Demo/iot_link/network/lwm2m/wakaama_lwm2m/port\lwm2m_port.c **** 
 613:g:/iot/IoT_Device_Demo/iot_link/network/lwm2m/wakaama_lwm2m/port\lwm2m_port.c ****     result = lwm2m_init_rpt();
 1817              		.loc 3 613 14
 1818 0050 FFF7FEFF 		bl	lwm2m_init_rpt
 1819 0054 7861     		str	r0, [r7, #20]
 614:g:/iot/IoT_Device_Demo/iot_link/network/lwm2m/wakaama_lwm2m/port\lwm2m_port.c **** 
 615:g:/iot/IoT_Device_Demo/iot_link/network/lwm2m/wakaama_lwm2m/port\lwm2m_port.c ****     if ((int) LWM2M_OK != result)
 1820              		.loc 3 615 8
 1821 0056 7B69     		ldr	r3, [r7, #20]
 1822 0058 002B     		cmp	r3, #0
 1823 005a 01D0     		beq	.L134
 616:g:/iot/IoT_Device_Demo/iot_link/network/lwm2m/wakaama_lwm2m/port\lwm2m_port.c ****     {
 617:g:/iot/IoT_Device_Demo/iot_link/network/lwm2m/wakaama_lwm2m/port\lwm2m_port.c ****         ATINY_LOG(LOG_FATAL, "lwm2m_init_rpt fail,ret=%d", result);
 618:g:/iot/IoT_Device_Demo/iot_link/network/lwm2m/wakaama_lwm2m/port\lwm2m_port.c ****         return result;
 1824              		.loc 3 618 16
 1825 005c 7B69     		ldr	r3, [r7, #20]
 1826 005e A9E0     		b	.L130
 1827              	.L134:
 619:g:/iot/IoT_Device_Demo/iot_link/network/lwm2m/wakaama_lwm2m/port\lwm2m_port.c ****     }
 620:g:/iot/IoT_Device_Demo/iot_link/network/lwm2m/wakaama_lwm2m/port\lwm2m_port.c **** 
 621:g:/iot/IoT_Device_Demo/iot_link/network/lwm2m/wakaama_lwm2m/port\lwm2m_port.c ****     // g_cmd_func = init_param->dealer;
 622:g:/iot/IoT_Device_Demo/iot_link/network/lwm2m/wakaama_lwm2m/port\lwm2m_port.c ****     (void) lwm2m_cmd_register_dealer(init_param->dealer);
ARM GAS  C:\Users\ADMINI~1\AppData\Local\Temp\ccEp9HN1.s 			page 52


 1828              		.loc 3 622 12
 1829 0060 3B68     		ldr	r3, [r7]
 1830 0062 5B68     		ldr	r3, [r3, #4]
 1831 0064 1846     		mov	r0, r3
 1832 0066 FFF7FEFF 		bl	lwm2m_cmd_register_dealer
 623:g:/iot/IoT_Device_Demo/iot_link/network/lwm2m/wakaama_lwm2m/port\lwm2m_port.c ****     (void) memset(hd, 0, sizeof(handle_data_t));
 1833              		.loc 3 623 12
 1834 006a 2C22     		movs	r2, #44
 1835 006c 0021     		movs	r1, #0
 1836 006e F868     		ldr	r0, [r7, #12]
 1837 0070 FFF7FEFF 		bl	memset
 624:g:/iot/IoT_Device_Demo/iot_link/network/lwm2m/wakaama_lwm2m/port\lwm2m_port.c ****     lwm2m_context = lwm2m_init(&(hd->client_data));
 1838              		.loc 3 624 32
 1839 0074 FB68     		ldr	r3, [r7, #12]
 1840 0076 0433     		adds	r3, r3, #4
 1841              		.loc 3 624 21
 1842 0078 1846     		mov	r0, r3
 1843 007a FFF7FEFF 		bl	lwm2m_init
 1844 007e 3861     		str	r0, [r7, #16]
 625:g:/iot/IoT_Device_Demo/iot_link/network/lwm2m/wakaama_lwm2m/port\lwm2m_port.c **** 
 626:g:/iot/IoT_Device_Demo/iot_link/network/lwm2m/wakaama_lwm2m/port\lwm2m_port.c ****     if (NULL == lwm2m_context)
 1845              		.loc 3 626 8
 1846 0080 3B69     		ldr	r3, [r7, #16]
 1847 0082 002B     		cmp	r3, #0
 1848 0084 02D1     		bne	.L135
 627:g:/iot/IoT_Device_Demo/iot_link/network/lwm2m/wakaama_lwm2m/port\lwm2m_port.c ****     {
 628:g:/iot/IoT_Device_Demo/iot_link/network/lwm2m/wakaama_lwm2m/port\lwm2m_port.c ****         ATINY_LOG(LOG_ERR, "lwm2m_init fail");
 629:g:/iot/IoT_Device_Demo/iot_link/network/lwm2m/wakaama_lwm2m/port\lwm2m_port.c ****         return (int)LWM2M_MALLOC_FAILED;
 1849              		.loc 3 629 16
 1850 0086 6FF00303 		mvn	r3, #3
 1851 008a 93E0     		b	.L130
 1852              	.L135:
 630:g:/iot/IoT_Device_Demo/iot_link/network/lwm2m/wakaama_lwm2m/port\lwm2m_port.c ****     }
 631:g:/iot/IoT_Device_Demo/iot_link/network/lwm2m/wakaama_lwm2m/port\lwm2m_port.c **** 
 632:g:/iot/IoT_Device_Demo/iot_link/network/lwm2m/wakaama_lwm2m/port\lwm2m_port.c ****     lwm2m_set_bootstrap_sequence_state(init_param, lwm2m_context);
 1853              		.loc 3 632 5
 1854 008c 3969     		ldr	r1, [r7, #16]
 1855 008e 3868     		ldr	r0, [r7]
 1856 0090 FFF7FEFF 		bl	lwm2m_set_bootstrap_sequence_state
 633:g:/iot/IoT_Device_Demo/iot_link/network/lwm2m/wakaama_lwm2m/port\lwm2m_port.c ****     /* config parameters: endpoint name */
 634:g:/iot/IoT_Device_Demo/iot_link/network/lwm2m/wakaama_lwm2m/port\lwm2m_port.c ****     lwm2m_context->endpointName = lwm2m_strdup(init_param->endpoint_name);
 1857              		.loc 3 634 58
 1858 0094 3B68     		ldr	r3, [r7]
 1859 0096 1B68     		ldr	r3, [r3]
 1860              		.loc 3 634 35
 1861 0098 1846     		mov	r0, r3
 1862 009a FFF7FEFF 		bl	lwm2m_strdup
 1863 009e 0246     		mov	r2, r0
 1864              		.loc 3 634 33
 1865 00a0 3B69     		ldr	r3, [r7, #16]
 1866 00a2 5A60     		str	r2, [r3, #4]
 635:g:/iot/IoT_Device_Demo/iot_link/network/lwm2m/wakaama_lwm2m/port\lwm2m_port.c **** 
 636:g:/iot/IoT_Device_Demo/iot_link/network/lwm2m/wakaama_lwm2m/port\lwm2m_port.c ****     if (NULL == lwm2m_context->endpointName)
 1867              		.loc 3 636 30
 1868 00a4 3B69     		ldr	r3, [r7, #16]
 1869 00a6 5B68     		ldr	r3, [r3, #4]
 1870              		.loc 3 636 8
ARM GAS  C:\Users\ADMINI~1\AppData\Local\Temp\ccEp9HN1.s 			page 53


 1871 00a8 002B     		cmp	r3, #0
 1872 00aa 05D1     		bne	.L136
 637:g:/iot/IoT_Device_Demo/iot_link/network/lwm2m/wakaama_lwm2m/port\lwm2m_port.c ****     {
 638:g:/iot/IoT_Device_Demo/iot_link/network/lwm2m/wakaama_lwm2m/port\lwm2m_port.c ****         /* release memory of lwm2m_context */
 639:g:/iot/IoT_Device_Demo/iot_link/network/lwm2m/wakaama_lwm2m/port\lwm2m_port.c ****         lwm2m_free(lwm2m_context);
 1873              		.loc 3 639 9
 1874 00ac 3869     		ldr	r0, [r7, #16]
 1875 00ae FFF7FEFF 		bl	lwm2m_free
 640:g:/iot/IoT_Device_Demo/iot_link/network/lwm2m/wakaama_lwm2m/port\lwm2m_port.c ****         return (int)LWM2M_MALLOC_FAILED;
 1876              		.loc 3 640 16
 1877 00b2 6FF00303 		mvn	r3, #3
 1878 00b6 7DE0     		b	.L130
 1879              	.L136:
 641:g:/iot/IoT_Device_Demo/iot_link/network/lwm2m/wakaama_lwm2m/port\lwm2m_port.c ****     }
 642:g:/iot/IoT_Device_Demo/iot_link/network/lwm2m/wakaama_lwm2m/port\lwm2m_port.c **** 
 643:g:/iot/IoT_Device_Demo/iot_link/network/lwm2m/wakaama_lwm2m/port\lwm2m_port.c ****     lwm2m_context->msisdn = NULL;
 1880              		.loc 3 643 27
 1881 00b8 3B69     		ldr	r3, [r7, #16]
 1882 00ba 0022     		movs	r2, #0
 1883 00bc 9A60     		str	r2, [r3, #8]
 644:g:/iot/IoT_Device_Demo/iot_link/network/lwm2m/wakaama_lwm2m/port\lwm2m_port.c ****     lwm2m_context->altPath = NULL;
 1884              		.loc 3 644 28
 1885 00be 3B69     		ldr	r3, [r7, #16]
 1886 00c0 0022     		movs	r2, #0
 1887 00c2 DA60     		str	r2, [r3, #12]
 645:g:/iot/IoT_Device_Demo/iot_link/network/lwm2m/wakaama_lwm2m/port\lwm2m_port.c **** 
 646:g:/iot/IoT_Device_Demo/iot_link/network/lwm2m/wakaama_lwm2m/port\lwm2m_port.c ****     if (false == osal_mutex_create(&g_data_mutex))
 1888              		.loc 3 646 18
 1889 00c4 3D48     		ldr	r0, .L141
 1890 00c6 FFF7FEFF 		bl	osal_mutex_create
 1891 00ca 0346     		mov	r3, r0
 1892              		.loc 3 646 8
 1893 00cc 002B     		cmp	r3, #0
 1894 00ce 02D1     		bne	.L137
 647:g:/iot/IoT_Device_Demo/iot_link/network/lwm2m/wakaama_lwm2m/port\lwm2m_port.c ****     {
 648:g:/iot/IoT_Device_Demo/iot_link/network/lwm2m/wakaama_lwm2m/port\lwm2m_port.c ****         ATINY_LOG(LOG_ERR, "osal_mutex_create fail");
 649:g:/iot/IoT_Device_Demo/iot_link/network/lwm2m/wakaama_lwm2m/port\lwm2m_port.c ****         return (int)LWM2M_RESOURCE_NOT_ENOUGH;;
 1895              		.loc 3 649 16
 1896 00d0 6FF00503 		mvn	r3, #5
 1897 00d4 6EE0     		b	.L130
 1898              	.L137:
 650:g:/iot/IoT_Device_Demo/iot_link/network/lwm2m/wakaama_lwm2m/port\lwm2m_port.c ****     }
 651:g:/iot/IoT_Device_Demo/iot_link/network/lwm2m/wakaama_lwm2m/port\lwm2m_port.c **** 
 652:g:/iot/IoT_Device_Demo/iot_link/network/lwm2m/wakaama_lwm2m/port\lwm2m_port.c ****     if (false == osal_semp_create(&(hd->quit_sem), 1, 0))
 1899              		.loc 3 652 18
 1900 00d6 FB68     		ldr	r3, [r7, #12]
 1901 00d8 1C33     		adds	r3, r3, #28
 1902 00da 0022     		movs	r2, #0
 1903 00dc 0121     		movs	r1, #1
 1904 00de 1846     		mov	r0, r3
 1905 00e0 FFF7FEFF 		bl	osal_semp_create
 1906 00e4 0346     		mov	r3, r0
 1907              		.loc 3 652 8
 1908 00e6 002B     		cmp	r3, #0
 1909 00e8 0FD1     		bne	.L138
 653:g:/iot/IoT_Device_Demo/iot_link/network/lwm2m/wakaama_lwm2m/port\lwm2m_port.c ****     {
 654:g:/iot/IoT_Device_Demo/iot_link/network/lwm2m/wakaama_lwm2m/port\lwm2m_port.c ****         ATINY_LOG(LOG_FATAL, "osal_semp_create fail");
ARM GAS  C:\Users\ADMINI~1\AppData\Local\Temp\ccEp9HN1.s 			page 54


 655:g:/iot/IoT_Device_Demo/iot_link/network/lwm2m/wakaama_lwm2m/port\lwm2m_port.c ****         lwm2m_free(lwm2m_context->endpointName);
 1910              		.loc 3 655 33
 1911 00ea 3B69     		ldr	r3, [r7, #16]
 1912 00ec 5B68     		ldr	r3, [r3, #4]
 1913              		.loc 3 655 9
 1914 00ee 1846     		mov	r0, r3
 1915 00f0 FFF7FEFF 		bl	lwm2m_free
 656:g:/iot/IoT_Device_Demo/iot_link/network/lwm2m/wakaama_lwm2m/port\lwm2m_port.c ****         lwm2m_free(lwm2m_context);
 1916              		.loc 3 656 9
 1917 00f4 3869     		ldr	r0, [r7, #16]
 1918 00f6 FFF7FEFF 		bl	lwm2m_free
 657:g:/iot/IoT_Device_Demo/iot_link/network/lwm2m/wakaama_lwm2m/port\lwm2m_port.c ****         (void) osal_mutex_del(g_data_mutex);
 1919              		.loc 3 657 9
 1920 00fa 304B     		ldr	r3, .L141
 1921 00fc 1B68     		ldr	r3, [r3]
 1922              		.loc 3 657 16
 1923 00fe 1846     		mov	r0, r3
 1924 0100 FFF7FEFF 		bl	osal_mutex_del
 658:g:/iot/IoT_Device_Demo/iot_link/network/lwm2m/wakaama_lwm2m/port\lwm2m_port.c ****         return (int)LWM2M_RESOURCE_NOT_ENOUGH;
 1925              		.loc 3 658 16
 1926 0104 6FF00503 		mvn	r3, #5
 1927 0108 54E0     		b	.L130
 1928              	.L138:
 659:g:/iot/IoT_Device_Demo/iot_link/network/lwm2m/wakaama_lwm2m/port\lwm2m_port.c ****     }
 660:g:/iot/IoT_Device_Demo/iot_link/network/lwm2m/wakaama_lwm2m/port\lwm2m_port.c **** 
 661:g:/iot/IoT_Device_Demo/iot_link/network/lwm2m/wakaama_lwm2m/port\lwm2m_port.c ****     /* register callback */
 662:g:/iot/IoT_Device_Demo/iot_link/network/lwm2m/wakaama_lwm2m/port\lwm2m_port.c ****     lwm2m_register_observe_ack_call_back(observe_handle_ack);
 1929              		.loc 3 662 5
 1930 010a 2D48     		ldr	r0, .L141+4
 1931 010c FFF7FEFF 		bl	lwm2m_register_observe_ack_call_back
 663:g:/iot/IoT_Device_Demo/iot_link/network/lwm2m/wakaama_lwm2m/port\lwm2m_port.c ****     lwm2m_register_event_handler(lwm2m_event_handle);
 1932              		.loc 3 663 5
 1933 0110 2C48     		ldr	r0, .L141+8
 1934 0112 FFF7FEFF 		bl	lwm2m_register_event_handler
 664:g:/iot/IoT_Device_Demo/iot_link/network/lwm2m/wakaama_lwm2m/port\lwm2m_port.c ****     lwm2m_register_connection_err_notify(lwm2m_connection_err_notify);
 1935              		.loc 3 664 5
 1936 0116 2C48     		ldr	r0, .L141+12
 1937 0118 FFF7FEFF 		bl	lwm2m_register_connection_err_notify
 665:g:/iot/IoT_Device_Demo/iot_link/network/lwm2m/wakaama_lwm2m/port\lwm2m_port.c ****     hd->recv_buffer = (uint8_t *)lwm2m_malloc(MAX_PACKET_SIZE);
 1938              		.loc 3 665 34
 1939 011c 4FF48060 		mov	r0, #1024
 1940 0120 FFF7FEFF 		bl	lwm2m_malloc
 1941 0124 0246     		mov	r2, r0
 1942              		.loc 3 665 21
 1943 0126 FB68     		ldr	r3, [r7, #12]
 1944 0128 5A62     		str	r2, [r3, #36]
 666:g:/iot/IoT_Device_Demo/iot_link/network/lwm2m/wakaama_lwm2m/port\lwm2m_port.c **** 
 667:g:/iot/IoT_Device_Demo/iot_link/network/lwm2m/wakaama_lwm2m/port\lwm2m_port.c ****     if (NULL == hd->recv_buffer)
 1945              		.loc 3 667 19
 1946 012a FB68     		ldr	r3, [r7, #12]
 1947 012c 5B6A     		ldr	r3, [r3, #36]
 1948              		.loc 3 667 8
 1949 012e 002B     		cmp	r3, #0
 1950 0130 14D1     		bne	.L139
 668:g:/iot/IoT_Device_Demo/iot_link/network/lwm2m/wakaama_lwm2m/port\lwm2m_port.c ****     {
 669:g:/iot/IoT_Device_Demo/iot_link/network/lwm2m/wakaama_lwm2m/port\lwm2m_port.c ****         ATINY_LOG(LOG_FATAL, "memory not enough");
 670:g:/iot/IoT_Device_Demo/iot_link/network/lwm2m/wakaama_lwm2m/port\lwm2m_port.c ****         lwm2m_free(lwm2m_context->endpointName);
ARM GAS  C:\Users\ADMINI~1\AppData\Local\Temp\ccEp9HN1.s 			page 55


 1951              		.loc 3 670 33
 1952 0132 3B69     		ldr	r3, [r7, #16]
 1953 0134 5B68     		ldr	r3, [r3, #4]
 1954              		.loc 3 670 9
 1955 0136 1846     		mov	r0, r3
 1956 0138 FFF7FEFF 		bl	lwm2m_free
 671:g:/iot/IoT_Device_Demo/iot_link/network/lwm2m/wakaama_lwm2m/port\lwm2m_port.c ****         lwm2m_free(lwm2m_context);
 1957              		.loc 3 671 9
 1958 013c 3869     		ldr	r0, [r7, #16]
 1959 013e FFF7FEFF 		bl	lwm2m_free
 672:g:/iot/IoT_Device_Demo/iot_link/network/lwm2m/wakaama_lwm2m/port\lwm2m_port.c ****         (void) osal_mutex_del(g_data_mutex);
 1960              		.loc 3 672 9
 1961 0142 1E4B     		ldr	r3, .L141
 1962 0144 1B68     		ldr	r3, [r3]
 1963              		.loc 3 672 16
 1964 0146 1846     		mov	r0, r3
 1965 0148 FFF7FEFF 		bl	osal_mutex_del
 673:g:/iot/IoT_Device_Demo/iot_link/network/lwm2m/wakaama_lwm2m/port\lwm2m_port.c ****         (void) osal_semp_del(hd->quit_sem);
 1966              		.loc 3 673 16
 1967 014c FB68     		ldr	r3, [r7, #12]
 1968 014e DB69     		ldr	r3, [r3, #28]
 1969 0150 1846     		mov	r0, r3
 1970 0152 FFF7FEFF 		bl	osal_semp_del
 674:g:/iot/IoT_Device_Demo/iot_link/network/lwm2m/wakaama_lwm2m/port\lwm2m_port.c ****         return (int)LWM2M_MALLOC_FAILED;
 1971              		.loc 3 674 16
 1972 0156 6FF00303 		mvn	r3, #3
 1973 015a 2BE0     		b	.L130
 1974              	.L139:
 675:g:/iot/IoT_Device_Demo/iot_link/network/lwm2m/wakaama_lwm2m/port\lwm2m_port.c ****     }
 676:g:/iot/IoT_Device_Demo/iot_link/network/lwm2m/wakaama_lwm2m/port\lwm2m_port.c **** #ifdef LWM2M_CLIENT_MODE
 677:g:/iot/IoT_Device_Demo/iot_link/network/lwm2m/wakaama_lwm2m/port\lwm2m_port.c **** 
 678:g:/iot/IoT_Device_Demo/iot_link/network/lwm2m/wakaama_lwm2m/port\lwm2m_port.c ****     if(false == osal_mutex_create(&lwm2m_context->observe_mutex))
 1975              		.loc 3 678 35
 1976 015c 3B69     		ldr	r3, [r7, #16]
 1977 015e 2033     		adds	r3, r3, #32
 1978              		.loc 3 678 17
 1979 0160 1846     		mov	r0, r3
 1980 0162 FFF7FEFF 		bl	osal_mutex_create
 1981 0166 0346     		mov	r3, r0
 1982              		.loc 3 678 7
 1983 0168 002B     		cmp	r3, #0
 1984 016a 19D1     		bne	.L140
 679:g:/iot/IoT_Device_Demo/iot_link/network/lwm2m/wakaama_lwm2m/port\lwm2m_port.c ****     {
 680:g:/iot/IoT_Device_Demo/iot_link/network/lwm2m/wakaama_lwm2m/port\lwm2m_port.c ****         ATINY_LOG(LOG_FATAL, "memory not enough");
 681:g:/iot/IoT_Device_Demo/iot_link/network/lwm2m/wakaama_lwm2m/port\lwm2m_port.c ****         lwm2m_free(lwm2m_context->endpointName);
 1985              		.loc 3 681 33
 1986 016c 3B69     		ldr	r3, [r7, #16]
 1987 016e 5B68     		ldr	r3, [r3, #4]
 1988              		.loc 3 681 9
 1989 0170 1846     		mov	r0, r3
 1990 0172 FFF7FEFF 		bl	lwm2m_free
 682:g:/iot/IoT_Device_Demo/iot_link/network/lwm2m/wakaama_lwm2m/port\lwm2m_port.c ****         lwm2m_free(lwm2m_context);
 1991              		.loc 3 682 9
 1992 0176 3869     		ldr	r0, [r7, #16]
 1993 0178 FFF7FEFF 		bl	lwm2m_free
 683:g:/iot/IoT_Device_Demo/iot_link/network/lwm2m/wakaama_lwm2m/port\lwm2m_port.c ****         (void) osal_mutex_del(g_data_mutex);
 1994              		.loc 3 683 9
ARM GAS  C:\Users\ADMINI~1\AppData\Local\Temp\ccEp9HN1.s 			page 56


 1995 017c 0F4B     		ldr	r3, .L141
 1996 017e 1B68     		ldr	r3, [r3]
 1997              		.loc 3 683 16
 1998 0180 1846     		mov	r0, r3
 1999 0182 FFF7FEFF 		bl	osal_mutex_del
 684:g:/iot/IoT_Device_Demo/iot_link/network/lwm2m/wakaama_lwm2m/port\lwm2m_port.c ****         (void) osal_semp_del(hd->quit_sem);
 2000              		.loc 3 684 16
 2001 0186 FB68     		ldr	r3, [r7, #12]
 2002 0188 DB69     		ldr	r3, [r3, #28]
 2003 018a 1846     		mov	r0, r3
 2004 018c FFF7FEFF 		bl	osal_semp_del
 685:g:/iot/IoT_Device_Demo/iot_link/network/lwm2m/wakaama_lwm2m/port\lwm2m_port.c ****         osal_free(hd->recv_buffer);
 2005              		.loc 3 685 21
 2006 0190 FB68     		ldr	r3, [r7, #12]
 2007 0192 5B6A     		ldr	r3, [r3, #36]
 2008              		.loc 3 685 9
 2009 0194 1846     		mov	r0, r3
 2010 0196 FFF7FEFF 		bl	osal_free
 686:g:/iot/IoT_Device_Demo/iot_link/network/lwm2m/wakaama_lwm2m/port\lwm2m_port.c ****         return LWM2M_MALLOC_FAILED;
 2011              		.loc 3 686 16
 2012 019a 6FF00303 		mvn	r3, #3
 2013 019e 09E0     		b	.L130
 2014              	.L140:
 687:g:/iot/IoT_Device_Demo/iot_link/network/lwm2m/wakaama_lwm2m/port\lwm2m_port.c ****     }
 688:g:/iot/IoT_Device_Demo/iot_link/network/lwm2m/wakaama_lwm2m/port\lwm2m_port.c **** #endif
 689:g:/iot/IoT_Device_Demo/iot_link/network/lwm2m/wakaama_lwm2m/port\lwm2m_port.c **** 
 690:g:/iot/IoT_Device_Demo/iot_link/network/lwm2m/wakaama_lwm2m/port\lwm2m_port.c **** 
 691:g:/iot/IoT_Device_Demo/iot_link/network/lwm2m/wakaama_lwm2m/port\lwm2m_port.c **** #ifdef CONFIG_FEATURE_FOTA
 692:g:/iot/IoT_Device_Demo/iot_link/network/lwm2m/wakaama_lwm2m/port\lwm2m_port.c ****     result = lwm2m_fota_manager_set_storage_device(lwm2m_fota_manager_get_instance());
 693:g:/iot/IoT_Device_Demo/iot_link/network/lwm2m/wakaama_lwm2m/port\lwm2m_port.c **** 
 694:g:/iot/IoT_Device_Demo/iot_link/network/lwm2m/wakaama_lwm2m/port\lwm2m_port.c ****     if ((int) LWM2M_OK != result)
 695:g:/iot/IoT_Device_Demo/iot_link/network/lwm2m/wakaama_lwm2m/port\lwm2m_port.c ****     {
 696:g:/iot/IoT_Device_Demo/iot_link/network/lwm2m/wakaama_lwm2m/port\lwm2m_port.c ****         ATINY_LOG(LOG_FATAL, "lwm2m_fota_manager_set_storage_device() called fail");
 697:g:/iot/IoT_Device_Demo/iot_link/network/lwm2m/wakaama_lwm2m/port\lwm2m_port.c ****         lwm2m_free(lwm2m_context->endpointName);
 698:g:/iot/IoT_Device_Demo/iot_link/network/lwm2m/wakaama_lwm2m/port\lwm2m_port.c ****         lwm2m_free(lwm2m_context);
 699:g:/iot/IoT_Device_Demo/iot_link/network/lwm2m/wakaama_lwm2m/port\lwm2m_port.c ****         (void) osal_mutex_del(g_data_mutex);
 700:g:/iot/IoT_Device_Demo/iot_link/network/lwm2m/wakaama_lwm2m/port\lwm2m_port.c ****         (void) osal_semp_del(hd->quit_sem);
 701:g:/iot/IoT_Device_Demo/iot_link/network/lwm2m/wakaama_lwm2m/port\lwm2m_port.c ****         return result;
 702:g:/iot/IoT_Device_Demo/iot_link/network/lwm2m/wakaama_lwm2m/port\lwm2m_port.c ****     }
 703:g:/iot/IoT_Device_Demo/iot_link/network/lwm2m/wakaama_lwm2m/port\lwm2m_port.c **** 
 704:g:/iot/IoT_Device_Demo/iot_link/network/lwm2m/wakaama_lwm2m/port\lwm2m_port.c ****     (void)lwm2m_fota_manager_set_lwm2m_context(lwm2m_fota_manager_get_instance(), lwm2m_context);
 705:g:/iot/IoT_Device_Demo/iot_link/network/lwm2m/wakaama_lwm2m/port\lwm2m_port.c **** #endif
 706:g:/iot/IoT_Device_Demo/iot_link/network/lwm2m/wakaama_lwm2m/port\lwm2m_port.c **** 
 707:g:/iot/IoT_Device_Demo/iot_link/network/lwm2m/wakaama_lwm2m/port\lwm2m_port.c **** 
 708:g:/iot/IoT_Device_Demo/iot_link/network/lwm2m/wakaama_lwm2m/port\lwm2m_port.c **** 
 709:g:/iot/IoT_Device_Demo/iot_link/network/lwm2m/wakaama_lwm2m/port\lwm2m_port.c ****     hd->client_data.lwm2mH = lwm2m_context;
 2015              		.loc 3 709 28
 2016 01a0 FB68     		ldr	r3, [r7, #12]
 2017 01a2 3A69     		ldr	r2, [r7, #16]
 2018 01a4 1A61     		str	r2, [r3, #16]
 710:g:/iot/IoT_Device_Demo/iot_link/network/lwm2m/wakaama_lwm2m/port\lwm2m_port.c ****     hd->lwm2m_context = lwm2m_context;
 2019              		.loc 3 710 23
 2020 01a6 FB68     		ldr	r3, [r7, #12]
 2021 01a8 3A69     		ldr	r2, [r7, #16]
 2022 01aa 1A60     		str	r2, [r3]
 711:g:/iot/IoT_Device_Demo/iot_link/network/lwm2m/wakaama_lwm2m/port\lwm2m_port.c ****     *handle = hd;
 2023              		.loc 3 711 13
ARM GAS  C:\Users\ADMINI~1\AppData\Local\Temp\ccEp9HN1.s 			page 57


 2024 01ac 7B68     		ldr	r3, [r7, #4]
 2025 01ae FA68     		ldr	r2, [r7, #12]
 2026 01b0 1A60     		str	r2, [r3]
 712:g:/iot/IoT_Device_Demo/iot_link/network/lwm2m/wakaama_lwm2m/port\lwm2m_port.c ****     ATINY_LOG(LOG_INFO, "result %d", result);
 713:g:/iot/IoT_Device_Demo/iot_link/network/lwm2m/wakaama_lwm2m/port\lwm2m_port.c ****     return result;
 2027              		.loc 3 713 12
 2028 01b2 7B69     		ldr	r3, [r7, #20]
 2029              	.L130:
 714:g:/iot/IoT_Device_Demo/iot_link/network/lwm2m/wakaama_lwm2m/port\lwm2m_port.c **** }
 2030              		.loc 3 714 1
 2031 01b4 1846     		mov	r0, r3
 2032 01b6 1837     		adds	r7, r7, #24
 2033              	.LCFI99:
 2034              		.cfi_def_cfa_offset 8
 2035 01b8 BD46     		mov	sp, r7
 2036              	.LCFI100:
 2037              		.cfi_def_cfa_register 13
 2038              		@ sp needed
 2039 01ba 80BD     		pop	{r7, pc}
 2040              	.L142:
 2041              		.align	2
 2042              	.L141:
 2043 01bc 00000000 		.word	g_data_mutex
 2044 01c0 00000000 		.word	observe_handle_ack
 2045 01c4 00000000 		.word	lwm2m_event_handle
 2046 01c8 00000000 		.word	lwm2m_connection_err_notify
 2047              		.cfi_endproc
 2048              	.LFE31:
 2050              		.section	.text.__deconfig,"ax",%progbits
 2051              		.align	1
 2052              		.syntax unified
 2053              		.thumb
 2054              		.thumb_func
 2055              		.fpu fpv4-sp-d16
 2057              	__deconfig:
 2058              	.LFB32:
 715:g:/iot/IoT_Device_Demo/iot_link/network/lwm2m/wakaama_lwm2m/port\lwm2m_port.c **** 
 716:g:/iot/IoT_Device_Demo/iot_link/network/lwm2m/wakaama_lwm2m/port\lwm2m_port.c **** static int __deconfig(void *handle)
 717:g:/iot/IoT_Device_Demo/iot_link/network/lwm2m/wakaama_lwm2m/port\lwm2m_port.c **** {
 2059              		.loc 3 717 1
 2060              		.cfi_startproc
 2061              		@ args = 0, pretend = 0, frame = 16
 2062              		@ frame_needed = 1, uses_anonymous_args = 0
 2063 0000 80B5     		push	{r7, lr}
 2064              	.LCFI101:
 2065              		.cfi_def_cfa_offset 8
 2066              		.cfi_offset 7, -8
 2067              		.cfi_offset 14, -4
 2068 0002 84B0     		sub	sp, sp, #16
 2069              	.LCFI102:
 2070              		.cfi_def_cfa_offset 24
 2071 0004 00AF     		add	r7, sp, #0
 2072              	.LCFI103:
 2073              		.cfi_def_cfa_register 7
 2074 0006 7860     		str	r0, [r7, #4]
 718:g:/iot/IoT_Device_Demo/iot_link/network/lwm2m/wakaama_lwm2m/port\lwm2m_port.c ****     int ret = (int) LWM2M_ERR;
 2075              		.loc 3 718 9
ARM GAS  C:\Users\ADMINI~1\AppData\Local\Temp\ccEp9HN1.s 			page 58


 2076 0008 6FF00803 		mvn	r3, #8
 2077 000c FB60     		str	r3, [r7, #12]
 719:g:/iot/IoT_Device_Demo/iot_link/network/lwm2m/wakaama_lwm2m/port\lwm2m_port.c **** 
 720:g:/iot/IoT_Device_Demo/iot_link/network/lwm2m/wakaama_lwm2m/port\lwm2m_port.c ****     if (NULL == handle)
 2078              		.loc 3 720 8
 2079 000e 7B68     		ldr	r3, [r7, #4]
 2080 0010 002B     		cmp	r3, #0
 2081 0012 02D1     		bne	.L144
 721:g:/iot/IoT_Device_Demo/iot_link/network/lwm2m/wakaama_lwm2m/port\lwm2m_port.c ****     {
 722:g:/iot/IoT_Device_Demo/iot_link/network/lwm2m/wakaama_lwm2m/port\lwm2m_port.c ****         ATINY_LOG(LOG_ERR, "handle is an invalid parameter!");
 723:g:/iot/IoT_Device_Demo/iot_link/network/lwm2m/wakaama_lwm2m/port\lwm2m_port.c ****         return (int) LWM2M_ARG_INVALID;
 2082              		.loc 3 723 16
 2083 0014 4FF0FF33 		mov	r3, #-1
 2084 0018 0CE0     		b	.L145
 2085              	.L144:
 724:g:/iot/IoT_Device_Demo/iot_link/network/lwm2m/wakaama_lwm2m/port\lwm2m_port.c ****     }
 725:g:/iot/IoT_Device_Demo/iot_link/network/lwm2m/wakaama_lwm2m/port\lwm2m_port.c **** 
 726:g:/iot/IoT_Device_Demo/iot_link/network/lwm2m/wakaama_lwm2m/port\lwm2m_port.c ****     ret = __disconnect(handle);
 2086              		.loc 3 726 11
 2087 001a 7868     		ldr	r0, [r7, #4]
 2088 001c FFF7FEFF 		bl	__disconnect
 2089 0020 F860     		str	r0, [r7, #12]
 727:g:/iot/IoT_Device_Demo/iot_link/network/lwm2m/wakaama_lwm2m/port\lwm2m_port.c **** 
 728:g:/iot/IoT_Device_Demo/iot_link/network/lwm2m/wakaama_lwm2m/port\lwm2m_port.c ****     if ((int) LWM2M_OK != ret)
 2090              		.loc 3 728 8
 2091 0022 FB68     		ldr	r3, [r7, #12]
 2092 0024 002B     		cmp	r3, #0
 2093 0026 01D0     		beq	.L146
 729:g:/iot/IoT_Device_Demo/iot_link/network/lwm2m/wakaama_lwm2m/port\lwm2m_port.c ****     {
 730:g:/iot/IoT_Device_Demo/iot_link/network/lwm2m/wakaama_lwm2m/port\lwm2m_port.c ****         return ret;
 2094              		.loc 3 730 16
 2095 0028 FB68     		ldr	r3, [r7, #12]
 2096 002a 03E0     		b	.L145
 2097              	.L146:
 731:g:/iot/IoT_Device_Demo/iot_link/network/lwm2m/wakaama_lwm2m/port\lwm2m_port.c ****     }
 732:g:/iot/IoT_Device_Demo/iot_link/network/lwm2m/wakaama_lwm2m/port\lwm2m_port.c **** 
 733:g:/iot/IoT_Device_Demo/iot_link/network/lwm2m/wakaama_lwm2m/port\lwm2m_port.c ****     return lwm2m_destroy(handle);
 2098              		.loc 3 733 12
 2099 002c 7868     		ldr	r0, [r7, #4]
 2100 002e FFF7FEFF 		bl	lwm2m_destroy
 2101 0032 0346     		mov	r3, r0
 2102              	.L145:
 734:g:/iot/IoT_Device_Demo/iot_link/network/lwm2m/wakaama_lwm2m/port\lwm2m_port.c **** }
 2103              		.loc 3 734 1
 2104 0034 1846     		mov	r0, r3
 2105 0036 1037     		adds	r7, r7, #16
 2106              	.LCFI104:
 2107              		.cfi_def_cfa_offset 8
 2108 0038 BD46     		mov	sp, r7
 2109              	.LCFI105:
 2110              		.cfi_def_cfa_register 13
 2111              		@ sp needed
 2112 003a 80BD     		pop	{r7, pc}
 2113              		.cfi_endproc
 2114              	.LFE32:
 2116              		.section	.rodata
 2117 002f 00       		.align	2
ARM GAS  C:\Users\ADMINI~1\AppData\Local\Temp\ccEp9HN1.s 			page 59


 2118              	.LC2:
 2119 0030 5B25735D 		.ascii	"[%s][%u][%s:%d] [%d][%s:%d] ID: %d\015\012\015\012\000"
 2119      5B25755D 
 2119      5B25733A 
 2119      25645D20 
 2119      5B25645D 
 2120 0057 00       		.align	2
 2121              	.LC3:
 2122 0058 5B25735D 		.ascii	"[%s][%u][%s:%d] obj_ins_id: %d\012\015\012\000"
 2122      5B25755D 
 2122      5B25733A 
 2122      25645D20 
 2122      6F626A5F 
 2123 007a 0000     		.align	2
 2124              	.LC4:
 2125 007c 5B25735D 		.ascii	"[%s][%u][%s:%d] standard object_id %d only supports"
 2125      5B25755D 
 2125      5B25733A 
 2125      25645D20 
 2125      7374616E 
 2126 00af 2073696E 		.ascii	" single instance!\012\015\012\000"
 2126      676C6520 
 2126      696E7374 
 2126      616E6365 
 2126      210A0D0A 
 2127              		.align	2
 2128              	.LC5:
 2129 00c4 5B25735D 		.ascii	"[%s][%u][%s:%d] standard object_uri %d/%d/%d does n"
 2129      5B25755D 
 2129      5B25733A 
 2129      25645D20 
 2129      7374616E 
 2130 00f7 6F742061 		.ascii	"ot add resource!\012\015\012\000"
 2130      64642072 
 2130      65736F75 
 2130      72636521 
 2130      0A0D0A00 
 2131              		.section	.text.__add_object,"ax",%progbits
 2132              		.align	1
 2133              		.global	__add_object
 2134              		.syntax unified
 2135              		.thumb
 2136              		.thumb_func
 2137              		.fpu fpv4-sp-d16
 2139              	__add_object:
 2140              	.LFB33:
 735:g:/iot/IoT_Device_Demo/iot_link/network/lwm2m/wakaama_lwm2m/port\lwm2m_port.c **** 
 736:g:/iot/IoT_Device_Demo/iot_link/network/lwm2m/wakaama_lwm2m/port\lwm2m_port.c **** int __add_object(void *handle, int object_id, int object_instance_id, int resource_id, void *param)
 737:g:/iot/IoT_Device_Demo/iot_link/network/lwm2m/wakaama_lwm2m/port\lwm2m_port.c **** {
 2141              		.loc 3 737 1
 2142              		.cfi_startproc
 2143              		@ args = 4, pretend = 0, frame = 32
 2144              		@ frame_needed = 1, uses_anonymous_args = 0
 2145 0000 B0B5     		push	{r4, r5, r7, lr}
 2146              	.LCFI106:
 2147              		.cfi_def_cfa_offset 16
 2148              		.cfi_offset 4, -16
ARM GAS  C:\Users\ADMINI~1\AppData\Local\Temp\ccEp9HN1.s 			page 60


 2149              		.cfi_offset 5, -12
 2150              		.cfi_offset 7, -8
 2151              		.cfi_offset 14, -4
 2152 0002 8EB0     		sub	sp, sp, #56
 2153              	.LCFI107:
 2154              		.cfi_def_cfa_offset 72
 2155 0004 06AF     		add	r7, sp, #24
 2156              	.LCFI108:
 2157              		.cfi_def_cfa 7, 48
 2158 0006 F860     		str	r0, [r7, #12]
 2159 0008 B960     		str	r1, [r7, #8]
 2160 000a 7A60     		str	r2, [r7, #4]
 2161 000c 3B60     		str	r3, [r7]
 738:g:/iot/IoT_Device_Demo/iot_link/network/lwm2m/wakaama_lwm2m/port\lwm2m_port.c ****     lwm2m_object_t *obj = NULL;
 2162              		.loc 3 738 21
 2163 000e 0023     		movs	r3, #0
 2164 0010 FB61     		str	r3, [r7, #28]
 739:g:/iot/IoT_Device_Demo/iot_link/network/lwm2m/wakaama_lwm2m/port\lwm2m_port.c ****     lwm2m_list_t *obj_instance = NULL;
 2165              		.loc 3 739 19
 2166 0012 0023     		movs	r3, #0
 2167 0014 BB61     		str	r3, [r7, #24]
 740:g:/iot/IoT_Device_Demo/iot_link/network/lwm2m/wakaama_lwm2m/port\lwm2m_port.c ****     handle_data_t *hd = NULL;
 2168              		.loc 3 740 20
 2169 0016 0023     		movs	r3, #0
 2170 0018 3B61     		str	r3, [r7, #16]
 741:g:/iot/IoT_Device_Demo/iot_link/network/lwm2m/wakaama_lwm2m/port\lwm2m_port.c ****     int obj_ins_id = object_instance_id;
 2171              		.loc 3 741 9
 2172 001a 7B68     		ldr	r3, [r7, #4]
 2173 001c 7B61     		str	r3, [r7, #20]
 742:g:/iot/IoT_Device_Demo/iot_link/network/lwm2m/wakaama_lwm2m/port\lwm2m_port.c **** 
 743:g:/iot/IoT_Device_Demo/iot_link/network/lwm2m/wakaama_lwm2m/port\lwm2m_port.c ****     if (NULL == handle)
 2174              		.loc 3 743 8
 2175 001e FB68     		ldr	r3, [r7, #12]
 2176 0020 002B     		cmp	r3, #0
 2177 0022 02D1     		bne	.L148
 744:g:/iot/IoT_Device_Demo/iot_link/network/lwm2m/wakaama_lwm2m/port\lwm2m_port.c ****     {
 745:g:/iot/IoT_Device_Demo/iot_link/network/lwm2m/wakaama_lwm2m/port\lwm2m_port.c ****         ATINY_LOG(LOG_ERR, "handle is an invalid parameter!");
 746:g:/iot/IoT_Device_Demo/iot_link/network/lwm2m/wakaama_lwm2m/port\lwm2m_port.c ****         return (int) LWM2M_ARG_INVALID;
 2178              		.loc 3 746 16
 2179 0024 4FF0FF33 		mov	r3, #-1
 2180 0028 F4E0     		b	.L149
 2181              	.L148:
 747:g:/iot/IoT_Device_Demo/iot_link/network/lwm2m/wakaama_lwm2m/port\lwm2m_port.c ****     }
 748:g:/iot/IoT_Device_Demo/iot_link/network/lwm2m/wakaama_lwm2m/port\lwm2m_port.c **** 
 749:g:/iot/IoT_Device_Demo/iot_link/network/lwm2m/wakaama_lwm2m/port\lwm2m_port.c ****     hd = (handle_data_t *)handle;
 2182              		.loc 3 749 8
 2183 002a FB68     		ldr	r3, [r7, #12]
 2184 002c 3B61     		str	r3, [r7, #16]
 750:g:/iot/IoT_Device_Demo/iot_link/network/lwm2m/wakaama_lwm2m/port\lwm2m_port.c **** 
 751:g:/iot/IoT_Device_Demo/iot_link/network/lwm2m/wakaama_lwm2m/port\lwm2m_port.c ****     /* find object */
 752:g:/iot/IoT_Device_Demo/iot_link/network/lwm2m/wakaama_lwm2m/port\lwm2m_port.c ****     LOG_ARG("ID: %d", object_id);
 2185              		.loc 3 752 5
 2186 002e FFF7FEFF 		bl	link_log_level_get
 2187 0032 0346     		mov	r3, r0
 2188 0034 012B     		cmp	r3, #1
 2189 0036 1DD8     		bhi	.L150
 2190              		.loc 3 752 5 is_stmt 0 discriminator 1
ARM GAS  C:\Users\ADMINI~1\AppData\Local\Temp\ccEp9HN1.s 			page 61


 2191 0038 0120     		movs	r0, #1
 2192 003a FFF7FEFF 		bl	link_log_level_name
 2193 003e 0446     		mov	r4, r0
 2194 0040 FFF7FEFF 		bl	osal_sys_time
 2195 0044 0246     		mov	r2, r0
 2196 0046 0B46     		mov	r3, r1
 2197 0048 1546     		mov	r5, r2
 2198 004a FFF7FEFF 		bl	lwm2m_gettime
 2199 004e 0246     		mov	r2, r0
 2200 0050 0B46     		mov	r3, r1
 2201 0052 BB68     		ldr	r3, [r7, #8]
 2202 0054 0493     		str	r3, [sp, #16]
 2203 0056 4FF43C73 		mov	r3, #752
 2204 005a 0393     		str	r3, [sp, #12]
 2205 005c 6F4B     		ldr	r3, .L161
 2206 005e 0293     		str	r3, [sp, #8]
 2207 0060 0192     		str	r2, [sp, #4]
 2208 0062 4FF43C73 		mov	r3, #752
 2209 0066 0093     		str	r3, [sp]
 2210 0068 6D4B     		ldr	r3, .L161+4
 2211 006a 2A46     		mov	r2, r5
 2212 006c 2146     		mov	r1, r4
 2213 006e 6D48     		ldr	r0, .L161+8
 2214 0070 FFF7FEFF 		bl	printf
 2215              	.L150:
 753:g:/iot/IoT_Device_Demo/iot_link/network/lwm2m/wakaama_lwm2m/port\lwm2m_port.c **** 
 754:g:/iot/IoT_Device_Demo/iot_link/network/lwm2m/wakaama_lwm2m/port\lwm2m_port.c ****     obj = (lwm2m_object_t *)LWM2M_LIST_FIND(hd->lwm2m_context->objectList, object_id);
 2216              		.loc 3 754 29 is_stmt 1
 2217 0074 3B69     		ldr	r3, [r7, #16]
 2218 0076 1B68     		ldr	r3, [r3]
 2219 0078 9B69     		ldr	r3, [r3, #24]
 2220 007a BA68     		ldr	r2, [r7, #8]
 2221 007c 92B2     		uxth	r2, r2
 2222 007e 1146     		mov	r1, r2
 2223 0080 1846     		mov	r0, r3
 2224 0082 FFF7FEFF 		bl	lwm2m_list_find
 2225 0086 F861     		str	r0, [r7, #28]
 755:g:/iot/IoT_Device_Demo/iot_link/network/lwm2m/wakaama_lwm2m/port\lwm2m_port.c **** 
 756:g:/iot/IoT_Device_Demo/iot_link/network/lwm2m/wakaama_lwm2m/port\lwm2m_port.c ****     if (NULL == obj)
 2226              		.loc 3 756 8
 2227 0088 FB69     		ldr	r3, [r7, #28]
 2228 008a 002B     		cmp	r3, #0
 2229 008c 27D1     		bne	.L151
 757:g:/iot/IoT_Device_Demo/iot_link/network/lwm2m/wakaama_lwm2m/port\lwm2m_port.c ****     {
 758:g:/iot/IoT_Device_Demo/iot_link/network/lwm2m/wakaama_lwm2m/port\lwm2m_port.c ****         /* not found, create new one */
 759:g:/iot/IoT_Device_Demo/iot_link/network/lwm2m/wakaama_lwm2m/port\lwm2m_port.c ****         obj = (lwm2m_object_t *)lwm2m_malloc(sizeof(lwm2m_object_t));
 2230              		.loc 3 759 33
 2231 008e 2C20     		movs	r0, #44
 2232 0090 FFF7FEFF 		bl	lwm2m_malloc
 2233 0094 F861     		str	r0, [r7, #28]
 760:g:/iot/IoT_Device_Demo/iot_link/network/lwm2m/wakaama_lwm2m/port\lwm2m_port.c **** 
 761:g:/iot/IoT_Device_Demo/iot_link/network/lwm2m/wakaama_lwm2m/port\lwm2m_port.c ****         if (NULL == obj)
 2234              		.loc 3 761 12
 2235 0096 FB69     		ldr	r3, [r7, #28]
 2236 0098 002B     		cmp	r3, #0
 2237 009a 02D1     		bne	.L152
 762:g:/iot/IoT_Device_Demo/iot_link/network/lwm2m/wakaama_lwm2m/port\lwm2m_port.c ****         {
ARM GAS  C:\Users\ADMINI~1\AppData\Local\Temp\ccEp9HN1.s 			page 62


 763:g:/iot/IoT_Device_Demo/iot_link/network/lwm2m/wakaama_lwm2m/port\lwm2m_port.c ****             return LWM2M_MALLOC_FAILED;
 2238              		.loc 3 763 20
 2239 009c 6FF00303 		mvn	r3, #3
 2240 00a0 B8E0     		b	.L149
 2241              	.L152:
 764:g:/iot/IoT_Device_Demo/iot_link/network/lwm2m/wakaama_lwm2m/port\lwm2m_port.c ****         }
 765:g:/iot/IoT_Device_Demo/iot_link/network/lwm2m/wakaama_lwm2m/port\lwm2m_port.c **** 
 766:g:/iot/IoT_Device_Demo/iot_link/network/lwm2m/wakaama_lwm2m/port\lwm2m_port.c ****         (void) memset(obj, 0, sizeof(lwm2m_object_t));
 2242              		.loc 3 766 16
 2243 00a2 2C22     		movs	r2, #44
 2244 00a4 0021     		movs	r1, #0
 2245 00a6 F869     		ldr	r0, [r7, #28]
 2246 00a8 FFF7FEFF 		bl	memset
 767:g:/iot/IoT_Device_Demo/iot_link/network/lwm2m/wakaama_lwm2m/port\lwm2m_port.c **** 
 768:g:/iot/IoT_Device_Demo/iot_link/network/lwm2m/wakaama_lwm2m/port\lwm2m_port.c ****         /* set object id */
 769:g:/iot/IoT_Device_Demo/iot_link/network/lwm2m/wakaama_lwm2m/port\lwm2m_port.c ****         obj->objID = object_id;
 2247              		.loc 3 769 20
 2248 00ac BB68     		ldr	r3, [r7, #8]
 2249 00ae 9AB2     		uxth	r2, r3
 2250 00b0 FB69     		ldr	r3, [r7, #28]
 2251 00b2 9A80     		strh	r2, [r3, #4]	@ movhi
 770:g:/iot/IoT_Device_Demo/iot_link/network/lwm2m/wakaama_lwm2m/port\lwm2m_port.c **** 
 771:g:/iot/IoT_Device_Demo/iot_link/network/lwm2m/wakaama_lwm2m/port\lwm2m_port.c ****         /* object config */
 772:g:/iot/IoT_Device_Demo/iot_link/network/lwm2m/wakaama_lwm2m/port\lwm2m_port.c ****         config_object(obj, param);
 2252              		.loc 3 772 9
 2253 00b4 396B     		ldr	r1, [r7, #48]
 2254 00b6 F869     		ldr	r0, [r7, #28]
 2255 00b8 FFF7FEFF 		bl	config_object
 773:g:/iot/IoT_Device_Demo/iot_link/network/lwm2m/wakaama_lwm2m/port\lwm2m_port.c **** 
 774:g:/iot/IoT_Device_Demo/iot_link/network/lwm2m/wakaama_lwm2m/port\lwm2m_port.c ****         if (OBJ_SECURITY_ID == object_id)
 2256              		.loc 3 774 12
 2257 00bc BB68     		ldr	r3, [r7, #8]
 2258 00be 002B     		cmp	r3, #0
 2259 00c0 02D1     		bne	.L153
 775:g:/iot/IoT_Device_Demo/iot_link/network/lwm2m/wakaama_lwm2m/port\lwm2m_port.c ****         {
 776:g:/iot/IoT_Device_Demo/iot_link/network/lwm2m/wakaama_lwm2m/port\lwm2m_port.c ****             hd->client_data.securityObjP = obj;
 2260              		.loc 3 776 42
 2261 00c2 3B69     		ldr	r3, [r7, #16]
 2262 00c4 FA69     		ldr	r2, [r7, #28]
 2263 00c6 5A60     		str	r2, [r3, #4]
 2264              	.L153:
 777:g:/iot/IoT_Device_Demo/iot_link/network/lwm2m/wakaama_lwm2m/port\lwm2m_port.c ****         }
 778:g:/iot/IoT_Device_Demo/iot_link/network/lwm2m/wakaama_lwm2m/port\lwm2m_port.c **** 
 779:g:/iot/IoT_Device_Demo/iot_link/network/lwm2m/wakaama_lwm2m/port\lwm2m_port.c ****         /* add to list */
 780:g:/iot/IoT_Device_Demo/iot_link/network/lwm2m/wakaama_lwm2m/port\lwm2m_port.c ****         hd->lwm2m_context->objectList = (lwm2m_object_t *)LWM2M_LIST_ADD(hd->lwm2m_context->objectL
 2265              		.loc 3 780 59
 2266 00c8 3B69     		ldr	r3, [r7, #16]
 2267 00ca 1B68     		ldr	r3, [r3]
 2268 00cc 9A69     		ldr	r2, [r3, #24]
 2269              		.loc 3 780 11
 2270 00ce 3B69     		ldr	r3, [r7, #16]
 2271 00d0 1C68     		ldr	r4, [r3]
 2272              		.loc 3 780 59
 2273 00d2 F969     		ldr	r1, [r7, #28]
 2274 00d4 1046     		mov	r0, r2
 2275 00d6 FFF7FEFF 		bl	lwm2m_list_add
 2276 00da 0346     		mov	r3, r0
ARM GAS  C:\Users\ADMINI~1\AppData\Local\Temp\ccEp9HN1.s 			page 63


 2277              		.loc 3 780 39
 2278 00dc A361     		str	r3, [r4, #24]
 2279              	.L151:
 781:g:/iot/IoT_Device_Demo/iot_link/network/lwm2m/wakaama_lwm2m/port\lwm2m_port.c ****     }
 782:g:/iot/IoT_Device_Demo/iot_link/network/lwm2m/wakaama_lwm2m/port\lwm2m_port.c **** 
 783:g:/iot/IoT_Device_Demo/iot_link/network/lwm2m/wakaama_lwm2m/port\lwm2m_port.c ****     /* find object instance */
 784:g:/iot/IoT_Device_Demo/iot_link/network/lwm2m/wakaama_lwm2m/port\lwm2m_port.c ****     if (-1 == obj_ins_id)
 2280              		.loc 3 784 8
 2281 00de 7B69     		ldr	r3, [r7, #20]
 2282 00e0 B3F1FF3F 		cmp	r3, #-1
 2283 00e4 1DD1     		bne	.L154
 785:g:/iot/IoT_Device_Demo/iot_link/network/lwm2m/wakaama_lwm2m/port\lwm2m_port.c ****     {
