ARM GAS  C:\Users\ADMINI~1\AppData\Local\Temp\ccQvcA20.s 			page 1


   1              		.cpu cortex-m4
   2              		.eabi_attribute 27, 1
   3              		.eabi_attribute 28, 1
   4              		.eabi_attribute 20, 1
   5              		.eabi_attribute 21, 1
   6              		.eabi_attribute 23, 3
   7              		.eabi_attribute 24, 1
   8              		.eabi_attribute 25, 1
   9              		.eabi_attribute 26, 1
  10              		.eabi_attribute 30, 6
  11              		.eabi_attribute 34, 1
  12              		.eabi_attribute 18, 4
  13              		.file	"object_access_control.c"
  14              		.text
  15              	.Ltext0:
  16              		.cfi_sections	.debug_frame
  17              		.section	.text.prv_set_tlv,"ax",%progbits
  18              		.align	1
  19              		.arch armv7e-m
  20              		.syntax unified
  21              		.thumb
  22              		.thumb_func
  23              		.fpu fpv4-sp-d16
  25              	prv_set_tlv:
  26              	.LFB12:
  27              		.file 1 "g:/iot/IoT_Device_Demo/iot_link/network/lwm2m/wakaama_lwm2m/port/object_access_control.c"
   1:g:/iot/IoT_Device_Demo/iot_link/network/lwm2m/wakaama_lwm2m/port\object_access_control.c **** /*----------------------------------------------------------------------------
   2:g:/iot/IoT_Device_Demo/iot_link/network/lwm2m/wakaama_lwm2m/port\object_access_control.c ****  * Copyright (c) <2016-2018>, <Huawei Technologies Co., Ltd>
   3:g:/iot/IoT_Device_Demo/iot_link/network/lwm2m/wakaama_lwm2m/port\object_access_control.c ****  * All rights reserved.
   4:g:/iot/IoT_Device_Demo/iot_link/network/lwm2m/wakaama_lwm2m/port\object_access_control.c ****  * Redistribution and use in source and binary forms, with or without modification,
   5:g:/iot/IoT_Device_Demo/iot_link/network/lwm2m/wakaama_lwm2m/port\object_access_control.c ****  * are permitted provided that the following conditions are met:
   6:g:/iot/IoT_Device_Demo/iot_link/network/lwm2m/wakaama_lwm2m/port\object_access_control.c ****  * 1. Redistributions of source code must retain the above copyright notice, this list of
   7:g:/iot/IoT_Device_Demo/iot_link/network/lwm2m/wakaama_lwm2m/port\object_access_control.c ****  * conditions and the following disclaimer.
   8:g:/iot/IoT_Device_Demo/iot_link/network/lwm2m/wakaama_lwm2m/port\object_access_control.c ****  * 2. Redistributions in binary form must reproduce the above copyright notice, this list
   9:g:/iot/IoT_Device_Demo/iot_link/network/lwm2m/wakaama_lwm2m/port\object_access_control.c ****  * of conditions and the following disclaimer in the documentation and/or other materials
  10:g:/iot/IoT_Device_Demo/iot_link/network/lwm2m/wakaama_lwm2m/port\object_access_control.c ****  * provided with the distribution.
  11:g:/iot/IoT_Device_Demo/iot_link/network/lwm2m/wakaama_lwm2m/port\object_access_control.c ****  * 3. Neither the name of the copyright holder nor the names of its contributors may be used
  12:g:/iot/IoT_Device_Demo/iot_link/network/lwm2m/wakaama_lwm2m/port\object_access_control.c ****  * to endorse or promote products derived from this software without specific prior written
  13:g:/iot/IoT_Device_Demo/iot_link/network/lwm2m/wakaama_lwm2m/port\object_access_control.c ****  * permission.
  14:g:/iot/IoT_Device_Demo/iot_link/network/lwm2m/wakaama_lwm2m/port\object_access_control.c ****  * THIS SOFTWARE IS PROVIDED BY THE COPYRIGHT HOLDERS AND CONTRIBUTORS
  15:g:/iot/IoT_Device_Demo/iot_link/network/lwm2m/wakaama_lwm2m/port\object_access_control.c ****  * "AS IS" AND ANY EXPRESS OR IMPLIED WARRANTIES, INCLUDING, BUT NOT LIMITED TO,
  16:g:/iot/IoT_Device_Demo/iot_link/network/lwm2m/wakaama_lwm2m/port\object_access_control.c ****  * THE IMPLIED WARRANTIES OF MERCHANTABILITY AND FITNESS FOR A PARTICULAR
  17:g:/iot/IoT_Device_Demo/iot_link/network/lwm2m/wakaama_lwm2m/port\object_access_control.c ****  * PURPOSE ARE DISCLAIMED. IN NO EVENT SHALL THE COPYRIGHT HOLDER OR
  18:g:/iot/IoT_Device_Demo/iot_link/network/lwm2m/wakaama_lwm2m/port\object_access_control.c ****  * CONTRIBUTORS BE LIABLE FOR ANY DIRECT, INDIRECT, INCIDENTAL, SPECIAL,
  19:g:/iot/IoT_Device_Demo/iot_link/network/lwm2m/wakaama_lwm2m/port\object_access_control.c ****  * EXEMPLARY, OR CONSEQUENTIAL DAMAGES (INCLUDING, BUT NOT LIMITED TO,
  20:g:/iot/IoT_Device_Demo/iot_link/network/lwm2m/wakaama_lwm2m/port\object_access_control.c ****  * PROCUREMENT OF SUBSTITUTE GOODS OR SERVICES; LOSS OF USE, DATA, OR PROFITS;
  21:g:/iot/IoT_Device_Demo/iot_link/network/lwm2m/wakaama_lwm2m/port\object_access_control.c ****  * OR BUSINESS INTERRUPTION) HOWEVER CAUSED AND ON ANY THEORY OF LIABILITY,
  22:g:/iot/IoT_Device_Demo/iot_link/network/lwm2m/wakaama_lwm2m/port\object_access_control.c ****  * WHETHER IN CONTRACT, STRICT LIABILITY, OR TORT (INCLUDING NEGLIGENCE OR
  23:g:/iot/IoT_Device_Demo/iot_link/network/lwm2m/wakaama_lwm2m/port\object_access_control.c ****  * OTHERWISE) ARISING IN ANY WAY OUT OF THE USE OF THIS SOFTWARE, EVEN IF
  24:g:/iot/IoT_Device_Demo/iot_link/network/lwm2m/wakaama_lwm2m/port\object_access_control.c ****  * ADVISED OF THE POSSIBILITY OF SUCH DAMAGE.
  25:g:/iot/IoT_Device_Demo/iot_link/network/lwm2m/wakaama_lwm2m/port\object_access_control.c ****  *---------------------------------------------------------------------------*/
  26:g:/iot/IoT_Device_Demo/iot_link/network/lwm2m/wakaama_lwm2m/port\object_access_control.c **** /*----------------------------------------------------------------------------
  27:g:/iot/IoT_Device_Demo/iot_link/network/lwm2m/wakaama_lwm2m/port\object_access_control.c ****  * Notice of Export Control Law
  28:g:/iot/IoT_Device_Demo/iot_link/network/lwm2m/wakaama_lwm2m/port\object_access_control.c ****  * ===============================================
  29:g:/iot/IoT_Device_Demo/iot_link/network/lwm2m/wakaama_lwm2m/port\object_access_control.c ****  * Huawei LiteOS may be subject to applicable export control laws and regulations, which might
  30:g:/iot/IoT_Device_Demo/iot_link/network/lwm2m/wakaama_lwm2m/port\object_access_control.c ****  * include those applicable to Huawei LiteOS of U.S. and the country in which you are located.
  31:g:/iot/IoT_Device_Demo/iot_link/network/lwm2m/wakaama_lwm2m/port\object_access_control.c ****  * Import, export and usage of Huawei LiteOS in any manner by you shall be in compliance with such
ARM GAS  C:\Users\ADMINI~1\AppData\Local\Temp\ccQvcA20.s 			page 2


  32:g:/iot/IoT_Device_Demo/iot_link/network/lwm2m/wakaama_lwm2m/port\object_access_control.c ****  * applicable export control laws and regulations.
  33:g:/iot/IoT_Device_Demo/iot_link/network/lwm2m/wakaama_lwm2m/port\object_access_control.c ****  *---------------------------------------------------------------------------*/
  34:g:/iot/IoT_Device_Demo/iot_link/network/lwm2m/wakaama_lwm2m/port\object_access_control.c **** 
  35:g:/iot/IoT_Device_Demo/iot_link/network/lwm2m/wakaama_lwm2m/port\object_access_control.c **** /*******************************************************************************
  36:g:/iot/IoT_Device_Demo/iot_link/network/lwm2m/wakaama_lwm2m/port\object_access_control.c ****  *
  37:g:/iot/IoT_Device_Demo/iot_link/network/lwm2m/wakaama_lwm2m/port\object_access_control.c ****  * Copyright (c) 2015 Bosch Software Innovations GmbH Germany.
  38:g:/iot/IoT_Device_Demo/iot_link/network/lwm2m/wakaama_lwm2m/port\object_access_control.c ****  * All rights reserved. This program and the accompanying materials
  39:g:/iot/IoT_Device_Demo/iot_link/network/lwm2m/wakaama_lwm2m/port\object_access_control.c ****  * are made available under the terms of the Eclipse Public License v1.0
  40:g:/iot/IoT_Device_Demo/iot_link/network/lwm2m/wakaama_lwm2m/port\object_access_control.c ****  * and Eclipse Distribution License v1.0 which accompany this distribution.
  41:g:/iot/IoT_Device_Demo/iot_link/network/lwm2m/wakaama_lwm2m/port\object_access_control.c ****  *
  42:g:/iot/IoT_Device_Demo/iot_link/network/lwm2m/wakaama_lwm2m/port\object_access_control.c ****  * The Eclipse Public License is available at
  43:g:/iot/IoT_Device_Demo/iot_link/network/lwm2m/wakaama_lwm2m/port\object_access_control.c ****  *    http://www.eclipse.org/legal/epl-v10.html
  44:g:/iot/IoT_Device_Demo/iot_link/network/lwm2m/wakaama_lwm2m/port\object_access_control.c ****  * The Eclipse Distribution License is available at
  45:g:/iot/IoT_Device_Demo/iot_link/network/lwm2m/wakaama_lwm2m/port\object_access_control.c ****  *    http://www.eclipse.org/org/documents/edl-v10.php.
  46:g:/iot/IoT_Device_Demo/iot_link/network/lwm2m/wakaama_lwm2m/port\object_access_control.c ****  *
  47:g:/iot/IoT_Device_Demo/iot_link/network/lwm2m/wakaama_lwm2m/port\object_access_control.c ****  * Contributors:
  48:g:/iot/IoT_Device_Demo/iot_link/network/lwm2m/wakaama_lwm2m/port\object_access_control.c ****  *    Bosch Software Innovations GmbH - Please refer to git log
  49:g:/iot/IoT_Device_Demo/iot_link/network/lwm2m/wakaama_lwm2m/port\object_access_control.c ****  *    Pascal Rieux - please refer to git log
  50:g:/iot/IoT_Device_Demo/iot_link/network/lwm2m/wakaama_lwm2m/port\object_access_control.c ****  *
  51:g:/iot/IoT_Device_Demo/iot_link/network/lwm2m/wakaama_lwm2m/port\object_access_control.c ****  ******************************************************************************/
  52:g:/iot/IoT_Device_Demo/iot_link/network/lwm2m/wakaama_lwm2m/port\object_access_control.c **** 
  53:g:/iot/IoT_Device_Demo/iot_link/network/lwm2m/wakaama_lwm2m/port\object_access_control.c **** /*
  54:g:/iot/IoT_Device_Demo/iot_link/network/lwm2m/wakaama_lwm2m/port\object_access_control.c ****  * This "Access Control" object is optional and multiple instantiated
  55:g:/iot/IoT_Device_Demo/iot_link/network/lwm2m/wakaama_lwm2m/port\object_access_control.c ****  *
  56:g:/iot/IoT_Device_Demo/iot_link/network/lwm2m/wakaama_lwm2m/port\object_access_control.c ****  *  Resources:
  57:g:/iot/IoT_Device_Demo/iot_link/network/lwm2m/wakaama_lwm2m/port\object_access_control.c ****  *
  58:g:/iot/IoT_Device_Demo/iot_link/network/lwm2m/wakaama_lwm2m/port\object_access_control.c ****  *          Name         | ID | Oper. | Inst. | Mand.|  Type   | Range | Units |
  59:g:/iot/IoT_Device_Demo/iot_link/network/lwm2m/wakaama_lwm2m/port\object_access_control.c ****  *  ---------------------+----+-------+-------+------+---------+-------+-------+
  60:g:/iot/IoT_Device_Demo/iot_link/network/lwm2m/wakaama_lwm2m/port\object_access_control.c ****  *  Object ID            |  0 |   R   | Single|  Yes | Integer |1-65534|       |
  61:g:/iot/IoT_Device_Demo/iot_link/network/lwm2m/wakaama_lwm2m/port\object_access_control.c ****  *  Object instance ID   |  1 |   R   | Single|  Yes | Integer |0-65535|       |
  62:g:/iot/IoT_Device_Demo/iot_link/network/lwm2m/wakaama_lwm2m/port\object_access_control.c ****  *  ACL                  |  2 |   RW  | Multi.|  No  | Integer | 16bit |       |
  63:g:/iot/IoT_Device_Demo/iot_link/network/lwm2m/wakaama_lwm2m/port\object_access_control.c ****  *  Access Control Owner |  3 |   RW  | Single|  Yes | Integer |0-65535|       |
  64:g:/iot/IoT_Device_Demo/iot_link/network/lwm2m/wakaama_lwm2m/port\object_access_control.c ****  */
  65:g:/iot/IoT_Device_Demo/iot_link/network/lwm2m/wakaama_lwm2m/port\object_access_control.c **** 
  66:g:/iot/IoT_Device_Demo/iot_link/network/lwm2m/wakaama_lwm2m/port\object_access_control.c **** #include "internals.h"
  67:g:/iot/IoT_Device_Demo/iot_link/network/lwm2m/wakaama_lwm2m/port\object_access_control.c **** #include "object_comm.h"
  68:g:/iot/IoT_Device_Demo/iot_link/network/lwm2m/wakaama_lwm2m/port\object_access_control.c **** #include <string.h>
  69:g:/iot/IoT_Device_Demo/iot_link/network/lwm2m/wakaama_lwm2m/port\object_access_control.c **** 
  70:g:/iot/IoT_Device_Demo/iot_link/network/lwm2m/wakaama_lwm2m/port\object_access_control.c **** // Resource Id's:
  71:g:/iot/IoT_Device_Demo/iot_link/network/lwm2m/wakaama_lwm2m/port\object_access_control.c **** #define RES_M_OBJECT_ID             0
  72:g:/iot/IoT_Device_Demo/iot_link/network/lwm2m/wakaama_lwm2m/port\object_access_control.c **** #define RES_M_OBJECT_INSTANCE_ID    1
  73:g:/iot/IoT_Device_Demo/iot_link/network/lwm2m/wakaama_lwm2m/port\object_access_control.c **** #define RES_O_ACL                   2
  74:g:/iot/IoT_Device_Demo/iot_link/network/lwm2m/wakaama_lwm2m/port\object_access_control.c **** #define RES_M_ACCESS_CONTROL_OWNER  3
  75:g:/iot/IoT_Device_Demo/iot_link/network/lwm2m/wakaama_lwm2m/port\object_access_control.c **** 
  76:g:/iot/IoT_Device_Demo/iot_link/network/lwm2m/wakaama_lwm2m/port\object_access_control.c **** #define MAX_DATA_VAL 65535
  77:g:/iot/IoT_Device_Demo/iot_link/network/lwm2m/wakaama_lwm2m/port\object_access_control.c **** 
  78:g:/iot/IoT_Device_Demo/iot_link/network/lwm2m/wakaama_lwm2m/port\object_access_control.c **** typedef struct acc_ctrl_ri_s
  79:g:/iot/IoT_Device_Demo/iot_link/network/lwm2m/wakaama_lwm2m/port\object_access_control.c **** {
  80:g:/iot/IoT_Device_Demo/iot_link/network/lwm2m/wakaama_lwm2m/port\object_access_control.c ****     // linked list:
  81:g:/iot/IoT_Device_Demo/iot_link/network/lwm2m/wakaama_lwm2m/port\object_access_control.c ****     struct acc_ctrl_ri_s   *next;       // matches lwm2m_list_t::next
  82:g:/iot/IoT_Device_Demo/iot_link/network/lwm2m/wakaama_lwm2m/port\object_access_control.c ****     uint16_t                resInstId;  // matches lwm2m_list_t::id, ..serverID
  83:g:/iot/IoT_Device_Demo/iot_link/network/lwm2m/wakaama_lwm2m/port\object_access_control.c ****     // resource data:
  84:g:/iot/IoT_Device_Demo/iot_link/network/lwm2m/wakaama_lwm2m/port\object_access_control.c ****     uint16_t                accCtrlValue;
  85:g:/iot/IoT_Device_Demo/iot_link/network/lwm2m/wakaama_lwm2m/port\object_access_control.c **** } acc_ctrl_ri_t;
  86:g:/iot/IoT_Device_Demo/iot_link/network/lwm2m/wakaama_lwm2m/port\object_access_control.c **** 
  87:g:/iot/IoT_Device_Demo/iot_link/network/lwm2m/wakaama_lwm2m/port\object_access_control.c **** typedef struct acc_ctrl_oi_s
  88:g:/iot/IoT_Device_Demo/iot_link/network/lwm2m/wakaama_lwm2m/port\object_access_control.c **** {
ARM GAS  C:\Users\ADMINI~1\AppData\Local\Temp\ccQvcA20.s 			page 3


  89:g:/iot/IoT_Device_Demo/iot_link/network/lwm2m/wakaama_lwm2m/port\object_access_control.c ****     //linked list:
  90:g:/iot/IoT_Device_Demo/iot_link/network/lwm2m/wakaama_lwm2m/port\object_access_control.c ****     struct acc_ctrl_oi_s   *next;       // matches lwm2m_list_t::next
  91:g:/iot/IoT_Device_Demo/iot_link/network/lwm2m/wakaama_lwm2m/port\object_access_control.c ****     uint16_t                objInstId;  // matches lwm2m_list_t::id
  92:g:/iot/IoT_Device_Demo/iot_link/network/lwm2m/wakaama_lwm2m/port\object_access_control.c **** 
  93:g:/iot/IoT_Device_Demo/iot_link/network/lwm2m/wakaama_lwm2m/port\object_access_control.c ****     // resources
  94:g:/iot/IoT_Device_Demo/iot_link/network/lwm2m/wakaama_lwm2m/port\object_access_control.c ****     uint16_t                objectId;
  95:g:/iot/IoT_Device_Demo/iot_link/network/lwm2m/wakaama_lwm2m/port\object_access_control.c ****     uint16_t                objectInstId;
  96:g:/iot/IoT_Device_Demo/iot_link/network/lwm2m/wakaama_lwm2m/port\object_access_control.c ****     uint16_t                accCtrlOwner;
  97:g:/iot/IoT_Device_Demo/iot_link/network/lwm2m/wakaama_lwm2m/port\object_access_control.c ****     acc_ctrl_ri_t          *accCtrlValList;
  98:g:/iot/IoT_Device_Demo/iot_link/network/lwm2m/wakaama_lwm2m/port\object_access_control.c **** } acc_ctrl_oi_t;
  99:g:/iot/IoT_Device_Demo/iot_link/network/lwm2m/wakaama_lwm2m/port\object_access_control.c **** 
 100:g:/iot/IoT_Device_Demo/iot_link/network/lwm2m/wakaama_lwm2m/port\object_access_control.c **** 
 101:g:/iot/IoT_Device_Demo/iot_link/network/lwm2m/wakaama_lwm2m/port\object_access_control.c **** static uint8_t prv_set_tlv(lwm2m_data_t *dataP, acc_ctrl_oi_t *accCtrlOiP)
 102:g:/iot/IoT_Device_Demo/iot_link/network/lwm2m/wakaama_lwm2m/port\object_access_control.c **** {
  28              		.loc 1 102 1
  29              		.cfi_startproc
  30              		@ args = 0, pretend = 0, frame = 24
  31              		@ frame_needed = 1, uses_anonymous_args = 0
  32 0000 80B5     		push	{r7, lr}
  33              	.LCFI0:
  34              		.cfi_def_cfa_offset 8
  35              		.cfi_offset 7, -8
  36              		.cfi_offset 14, -4
  37 0002 86B0     		sub	sp, sp, #24
  38              	.LCFI1:
  39              		.cfi_def_cfa_offset 32
  40 0004 00AF     		add	r7, sp, #0
  41              	.LCFI2:
  42              		.cfi_def_cfa_register 7
  43 0006 7860     		str	r0, [r7, #4]
  44 0008 3960     		str	r1, [r7]
 103:g:/iot/IoT_Device_Demo/iot_link/network/lwm2m/wakaama_lwm2m/port\object_access_control.c ****     switch (dataP->id)
  45              		.loc 1 103 18
  46 000a 7B68     		ldr	r3, [r7, #4]
  47 000c 5B88     		ldrh	r3, [r3, #2]
  48 000e 032B     		cmp	r3, #3
  49 0010 6FD8     		bhi	.L2
  50 0012 01A2     		adr	r2, .L4
  51 0014 52F823F0 		ldr	pc, [r2, r3, lsl #2]
  52              		.p2align 2
  53              	.L4:
  54 0018 29000000 		.word	.L7+1
  55 001c 3D000000 		.word	.L6+1
  56 0020 51000000 		.word	.L5+1
  57 0024 DF000000 		.word	.L3+1
  58              		.p2align 1
  59              	.L7:
 104:g:/iot/IoT_Device_Demo/iot_link/network/lwm2m/wakaama_lwm2m/port\object_access_control.c ****     {
 105:g:/iot/IoT_Device_Demo/iot_link/network/lwm2m/wakaama_lwm2m/port\object_access_control.c ****         case RES_M_OBJECT_ID:
 106:g:/iot/IoT_Device_Demo/iot_link/network/lwm2m/wakaama_lwm2m/port\object_access_control.c ****             lwm2m_data_encode_int(accCtrlOiP->objectId, dataP);
  60              		.loc 1 106 45
  61 0028 3B68     		ldr	r3, [r7]
  62 002a DB88     		ldrh	r3, [r3, #6]
  63              		.loc 1 106 13
  64 002c 98B2     		uxth	r0, r3
  65 002e 4FF00001 		mov	r1, #0
  66 0032 7A68     		ldr	r2, [r7, #4]
ARM GAS  C:\Users\ADMINI~1\AppData\Local\Temp\ccQvcA20.s 			page 4


  67 0034 FFF7FEFF 		bl	lwm2m_data_encode_int
 107:g:/iot/IoT_Device_Demo/iot_link/network/lwm2m/wakaama_lwm2m/port\object_access_control.c ****             return COAP_205_CONTENT;
  68              		.loc 1 107 20
  69 0038 4523     		movs	r3, #69
  70 003a 5BE0     		b	.L8
  71              	.L6:
 108:g:/iot/IoT_Device_Demo/iot_link/network/lwm2m/wakaama_lwm2m/port\object_access_control.c **** 
 109:g:/iot/IoT_Device_Demo/iot_link/network/lwm2m/wakaama_lwm2m/port\object_access_control.c ****         case RES_M_OBJECT_INSTANCE_ID:
 110:g:/iot/IoT_Device_Demo/iot_link/network/lwm2m/wakaama_lwm2m/port\object_access_control.c ****             lwm2m_data_encode_int(accCtrlOiP->objectInstId, dataP);
  72              		.loc 1 110 45
  73 003c 3B68     		ldr	r3, [r7]
  74 003e 1B89     		ldrh	r3, [r3, #8]
  75              		.loc 1 110 13
  76 0040 98B2     		uxth	r0, r3
  77 0042 4FF00001 		mov	r1, #0
  78 0046 7A68     		ldr	r2, [r7, #4]
  79 0048 FFF7FEFF 		bl	lwm2m_data_encode_int
 111:g:/iot/IoT_Device_Demo/iot_link/network/lwm2m/wakaama_lwm2m/port\object_access_control.c ****             return COAP_205_CONTENT;
  80              		.loc 1 111 20
  81 004c 4523     		movs	r3, #69
  82 004e 51E0     		b	.L8
  83              	.L5:
  84              	.LBB2:
 112:g:/iot/IoT_Device_Demo/iot_link/network/lwm2m/wakaama_lwm2m/port\object_access_control.c **** 
 113:g:/iot/IoT_Device_Demo/iot_link/network/lwm2m/wakaama_lwm2m/port\object_access_control.c ****         case RES_O_ACL:
 114:g:/iot/IoT_Device_Demo/iot_link/network/lwm2m/wakaama_lwm2m/port\object_access_control.c ****         {
 115:g:/iot/IoT_Device_Demo/iot_link/network/lwm2m/wakaama_lwm2m/port\object_access_control.c ****             int ri;
 116:g:/iot/IoT_Device_Demo/iot_link/network/lwm2m/wakaama_lwm2m/port\object_access_control.c ****             acc_ctrl_ri_t *accCtrlRiP;
 117:g:/iot/IoT_Device_Demo/iot_link/network/lwm2m/wakaama_lwm2m/port\object_access_control.c **** 
 118:g:/iot/IoT_Device_Demo/iot_link/network/lwm2m/wakaama_lwm2m/port\object_access_control.c ****             for (accCtrlRiP = accCtrlOiP->accCtrlValList, ri = 0;
  85              		.loc 1 118 29
  86 0050 3B68     		ldr	r3, [r7]
  87 0052 DB68     		ldr	r3, [r3, #12]
  88 0054 3B61     		str	r3, [r7, #16]
  89              		.loc 1 118 62
  90 0056 0023     		movs	r3, #0
  91 0058 7B61     		str	r3, [r7, #20]
  92              		.loc 1 118 13
  93 005a 05E0     		b	.L9
  94              	.L10:
 119:g:/iot/IoT_Device_Demo/iot_link/network/lwm2m/wakaama_lwm2m/port\object_access_control.c ****                  NULL != accCtrlRiP;
 120:g:/iot/IoT_Device_Demo/iot_link/network/lwm2m/wakaama_lwm2m/port\object_access_control.c ****                  accCtrlRiP = accCtrlRiP->next, ri++);
  95              		.loc 1 120 29
  96 005c 3B69     		ldr	r3, [r7, #16]
  97 005e 1B68     		ldr	r3, [r3]
  98 0060 3B61     		str	r3, [r7, #16]
  99              		.loc 1 120 51
 100 0062 7B69     		ldr	r3, [r7, #20]
 101 0064 0133     		adds	r3, r3, #1
 102 0066 7B61     		str	r3, [r7, #20]
 103              	.L9:
 118:g:/iot/IoT_Device_Demo/iot_link/network/lwm2m/wakaama_lwm2m/port\object_access_control.c ****                  NULL != accCtrlRiP;
 104              		.loc 1 118 13 discriminator 1
 105 0068 3B69     		ldr	r3, [r7, #16]
 106 006a 002B     		cmp	r3, #0
 107 006c F6D1     		bne	.L10
 121:g:/iot/IoT_Device_Demo/iot_link/network/lwm2m/wakaama_lwm2m/port\object_access_control.c **** 
ARM GAS  C:\Users\ADMINI~1\AppData\Local\Temp\ccQvcA20.s 			page 5


 122:g:/iot/IoT_Device_Demo/iot_link/network/lwm2m/wakaama_lwm2m/port\object_access_control.c ****             if (0 == ri) // no values!
 108              		.loc 1 122 16
 109 006e 7B69     		ldr	r3, [r7, #20]
 110 0070 002B     		cmp	r3, #0
 111 0072 01D1     		bne	.L11
 123:g:/iot/IoT_Device_Demo/iot_link/network/lwm2m/wakaama_lwm2m/port\object_access_control.c ****             {
 124:g:/iot/IoT_Device_Demo/iot_link/network/lwm2m/wakaama_lwm2m/port\object_access_control.c ****                 return COAP_404_NOT_FOUND;
 112              		.loc 1 124 24
 113 0074 8423     		movs	r3, #132
 114 0076 3DE0     		b	.L8
 115              	.L11:
 116              	.LBB3:
 125:g:/iot/IoT_Device_Demo/iot_link/network/lwm2m/wakaama_lwm2m/port\object_access_control.c ****             }
 126:g:/iot/IoT_Device_Demo/iot_link/network/lwm2m/wakaama_lwm2m/port\object_access_control.c ****             else
 127:g:/iot/IoT_Device_Demo/iot_link/network/lwm2m/wakaama_lwm2m/port\object_access_control.c ****             {
 128:g:/iot/IoT_Device_Demo/iot_link/network/lwm2m/wakaama_lwm2m/port\object_access_control.c ****                 lwm2m_data_t *subTlvP = lwm2m_data_new(ri);
 117              		.loc 1 128 41
 118 0078 7869     		ldr	r0, [r7, #20]
 119 007a FFF7FEFF 		bl	lwm2m_data_new
 120 007e F860     		str	r0, [r7, #12]
 129:g:/iot/IoT_Device_Demo/iot_link/network/lwm2m/wakaama_lwm2m/port\object_access_control.c **** 
 130:g:/iot/IoT_Device_Demo/iot_link/network/lwm2m/wakaama_lwm2m/port\object_access_control.c ****                 if (NULL == subTlvP) return COAP_500_INTERNAL_SERVER_ERROR;
 121              		.loc 1 130 20
 122 0080 FB68     		ldr	r3, [r7, #12]
 123 0082 002B     		cmp	r3, #0
 124 0084 01D1     		bne	.L12
 125              		.loc 1 130 45 discriminator 1
 126 0086 A023     		movs	r3, #160
 127 0088 34E0     		b	.L8
 128              	.L12:
 131:g:/iot/IoT_Device_Demo/iot_link/network/lwm2m/wakaama_lwm2m/port\object_access_control.c **** 
 132:g:/iot/IoT_Device_Demo/iot_link/network/lwm2m/wakaama_lwm2m/port\object_access_control.c ****                 for (accCtrlRiP = accCtrlOiP->accCtrlValList, ri = 0;
 129              		.loc 1 132 33
 130 008a 3B68     		ldr	r3, [r7]
 131 008c DB68     		ldr	r3, [r3, #12]
 132 008e 3B61     		str	r3, [r7, #16]
 133              		.loc 1 132 66
 134 0090 0023     		movs	r3, #0
 135 0092 7B61     		str	r3, [r7, #20]
 136              		.loc 1 132 17
 137 0094 18E0     		b	.L13
 138              	.L14:
 133:g:/iot/IoT_Device_Demo/iot_link/network/lwm2m/wakaama_lwm2m/port\object_access_control.c ****                      NULL != accCtrlRiP;
 134:g:/iot/IoT_Device_Demo/iot_link/network/lwm2m/wakaama_lwm2m/port\object_access_control.c ****                      accCtrlRiP = accCtrlRiP->next, ri++)
 135:g:/iot/IoT_Device_Demo/iot_link/network/lwm2m/wakaama_lwm2m/port\object_access_control.c ****                 {
 136:g:/iot/IoT_Device_Demo/iot_link/network/lwm2m/wakaama_lwm2m/port\object_access_control.c ****                     subTlvP[ri].id = accCtrlRiP->resInstId;
 139              		.loc 1 136 28
 140 0096 7B69     		ldr	r3, [r7, #20]
 141 0098 1B01     		lsls	r3, r3, #4
 142 009a FA68     		ldr	r2, [r7, #12]
 143 009c 1344     		add	r3, r3, r2
 144              		.loc 1 136 48
 145 009e 3A69     		ldr	r2, [r7, #16]
 146 00a0 9288     		ldrh	r2, [r2, #4]
 147              		.loc 1 136 36
 148 00a2 5A80     		strh	r2, [r3, #2]	@ movhi
 137:g:/iot/IoT_Device_Demo/iot_link/network/lwm2m/wakaama_lwm2m/port\object_access_control.c ****                     lwm2m_data_encode_int(accCtrlRiP->accCtrlValue, &subTlvP[ri]);
ARM GAS  C:\Users\ADMINI~1\AppData\Local\Temp\ccQvcA20.s 			page 6


 149              		.loc 1 137 53
 150 00a4 3B69     		ldr	r3, [r7, #16]
 151 00a6 DB88     		ldrh	r3, [r3, #6]
 152              		.loc 1 137 21
 153 00a8 98B2     		uxth	r0, r3
 154 00aa 4FF00001 		mov	r1, #0
 155              		.loc 1 137 77
 156 00ae 7B69     		ldr	r3, [r7, #20]
 157 00b0 1B01     		lsls	r3, r3, #4
 158              		.loc 1 137 21
 159 00b2 FA68     		ldr	r2, [r7, #12]
 160 00b4 1344     		add	r3, r3, r2
 161 00b6 1A46     		mov	r2, r3
 162 00b8 FFF7FEFF 		bl	lwm2m_data_encode_int
 134:g:/iot/IoT_Device_Demo/iot_link/network/lwm2m/wakaama_lwm2m/port\object_access_control.c ****                 {
 163              		.loc 1 134 33
 164 00bc 3B69     		ldr	r3, [r7, #16]
 165 00be 1B68     		ldr	r3, [r3]
 166 00c0 3B61     		str	r3, [r7, #16]
 134:g:/iot/IoT_Device_Demo/iot_link/network/lwm2m/wakaama_lwm2m/port\object_access_control.c ****                 {
 167              		.loc 1 134 55
 168 00c2 7B69     		ldr	r3, [r7, #20]
 169 00c4 0133     		adds	r3, r3, #1
 170 00c6 7B61     		str	r3, [r7, #20]
 171              	.L13:
 132:g:/iot/IoT_Device_Demo/iot_link/network/lwm2m/wakaama_lwm2m/port\object_access_control.c ****                      NULL != accCtrlRiP;
 172              		.loc 1 132 17 discriminator 1
 173 00c8 3B69     		ldr	r3, [r7, #16]
 174 00ca 002B     		cmp	r3, #0
 175 00cc E3D1     		bne	.L14
 138:g:/iot/IoT_Device_Demo/iot_link/network/lwm2m/wakaama_lwm2m/port\object_access_control.c ****                 }
 139:g:/iot/IoT_Device_Demo/iot_link/network/lwm2m/wakaama_lwm2m/port\object_access_control.c **** 
 140:g:/iot/IoT_Device_Demo/iot_link/network/lwm2m/wakaama_lwm2m/port\object_access_control.c ****                 lwm2m_data_encode_instances(subTlvP, ri, dataP);
 176              		.loc 1 140 17
 177 00ce 7B69     		ldr	r3, [r7, #20]
 178 00d0 7A68     		ldr	r2, [r7, #4]
 179 00d2 1946     		mov	r1, r3
 180 00d4 F868     		ldr	r0, [r7, #12]
 181 00d6 FFF7FEFF 		bl	lwm2m_data_encode_instances
 141:g:/iot/IoT_Device_Demo/iot_link/network/lwm2m/wakaama_lwm2m/port\object_access_control.c ****                 return COAP_205_CONTENT;
 182              		.loc 1 141 24
 183 00da 4523     		movs	r3, #69
 184 00dc 0AE0     		b	.L8
 185              	.L3:
 186              	.LBE3:
 187              	.LBE2:
 142:g:/iot/IoT_Device_Demo/iot_link/network/lwm2m/wakaama_lwm2m/port\object_access_control.c ****             }
 143:g:/iot/IoT_Device_Demo/iot_link/network/lwm2m/wakaama_lwm2m/port\object_access_control.c ****         }
 144:g:/iot/IoT_Device_Demo/iot_link/network/lwm2m/wakaama_lwm2m/port\object_access_control.c **** 
 145:g:/iot/IoT_Device_Demo/iot_link/network/lwm2m/wakaama_lwm2m/port\object_access_control.c ****         case RES_M_ACCESS_CONTROL_OWNER:
 146:g:/iot/IoT_Device_Demo/iot_link/network/lwm2m/wakaama_lwm2m/port\object_access_control.c ****             lwm2m_data_encode_int(accCtrlOiP->accCtrlOwner, dataP);
 188              		.loc 1 146 45
 189 00de 3B68     		ldr	r3, [r7]
 190 00e0 5B89     		ldrh	r3, [r3, #10]
 191              		.loc 1 146 13
 192 00e2 98B2     		uxth	r0, r3
 193 00e4 4FF00001 		mov	r1, #0
ARM GAS  C:\Users\ADMINI~1\AppData\Local\Temp\ccQvcA20.s 			page 7


 194 00e8 7A68     		ldr	r2, [r7, #4]
 195 00ea FFF7FEFF 		bl	lwm2m_data_encode_int
 147:g:/iot/IoT_Device_Demo/iot_link/network/lwm2m/wakaama_lwm2m/port\object_access_control.c ****             return COAP_205_CONTENT;
 196              		.loc 1 147 20
 197 00ee 4523     		movs	r3, #69
 198 00f0 00E0     		b	.L8
 199              	.L2:
 148:g:/iot/IoT_Device_Demo/iot_link/network/lwm2m/wakaama_lwm2m/port\object_access_control.c **** 
 149:g:/iot/IoT_Device_Demo/iot_link/network/lwm2m/wakaama_lwm2m/port\object_access_control.c ****         default:
 150:g:/iot/IoT_Device_Demo/iot_link/network/lwm2m/wakaama_lwm2m/port\object_access_control.c ****             return COAP_404_NOT_FOUND ;
 200              		.loc 1 150 20
 201 00f2 8423     		movs	r3, #132
 202              	.L8:
 151:g:/iot/IoT_Device_Demo/iot_link/network/lwm2m/wakaama_lwm2m/port\object_access_control.c ****     }
 152:g:/iot/IoT_Device_Demo/iot_link/network/lwm2m/wakaama_lwm2m/port\object_access_control.c **** }
 203              		.loc 1 152 1
 204 00f4 1846     		mov	r0, r3
 205 00f6 1837     		adds	r7, r7, #24
 206              	.LCFI3:
 207              		.cfi_def_cfa_offset 8
 208 00f8 BD46     		mov	sp, r7
 209              	.LCFI4:
 210              		.cfi_def_cfa_register 13
 211              		@ sp needed
 212 00fa 80BD     		pop	{r7, pc}
 213              		.cfi_endproc
 214              	.LFE12:
 216              		.section	.rodata
 217              		.align	2
 218              	.LC0:
 219 0000 0000     		.short	0
 220 0002 0100     		.short	1
 221 0004 0200     		.short	2
 222 0006 0300     		.short	3
 223              		.section	.text.prv_read,"ax",%progbits
 224              		.align	1
 225              		.syntax unified
 226              		.thumb
 227              		.thumb_func
 228              		.fpu fpv4-sp-d16
 230              	prv_read:
 231              	.LFB13:
 153:g:/iot/IoT_Device_Demo/iot_link/network/lwm2m/wakaama_lwm2m/port\object_access_control.c **** 
 154:g:/iot/IoT_Device_Demo/iot_link/network/lwm2m/wakaama_lwm2m/port\object_access_control.c **** static uint8_t prv_read(uint16_t instanceId, int *numDataP,
 155:g:/iot/IoT_Device_Demo/iot_link/network/lwm2m/wakaama_lwm2m/port\object_access_control.c ****                         lwm2m_data_t **dataArrayP, lwm2m_data_cfg_t *dataCfg, lwm2m_object_t *objec
 156:g:/iot/IoT_Device_Demo/iot_link/network/lwm2m/wakaama_lwm2m/port\object_access_control.c **** {
 232              		.loc 1 156 1
 233              		.cfi_startproc
 234              		@ args = 4, pretend = 0, frame = 48
 235              		@ frame_needed = 1, uses_anonymous_args = 0
 236 0000 90B5     		push	{r4, r7, lr}
 237              	.LCFI5:
 238              		.cfi_def_cfa_offset 12
 239              		.cfi_offset 4, -12
 240              		.cfi_offset 7, -8
 241              		.cfi_offset 14, -4
 242 0002 8DB0     		sub	sp, sp, #52
ARM GAS  C:\Users\ADMINI~1\AppData\Local\Temp\ccQvcA20.s 			page 8


 243              	.LCFI6:
 244              		.cfi_def_cfa_offset 64
 245 0004 00AF     		add	r7, sp, #0
 246              	.LCFI7:
 247              		.cfi_def_cfa_register 7
 248 0006 B960     		str	r1, [r7, #8]
 249 0008 7A60     		str	r2, [r7, #4]
 250 000a 3B60     		str	r3, [r7]
 251 000c 0346     		mov	r3, r0	@ movhi
 252 000e FB81     		strh	r3, [r7, #14]	@ movhi
 157:g:/iot/IoT_Device_Demo/iot_link/network/lwm2m/wakaama_lwm2m/port\object_access_control.c ****     uint8_t result;
 158:g:/iot/IoT_Device_Demo/iot_link/network/lwm2m/wakaama_lwm2m/port\object_access_control.c ****     int     ri, ni;
 159:g:/iot/IoT_Device_Demo/iot_link/network/lwm2m/wakaama_lwm2m/port\object_access_control.c ****     // multi-instance object: search instance
 160:g:/iot/IoT_Device_Demo/iot_link/network/lwm2m/wakaama_lwm2m/port\object_access_control.c ****     acc_ctrl_oi_t *accCtrlOiP =
 161:g:/iot/IoT_Device_Demo/iot_link/network/lwm2m/wakaama_lwm2m/port\object_access_control.c ****         (acc_ctrl_oi_t *)lwm2m_list_find(objectP->instanceList, instanceId);
 253              		.loc 1 161 26
 254 0010 3B6C     		ldr	r3, [r7, #64]
 255 0012 9B68     		ldr	r3, [r3, #8]
 256 0014 FA89     		ldrh	r2, [r7, #14]
 257 0016 1146     		mov	r1, r2
 258 0018 1846     		mov	r0, r3
 259 001a FFF7FEFF 		bl	lwm2m_list_find
 260 001e 3862     		str	r0, [r7, #32]
 162:g:/iot/IoT_Device_Demo/iot_link/network/lwm2m/wakaama_lwm2m/port\object_access_control.c **** 
 163:g:/iot/IoT_Device_Demo/iot_link/network/lwm2m/wakaama_lwm2m/port\object_access_control.c ****     if (NULL == accCtrlOiP)
 261              		.loc 1 163 8
 262 0020 3B6A     		ldr	r3, [r7, #32]
 263 0022 002B     		cmp	r3, #0
 264 0024 01D1     		bne	.L16
 164:g:/iot/IoT_Device_Demo/iot_link/network/lwm2m/wakaama_lwm2m/port\object_access_control.c ****     {
 165:g:/iot/IoT_Device_Demo/iot_link/network/lwm2m/wakaama_lwm2m/port\object_access_control.c ****         return COAP_404_NOT_FOUND ;
 265              		.loc 1 165 16
 266 0026 8423     		movs	r3, #132
 267 0028 78E0     		b	.L17
 268              	.L16:
 166:g:/iot/IoT_Device_Demo/iot_link/network/lwm2m/wakaama_lwm2m/port\object_access_control.c ****     }
 167:g:/iot/IoT_Device_Demo/iot_link/network/lwm2m/wakaama_lwm2m/port\object_access_control.c **** 
 168:g:/iot/IoT_Device_Demo/iot_link/network/lwm2m/wakaama_lwm2m/port\object_access_control.c ****     // is the server asking for the full object ?
 169:g:/iot/IoT_Device_Demo/iot_link/network/lwm2m/wakaama_lwm2m/port\object_access_control.c ****     if (0 == *numDataP)
 269              		.loc 1 169 14
 270 002a BB68     		ldr	r3, [r7, #8]
 271 002c 1B68     		ldr	r3, [r3]
 272              		.loc 1 169 8
 273 002e 002B     		cmp	r3, #0
 274 0030 2ED1     		bne	.L18
 275              	.LBB4:
 170:g:/iot/IoT_Device_Demo/iot_link/network/lwm2m/wakaama_lwm2m/port\object_access_control.c ****     {
 171:g:/iot/IoT_Device_Demo/iot_link/network/lwm2m/wakaama_lwm2m/port\object_access_control.c ****         uint16_t resList[] =
 276              		.loc 1 171 18
 277 0032 3C4A     		ldr	r2, .L26
 278 0034 07F11403 		add	r3, r7, #20
 279 0038 92E80300 		ldm	r2, {r0, r1}
 280 003c 83E80300 		stm	r3, {r0, r1}
 172:g:/iot/IoT_Device_Demo/iot_link/network/lwm2m/wakaama_lwm2m/port\object_access_control.c ****         {
 173:g:/iot/IoT_Device_Demo/iot_link/network/lwm2m/wakaama_lwm2m/port\object_access_control.c ****             RES_M_OBJECT_ID,
 174:g:/iot/IoT_Device_Demo/iot_link/network/lwm2m/wakaama_lwm2m/port\object_access_control.c ****             RES_M_OBJECT_INSTANCE_ID,
 175:g:/iot/IoT_Device_Demo/iot_link/network/lwm2m/wakaama_lwm2m/port\object_access_control.c ****             RES_O_ACL,  // prv_set_tlv will return COAP_404_NOT_FOUND w/o values!
ARM GAS  C:\Users\ADMINI~1\AppData\Local\Temp\ccQvcA20.s 			page 9


 176:g:/iot/IoT_Device_Demo/iot_link/network/lwm2m/wakaama_lwm2m/port\object_access_control.c ****             RES_M_ACCESS_CONTROL_OWNER
 177:g:/iot/IoT_Device_Demo/iot_link/network/lwm2m/wakaama_lwm2m/port\object_access_control.c ****         };
 178:g:/iot/IoT_Device_Demo/iot_link/network/lwm2m/wakaama_lwm2m/port\object_access_control.c ****         int nbRes = sizeof(resList) / sizeof(uint16_t);
 281              		.loc 1 178 13
 282 0040 0423     		movs	r3, #4
 283 0042 FB61     		str	r3, [r7, #28]
 179:g:/iot/IoT_Device_Demo/iot_link/network/lwm2m/wakaama_lwm2m/port\object_access_control.c ****         *dataArrayP = lwm2m_data_new(nbRes);
 284              		.loc 1 179 23
 285 0044 F869     		ldr	r0, [r7, #28]
 286 0046 FFF7FEFF 		bl	lwm2m_data_new
 287 004a 0246     		mov	r2, r0
 288              		.loc 1 179 21
 289 004c 7B68     		ldr	r3, [r7, #4]
 290 004e 1A60     		str	r2, [r3]
 180:g:/iot/IoT_Device_Demo/iot_link/network/lwm2m/wakaama_lwm2m/port\object_access_control.c **** 
 181:g:/iot/IoT_Device_Demo/iot_link/network/lwm2m/wakaama_lwm2m/port\object_access_control.c ****         if (NULL == *dataArrayP)
 291              		.loc 1 181 21
 292 0050 7B68     		ldr	r3, [r7, #4]
 293 0052 1B68     		ldr	r3, [r3]
 294              		.loc 1 181 12
 295 0054 002B     		cmp	r3, #0
 296 0056 01D1     		bne	.L19
 182:g:/iot/IoT_Device_Demo/iot_link/network/lwm2m/wakaama_lwm2m/port\object_access_control.c ****             return COAP_500_INTERNAL_SERVER_ERROR ;
 297              		.loc 1 182 20
 298 0058 A023     		movs	r3, #160
 299 005a 5FE0     		b	.L17
 300              	.L19:
 183:g:/iot/IoT_Device_Demo/iot_link/network/lwm2m/wakaama_lwm2m/port\object_access_control.c **** 
 184:g:/iot/IoT_Device_Demo/iot_link/network/lwm2m/wakaama_lwm2m/port\object_access_control.c ****         *numDataP = nbRes;
 301              		.loc 1 184 19
 302 005c BB68     		ldr	r3, [r7, #8]
 303 005e FA69     		ldr	r2, [r7, #28]
 304 0060 1A60     		str	r2, [r3]
 185:g:/iot/IoT_Device_Demo/iot_link/network/lwm2m/wakaama_lwm2m/port\object_access_control.c **** 
 186:g:/iot/IoT_Device_Demo/iot_link/network/lwm2m/wakaama_lwm2m/port\object_access_control.c ****         for (ri = 0; ri < nbRes; ri++)
 305              		.loc 1 186 17
 306 0062 0023     		movs	r3, #0
 307 0064 BB62     		str	r3, [r7, #40]
 308              		.loc 1 186 9
 309 0066 0FE0     		b	.L20
 310              	.L21:
 187:g:/iot/IoT_Device_Demo/iot_link/network/lwm2m/wakaama_lwm2m/port\object_access_control.c ****         {
 188:g:/iot/IoT_Device_Demo/iot_link/network/lwm2m/wakaama_lwm2m/port\object_access_control.c ****             (*dataArrayP)[ri].id = resList[ri];
 311              		.loc 1 188 14 discriminator 3
 312 0068 7B68     		ldr	r3, [r7, #4]
 313 006a 1A68     		ldr	r2, [r3]
 314              		.loc 1 188 26 discriminator 3
 315 006c BB6A     		ldr	r3, [r7, #40]
 316 006e 1B01     		lsls	r3, r3, #4
 317 0070 1A44     		add	r2, r2, r3
 318              		.loc 1 188 43 discriminator 3
 319 0072 BB6A     		ldr	r3, [r7, #40]
 320 0074 5B00     		lsls	r3, r3, #1
 321 0076 07F13001 		add	r1, r7, #48
 322 007a 0B44     		add	r3, r3, r1
 323 007c 33F81C3C 		ldrh	r3, [r3, #-28]
 324              		.loc 1 188 34 discriminator 3
ARM GAS  C:\Users\ADMINI~1\AppData\Local\Temp\ccQvcA20.s 			page 10


 325 0080 5380     		strh	r3, [r2, #2]	@ movhi
 186:g:/iot/IoT_Device_Demo/iot_link/network/lwm2m/wakaama_lwm2m/port\object_access_control.c ****         {
 326              		.loc 1 186 36 discriminator 3
 327 0082 BB6A     		ldr	r3, [r7, #40]
 328 0084 0133     		adds	r3, r3, #1
 329 0086 BB62     		str	r3, [r7, #40]
 330              	.L20:
 186:g:/iot/IoT_Device_Demo/iot_link/network/lwm2m/wakaama_lwm2m/port\object_access_control.c ****         {
 331              		.loc 1 186 9 discriminator 1
 332 0088 BA6A     		ldr	r2, [r7, #40]
 333 008a FB69     		ldr	r3, [r7, #28]
 334 008c 9A42     		cmp	r2, r3
 335 008e EBDB     		blt	.L21
 336              	.L18:
 337              	.LBE4:
 189:g:/iot/IoT_Device_Demo/iot_link/network/lwm2m/wakaama_lwm2m/port\object_access_control.c ****         }
 190:g:/iot/IoT_Device_Demo/iot_link/network/lwm2m/wakaama_lwm2m/port\object_access_control.c ****     }
 191:g:/iot/IoT_Device_Demo/iot_link/network/lwm2m/wakaama_lwm2m/port\object_access_control.c **** 
 192:g:/iot/IoT_Device_Demo/iot_link/network/lwm2m/wakaama_lwm2m/port\object_access_control.c ****     ni = ri = 0;
 338              		.loc 1 192 13
 339 0090 0023     		movs	r3, #0
 340 0092 BB62     		str	r3, [r7, #40]
 341              		.loc 1 192 8
 342 0094 BB6A     		ldr	r3, [r7, #40]
 343 0096 7B62     		str	r3, [r7, #36]
 344              	.L25:
 193:g:/iot/IoT_Device_Demo/iot_link/network/lwm2m/wakaama_lwm2m/port\object_access_control.c **** 
 194:g:/iot/IoT_Device_Demo/iot_link/network/lwm2m/wakaama_lwm2m/port\object_access_control.c ****     do
 195:g:/iot/IoT_Device_Demo/iot_link/network/lwm2m/wakaama_lwm2m/port\object_access_control.c ****     {
 196:g:/iot/IoT_Device_Demo/iot_link/network/lwm2m/wakaama_lwm2m/port\object_access_control.c ****         result = prv_set_tlv((*dataArrayP) + ni, accCtrlOiP);
 345              		.loc 1 196 31
 346 0098 7B68     		ldr	r3, [r7, #4]
 347 009a 1A68     		ldr	r2, [r3]
 348              		.loc 1 196 44
 349 009c 7B6A     		ldr	r3, [r7, #36]
 350 009e 1B01     		lsls	r3, r3, #4
 351              		.loc 1 196 18
 352 00a0 1344     		add	r3, r3, r2
 353 00a2 396A     		ldr	r1, [r7, #32]
 354 00a4 1846     		mov	r0, r3
 355 00a6 FFF7FEFF 		bl	prv_set_tlv
 356 00aa 0346     		mov	r3, r0
 357 00ac 87F82F30 		strb	r3, [r7, #47]
 197:g:/iot/IoT_Device_Demo/iot_link/network/lwm2m/wakaama_lwm2m/port\object_access_control.c **** 
 198:g:/iot/IoT_Device_Demo/iot_link/network/lwm2m/wakaama_lwm2m/port\object_access_control.c ****         if (COAP_404_NOT_FOUND == result)
 358              		.loc 1 198 12
 359 00b0 97F82F30 		ldrb	r3, [r7, #47]	@ zero_extendqisi2
 360 00b4 842B     		cmp	r3, #132
 361 00b6 0AD1     		bne	.L22
 199:g:/iot/IoT_Device_Demo/iot_link/network/lwm2m/wakaama_lwm2m/port\object_access_control.c ****         {
 200:g:/iot/IoT_Device_Demo/iot_link/network/lwm2m/wakaama_lwm2m/port\object_access_control.c ****             ri++;
 362              		.loc 1 200 15
 363 00b8 BB6A     		ldr	r3, [r7, #40]
 364 00ba 0133     		adds	r3, r3, #1
 365 00bc BB62     		str	r3, [r7, #40]
 201:g:/iot/IoT_Device_Demo/iot_link/network/lwm2m/wakaama_lwm2m/port\object_access_control.c **** 
 202:g:/iot/IoT_Device_Demo/iot_link/network/lwm2m/wakaama_lwm2m/port\object_access_control.c ****             if (*numDataP > 1) result = COAP_205_CONTENT;
ARM GAS  C:\Users\ADMINI~1\AppData\Local\Temp\ccQvcA20.s 			page 11


 366              		.loc 1 202 17
 367 00be BB68     		ldr	r3, [r7, #8]
 368 00c0 1B68     		ldr	r3, [r3]
 369              		.loc 1 202 16
 370 00c2 012B     		cmp	r3, #1
 371 00c4 17DD     		ble	.L23
 372              		.loc 1 202 39 discriminator 1
 373 00c6 4523     		movs	r3, #69
 374 00c8 87F82F30 		strb	r3, [r7, #47]
 375 00cc 13E0     		b	.L23
 376              	.L22:
 203:g:/iot/IoT_Device_Demo/iot_link/network/lwm2m/wakaama_lwm2m/port\object_access_control.c ****         }
 204:g:/iot/IoT_Device_Demo/iot_link/network/lwm2m/wakaama_lwm2m/port\object_access_control.c ****         else if (ri > 0)    // copy new one by ri skipped ones in front
 377              		.loc 1 204 17
 378 00ce BB6A     		ldr	r3, [r7, #40]
 379 00d0 002B     		cmp	r3, #0
 380 00d2 10DD     		ble	.L23
 205:g:/iot/IoT_Device_Demo/iot_link/network/lwm2m/wakaama_lwm2m/port\object_access_control.c ****         {
 206:g:/iot/IoT_Device_Demo/iot_link/network/lwm2m/wakaama_lwm2m/port\object_access_control.c ****             (*dataArrayP)[ni - ri] = (*dataArrayP)[ni];
 381              		.loc 1 206 39
 382 00d4 7B68     		ldr	r3, [r7, #4]
 383 00d6 1A68     		ldr	r2, [r3]
 384              		.loc 1 206 51
 385 00d8 7B6A     		ldr	r3, [r7, #36]
 386 00da 1B01     		lsls	r3, r3, #4
 387 00dc D018     		adds	r0, r2, r3
 388              		.loc 1 206 14
 389 00de 7B68     		ldr	r3, [r7, #4]
 390 00e0 1A68     		ldr	r2, [r3]
 391              		.loc 1 206 30
 392 00e2 796A     		ldr	r1, [r7, #36]
 393 00e4 BB6A     		ldr	r3, [r7, #40]
 394 00e6 CB1A     		subs	r3, r1, r3
 395              		.loc 1 206 26
 396 00e8 1B01     		lsls	r3, r3, #4
 397 00ea 1344     		add	r3, r3, r2
 398              		.loc 1 206 36
 399 00ec 1C46     		mov	r4, r3
 400 00ee 0346     		mov	r3, r0
 401 00f0 0FCB     		ldm	r3, {r0, r1, r2, r3}
 402 00f2 84E80F00 		stm	r4, {r0, r1, r2, r3}
 403              	.L23:
 207:g:/iot/IoT_Device_Demo/iot_link/network/lwm2m/wakaama_lwm2m/port\object_access_control.c ****         }
 208:g:/iot/IoT_Device_Demo/iot_link/network/lwm2m/wakaama_lwm2m/port\object_access_control.c **** 
 209:g:/iot/IoT_Device_Demo/iot_link/network/lwm2m/wakaama_lwm2m/port\object_access_control.c ****         ni++;
 404              		.loc 1 209 11
 405 00f6 7B6A     		ldr	r3, [r7, #36]
 406 00f8 0133     		adds	r3, r3, #1
 407 00fa 7B62     		str	r3, [r7, #36]
 210:g:/iot/IoT_Device_Demo/iot_link/network/lwm2m/wakaama_lwm2m/port\object_access_control.c ****     }
 211:g:/iot/IoT_Device_Demo/iot_link/network/lwm2m/wakaama_lwm2m/port\object_access_control.c ****     while (ni < *numDataP && (COAP_205_CONTENT == result));
 408              		.loc 1 211 17
 409 00fc BB68     		ldr	r3, [r7, #8]
 410 00fe 1B68     		ldr	r3, [r3]
 411              		.loc 1 211 5
 412 0100 7A6A     		ldr	r2, [r7, #36]
 413 0102 9A42     		cmp	r2, r3
ARM GAS  C:\Users\ADMINI~1\AppData\Local\Temp\ccQvcA20.s 			page 12


 414 0104 03DA     		bge	.L24
 415              		.loc 1 211 27 discriminator 1
 416 0106 97F82F30 		ldrb	r3, [r7, #47]	@ zero_extendqisi2
 417 010a 452B     		cmp	r3, #69
 418 010c C4D0     		beq	.L25
 419              	.L24:
 212:g:/iot/IoT_Device_Demo/iot_link/network/lwm2m/wakaama_lwm2m/port\object_access_control.c **** 
 213:g:/iot/IoT_Device_Demo/iot_link/network/lwm2m/wakaama_lwm2m/port\object_access_control.c ****     *numDataP = ni - ri;
 420              		.loc 1 213 20
 421 010e 7A6A     		ldr	r2, [r7, #36]
 422 0110 BB6A     		ldr	r3, [r7, #40]
 423 0112 D21A     		subs	r2, r2, r3
 424              		.loc 1 213 15
 425 0114 BB68     		ldr	r3, [r7, #8]
 426 0116 1A60     		str	r2, [r3]
 214:g:/iot/IoT_Device_Demo/iot_link/network/lwm2m/wakaama_lwm2m/port\object_access_control.c ****     return result;
 427              		.loc 1 214 12
 428 0118 97F82F30 		ldrb	r3, [r7, #47]	@ zero_extendqisi2
 429              	.L17:
 215:g:/iot/IoT_Device_Demo/iot_link/network/lwm2m/wakaama_lwm2m/port\object_access_control.c **** }
 430              		.loc 1 215 1
 431 011c 1846     		mov	r0, r3
 432 011e 3437     		adds	r7, r7, #52
 433              	.LCFI8:
 434              		.cfi_def_cfa_offset 12
 435 0120 BD46     		mov	sp, r7
 436              	.LCFI9:
 437              		.cfi_def_cfa_register 13
 438              		@ sp needed
 439 0122 90BD     		pop	{r4, r7, pc}
 440              	.L27:
 441              		.align	2
 442              	.L26:
 443 0124 00000000 		.word	.LC0
 444              		.cfi_endproc
 445              	.LFE13:
 447              		.section	.text.prv_add_ac_val,"ax",%progbits
 448              		.align	1
 449              		.syntax unified
 450              		.thumb
 451              		.thumb_func
 452              		.fpu fpv4-sp-d16
 454              	prv_add_ac_val:
 455              	.LFB14:
 216:g:/iot/IoT_Device_Demo/iot_link/network/lwm2m/wakaama_lwm2m/port\object_access_control.c **** 
 217:g:/iot/IoT_Device_Demo/iot_link/network/lwm2m/wakaama_lwm2m/port\object_access_control.c **** static bool prv_add_ac_val(acc_ctrl_oi_t *accCtrlOiP,
 218:g:/iot/IoT_Device_Demo/iot_link/network/lwm2m/wakaama_lwm2m/port\object_access_control.c ****                            uint16_t acResId, uint16_t acValue)
 219:g:/iot/IoT_Device_Demo/iot_link/network/lwm2m/wakaama_lwm2m/port\object_access_control.c **** {
 456              		.loc 1 219 1
 457              		.cfi_startproc
 458              		@ args = 0, pretend = 0, frame = 16
 459              		@ frame_needed = 1, uses_anonymous_args = 0
 460 0000 80B5     		push	{r7, lr}
 461              	.LCFI10:
 462              		.cfi_def_cfa_offset 8
 463              		.cfi_offset 7, -8
 464              		.cfi_offset 14, -4
ARM GAS  C:\Users\ADMINI~1\AppData\Local\Temp\ccQvcA20.s 			page 13


 465 0002 84B0     		sub	sp, sp, #16
 466              	.LCFI11:
 467              		.cfi_def_cfa_offset 24
 468 0004 00AF     		add	r7, sp, #0
 469              	.LCFI12:
 470              		.cfi_def_cfa_register 7
 471 0006 7860     		str	r0, [r7, #4]
 472 0008 0B46     		mov	r3, r1
 473 000a 7B80     		strh	r3, [r7, #2]	@ movhi
 474 000c 1346     		mov	r3, r2	@ movhi
 475 000e 3B80     		strh	r3, [r7]	@ movhi
 220:g:/iot/IoT_Device_Demo/iot_link/network/lwm2m/wakaama_lwm2m/port\object_access_control.c ****     bool ret = false;
 476              		.loc 1 220 10
 477 0010 0023     		movs	r3, #0
 478 0012 FB73     		strb	r3, [r7, #15]
 221:g:/iot/IoT_Device_Demo/iot_link/network/lwm2m/wakaama_lwm2m/port\object_access_control.c ****     acc_ctrl_ri_t *accCtrlRiP;
 222:g:/iot/IoT_Device_Demo/iot_link/network/lwm2m/wakaama_lwm2m/port\object_access_control.c ****     accCtrlRiP = (acc_ctrl_ri_t *)lwm2m_malloc(sizeof(acc_ctrl_ri_t));
 479              		.loc 1 222 35
 480 0014 0820     		movs	r0, #8
 481 0016 FFF7FEFF 		bl	lwm2m_malloc
 482 001a B860     		str	r0, [r7, #8]
 223:g:/iot/IoT_Device_Demo/iot_link/network/lwm2m/wakaama_lwm2m/port\object_access_control.c **** 
 224:g:/iot/IoT_Device_Demo/iot_link/network/lwm2m/wakaama_lwm2m/port\object_access_control.c ****     if (NULL == accCtrlRiP)
 483              		.loc 1 224 8
 484 001c BB68     		ldr	r3, [r7, #8]
 485 001e 002B     		cmp	r3, #0
 486 0020 01D1     		bne	.L29
 225:g:/iot/IoT_Device_Demo/iot_link/network/lwm2m/wakaama_lwm2m/port\object_access_control.c ****     {
 226:g:/iot/IoT_Device_Demo/iot_link/network/lwm2m/wakaama_lwm2m/port\object_access_control.c ****         return ret;
 487              		.loc 1 226 16
 488 0022 FB7B     		ldrb	r3, [r7, #15]	@ zero_extendqisi2
 489 0024 16E0     		b	.L30
 490              	.L29:
 227:g:/iot/IoT_Device_Demo/iot_link/network/lwm2m/wakaama_lwm2m/port\object_access_control.c ****     }
 228:g:/iot/IoT_Device_Demo/iot_link/network/lwm2m/wakaama_lwm2m/port\object_access_control.c ****     else
 229:g:/iot/IoT_Device_Demo/iot_link/network/lwm2m/wakaama_lwm2m/port\object_access_control.c ****     {
 230:g:/iot/IoT_Device_Demo/iot_link/network/lwm2m/wakaama_lwm2m/port\object_access_control.c ****         (void) memset(accCtrlRiP, 0, sizeof(acc_ctrl_ri_t));
 491              		.loc 1 230 16
 492 0026 0822     		movs	r2, #8
 493 0028 0021     		movs	r1, #0
 494 002a B868     		ldr	r0, [r7, #8]
 495 002c FFF7FEFF 		bl	memset
 231:g:/iot/IoT_Device_Demo/iot_link/network/lwm2m/wakaama_lwm2m/port\object_access_control.c ****         accCtrlRiP->resInstId      = acResId;
 496              		.loc 1 231 36
 497 0030 BB68     		ldr	r3, [r7, #8]
 498 0032 7A88     		ldrh	r2, [r7, #2]	@ movhi
 499 0034 9A80     		strh	r2, [r3, #4]	@ movhi
 232:g:/iot/IoT_Device_Demo/iot_link/network/lwm2m/wakaama_lwm2m/port\object_access_control.c ****         accCtrlRiP->accCtrlValue   = acValue;
 500              		.loc 1 232 36
 501 0036 BB68     		ldr	r3, [r7, #8]
 502 0038 3A88     		ldrh	r2, [r7]	@ movhi
 503 003a DA80     		strh	r2, [r3, #6]	@ movhi
 233:g:/iot/IoT_Device_Demo/iot_link/network/lwm2m/wakaama_lwm2m/port\object_access_control.c ****         accCtrlOiP->accCtrlValList = (acc_ctrl_ri_t *)
 234:g:/iot/IoT_Device_Demo/iot_link/network/lwm2m/wakaama_lwm2m/port\object_access_control.c ****                                      LWM2M_LIST_ADD(accCtrlOiP->accCtrlValList, accCtrlRiP);
 504              		.loc 1 234 38
 505 003c 7B68     		ldr	r3, [r7, #4]
 506 003e DB68     		ldr	r3, [r3, #12]
ARM GAS  C:\Users\ADMINI~1\AppData\Local\Temp\ccQvcA20.s 			page 14


 507 0040 B968     		ldr	r1, [r7, #8]
 508 0042 1846     		mov	r0, r3
 509 0044 FFF7FEFF 		bl	lwm2m_list_add
 510 0048 0246     		mov	r2, r0
 233:g:/iot/IoT_Device_Demo/iot_link/network/lwm2m/wakaama_lwm2m/port\object_access_control.c ****         accCtrlOiP->accCtrlValList = (acc_ctrl_ri_t *)
 511              		.loc 1 233 36
 512 004a 7B68     		ldr	r3, [r7, #4]
 513 004c DA60     		str	r2, [r3, #12]
 235:g:/iot/IoT_Device_Demo/iot_link/network/lwm2m/wakaama_lwm2m/port\object_access_control.c ****         ret = true;
 514              		.loc 1 235 13
 515 004e 0123     		movs	r3, #1
 516 0050 FB73     		strb	r3, [r7, #15]
 236:g:/iot/IoT_Device_Demo/iot_link/network/lwm2m/wakaama_lwm2m/port\object_access_control.c ****     }
 237:g:/iot/IoT_Device_Demo/iot_link/network/lwm2m/wakaama_lwm2m/port\object_access_control.c **** 
 238:g:/iot/IoT_Device_Demo/iot_link/network/lwm2m/wakaama_lwm2m/port\object_access_control.c ****     return ret;
 517              		.loc 1 238 12
 518 0052 FB7B     		ldrb	r3, [r7, #15]	@ zero_extendqisi2
 519              	.L30:
 239:g:/iot/IoT_Device_Demo/iot_link/network/lwm2m/wakaama_lwm2m/port\object_access_control.c **** }
 520              		.loc 1 239 1
 521 0054 1846     		mov	r0, r3
 522 0056 1037     		adds	r7, r7, #16
 523              	.LCFI13:
 524              		.cfi_def_cfa_offset 8
 525 0058 BD46     		mov	sp, r7
 526              	.LCFI14:
 527              		.cfi_def_cfa_register 13
 528              		@ sp needed
 529 005a 80BD     		pop	{r7, pc}
 530              		.cfi_endproc
 531              	.LFE14:
 533              		.section	.text.prv_write_resources,"ax",%progbits
 534              		.align	1
 535              		.syntax unified
 536              		.thumb
 537              		.thumb_func
 538              		.fpu fpv4-sp-d16
 540              	prv_write_resources:
 541              	.LFB15:
 240:g:/iot/IoT_Device_Demo/iot_link/network/lwm2m/wakaama_lwm2m/port\object_access_control.c **** 
 241:g:/iot/IoT_Device_Demo/iot_link/network/lwm2m/wakaama_lwm2m/port\object_access_control.c **** static uint8_t prv_write_resources(uint16_t instanceId, int numData,
 242:g:/iot/IoT_Device_Demo/iot_link/network/lwm2m/wakaama_lwm2m/port\object_access_control.c ****                                    lwm2m_data_t *tlvArray, lwm2m_object_t *objectP, bool doCreate)
 243:g:/iot/IoT_Device_Demo/iot_link/network/lwm2m/wakaama_lwm2m/port\object_access_control.c **** {
 542              		.loc 1 243 1
 543              		.cfi_startproc
 544              		@ args = 4, pretend = 0, frame = 48
 545              		@ frame_needed = 1, uses_anonymous_args = 0
 546 0000 80B5     		push	{r7, lr}
 547              	.LCFI15:
 548              		.cfi_def_cfa_offset 8
 549              		.cfi_offset 7, -8
 550              		.cfi_offset 14, -4
 551 0002 8CB0     		sub	sp, sp, #48
 552              	.LCFI16:
 553              		.cfi_def_cfa_offset 56
 554 0004 00AF     		add	r7, sp, #0
 555              	.LCFI17:
ARM GAS  C:\Users\ADMINI~1\AppData\Local\Temp\ccQvcA20.s 			page 15


 556              		.cfi_def_cfa_register 7
 557 0006 B960     		str	r1, [r7, #8]
 558 0008 7A60     		str	r2, [r7, #4]
 559 000a 3B60     		str	r3, [r7]
 560 000c 0346     		mov	r3, r0	@ movhi
 561 000e FB81     		strh	r3, [r7, #14]	@ movhi
 244:g:/iot/IoT_Device_Demo/iot_link/network/lwm2m/wakaama_lwm2m/port\object_access_control.c ****     int i;
 245:g:/iot/IoT_Device_Demo/iot_link/network/lwm2m/wakaama_lwm2m/port\object_access_control.c ****     uint8_t result = COAP_NO_ERROR;
 562              		.loc 1 245 13
 563 0010 0023     		movs	r3, #0
 564 0012 87F82B30 		strb	r3, [r7, #43]
 246:g:/iot/IoT_Device_Demo/iot_link/network/lwm2m/wakaama_lwm2m/port\object_access_control.c ****     int64_t value;
 247:g:/iot/IoT_Device_Demo/iot_link/network/lwm2m/wakaama_lwm2m/port\object_access_control.c ****     lwm2m_data_t *subTlvArray;
 248:g:/iot/IoT_Device_Demo/iot_link/network/lwm2m/wakaama_lwm2m/port\object_access_control.c ****     int ri;
 249:g:/iot/IoT_Device_Demo/iot_link/network/lwm2m/wakaama_lwm2m/port\object_access_control.c ****     acc_ctrl_oi_t *accCtrlOiP = (acc_ctrl_oi_t *)
 250:g:/iot/IoT_Device_Demo/iot_link/network/lwm2m/wakaama_lwm2m/port\object_access_control.c ****                                 lwm2m_list_find(objectP->instanceList, instanceId);
 565              		.loc 1 250 33
 566 0016 3B68     		ldr	r3, [r7]
 567 0018 9B68     		ldr	r3, [r3, #8]
 568 001a FA89     		ldrh	r2, [r7, #14]
 569 001c 1146     		mov	r1, r2
 570 001e 1846     		mov	r0, r3
 571 0020 FFF7FEFF 		bl	lwm2m_list_find
 572 0024 3862     		str	r0, [r7, #32]
 251:g:/iot/IoT_Device_Demo/iot_link/network/lwm2m/wakaama_lwm2m/port\object_access_control.c **** 
 252:g:/iot/IoT_Device_Demo/iot_link/network/lwm2m/wakaama_lwm2m/port\object_access_control.c ****     if (NULL == accCtrlOiP)
 573              		.loc 1 252 8
 574 0026 3B6A     		ldr	r3, [r7, #32]
 575 0028 002B     		cmp	r3, #0
 576 002a 01D1     		bne	.L32
 253:g:/iot/IoT_Device_Demo/iot_link/network/lwm2m/wakaama_lwm2m/port\object_access_control.c ****         return COAP_404_NOT_FOUND ;
 577              		.loc 1 253 16
 578 002c 8423     		movs	r3, #132
 579 002e 4BE1     		b	.L69
 580              	.L32:
 254:g:/iot/IoT_Device_Demo/iot_link/network/lwm2m/wakaama_lwm2m/port\object_access_control.c **** 
 255:g:/iot/IoT_Device_Demo/iot_link/network/lwm2m/wakaama_lwm2m/port\object_access_control.c ****     i = 0;
 581              		.loc 1 255 7
 582 0030 0023     		movs	r3, #0
 583 0032 FB62     		str	r3, [r7, #44]
 584              	.L68:
 256:g:/iot/IoT_Device_Demo/iot_link/network/lwm2m/wakaama_lwm2m/port\object_access_control.c **** 
 257:g:/iot/IoT_Device_Demo/iot_link/network/lwm2m/wakaama_lwm2m/port\object_access_control.c ****     do
 258:g:/iot/IoT_Device_Demo/iot_link/network/lwm2m/wakaama_lwm2m/port\object_access_control.c ****     {
 259:g:/iot/IoT_Device_Demo/iot_link/network/lwm2m/wakaama_lwm2m/port\object_access_control.c ****         switch (tlvArray[i].id)
 585              		.loc 1 259 25
 586 0034 FB6A     		ldr	r3, [r7, #44]
 587 0036 1B01     		lsls	r3, r3, #4
 588 0038 7A68     		ldr	r2, [r7, #4]
 589 003a 1344     		add	r3, r3, r2
 590              		.loc 1 259 28
 591 003c 5B88     		ldrh	r3, [r3, #2]
 592 003e 032B     		cmp	r3, #3
 593 0040 00F23281 		bhi	.L34
 594 0044 01A2     		adr	r2, .L36
 595 0046 52F823F0 		ldr	pc, [r2, r3, lsl #2]
 596 004a 00BF     		.p2align 2
ARM GAS  C:\Users\ADMINI~1\AppData\Local\Temp\ccQvcA20.s 			page 16


 597              	.L36:
 598 004c 5D000000 		.word	.L39+1
 599 0050 CF000000 		.word	.L38+1
 600 0054 41010000 		.word	.L37+1
 601 0058 4D020000 		.word	.L35+1
 602              		.p2align 1
 603              	.L39:
 260:g:/iot/IoT_Device_Demo/iot_link/network/lwm2m/wakaama_lwm2m/port\object_access_control.c ****         {
 261:g:/iot/IoT_Device_Demo/iot_link/network/lwm2m/wakaama_lwm2m/port\object_access_control.c ****             case RES_M_OBJECT_ID:
 262:g:/iot/IoT_Device_Demo/iot_link/network/lwm2m/wakaama_lwm2m/port\object_access_control.c ****                 if (false == doCreate)
 604              		.loc 1 262 27
 605 005c 97F83830 		ldrb	r3, [r7, #56]
 606 0060 83F00103 		eor	r3, r3, #1
 607 0064 DBB2     		uxtb	r3, r3
 608              		.loc 1 262 20
 609 0066 002B     		cmp	r3, #0
 610 0068 03D0     		beq	.L40
 263:g:/iot/IoT_Device_Demo/iot_link/network/lwm2m/wakaama_lwm2m/port\object_access_control.c ****                 {
 264:g:/iot/IoT_Device_Demo/iot_link/network/lwm2m/wakaama_lwm2m/port\object_access_control.c ****                     result = COAP_405_METHOD_NOT_ALLOWED;
 611              		.loc 1 264 28
 612 006a 8523     		movs	r3, #133
 613 006c 87F82B30 		strb	r3, [r7, #43]
 265:g:/iot/IoT_Device_Demo/iot_link/network/lwm2m/wakaama_lwm2m/port\object_access_control.c ****                 }
 266:g:/iot/IoT_Device_Demo/iot_link/network/lwm2m/wakaama_lwm2m/port\object_access_control.c ****                 else
 267:g:/iot/IoT_Device_Demo/iot_link/network/lwm2m/wakaama_lwm2m/port\object_access_control.c ****                 {
 268:g:/iot/IoT_Device_Demo/iot_link/network/lwm2m/wakaama_lwm2m/port\object_access_control.c ****                     if (1 != lwm2m_data_decode_int(&tlvArray[i], &value))
 269:g:/iot/IoT_Device_Demo/iot_link/network/lwm2m/wakaama_lwm2m/port\object_access_control.c ****                     {
 270:g:/iot/IoT_Device_Demo/iot_link/network/lwm2m/wakaama_lwm2m/port\object_access_control.c ****                         result = COAP_400_BAD_REQUEST;
 271:g:/iot/IoT_Device_Demo/iot_link/network/lwm2m/wakaama_lwm2m/port\object_access_control.c ****                     }
 272:g:/iot/IoT_Device_Demo/iot_link/network/lwm2m/wakaama_lwm2m/port\object_access_control.c ****                     else if (value < 1 || value > 65534)
 273:g:/iot/IoT_Device_Demo/iot_link/network/lwm2m/wakaama_lwm2m/port\object_access_control.c ****                     {
 274:g:/iot/IoT_Device_Demo/iot_link/network/lwm2m/wakaama_lwm2m/port\object_access_control.c ****                         result = COAP_406_NOT_ACCEPTABLE;
 275:g:/iot/IoT_Device_Demo/iot_link/network/lwm2m/wakaama_lwm2m/port\object_access_control.c ****                     }
 276:g:/iot/IoT_Device_Demo/iot_link/network/lwm2m/wakaama_lwm2m/port\object_access_control.c ****                     else
 277:g:/iot/IoT_Device_Demo/iot_link/network/lwm2m/wakaama_lwm2m/port\object_access_control.c ****                     {
 278:g:/iot/IoT_Device_Demo/iot_link/network/lwm2m/wakaama_lwm2m/port\object_access_control.c ****                         accCtrlOiP->objectId = value;
 279:g:/iot/IoT_Device_Demo/iot_link/network/lwm2m/wakaama_lwm2m/port\object_access_control.c ****                         result = COAP_204_CHANGED;
 280:g:/iot/IoT_Device_Demo/iot_link/network/lwm2m/wakaama_lwm2m/port\object_access_control.c ****                     }
 281:g:/iot/IoT_Device_Demo/iot_link/network/lwm2m/wakaama_lwm2m/port\object_access_control.c ****                 }
 282:g:/iot/IoT_Device_Demo/iot_link/network/lwm2m/wakaama_lwm2m/port\object_access_control.c **** 
 283:g:/iot/IoT_Device_Demo/iot_link/network/lwm2m/wakaama_lwm2m/port\object_access_control.c ****                 break;
 614              		.loc 1 283 17
 615 0070 1CE1     		b	.L45
 616              	.L40:
 268:g:/iot/IoT_Device_Demo/iot_link/network/lwm2m/wakaama_lwm2m/port\object_access_control.c ****                     {
 617              		.loc 1 268 61
 618 0072 FB6A     		ldr	r3, [r7, #44]
 619 0074 1B01     		lsls	r3, r3, #4
 268:g:/iot/IoT_Device_Demo/iot_link/network/lwm2m/wakaama_lwm2m/port\object_access_control.c ****                     {
 620              		.loc 1 268 52
 621 0076 7A68     		ldr	r2, [r7, #4]
 622 0078 1344     		add	r3, r3, r2
 268:g:/iot/IoT_Device_Demo/iot_link/network/lwm2m/wakaama_lwm2m/port\object_access_control.c ****                     {
 623              		.loc 1 268 30
 624 007a 07F11002 		add	r2, r7, #16
 625 007e 1146     		mov	r1, r2
 626 0080 1846     		mov	r0, r3
ARM GAS  C:\Users\ADMINI~1\AppData\Local\Temp\ccQvcA20.s 			page 17


 627 0082 FFF7FEFF 		bl	lwm2m_data_decode_int
 628 0086 0346     		mov	r3, r0
 268:g:/iot/IoT_Device_Demo/iot_link/network/lwm2m/wakaama_lwm2m/port\object_access_control.c ****                     {
 629              		.loc 1 268 24
 630 0088 012B     		cmp	r3, #1
 631 008a 03D0     		beq	.L42
 270:g:/iot/IoT_Device_Demo/iot_link/network/lwm2m/wakaama_lwm2m/port\object_access_control.c ****                     }
 632              		.loc 1 270 32
 633 008c 8023     		movs	r3, #128
 634 008e 87F82B30 		strb	r3, [r7, #43]
 635              		.loc 1 283 17
 636 0092 0BE1     		b	.L45
 637              	.L42:
 272:g:/iot/IoT_Device_Demo/iot_link/network/lwm2m/wakaama_lwm2m/port\object_access_control.c ****                     {
 638              		.loc 1 272 36
 639 0094 D7E90423 		ldrd	r2, [r7, #16]
 272:g:/iot/IoT_Device_Demo/iot_link/network/lwm2m/wakaama_lwm2m/port\object_access_control.c ****                     {
 640              		.loc 1 272 29
 641 0098 012A     		cmp	r2, #1
 642 009a 73F10003 		sbcs	r3, r3, #0
 643 009e 09DB     		blt	.L43
 272:g:/iot/IoT_Device_Demo/iot_link/network/lwm2m/wakaama_lwm2m/port\object_access_control.c ****                     {
 644              		.loc 1 272 49 discriminator 1
 645 00a0 D7E90423 		ldrd	r2, [r7, #16]
 272:g:/iot/IoT_Device_Demo/iot_link/network/lwm2m/wakaama_lwm2m/port\object_access_control.c ****                     {
 646              		.loc 1 272 40 discriminator 1
 647 00a4 4FF6FE70 		movw	r0, #65534
 648 00a8 4FF00001 		mov	r1, #0
 649 00ac 9042     		cmp	r0, r2
 650 00ae 71EB0303 		sbcs	r3, r1, r3
 651 00b2 03DA     		bge	.L44
 652              	.L43:
 274:g:/iot/IoT_Device_Demo/iot_link/network/lwm2m/wakaama_lwm2m/port\object_access_control.c ****                     }
 653              		.loc 1 274 32
 654 00b4 8623     		movs	r3, #134
 655 00b6 87F82B30 		strb	r3, [r7, #43]
 656              		.loc 1 283 17
 657 00ba F7E0     		b	.L45
 658              	.L44:
 278:g:/iot/IoT_Device_Demo/iot_link/network/lwm2m/wakaama_lwm2m/port\object_access_control.c ****                         result = COAP_204_CHANGED;
 659              		.loc 1 278 46
 660 00bc D7E90423 		ldrd	r2, [r7, #16]
 661 00c0 92B2     		uxth	r2, r2
 662 00c2 3B6A     		ldr	r3, [r7, #32]
 663 00c4 DA80     		strh	r2, [r3, #6]	@ movhi
 279:g:/iot/IoT_Device_Demo/iot_link/network/lwm2m/wakaama_lwm2m/port\object_access_control.c ****                     }
 664              		.loc 1 279 32
 665 00c6 4423     		movs	r3, #68
 666 00c8 87F82B30 		strb	r3, [r7, #43]
 667              		.loc 1 283 17
 668 00cc EEE0     		b	.L45
 669              	.L38:
 284:g:/iot/IoT_Device_Demo/iot_link/network/lwm2m/wakaama_lwm2m/port\object_access_control.c **** 
 285:g:/iot/IoT_Device_Demo/iot_link/network/lwm2m/wakaama_lwm2m/port\object_access_control.c ****             case RES_M_OBJECT_INSTANCE_ID:
 286:g:/iot/IoT_Device_Demo/iot_link/network/lwm2m/wakaama_lwm2m/port\object_access_control.c ****                 if (false == doCreate)
 670              		.loc 1 286 27
 671 00ce 97F83830 		ldrb	r3, [r7, #56]
ARM GAS  C:\Users\ADMINI~1\AppData\Local\Temp\ccQvcA20.s 			page 18


 672 00d2 83F00103 		eor	r3, r3, #1
 673 00d6 DBB2     		uxtb	r3, r3
 674              		.loc 1 286 20
 675 00d8 002B     		cmp	r3, #0
 676 00da 03D0     		beq	.L46
 287:g:/iot/IoT_Device_Demo/iot_link/network/lwm2m/wakaama_lwm2m/port\object_access_control.c ****                 {
 288:g:/iot/IoT_Device_Demo/iot_link/network/lwm2m/wakaama_lwm2m/port\object_access_control.c ****                     result = COAP_405_METHOD_NOT_ALLOWED;
 677              		.loc 1 288 28
 678 00dc 8523     		movs	r3, #133
 679 00de 87F82B30 		strb	r3, [r7, #43]
 289:g:/iot/IoT_Device_Demo/iot_link/network/lwm2m/wakaama_lwm2m/port\object_access_control.c ****                 }
 290:g:/iot/IoT_Device_Demo/iot_link/network/lwm2m/wakaama_lwm2m/port\object_access_control.c ****                 else
 291:g:/iot/IoT_Device_Demo/iot_link/network/lwm2m/wakaama_lwm2m/port\object_access_control.c ****                 {
 292:g:/iot/IoT_Device_Demo/iot_link/network/lwm2m/wakaama_lwm2m/port\object_access_control.c ****                     if (1 != lwm2m_data_decode_int(&tlvArray[i], &value))
 293:g:/iot/IoT_Device_Demo/iot_link/network/lwm2m/wakaama_lwm2m/port\object_access_control.c ****                     {
 294:g:/iot/IoT_Device_Demo/iot_link/network/lwm2m/wakaama_lwm2m/port\object_access_control.c ****                         result = COAP_400_BAD_REQUEST;
 295:g:/iot/IoT_Device_Demo/iot_link/network/lwm2m/wakaama_lwm2m/port\object_access_control.c ****                     }
 296:g:/iot/IoT_Device_Demo/iot_link/network/lwm2m/wakaama_lwm2m/port\object_access_control.c ****                     else if (value < 0 || value > MAX_DATA_VAL)
 297:g:/iot/IoT_Device_Demo/iot_link/network/lwm2m/wakaama_lwm2m/port\object_access_control.c ****                     {
 298:g:/iot/IoT_Device_Demo/iot_link/network/lwm2m/wakaama_lwm2m/port\object_access_control.c ****                         result = COAP_406_NOT_ACCEPTABLE;
 299:g:/iot/IoT_Device_Demo/iot_link/network/lwm2m/wakaama_lwm2m/port\object_access_control.c ****                     }
 300:g:/iot/IoT_Device_Demo/iot_link/network/lwm2m/wakaama_lwm2m/port\object_access_control.c ****                     else
 301:g:/iot/IoT_Device_Demo/iot_link/network/lwm2m/wakaama_lwm2m/port\object_access_control.c ****                     {
 302:g:/iot/IoT_Device_Demo/iot_link/network/lwm2m/wakaama_lwm2m/port\object_access_control.c ****                         accCtrlOiP->objectInstId = value;
 303:g:/iot/IoT_Device_Demo/iot_link/network/lwm2m/wakaama_lwm2m/port\object_access_control.c ****                         result = COAP_204_CHANGED;
 304:g:/iot/IoT_Device_Demo/iot_link/network/lwm2m/wakaama_lwm2m/port\object_access_control.c ****                     }
 305:g:/iot/IoT_Device_Demo/iot_link/network/lwm2m/wakaama_lwm2m/port\object_access_control.c ****                 }
 306:g:/iot/IoT_Device_Demo/iot_link/network/lwm2m/wakaama_lwm2m/port\object_access_control.c **** 
 307:g:/iot/IoT_Device_Demo/iot_link/network/lwm2m/wakaama_lwm2m/port\object_access_control.c ****                 break;
 680              		.loc 1 307 17
 681 00e2 E3E0     		b	.L45
 682              	.L46:
 292:g:/iot/IoT_Device_Demo/iot_link/network/lwm2m/wakaama_lwm2m/port\object_access_control.c ****                     {
 683              		.loc 1 292 61
 684 00e4 FB6A     		ldr	r3, [r7, #44]
 685 00e6 1B01     		lsls	r3, r3, #4
 292:g:/iot/IoT_Device_Demo/iot_link/network/lwm2m/wakaama_lwm2m/port\object_access_control.c ****                     {
 686              		.loc 1 292 52
 687 00e8 7A68     		ldr	r2, [r7, #4]
 688 00ea 1344     		add	r3, r3, r2
 292:g:/iot/IoT_Device_Demo/iot_link/network/lwm2m/wakaama_lwm2m/port\object_access_control.c ****                     {
 689              		.loc 1 292 30
 690 00ec 07F11002 		add	r2, r7, #16
 691 00f0 1146     		mov	r1, r2
 692 00f2 1846     		mov	r0, r3
 693 00f4 FFF7FEFF 		bl	lwm2m_data_decode_int
 694 00f8 0346     		mov	r3, r0
 292:g:/iot/IoT_Device_Demo/iot_link/network/lwm2m/wakaama_lwm2m/port\object_access_control.c ****                     {
 695              		.loc 1 292 24
 696 00fa 012B     		cmp	r3, #1
 697 00fc 03D0     		beq	.L48
 294:g:/iot/IoT_Device_Demo/iot_link/network/lwm2m/wakaama_lwm2m/port\object_access_control.c ****                     }
 698              		.loc 1 294 32
 699 00fe 8023     		movs	r3, #128
 700 0100 87F82B30 		strb	r3, [r7, #43]
 701              		.loc 1 307 17
 702 0104 D2E0     		b	.L45
ARM GAS  C:\Users\ADMINI~1\AppData\Local\Temp\ccQvcA20.s 			page 19


 703              	.L48:
 296:g:/iot/IoT_Device_Demo/iot_link/network/lwm2m/wakaama_lwm2m/port\object_access_control.c ****                     {
 704              		.loc 1 296 36
 705 0106 D7E90423 		ldrd	r2, [r7, #16]
 296:g:/iot/IoT_Device_Demo/iot_link/network/lwm2m/wakaama_lwm2m/port\object_access_control.c ****                     {
 706              		.loc 1 296 29
 707 010a 002A     		cmp	r2, #0
 708 010c 73F10003 		sbcs	r3, r3, #0
 709 0110 09DB     		blt	.L49
 296:g:/iot/IoT_Device_Demo/iot_link/network/lwm2m/wakaama_lwm2m/port\object_access_control.c ****                     {
 710              		.loc 1 296 49 discriminator 1
 711 0112 D7E90423 		ldrd	r2, [r7, #16]
 296:g:/iot/IoT_Device_Demo/iot_link/network/lwm2m/wakaama_lwm2m/port\object_access_control.c ****                     {
 712              		.loc 1 296 40 discriminator 1
 713 0116 4FF6FF70 		movw	r0, #65535
 714 011a 4FF00001 		mov	r1, #0
 715 011e 9042     		cmp	r0, r2
 716 0120 71EB0303 		sbcs	r3, r1, r3
 717 0124 03DA     		bge	.L50
 718              	.L49:
 298:g:/iot/IoT_Device_Demo/iot_link/network/lwm2m/wakaama_lwm2m/port\object_access_control.c ****                     }
 719              		.loc 1 298 32
 720 0126 8623     		movs	r3, #134
 721 0128 87F82B30 		strb	r3, [r7, #43]
 722              		.loc 1 307 17
 723 012c BEE0     		b	.L45
 724              	.L50:
 302:g:/iot/IoT_Device_Demo/iot_link/network/lwm2m/wakaama_lwm2m/port\object_access_control.c ****                         result = COAP_204_CHANGED;
 725              		.loc 1 302 50
 726 012e D7E90423 		ldrd	r2, [r7, #16]
 727 0132 92B2     		uxth	r2, r2
 728 0134 3B6A     		ldr	r3, [r7, #32]
 729 0136 1A81     		strh	r2, [r3, #8]	@ movhi
 303:g:/iot/IoT_Device_Demo/iot_link/network/lwm2m/wakaama_lwm2m/port\object_access_control.c ****                     }
 730              		.loc 1 303 32
 731 0138 4423     		movs	r3, #68
 732 013a 87F82B30 		strb	r3, [r7, #43]
 733              		.loc 1 307 17
 734 013e B5E0     		b	.L45
 735              	.L37:
 308:g:/iot/IoT_Device_Demo/iot_link/network/lwm2m/wakaama_lwm2m/port\object_access_control.c **** 
 309:g:/iot/IoT_Device_Demo/iot_link/network/lwm2m/wakaama_lwm2m/port\object_access_control.c ****             case RES_O_ACL:
 310:g:/iot/IoT_Device_Demo/iot_link/network/lwm2m/wakaama_lwm2m/port\object_access_control.c ****             {
 311:g:/iot/IoT_Device_Demo/iot_link/network/lwm2m/wakaama_lwm2m/port\object_access_control.c ****                 if (LWM2M_TYPE_MULTIPLE_RESOURCE != tlvArray[i].type)
 736              		.loc 1 311 61
 737 0140 FB6A     		ldr	r3, [r7, #44]
 738 0142 1B01     		lsls	r3, r3, #4
 739 0144 7A68     		ldr	r2, [r7, #4]
 740 0146 1344     		add	r3, r3, r2
 741              		.loc 1 311 64
 742 0148 1B78     		ldrb	r3, [r3]	@ zero_extendqisi2
 743              		.loc 1 311 20
 744 014a 032B     		cmp	r3, #3
 745 014c 03D0     		beq	.L51
 312:g:/iot/IoT_Device_Demo/iot_link/network/lwm2m/wakaama_lwm2m/port\object_access_control.c ****                 {
 313:g:/iot/IoT_Device_Demo/iot_link/network/lwm2m/wakaama_lwm2m/port\object_access_control.c ****                     result = COAP_400_BAD_REQUEST;
 746              		.loc 1 313 28
ARM GAS  C:\Users\ADMINI~1\AppData\Local\Temp\ccQvcA20.s 			page 20


 747 014e 8023     		movs	r3, #128
 748 0150 87F82B30 		strb	r3, [r7, #43]
 314:g:/iot/IoT_Device_Demo/iot_link/network/lwm2m/wakaama_lwm2m/port\object_access_control.c ****                 }
 315:g:/iot/IoT_Device_Demo/iot_link/network/lwm2m/wakaama_lwm2m/port\object_access_control.c ****                 else
 316:g:/iot/IoT_Device_Demo/iot_link/network/lwm2m/wakaama_lwm2m/port\object_access_control.c ****                 {
 317:g:/iot/IoT_Device_Demo/iot_link/network/lwm2m/wakaama_lwm2m/port\object_access_control.c ****                     // MR-Write: Replace-implementation variant only
 318:g:/iot/IoT_Device_Demo/iot_link/network/lwm2m/wakaama_lwm2m/port\object_access_control.c ****                     // see LWM2M-TS:5.4.3 (wakaama has no part-update switch)
 319:g:/iot/IoT_Device_Demo/iot_link/network/lwm2m/wakaama_lwm2m/port\object_access_control.c ****                     // 1st: save accValueList!
 320:g:/iot/IoT_Device_Demo/iot_link/network/lwm2m/wakaama_lwm2m/port\object_access_control.c ****                     acc_ctrl_ri_t *acValListSave = accCtrlOiP->accCtrlValList;
 321:g:/iot/IoT_Device_Demo/iot_link/network/lwm2m/wakaama_lwm2m/port\object_access_control.c ****                     accCtrlOiP->accCtrlValList = NULL;
 322:g:/iot/IoT_Device_Demo/iot_link/network/lwm2m/wakaama_lwm2m/port\object_access_control.c ****                     subTlvArray = tlvArray[i].value.asChildren.array;
 323:g:/iot/IoT_Device_Demo/iot_link/network/lwm2m/wakaama_lwm2m/port\object_access_control.c **** 
 324:g:/iot/IoT_Device_Demo/iot_link/network/lwm2m/wakaama_lwm2m/port\object_access_control.c ****                     if (0 == tlvArray[i].value.asChildren.count)
 325:g:/iot/IoT_Device_Demo/iot_link/network/lwm2m/wakaama_lwm2m/port\object_access_control.c ****                     {
 326:g:/iot/IoT_Device_Demo/iot_link/network/lwm2m/wakaama_lwm2m/port\object_access_control.c ****                         result = COAP_204_CHANGED;
 327:g:/iot/IoT_Device_Demo/iot_link/network/lwm2m/wakaama_lwm2m/port\object_access_control.c ****                     }
 328:g:/iot/IoT_Device_Demo/iot_link/network/lwm2m/wakaama_lwm2m/port\object_access_control.c ****                     else if (NULL == subTlvArray)
 329:g:/iot/IoT_Device_Demo/iot_link/network/lwm2m/wakaama_lwm2m/port\object_access_control.c ****                     {
 330:g:/iot/IoT_Device_Demo/iot_link/network/lwm2m/wakaama_lwm2m/port\object_access_control.c ****                         result = COAP_400_BAD_REQUEST;
 331:g:/iot/IoT_Device_Demo/iot_link/network/lwm2m/wakaama_lwm2m/port\object_access_control.c ****                     }
 332:g:/iot/IoT_Device_Demo/iot_link/network/lwm2m/wakaama_lwm2m/port\object_access_control.c ****                     else
 333:g:/iot/IoT_Device_Demo/iot_link/network/lwm2m/wakaama_lwm2m/port\object_access_control.c ****                     {
 334:g:/iot/IoT_Device_Demo/iot_link/network/lwm2m/wakaama_lwm2m/port\object_access_control.c ****                         for (ri = 0; (size_t)ri < tlvArray[i].value.asChildren.count; ri++)
 335:g:/iot/IoT_Device_Demo/iot_link/network/lwm2m/wakaama_lwm2m/port\object_access_control.c ****                         {
 336:g:/iot/IoT_Device_Demo/iot_link/network/lwm2m/wakaama_lwm2m/port\object_access_control.c ****                             if (1 != lwm2m_data_decode_int(&subTlvArray[ri], &value))
 337:g:/iot/IoT_Device_Demo/iot_link/network/lwm2m/wakaama_lwm2m/port\object_access_control.c ****                             {
 338:g:/iot/IoT_Device_Demo/iot_link/network/lwm2m/wakaama_lwm2m/port\object_access_control.c ****                                 result = COAP_400_BAD_REQUEST;
 339:g:/iot/IoT_Device_Demo/iot_link/network/lwm2m/wakaama_lwm2m/port\object_access_control.c ****                                 break;
 340:g:/iot/IoT_Device_Demo/iot_link/network/lwm2m/wakaama_lwm2m/port\object_access_control.c ****                             }
 341:g:/iot/IoT_Device_Demo/iot_link/network/lwm2m/wakaama_lwm2m/port\object_access_control.c ****                             else if (value < 0 || value > 0xFFFF)
 342:g:/iot/IoT_Device_Demo/iot_link/network/lwm2m/wakaama_lwm2m/port\object_access_control.c ****                             {
 343:g:/iot/IoT_Device_Demo/iot_link/network/lwm2m/wakaama_lwm2m/port\object_access_control.c ****                                 result = COAP_406_NOT_ACCEPTABLE;
 344:g:/iot/IoT_Device_Demo/iot_link/network/lwm2m/wakaama_lwm2m/port\object_access_control.c ****                                 break;
 345:g:/iot/IoT_Device_Demo/iot_link/network/lwm2m/wakaama_lwm2m/port\object_access_control.c ****                             }
 346:g:/iot/IoT_Device_Demo/iot_link/network/lwm2m/wakaama_lwm2m/port\object_access_control.c ****                             else if (!prv_add_ac_val(accCtrlOiP, subTlvArray[ri].id,
 347:g:/iot/IoT_Device_Demo/iot_link/network/lwm2m/wakaama_lwm2m/port\object_access_control.c ****                                                      (uint16_t)value))
 348:g:/iot/IoT_Device_Demo/iot_link/network/lwm2m/wakaama_lwm2m/port\object_access_control.c ****                             {
 349:g:/iot/IoT_Device_Demo/iot_link/network/lwm2m/wakaama_lwm2m/port\object_access_control.c ****                                 result = COAP_500_INTERNAL_SERVER_ERROR;
 350:g:/iot/IoT_Device_Demo/iot_link/network/lwm2m/wakaama_lwm2m/port\object_access_control.c ****                                 break;
 351:g:/iot/IoT_Device_Demo/iot_link/network/lwm2m/wakaama_lwm2m/port\object_access_control.c ****                             }
 352:g:/iot/IoT_Device_Demo/iot_link/network/lwm2m/wakaama_lwm2m/port\object_access_control.c ****                             else
 353:g:/iot/IoT_Device_Demo/iot_link/network/lwm2m/wakaama_lwm2m/port\object_access_control.c ****                             {
 354:g:/iot/IoT_Device_Demo/iot_link/network/lwm2m/wakaama_lwm2m/port\object_access_control.c ****                                 result = COAP_204_CHANGED;
 355:g:/iot/IoT_Device_Demo/iot_link/network/lwm2m/wakaama_lwm2m/port\object_access_control.c ****                             }
 356:g:/iot/IoT_Device_Demo/iot_link/network/lwm2m/wakaama_lwm2m/port\object_access_control.c ****                         }
 357:g:/iot/IoT_Device_Demo/iot_link/network/lwm2m/wakaama_lwm2m/port\object_access_control.c ****                     }
 358:g:/iot/IoT_Device_Demo/iot_link/network/lwm2m/wakaama_lwm2m/port\object_access_control.c **** 
 359:g:/iot/IoT_Device_Demo/iot_link/network/lwm2m/wakaama_lwm2m/port\object_access_control.c ****                     if (COAP_204_CHANGED != result)
 360:g:/iot/IoT_Device_Demo/iot_link/network/lwm2m/wakaama_lwm2m/port\object_access_control.c ****                     {
 361:g:/iot/IoT_Device_Demo/iot_link/network/lwm2m/wakaama_lwm2m/port\object_access_control.c ****                         // free pot. partial created new ones
 362:g:/iot/IoT_Device_Demo/iot_link/network/lwm2m/wakaama_lwm2m/port\object_access_control.c ****                         LWM2M_LIST_FREE(accCtrlOiP->accCtrlValList);
 363:g:/iot/IoT_Device_Demo/iot_link/network/lwm2m/wakaama_lwm2m/port\object_access_control.c ****                         // restore old values:
 364:g:/iot/IoT_Device_Demo/iot_link/network/lwm2m/wakaama_lwm2m/port\object_access_control.c ****                         accCtrlOiP->accCtrlValList = acValListSave;
 365:g:/iot/IoT_Device_Demo/iot_link/network/lwm2m/wakaama_lwm2m/port\object_access_control.c ****                     }
 366:g:/iot/IoT_Device_Demo/iot_link/network/lwm2m/wakaama_lwm2m/port\object_access_control.c ****                     else
 367:g:/iot/IoT_Device_Demo/iot_link/network/lwm2m/wakaama_lwm2m/port\object_access_control.c ****                     {
 368:g:/iot/IoT_Device_Demo/iot_link/network/lwm2m/wakaama_lwm2m/port\object_access_control.c ****                         // final free saved value list
ARM GAS  C:\Users\ADMINI~1\AppData\Local\Temp\ccQvcA20.s 			page 21


 369:g:/iot/IoT_Device_Demo/iot_link/network/lwm2m/wakaama_lwm2m/port\object_access_control.c ****                         LWM2M_LIST_FREE(acValListSave);
 370:g:/iot/IoT_Device_Demo/iot_link/network/lwm2m/wakaama_lwm2m/port\object_access_control.c ****                     }
 371:g:/iot/IoT_Device_Demo/iot_link/network/lwm2m/wakaama_lwm2m/port\object_access_control.c ****                 }
 372:g:/iot/IoT_Device_Demo/iot_link/network/lwm2m/wakaama_lwm2m/port\object_access_control.c ****             }
 373:g:/iot/IoT_Device_Demo/iot_link/network/lwm2m/wakaama_lwm2m/port\object_access_control.c ****             break;
 749              		.loc 1 373 13
 750 0154 AAE0     		b	.L45
 751              	.L51:
 752              	.LBB5:
 320:g:/iot/IoT_Device_Demo/iot_link/network/lwm2m/wakaama_lwm2m/port\object_access_control.c ****                     accCtrlOiP->accCtrlValList = NULL;
 753              		.loc 1 320 36
 754 0156 3B6A     		ldr	r3, [r7, #32]
 755 0158 DB68     		ldr	r3, [r3, #12]
 756 015a FB61     		str	r3, [r7, #28]
 321:g:/iot/IoT_Device_Demo/iot_link/network/lwm2m/wakaama_lwm2m/port\object_access_control.c ****                     subTlvArray = tlvArray[i].value.asChildren.array;
 757              		.loc 1 321 48
 758 015c 3B6A     		ldr	r3, [r7, #32]
 759 015e 0022     		movs	r2, #0
 760 0160 DA60     		str	r2, [r3, #12]
 322:g:/iot/IoT_Device_Demo/iot_link/network/lwm2m/wakaama_lwm2m/port\object_access_control.c **** 
 761              		.loc 1 322 43
 762 0162 FB6A     		ldr	r3, [r7, #44]
 763 0164 1B01     		lsls	r3, r3, #4
 764 0166 7A68     		ldr	r2, [r7, #4]
 765 0168 1344     		add	r3, r3, r2
 322:g:/iot/IoT_Device_Demo/iot_link/network/lwm2m/wakaama_lwm2m/port\object_access_control.c **** 
 766              		.loc 1 322 33
 767 016a DB68     		ldr	r3, [r3, #12]
 768 016c BB61     		str	r3, [r7, #24]
 324:g:/iot/IoT_Device_Demo/iot_link/network/lwm2m/wakaama_lwm2m/port\object_access_control.c ****                     {
 769              		.loc 1 324 38
 770 016e FB6A     		ldr	r3, [r7, #44]
 771 0170 1B01     		lsls	r3, r3, #4
 772 0172 7A68     		ldr	r2, [r7, #4]
 773 0174 1344     		add	r3, r3, r2
 324:g:/iot/IoT_Device_Demo/iot_link/network/lwm2m/wakaama_lwm2m/port\object_access_control.c ****                     {
 774              		.loc 1 324 58
 775 0176 9B68     		ldr	r3, [r3, #8]
 324:g:/iot/IoT_Device_Demo/iot_link/network/lwm2m/wakaama_lwm2m/port\object_access_control.c ****                     {
 776              		.loc 1 324 24
 777 0178 002B     		cmp	r3, #0
 778 017a 03D1     		bne	.L53
 326:g:/iot/IoT_Device_Demo/iot_link/network/lwm2m/wakaama_lwm2m/port\object_access_control.c ****                     }
 779              		.loc 1 326 32
 780 017c 4423     		movs	r3, #68
 781 017e 87F82B30 		strb	r3, [r7, #43]
 782 0182 52E0     		b	.L54
 783              	.L53:
 328:g:/iot/IoT_Device_Demo/iot_link/network/lwm2m/wakaama_lwm2m/port\object_access_control.c ****                     {
 784              		.loc 1 328 29
 785 0184 BB69     		ldr	r3, [r7, #24]
 786 0186 002B     		cmp	r3, #0
 787 0188 03D1     		bne	.L55
 330:g:/iot/IoT_Device_Demo/iot_link/network/lwm2m/wakaama_lwm2m/port\object_access_control.c ****                     }
 788              		.loc 1 330 32
 789 018a 8023     		movs	r3, #128
 790 018c 87F82B30 		strb	r3, [r7, #43]
ARM GAS  C:\Users\ADMINI~1\AppData\Local\Temp\ccQvcA20.s 			page 22


 791 0190 4BE0     		b	.L54
 792              	.L55:
 334:g:/iot/IoT_Device_Demo/iot_link/network/lwm2m/wakaama_lwm2m/port\object_access_control.c ****                         {
 793              		.loc 1 334 33
 794 0192 0023     		movs	r3, #0
 795 0194 7B62     		str	r3, [r7, #36]
 334:g:/iot/IoT_Device_Demo/iot_link/network/lwm2m/wakaama_lwm2m/port\object_access_control.c ****                         {
 796              		.loc 1 334 25
 797 0196 40E0     		b	.L56
 798              	.L61:
 336:g:/iot/IoT_Device_Demo/iot_link/network/lwm2m/wakaama_lwm2m/port\object_access_control.c ****                             {
 799              		.loc 1 336 72
 800 0198 7B6A     		ldr	r3, [r7, #36]
 801 019a 1B01     		lsls	r3, r3, #4
 336:g:/iot/IoT_Device_Demo/iot_link/network/lwm2m/wakaama_lwm2m/port\object_access_control.c ****                             {
 802              		.loc 1 336 60
 803 019c BA69     		ldr	r2, [r7, #24]
 804 019e 1344     		add	r3, r3, r2
 336:g:/iot/IoT_Device_Demo/iot_link/network/lwm2m/wakaama_lwm2m/port\object_access_control.c ****                             {
 805              		.loc 1 336 38
 806 01a0 07F11002 		add	r2, r7, #16
 807 01a4 1146     		mov	r1, r2
 808 01a6 1846     		mov	r0, r3
 809 01a8 FFF7FEFF 		bl	lwm2m_data_decode_int
 810 01ac 0346     		mov	r3, r0
 336:g:/iot/IoT_Device_Demo/iot_link/network/lwm2m/wakaama_lwm2m/port\object_access_control.c ****                             {
 811              		.loc 1 336 32
 812 01ae 012B     		cmp	r3, #1
 813 01b0 03D0     		beq	.L57
 338:g:/iot/IoT_Device_Demo/iot_link/network/lwm2m/wakaama_lwm2m/port\object_access_control.c ****                                 break;
 814              		.loc 1 338 40
 815 01b2 8023     		movs	r3, #128
 816 01b4 87F82B30 		strb	r3, [r7, #43]
 339:g:/iot/IoT_Device_Demo/iot_link/network/lwm2m/wakaama_lwm2m/port\object_access_control.c ****                             }
 817              		.loc 1 339 33
 818 01b8 37E0     		b	.L54
 819              	.L57:
 341:g:/iot/IoT_Device_Demo/iot_link/network/lwm2m/wakaama_lwm2m/port\object_access_control.c ****                             {
 820              		.loc 1 341 44
 821 01ba D7E90423 		ldrd	r2, [r7, #16]
 341:g:/iot/IoT_Device_Demo/iot_link/network/lwm2m/wakaama_lwm2m/port\object_access_control.c ****                             {
 822              		.loc 1 341 37
 823 01be 002A     		cmp	r2, #0
 824 01c0 73F10003 		sbcs	r3, r3, #0
 825 01c4 09DB     		blt	.L58
 341:g:/iot/IoT_Device_Demo/iot_link/network/lwm2m/wakaama_lwm2m/port\object_access_control.c ****                             {
 826              		.loc 1 341 57 discriminator 1
 827 01c6 D7E90423 		ldrd	r2, [r7, #16]
 341:g:/iot/IoT_Device_Demo/iot_link/network/lwm2m/wakaama_lwm2m/port\object_access_control.c ****                             {
 828              		.loc 1 341 48 discriminator 1
 829 01ca 4FF6FF70 		movw	r0, #65535
 830 01ce 4FF00001 		mov	r1, #0
 831 01d2 9042     		cmp	r0, r2
 832 01d4 71EB0303 		sbcs	r3, r1, r3
 833 01d8 03DA     		bge	.L59
 834              	.L58:
 343:g:/iot/IoT_Device_Demo/iot_link/network/lwm2m/wakaama_lwm2m/port\object_access_control.c ****                                 break;
ARM GAS  C:\Users\ADMINI~1\AppData\Local\Temp\ccQvcA20.s 			page 23


 835              		.loc 1 343 40
 836 01da 8623     		movs	r3, #134
 837 01dc 87F82B30 		strb	r3, [r7, #43]
 344:g:/iot/IoT_Device_Demo/iot_link/network/lwm2m/wakaama_lwm2m/port\object_access_control.c ****                             }
 838              		.loc 1 344 33
 839 01e0 23E0     		b	.L54
 840              	.L59:
 346:g:/iot/IoT_Device_Demo/iot_link/network/lwm2m/wakaama_lwm2m/port\object_access_control.c ****                                                      (uint16_t)value))
 841              		.loc 1 346 77
 842 01e2 7B6A     		ldr	r3, [r7, #36]
 843 01e4 1B01     		lsls	r3, r3, #4
 844 01e6 BA69     		ldr	r2, [r7, #24]
 845 01e8 1344     		add	r3, r3, r2
 346:g:/iot/IoT_Device_Demo/iot_link/network/lwm2m/wakaama_lwm2m/port\object_access_control.c ****                                                      (uint16_t)value))
 846              		.loc 1 346 39
 847 01ea 5988     		ldrh	r1, [r3, #2]
 848 01ec D7E90423 		ldrd	r2, [r7, #16]
 849 01f0 93B2     		uxth	r3, r2
 850 01f2 1A46     		mov	r2, r3
 851 01f4 386A     		ldr	r0, [r7, #32]
 852 01f6 FFF7FEFF 		bl	prv_add_ac_val
 853 01fa 0346     		mov	r3, r0
 346:g:/iot/IoT_Device_Demo/iot_link/network/lwm2m/wakaama_lwm2m/port\object_access_control.c ****                                                      (uint16_t)value))
 854              		.loc 1 346 38
 855 01fc 83F00103 		eor	r3, r3, #1
 856 0200 DBB2     		uxtb	r3, r3
 346:g:/iot/IoT_Device_Demo/iot_link/network/lwm2m/wakaama_lwm2m/port\object_access_control.c ****                                                      (uint16_t)value))
 857              		.loc 1 346 37
 858 0202 002B     		cmp	r3, #0
 859 0204 03D0     		beq	.L60
 349:g:/iot/IoT_Device_Demo/iot_link/network/lwm2m/wakaama_lwm2m/port\object_access_control.c ****                                 break;
 860              		.loc 1 349 40
 861 0206 A023     		movs	r3, #160
 862 0208 87F82B30 		strb	r3, [r7, #43]
 350:g:/iot/IoT_Device_Demo/iot_link/network/lwm2m/wakaama_lwm2m/port\object_access_control.c ****                             }
 863              		.loc 1 350 33
 864 020c 0DE0     		b	.L54
 865              	.L60:
 354:g:/iot/IoT_Device_Demo/iot_link/network/lwm2m/wakaama_lwm2m/port\object_access_control.c ****                             }
 866              		.loc 1 354 40 discriminator 2
 867 020e 4423     		movs	r3, #68
 868 0210 87F82B30 		strb	r3, [r7, #43]
 334:g:/iot/IoT_Device_Demo/iot_link/network/lwm2m/wakaama_lwm2m/port\object_access_control.c ****                         {
 869              		.loc 1 334 89 discriminator 2
 870 0214 7B6A     		ldr	r3, [r7, #36]
 871 0216 0133     		adds	r3, r3, #1
 872 0218 7B62     		str	r3, [r7, #36]
 873              	.L56:
 334:g:/iot/IoT_Device_Demo/iot_link/network/lwm2m/wakaama_lwm2m/port\object_access_control.c ****                         {
 874              		.loc 1 334 59 discriminator 1
 875 021a FB6A     		ldr	r3, [r7, #44]
 876 021c 1B01     		lsls	r3, r3, #4
 877 021e 7A68     		ldr	r2, [r7, #4]
 878 0220 1344     		add	r3, r3, r2
 334:g:/iot/IoT_Device_Demo/iot_link/network/lwm2m/wakaama_lwm2m/port\object_access_control.c ****                         {
 879              		.loc 1 334 79 discriminator 1
 880 0222 9A68     		ldr	r2, [r3, #8]
ARM GAS  C:\Users\ADMINI~1\AppData\Local\Temp\ccQvcA20.s 			page 24


 334:g:/iot/IoT_Device_Demo/iot_link/network/lwm2m/wakaama_lwm2m/port\object_access_control.c ****                         {
 881              		.loc 1 334 49 discriminator 1
 882 0224 7B6A     		ldr	r3, [r7, #36]
 334:g:/iot/IoT_Device_Demo/iot_link/network/lwm2m/wakaama_lwm2m/port\object_access_control.c ****                         {
 883              		.loc 1 334 25 discriminator 1
 884 0226 9A42     		cmp	r2, r3
 885 0228 B6D8     		bhi	.L61
 886              	.L54:
 359:g:/iot/IoT_Device_Demo/iot_link/network/lwm2m/wakaama_lwm2m/port\object_access_control.c ****                     {
 887              		.loc 1 359 24
 888 022a 97F82B30 		ldrb	r3, [r7, #43]	@ zero_extendqisi2
 889 022e 442B     		cmp	r3, #68
 890 0230 08D0     		beq	.L62
 362:g:/iot/IoT_Device_Demo/iot_link/network/lwm2m/wakaama_lwm2m/port\object_access_control.c ****                         // restore old values:
 891              		.loc 1 362 25
 892 0232 3B6A     		ldr	r3, [r7, #32]
 893 0234 DB68     		ldr	r3, [r3, #12]
 894 0236 1846     		mov	r0, r3
 895 0238 FFF7FEFF 		bl	lwm2m_list_free
 364:g:/iot/IoT_Device_Demo/iot_link/network/lwm2m/wakaama_lwm2m/port\object_access_control.c ****                     }
 896              		.loc 1 364 52
 897 023c 3B6A     		ldr	r3, [r7, #32]
 898 023e FA69     		ldr	r2, [r7, #28]
 899 0240 DA60     		str	r2, [r3, #12]
 900              	.LBE5:
 901              		.loc 1 373 13
 902 0242 33E0     		b	.L45
 903              	.L62:
 904              	.LBB6:
 369:g:/iot/IoT_Device_Demo/iot_link/network/lwm2m/wakaama_lwm2m/port\object_access_control.c ****                     }
 905              		.loc 1 369 25
 906 0244 F869     		ldr	r0, [r7, #28]
 907 0246 FFF7FEFF 		bl	lwm2m_list_free
 908              	.LBE6:
 909              		.loc 1 373 13
 910 024a 2FE0     		b	.L45
 911              	.L35:
 374:g:/iot/IoT_Device_Demo/iot_link/network/lwm2m/wakaama_lwm2m/port\object_access_control.c **** 
 375:g:/iot/IoT_Device_Demo/iot_link/network/lwm2m/wakaama_lwm2m/port\object_access_control.c ****             case RES_M_ACCESS_CONTROL_OWNER:
 376:g:/iot/IoT_Device_Demo/iot_link/network/lwm2m/wakaama_lwm2m/port\object_access_control.c ****             {
 377:g:/iot/IoT_Device_Demo/iot_link/network/lwm2m/wakaama_lwm2m/port\object_access_control.c ****                 if (1 == lwm2m_data_decode_int(tlvArray + i, &value))
 912              		.loc 1 377 57
 913 024c FB6A     		ldr	r3, [r7, #44]
 914 024e 1B01     		lsls	r3, r3, #4
 915 0250 7A68     		ldr	r2, [r7, #4]
 916 0252 1344     		add	r3, r3, r2
 917              		.loc 1 377 26
 918 0254 07F11002 		add	r2, r7, #16
 919 0258 1146     		mov	r1, r2
 920 025a 1846     		mov	r0, r3
 921 025c FFF7FEFF 		bl	lwm2m_data_decode_int
 922 0260 0346     		mov	r3, r0
 923              		.loc 1 377 20
 924 0262 012B     		cmp	r3, #1
 925 0264 1CD1     		bne	.L63
 378:g:/iot/IoT_Device_Demo/iot_link/network/lwm2m/wakaama_lwm2m/port\object_access_control.c ****                 {
 379:g:/iot/IoT_Device_Demo/iot_link/network/lwm2m/wakaama_lwm2m/port\object_access_control.c ****                     if (value >= 0 && value <= MAX_DATA_VAL)
ARM GAS  C:\Users\ADMINI~1\AppData\Local\Temp\ccQvcA20.s 			page 25


 926              		.loc 1 379 31
 927 0266 D7E90423 		ldrd	r2, [r7, #16]
 928              		.loc 1 379 24
 929 026a 002A     		cmp	r2, #0
 930 026c 73F10003 		sbcs	r3, r3, #0
 931 0270 12DB     		blt	.L64
 932              		.loc 1 379 45 discriminator 1
 933 0272 D7E90423 		ldrd	r2, [r7, #16]
 934              		.loc 1 379 36 discriminator 1
 935 0276 4FF6FF70 		movw	r0, #65535
 936 027a 4FF00001 		mov	r1, #0
 937 027e 9042     		cmp	r0, r2
 938 0280 71EB0303 		sbcs	r3, r1, r3
 939 0284 08DB     		blt	.L64
 380:g:/iot/IoT_Device_Demo/iot_link/network/lwm2m/wakaama_lwm2m/port\object_access_control.c ****                     {
 381:g:/iot/IoT_Device_Demo/iot_link/network/lwm2m/wakaama_lwm2m/port\object_access_control.c ****                         accCtrlOiP->accCtrlOwner = value;
 940              		.loc 1 381 50
 941 0286 D7E90423 		ldrd	r2, [r7, #16]
 942 028a 92B2     		uxth	r2, r2
 943 028c 3B6A     		ldr	r3, [r7, #32]
 944 028e 5A81     		strh	r2, [r3, #10]	@ movhi
 382:g:/iot/IoT_Device_Demo/iot_link/network/lwm2m/wakaama_lwm2m/port\object_access_control.c ****                         result = COAP_204_CHANGED;
 945              		.loc 1 382 32
 946 0290 4423     		movs	r3, #68
 947 0292 87F82B30 		strb	r3, [r7, #43]
 383:g:/iot/IoT_Device_Demo/iot_link/network/lwm2m/wakaama_lwm2m/port\object_access_control.c ****                     }
 384:g:/iot/IoT_Device_Demo/iot_link/network/lwm2m/wakaama_lwm2m/port\object_access_control.c ****                     else
 385:g:/iot/IoT_Device_Demo/iot_link/network/lwm2m/wakaama_lwm2m/port\object_access_control.c ****                     {
 386:g:/iot/IoT_Device_Demo/iot_link/network/lwm2m/wakaama_lwm2m/port\object_access_control.c ****                         result = COAP_406_NOT_ACCEPTABLE;
 387:g:/iot/IoT_Device_Demo/iot_link/network/lwm2m/wakaama_lwm2m/port\object_access_control.c ****                     }
 388:g:/iot/IoT_Device_Demo/iot_link/network/lwm2m/wakaama_lwm2m/port\object_access_control.c ****                 }
 389:g:/iot/IoT_Device_Demo/iot_link/network/lwm2m/wakaama_lwm2m/port\object_access_control.c ****                 else
 390:g:/iot/IoT_Device_Demo/iot_link/network/lwm2m/wakaama_lwm2m/port\object_access_control.c ****                 {
 391:g:/iot/IoT_Device_Demo/iot_link/network/lwm2m/wakaama_lwm2m/port\object_access_control.c ****                     result = COAP_400_BAD_REQUEST;
 392:g:/iot/IoT_Device_Demo/iot_link/network/lwm2m/wakaama_lwm2m/port\object_access_control.c ****                 }
 393:g:/iot/IoT_Device_Demo/iot_link/network/lwm2m/wakaama_lwm2m/port\object_access_control.c ****             }
 394:g:/iot/IoT_Device_Demo/iot_link/network/lwm2m/wakaama_lwm2m/port\object_access_control.c ****             break;
 948              		.loc 1 394 13
 949 0296 09E0     		b	.L45
 950              	.L64:
 386:g:/iot/IoT_Device_Demo/iot_link/network/lwm2m/wakaama_lwm2m/port\object_access_control.c ****                     }
 951              		.loc 1 386 32
 952 0298 8623     		movs	r3, #134
 953 029a 87F82B30 		strb	r3, [r7, #43]
 954              		.loc 1 394 13
 955 029e 05E0     		b	.L45
 956              	.L63:
 391:g:/iot/IoT_Device_Demo/iot_link/network/lwm2m/wakaama_lwm2m/port\object_access_control.c ****                 }
 957              		.loc 1 391 28
 958 02a0 8023     		movs	r3, #128
 959 02a2 87F82B30 		strb	r3, [r7, #43]
 960              		.loc 1 394 13
 961 02a6 01E0     		b	.L45
 962              	.L34:
 395:g:/iot/IoT_Device_Demo/iot_link/network/lwm2m/wakaama_lwm2m/port\object_access_control.c **** 
 396:g:/iot/IoT_Device_Demo/iot_link/network/lwm2m/wakaama_lwm2m/port\object_access_control.c ****             default:
 397:g:/iot/IoT_Device_Demo/iot_link/network/lwm2m/wakaama_lwm2m/port\object_access_control.c ****                 return COAP_404_NOT_FOUND ;
ARM GAS  C:\Users\ADMINI~1\AppData\Local\Temp\ccQvcA20.s 			page 26


 963              		.loc 1 397 24
 964 02a8 8423     		movs	r3, #132
 965 02aa 0DE0     		b	.L69
 966              	.L45:
 398:g:/iot/IoT_Device_Demo/iot_link/network/lwm2m/wakaama_lwm2m/port\object_access_control.c ****         }
 399:g:/iot/IoT_Device_Demo/iot_link/network/lwm2m/wakaama_lwm2m/port\object_access_control.c **** 
 400:g:/iot/IoT_Device_Demo/iot_link/network/lwm2m/wakaama_lwm2m/port\object_access_control.c ****         i++;
 967              		.loc 1 400 10
 968 02ac FB6A     		ldr	r3, [r7, #44]
 969 02ae 0133     		adds	r3, r3, #1
 970 02b0 FB62     		str	r3, [r7, #44]
 401:g:/iot/IoT_Device_Demo/iot_link/network/lwm2m/wakaama_lwm2m/port\object_access_control.c ****     }
 402:g:/iot/IoT_Device_Demo/iot_link/network/lwm2m/wakaama_lwm2m/port\object_access_control.c ****     while (i < numData && result == COAP_204_CHANGED);
 971              		.loc 1 402 5
 972 02b2 FA6A     		ldr	r2, [r7, #44]
 973 02b4 BB68     		ldr	r3, [r7, #8]
 974 02b6 9A42     		cmp	r2, r3
 975 02b8 04DA     		bge	.L67
 976              		.loc 1 402 24 discriminator 1
 977 02ba 97F82B30 		ldrb	r3, [r7, #43]	@ zero_extendqisi2
 978 02be 442B     		cmp	r3, #68
 979 02c0 3FF4B8AE 		beq	.L68
 980              	.L67:
 403:g:/iot/IoT_Device_Demo/iot_link/network/lwm2m/wakaama_lwm2m/port\object_access_control.c **** 
 404:g:/iot/IoT_Device_Demo/iot_link/network/lwm2m/wakaama_lwm2m/port\object_access_control.c ****     return result;
 981              		.loc 1 404 12
 982 02c4 97F82B30 		ldrb	r3, [r7, #43]	@ zero_extendqisi2
 983              	.L69:
 405:g:/iot/IoT_Device_Demo/iot_link/network/lwm2m/wakaama_lwm2m/port\object_access_control.c **** }
 984              		.loc 1 405 1 discriminator 2
 985 02c8 1846     		mov	r0, r3
 986 02ca 3037     		adds	r7, r7, #48
 987              	.LCFI18:
 988              		.cfi_def_cfa_offset 8
 989 02cc BD46     		mov	sp, r7
 990              	.LCFI19:
 991              		.cfi_def_cfa_register 13
 992              		@ sp needed
 993 02ce 80BD     		pop	{r7, pc}
 994              		.cfi_endproc
 995              	.LFE15:
 997              		.section	.text.prv_write,"ax",%progbits
 998              		.align	1
 999              		.syntax unified
 1000              		.thumb
 1001              		.thumb_func
 1002              		.fpu fpv4-sp-d16
 1004              	prv_write:
 1005              	.LFB16:
 406:g:/iot/IoT_Device_Demo/iot_link/network/lwm2m/wakaama_lwm2m/port\object_access_control.c **** 
 407:g:/iot/IoT_Device_Demo/iot_link/network/lwm2m/wakaama_lwm2m/port\object_access_control.c **** static uint8_t prv_write(uint16_t instanceId, int numData,
 408:g:/iot/IoT_Device_Demo/iot_link/network/lwm2m/wakaama_lwm2m/port\object_access_control.c ****                          lwm2m_data_t *tlvArray, lwm2m_object_t *objectP)
 409:g:/iot/IoT_Device_Demo/iot_link/network/lwm2m/wakaama_lwm2m/port\object_access_control.c **** {
 1006              		.loc 1 409 1
 1007              		.cfi_startproc
 1008              		@ args = 0, pretend = 0, frame = 16
 1009              		@ frame_needed = 1, uses_anonymous_args = 0
ARM GAS  C:\Users\ADMINI~1\AppData\Local\Temp\ccQvcA20.s 			page 27


 1010 0000 80B5     		push	{r7, lr}
 1011              	.LCFI20:
 1012              		.cfi_def_cfa_offset 8
 1013              		.cfi_offset 7, -8
 1014              		.cfi_offset 14, -4
 1015 0002 86B0     		sub	sp, sp, #24
 1016              	.LCFI21:
 1017              		.cfi_def_cfa_offset 32
 1018 0004 02AF     		add	r7, sp, #8
 1019              	.LCFI22:
 1020              		.cfi_def_cfa 7, 24
 1021 0006 B960     		str	r1, [r7, #8]
 1022 0008 7A60     		str	r2, [r7, #4]
 1023 000a 3B60     		str	r3, [r7]
 1024 000c 0346     		mov	r3, r0	@ movhi
 1025 000e FB81     		strh	r3, [r7, #14]	@ movhi
 410:g:/iot/IoT_Device_Demo/iot_link/network/lwm2m/wakaama_lwm2m/port\object_access_control.c ****     return prv_write_resources(instanceId, numData, tlvArray, objectP, false);
 1026              		.loc 1 410 12
 1027 0010 F889     		ldrh	r0, [r7, #14]
 1028 0012 0023     		movs	r3, #0
 1029 0014 0093     		str	r3, [sp]
 1030 0016 3B68     		ldr	r3, [r7]
 1031 0018 7A68     		ldr	r2, [r7, #4]
 1032 001a B968     		ldr	r1, [r7, #8]
 1033 001c FFF7FEFF 		bl	prv_write_resources
 1034 0020 0346     		mov	r3, r0
 411:g:/iot/IoT_Device_Demo/iot_link/network/lwm2m/wakaama_lwm2m/port\object_access_control.c **** }
 1035              		.loc 1 411 1
 1036 0022 1846     		mov	r0, r3
 1037 0024 1037     		adds	r7, r7, #16
 1038              	.LCFI23:
 1039              		.cfi_def_cfa_offset 8
 1040 0026 BD46     		mov	sp, r7
 1041              	.LCFI24:
 1042              		.cfi_def_cfa_register 13
 1043              		@ sp needed
 1044 0028 80BD     		pop	{r7, pc}
 1045              		.cfi_endproc
 1046              	.LFE16:
 1048              		.section	.text.prv_delete,"ax",%progbits
 1049              		.align	1
 1050              		.syntax unified
 1051              		.thumb
 1052              		.thumb_func
 1053              		.fpu fpv4-sp-d16
 1055              	prv_delete:
 1056              	.LFB17:
 412:g:/iot/IoT_Device_Demo/iot_link/network/lwm2m/wakaama_lwm2m/port\object_access_control.c **** 
 413:g:/iot/IoT_Device_Demo/iot_link/network/lwm2m/wakaama_lwm2m/port\object_access_control.c **** static uint8_t prv_delete(uint16_t id, lwm2m_object_t *objectP)
 414:g:/iot/IoT_Device_Demo/iot_link/network/lwm2m/wakaama_lwm2m/port\object_access_control.c **** {
 1057              		.loc 1 414 1
 1058              		.cfi_startproc
 1059              		@ args = 0, pretend = 0, frame = 16
 1060              		@ frame_needed = 1, uses_anonymous_args = 0
 1061 0000 80B5     		push	{r7, lr}
 1062              	.LCFI25:
 1063              		.cfi_def_cfa_offset 8
ARM GAS  C:\Users\ADMINI~1\AppData\Local\Temp\ccQvcA20.s 			page 28


 1064              		.cfi_offset 7, -8
 1065              		.cfi_offset 14, -4
 1066 0002 84B0     		sub	sp, sp, #16
 1067              	.LCFI26:
 1068              		.cfi_def_cfa_offset 24
 1069 0004 00AF     		add	r7, sp, #0
 1070              	.LCFI27:
 1071              		.cfi_def_cfa_register 7
 1072 0006 0346     		mov	r3, r0
 1073 0008 3960     		str	r1, [r7]
 1074 000a FB80     		strh	r3, [r7, #6]	@ movhi
 415:g:/iot/IoT_Device_Demo/iot_link/network/lwm2m/wakaama_lwm2m/port\object_access_control.c ****     acc_ctrl_oi_t *targetP;
 416:g:/iot/IoT_Device_Demo/iot_link/network/lwm2m/wakaama_lwm2m/port\object_access_control.c ****     objectP->instanceList = lwm2m_list_remove(objectP->instanceList, id,
 1075              		.loc 1 416 29
 1076 000c 3B68     		ldr	r3, [r7]
 1077 000e 9B68     		ldr	r3, [r3, #8]
 1078 0010 07F10C02 		add	r2, r7, #12
 1079 0014 F988     		ldrh	r1, [r7, #6]
 1080 0016 1846     		mov	r0, r3
 1081 0018 FFF7FEFF 		bl	lwm2m_list_remove
 1082 001c 0246     		mov	r2, r0
 1083              		.loc 1 416 27
 1084 001e 3B68     		ldr	r3, [r7]
 1085 0020 9A60     		str	r2, [r3, #8]
 417:g:/iot/IoT_Device_Demo/iot_link/network/lwm2m/wakaama_lwm2m/port\object_access_control.c ****                             (lwm2m_list_t **)&targetP);
 418:g:/iot/IoT_Device_Demo/iot_link/network/lwm2m/wakaama_lwm2m/port\object_access_control.c **** 
 419:g:/iot/IoT_Device_Demo/iot_link/network/lwm2m/wakaama_lwm2m/port\object_access_control.c ****     if (NULL == targetP) return COAP_404_NOT_FOUND;
 1086              		.loc 1 419 14
 1087 0022 FB68     		ldr	r3, [r7, #12]
 1088              		.loc 1 419 8
 1089 0024 002B     		cmp	r3, #0
 1090 0026 01D1     		bne	.L73
 1091              		.loc 1 419 33 discriminator 1
 1092 0028 8423     		movs	r3, #132
 1093 002a 09E0     		b	.L75
 1094              	.L73:
 420:g:/iot/IoT_Device_Demo/iot_link/network/lwm2m/wakaama_lwm2m/port\object_access_control.c **** 
 421:g:/iot/IoT_Device_Demo/iot_link/network/lwm2m/wakaama_lwm2m/port\object_access_control.c ****     LWM2M_LIST_FREE(targetP->accCtrlValList);
 1095              		.loc 1 421 5
 1096 002c FB68     		ldr	r3, [r7, #12]
 1097 002e DB68     		ldr	r3, [r3, #12]
 1098 0030 1846     		mov	r0, r3
 1099 0032 FFF7FEFF 		bl	lwm2m_list_free
 422:g:/iot/IoT_Device_Demo/iot_link/network/lwm2m/wakaama_lwm2m/port\object_access_control.c ****     lwm2m_free(targetP);
 1100              		.loc 1 422 5
 1101 0036 FB68     		ldr	r3, [r7, #12]
 1102 0038 1846     		mov	r0, r3
 1103 003a FFF7FEFF 		bl	lwm2m_free
 423:g:/iot/IoT_Device_Demo/iot_link/network/lwm2m/wakaama_lwm2m/port\object_access_control.c ****     return COAP_202_DELETED;
 1104              		.loc 1 423 12
 1105 003e 4223     		movs	r3, #66
 1106              	.L75:
 424:g:/iot/IoT_Device_Demo/iot_link/network/lwm2m/wakaama_lwm2m/port\object_access_control.c **** }
 1107              		.loc 1 424 1 discriminator 1
 1108 0040 1846     		mov	r0, r3
 1109 0042 1037     		adds	r7, r7, #16
 1110              	.LCFI28:
ARM GAS  C:\Users\ADMINI~1\AppData\Local\Temp\ccQvcA20.s 			page 29


 1111              		.cfi_def_cfa_offset 8
 1112 0044 BD46     		mov	sp, r7
 1113              	.LCFI29:
 1114              		.cfi_def_cfa_register 13
 1115              		@ sp needed
 1116 0046 80BD     		pop	{r7, pc}
 1117              		.cfi_endproc
 1118              	.LFE17:
 1120              		.section	.text.prv_create,"ax",%progbits
 1121              		.align	1
 1122              		.syntax unified
 1123              		.thumb
 1124              		.thumb_func
 1125              		.fpu fpv4-sp-d16
 1127              	prv_create:
 1128              	.LFB18:
 425:g:/iot/IoT_Device_Demo/iot_link/network/lwm2m/wakaama_lwm2m/port\object_access_control.c **** 
 426:g:/iot/IoT_Device_Demo/iot_link/network/lwm2m/wakaama_lwm2m/port\object_access_control.c **** static uint8_t prv_create(uint16_t objInstId, int numData,
 427:g:/iot/IoT_Device_Demo/iot_link/network/lwm2m/wakaama_lwm2m/port\object_access_control.c ****                           lwm2m_data_t *tlvArray, lwm2m_object_t *objectP)
 428:g:/iot/IoT_Device_Demo/iot_link/network/lwm2m/wakaama_lwm2m/port\object_access_control.c **** {
 1129              		.loc 1 428 1
 1130              		.cfi_startproc
 1131              		@ args = 0, pretend = 0, frame = 24
 1132              		@ frame_needed = 1, uses_anonymous_args = 0
 1133 0000 80B5     		push	{r7, lr}
 1134              	.LCFI30:
 1135              		.cfi_def_cfa_offset 8
 1136              		.cfi_offset 7, -8
 1137              		.cfi_offset 14, -4
 1138 0002 88B0     		sub	sp, sp, #32
 1139              	.LCFI31:
 1140              		.cfi_def_cfa_offset 40
 1141 0004 02AF     		add	r7, sp, #8
 1142              	.LCFI32:
 1143              		.cfi_def_cfa 7, 32
 1144 0006 B960     		str	r1, [r7, #8]
 1145 0008 7A60     		str	r2, [r7, #4]
 1146 000a 3B60     		str	r3, [r7]
 1147 000c 0346     		mov	r3, r0	@ movhi
 1148 000e FB81     		strh	r3, [r7, #14]	@ movhi
 429:g:/iot/IoT_Device_Demo/iot_link/network/lwm2m/wakaama_lwm2m/port\object_access_control.c ****     acc_ctrl_oi_t *targetP;
 430:g:/iot/IoT_Device_Demo/iot_link/network/lwm2m/wakaama_lwm2m/port\object_access_control.c ****     uint8_t result;
 431:g:/iot/IoT_Device_Demo/iot_link/network/lwm2m/wakaama_lwm2m/port\object_access_control.c ****     targetP = (acc_ctrl_oi_t *)lwm2m_malloc(sizeof(acc_ctrl_oi_t));
 1149              		.loc 1 431 32
 1150 0010 1020     		movs	r0, #16
 1151 0012 FFF7FEFF 		bl	lwm2m_malloc
 1152 0016 3861     		str	r0, [r7, #16]
 432:g:/iot/IoT_Device_Demo/iot_link/network/lwm2m/wakaama_lwm2m/port\object_access_control.c **** 
 433:g:/iot/IoT_Device_Demo/iot_link/network/lwm2m/wakaama_lwm2m/port\object_access_control.c ****     if (NULL == targetP) return COAP_500_INTERNAL_SERVER_ERROR;
 1153              		.loc 1 433 8
 1154 0018 3B69     		ldr	r3, [r7, #16]
 1155 001a 002B     		cmp	r3, #0
 1156 001c 01D1     		bne	.L77
 1157              		.loc 1 433 33 discriminator 1
 1158 001e A023     		movs	r3, #160
 1159 0020 26E0     		b	.L78
 1160              	.L77:
ARM GAS  C:\Users\ADMINI~1\AppData\Local\Temp\ccQvcA20.s 			page 30


 434:g:/iot/IoT_Device_Demo/iot_link/network/lwm2m/wakaama_lwm2m/port\object_access_control.c **** 
 435:g:/iot/IoT_Device_Demo/iot_link/network/lwm2m/wakaama_lwm2m/port\object_access_control.c ****     (void) memset(targetP, 0, sizeof(acc_ctrl_oi_t));
 1161              		.loc 1 435 12
 1162 0022 1022     		movs	r2, #16
 1163 0024 0021     		movs	r1, #0
 1164 0026 3869     		ldr	r0, [r7, #16]
 1165 0028 FFF7FEFF 		bl	memset
 436:g:/iot/IoT_Device_Demo/iot_link/network/lwm2m/wakaama_lwm2m/port\object_access_control.c ****     targetP->objInstId    = objInstId;
 1166              		.loc 1 436 27
 1167 002c 3B69     		ldr	r3, [r7, #16]
 1168 002e FA89     		ldrh	r2, [r7, #14]	@ movhi
 1169 0030 9A80     		strh	r2, [r3, #4]	@ movhi
 437:g:/iot/IoT_Device_Demo/iot_link/network/lwm2m/wakaama_lwm2m/port\object_access_control.c ****     objectP->instanceList = LWM2M_LIST_ADD(objectP->instanceList, targetP);
 1170              		.loc 1 437 29
 1171 0032 3B68     		ldr	r3, [r7]
 1172 0034 9B68     		ldr	r3, [r3, #8]
 1173 0036 3969     		ldr	r1, [r7, #16]
 1174 0038 1846     		mov	r0, r3
 1175 003a FFF7FEFF 		bl	lwm2m_list_add
 1176 003e 0246     		mov	r2, r0
 1177              		.loc 1 437 27
 1178 0040 3B68     		ldr	r3, [r7]
 1179 0042 9A60     		str	r2, [r3, #8]
 438:g:/iot/IoT_Device_Demo/iot_link/network/lwm2m/wakaama_lwm2m/port\object_access_control.c ****     result = prv_write_resources(objInstId, numData, tlvArray, objectP, true);
 1180              		.loc 1 438 14
 1181 0044 F889     		ldrh	r0, [r7, #14]
 1182 0046 0123     		movs	r3, #1
 1183 0048 0093     		str	r3, [sp]
 1184 004a 3B68     		ldr	r3, [r7]
 1185 004c 7A68     		ldr	r2, [r7, #4]
 1186 004e B968     		ldr	r1, [r7, #8]
 1187 0050 FFF7FEFF 		bl	prv_write_resources
 1188 0054 0346     		mov	r3, r0
 1189 0056 FB75     		strb	r3, [r7, #23]
 439:g:/iot/IoT_Device_Demo/iot_link/network/lwm2m/wakaama_lwm2m/port\object_access_control.c **** 
 440:g:/iot/IoT_Device_Demo/iot_link/network/lwm2m/wakaama_lwm2m/port\object_access_control.c ****     if (COAP_204_CHANGED != result)
 1190              		.loc 1 440 8
 1191 0058 FB7D     		ldrb	r3, [r7, #23]	@ zero_extendqisi2
 1192 005a 442B     		cmp	r3, #68
 1193 005c 05D0     		beq	.L79
 441:g:/iot/IoT_Device_Demo/iot_link/network/lwm2m/wakaama_lwm2m/port\object_access_control.c ****     {
 442:g:/iot/IoT_Device_Demo/iot_link/network/lwm2m/wakaama_lwm2m/port\object_access_control.c ****         (void)prv_delete(objInstId, objectP);
 1194              		.loc 1 442 15
 1195 005e FB89     		ldrh	r3, [r7, #14]
 1196 0060 3968     		ldr	r1, [r7]
 1197 0062 1846     		mov	r0, r3
 1198 0064 FFF7FEFF 		bl	prv_delete
 1199 0068 01E0     		b	.L80
 1200              	.L79:
 443:g:/iot/IoT_Device_Demo/iot_link/network/lwm2m/wakaama_lwm2m/port\object_access_control.c ****     }
 444:g:/iot/IoT_Device_Demo/iot_link/network/lwm2m/wakaama_lwm2m/port\object_access_control.c ****     else
 445:g:/iot/IoT_Device_Demo/iot_link/network/lwm2m/wakaama_lwm2m/port\object_access_control.c ****     {
 446:g:/iot/IoT_Device_Demo/iot_link/network/lwm2m/wakaama_lwm2m/port\object_access_control.c ****         result = COAP_201_CREATED;
 1201              		.loc 1 446 16
 1202 006a 4123     		movs	r3, #65
 1203 006c FB75     		strb	r3, [r7, #23]
 1204              	.L80:
ARM GAS  C:\Users\ADMINI~1\AppData\Local\Temp\ccQvcA20.s 			page 31


 447:g:/iot/IoT_Device_Demo/iot_link/network/lwm2m/wakaama_lwm2m/port\object_access_control.c ****     }
 448:g:/iot/IoT_Device_Demo/iot_link/network/lwm2m/wakaama_lwm2m/port\object_access_control.c **** 
 449:g:/iot/IoT_Device_Demo/iot_link/network/lwm2m/wakaama_lwm2m/port\object_access_control.c ****     return result;
 1205              		.loc 1 449 12
 1206 006e FB7D     		ldrb	r3, [r7, #23]	@ zero_extendqisi2
 1207              	.L78:
 450:g:/iot/IoT_Device_Demo/iot_link/network/lwm2m/wakaama_lwm2m/port\object_access_control.c **** }
 1208              		.loc 1 450 1
 1209 0070 1846     		mov	r0, r3
 1210 0072 1837     		adds	r7, r7, #24
 1211              	.LCFI33:
 1212              		.cfi_def_cfa_offset 8
 1213 0074 BD46     		mov	sp, r7
 1214              	.LCFI34:
 1215              		.cfi_def_cfa_register 13
 1216              		@ sp needed
 1217 0076 80BD     		pop	{r7, pc}
 1218              		.cfi_endproc
 1219              	.LFE18:
 1221              		.section	.text.add_access_control_object_instance,"ax",%progbits
 1222              		.align	1
 1223              		.global	add_access_control_object_instance
 1224              		.syntax unified
 1225              		.thumb
 1226              		.thumb_func
 1227              		.fpu fpv4-sp-d16
 1229              	add_access_control_object_instance:
 1230              	.LFB19:
 451:g:/iot/IoT_Device_Demo/iot_link/network/lwm2m/wakaama_lwm2m/port\object_access_control.c **** 
 452:g:/iot/IoT_Device_Demo/iot_link/network/lwm2m/wakaama_lwm2m/port\object_access_control.c **** int add_access_control_object_instance(lwm2m_object_t *obj)
 453:g:/iot/IoT_Device_Demo/iot_link/network/lwm2m/wakaama_lwm2m/port\object_access_control.c **** {
 1231              		.loc 1 453 1
 1232              		.cfi_startproc
 1233              		@ args = 0, pretend = 0, frame = 8
 1234              		@ frame_needed = 1, uses_anonymous_args = 0
 1235              		@ link register save eliminated.
 1236 0000 80B4     		push	{r7}
 1237              	.LCFI35:
 1238              		.cfi_def_cfa_offset 4
 1239              		.cfi_offset 7, -4
 1240 0002 83B0     		sub	sp, sp, #12
 1241              	.LCFI36:
 1242              		.cfi_def_cfa_offset 16
 1243 0004 00AF     		add	r7, sp, #0
 1244              	.LCFI37:
 1245              		.cfi_def_cfa_register 7
 1246 0006 7860     		str	r0, [r7, #4]
 454:g:/iot/IoT_Device_Demo/iot_link/network/lwm2m/wakaama_lwm2m/port\object_access_control.c ****     if (NULL == obj)
 1247              		.loc 1 454 8
 1248 0008 7B68     		ldr	r3, [r7, #4]
 1249 000a 002B     		cmp	r3, #0
 1250 000c 02D1     		bne	.L82
 455:g:/iot/IoT_Device_Demo/iot_link/network/lwm2m/wakaama_lwm2m/port\object_access_control.c ****     {
 456:g:/iot/IoT_Device_Demo/iot_link/network/lwm2m/wakaama_lwm2m/port\object_access_control.c ****         return (int)LWM2M_ARG_INVALID;
 1251              		.loc 1 456 16
 1252 000e 4FF0FF33 		mov	r3, #-1
 1253 0012 00E0     		b	.L83
ARM GAS  C:\Users\ADMINI~1\AppData\Local\Temp\ccQvcA20.s 			page 32


 1254              	.L82:
 457:g:/iot/IoT_Device_Demo/iot_link/network/lwm2m/wakaama_lwm2m/port\object_access_control.c ****     }
 458:g:/iot/IoT_Device_Demo/iot_link/network/lwm2m/wakaama_lwm2m/port\object_access_control.c **** 
 459:g:/iot/IoT_Device_Demo/iot_link/network/lwm2m/wakaama_lwm2m/port\object_access_control.c ****     return (int)LWM2M_OK;
 1255              		.loc 1 459 12
 1256 0014 0023     		movs	r3, #0
 1257              	.L83:
 460:g:/iot/IoT_Device_Demo/iot_link/network/lwm2m/wakaama_lwm2m/port\object_access_control.c **** }
 1258              		.loc 1 460 1
 1259 0016 1846     		mov	r0, r3
 1260 0018 0C37     		adds	r7, r7, #12
 1261              	.LCFI38:
 1262              		.cfi_def_cfa_offset 4
 1263 001a BD46     		mov	sp, r7
 1264              	.LCFI39:
 1265              		.cfi_def_cfa_register 13
 1266              		@ sp needed
 1267 001c 5DF8047B 		ldr	r7, [sp], #4
 1268              	.LCFI40:
 1269              		.cfi_restore 7
 1270              		.cfi_def_cfa_offset 0
 1271 0020 7047     		bx	lr
 1272              		.cfi_endproc
 1273              	.LFE19:
 1275              		.section	.text.config_access_control_object,"ax",%progbits
 1276              		.align	1
 1277              		.global	config_access_control_object
 1278              		.syntax unified
 1279              		.thumb
 1280              		.thumb_func
 1281              		.fpu fpv4-sp-d16
 1283              	config_access_control_object:
 1284              	.LFB20:
 461:g:/iot/IoT_Device_Demo/iot_link/network/lwm2m/wakaama_lwm2m/port\object_access_control.c **** 
 462:g:/iot/IoT_Device_Demo/iot_link/network/lwm2m/wakaama_lwm2m/port\object_access_control.c **** int config_access_control_object(lwm2m_object_t *obj, void *param)
 463:g:/iot/IoT_Device_Demo/iot_link/network/lwm2m/wakaama_lwm2m/port\object_access_control.c **** {
 1285              		.loc 1 463 1
 1286              		.cfi_startproc
 1287              		@ args = 0, pretend = 0, frame = 8
 1288              		@ frame_needed = 1, uses_anonymous_args = 0
 1289              		@ link register save eliminated.
 1290 0000 80B4     		push	{r7}
 1291              	.LCFI41:
 1292              		.cfi_def_cfa_offset 4
 1293              		.cfi_offset 7, -4
 1294 0002 83B0     		sub	sp, sp, #12
 1295              	.LCFI42:
 1296              		.cfi_def_cfa_offset 16
 1297 0004 00AF     		add	r7, sp, #0
 1298              	.LCFI43:
 1299              		.cfi_def_cfa_register 7
 1300 0006 7860     		str	r0, [r7, #4]
 1301 0008 3960     		str	r1, [r7]
 464:g:/iot/IoT_Device_Demo/iot_link/network/lwm2m/wakaama_lwm2m/port\object_access_control.c ****     if (NULL == obj)
 1302              		.loc 1 464 8
 1303 000a 7B68     		ldr	r3, [r7, #4]
 1304 000c 002B     		cmp	r3, #0
ARM GAS  C:\Users\ADMINI~1\AppData\Local\Temp\ccQvcA20.s 			page 33


 1305 000e 02D1     		bne	.L85
 465:g:/iot/IoT_Device_Demo/iot_link/network/lwm2m/wakaama_lwm2m/port\object_access_control.c ****     {
 466:g:/iot/IoT_Device_Demo/iot_link/network/lwm2m/wakaama_lwm2m/port\object_access_control.c ****         return (int)LWM2M_ARG_INVALID;
 1306              		.loc 1 466 16
 1307 0010 4FF0FF33 		mov	r3, #-1
 1308 0014 0CE0     		b	.L86
 1309              	.L85:
 467:g:/iot/IoT_Device_Demo/iot_link/network/lwm2m/wakaama_lwm2m/port\object_access_control.c ****     }
 468:g:/iot/IoT_Device_Demo/iot_link/network/lwm2m/wakaama_lwm2m/port\object_access_control.c **** 
 469:g:/iot/IoT_Device_Demo/iot_link/network/lwm2m/wakaama_lwm2m/port\object_access_control.c ****     // Init callbacks, empty instanceList!
 470:g:/iot/IoT_Device_Demo/iot_link/network/lwm2m/wakaama_lwm2m/port\object_access_control.c ****     obj->readFunc = prv_read;
 1310              		.loc 1 470 19
 1311 0016 7B68     		ldr	r3, [r7, #4]
 1312 0018 084A     		ldr	r2, .L87
 1313 001a DA60     		str	r2, [r3, #12]
 471:g:/iot/IoT_Device_Demo/iot_link/network/lwm2m/wakaama_lwm2m/port\object_access_control.c ****     obj->writeFunc = prv_write;
 1314              		.loc 1 471 20
 1315 001c 7B68     		ldr	r3, [r7, #4]
 1316 001e 084A     		ldr	r2, .L87+4
 1317 0020 1A61     		str	r2, [r3, #16]
 472:g:/iot/IoT_Device_Demo/iot_link/network/lwm2m/wakaama_lwm2m/port\object_access_control.c ****     obj->createFunc = prv_create;
 1318              		.loc 1 472 21
 1319 0022 7B68     		ldr	r3, [r7, #4]
 1320 0024 074A     		ldr	r2, .L87+8
 1321 0026 DA61     		str	r2, [r3, #28]
 473:g:/iot/IoT_Device_Demo/iot_link/network/lwm2m/wakaama_lwm2m/port\object_access_control.c ****     obj->deleteFunc = prv_delete;
 1322              		.loc 1 473 21
 1323 0028 7B68     		ldr	r3, [r7, #4]
 1324 002a 074A     		ldr	r2, .L87+12
 1325 002c 1A62     		str	r2, [r3, #32]
 474:g:/iot/IoT_Device_Demo/iot_link/network/lwm2m/wakaama_lwm2m/port\object_access_control.c ****     return (int)LWM2M_OK;
 1326              		.loc 1 474 12
 1327 002e 0023     		movs	r3, #0
 1328              	.L86:
 475:g:/iot/IoT_Device_Demo/iot_link/network/lwm2m/wakaama_lwm2m/port\object_access_control.c **** }
 1329              		.loc 1 475 1
 1330 0030 1846     		mov	r0, r3
 1331 0032 0C37     		adds	r7, r7, #12
 1332              	.LCFI44:
 1333              		.cfi_def_cfa_offset 4
 1334 0034 BD46     		mov	sp, r7
 1335              	.LCFI45:
 1336              		.cfi_def_cfa_register 13
 1337              		@ sp needed
 1338 0036 5DF8047B 		ldr	r7, [sp], #4
 1339              	.LCFI46:
 1340              		.cfi_restore 7
 1341              		.cfi_def_cfa_offset 0
 1342 003a 7047     		bx	lr
 1343              	.L88:
 1344              		.align	2
 1345              	.L87:
 1346 003c 00000000 		.word	prv_read
 1347 0040 00000000 		.word	prv_write
 1348 0044 00000000 		.word	prv_create
 1349 0048 00000000 		.word	prv_delete
 1350              		.cfi_endproc
ARM GAS  C:\Users\ADMINI~1\AppData\Local\Temp\ccQvcA20.s 			page 34


 1351              	.LFE20:
 1353              		.section	.text.acl_ctrl_free_object,"ax",%progbits
 1354              		.align	1
 1355              		.global	acl_ctrl_free_object
 1356              		.syntax unified
 1357              		.thumb
 1358              		.thumb_func
 1359              		.fpu fpv4-sp-d16
 1361              	acl_ctrl_free_object:
 1362              	.LFB21:
 476:g:/iot/IoT_Device_Demo/iot_link/network/lwm2m/wakaama_lwm2m/port\object_access_control.c **** 
 477:g:/iot/IoT_Device_Demo/iot_link/network/lwm2m/wakaama_lwm2m/port\object_access_control.c **** void acl_ctrl_free_object(lwm2m_object_t *objectP)
 478:g:/iot/IoT_Device_Demo/iot_link/network/lwm2m/wakaama_lwm2m/port\object_access_control.c **** {
 1363              		.loc 1 478 1
 1364              		.cfi_startproc
 1365              		@ args = 0, pretend = 0, frame = 16
 1366              		@ frame_needed = 1, uses_anonymous_args = 0
 1367 0000 80B5     		push	{r7, lr}
 1368              	.LCFI47:
 1369              		.cfi_def_cfa_offset 8
 1370              		.cfi_offset 7, -8
 1371              		.cfi_offset 14, -4
 1372 0002 84B0     		sub	sp, sp, #16
 1373              	.LCFI48:
 1374              		.cfi_def_cfa_offset 24
 1375 0004 00AF     		add	r7, sp, #0
 1376              	.LCFI49:
 1377              		.cfi_def_cfa_register 7
 1378 0006 7860     		str	r0, [r7, #4]
 479:g:/iot/IoT_Device_Demo/iot_link/network/lwm2m/wakaama_lwm2m/port\object_access_control.c ****     acc_ctrl_oi_t *accCtrlOiT;
 480:g:/iot/IoT_Device_Demo/iot_link/network/lwm2m/wakaama_lwm2m/port\object_access_control.c ****     acc_ctrl_oi_t *accCtrlOiP = (acc_ctrl_oi_t *)objectP->instanceList;
 1379              		.loc 1 480 20
 1380 0008 7B68     		ldr	r3, [r7, #4]
 1381 000a 9B68     		ldr	r3, [r3, #8]
 1382 000c FB60     		str	r3, [r7, #12]
 481:g:/iot/IoT_Device_Demo/iot_link/network/lwm2m/wakaama_lwm2m/port\object_access_control.c **** 
 482:g:/iot/IoT_Device_Demo/iot_link/network/lwm2m/wakaama_lwm2m/port\object_access_control.c ****     while (NULL != accCtrlOiP)
 1383              		.loc 1 482 11
 1384 000e 0CE0     		b	.L90
 1385              	.L91:
 483:g:/iot/IoT_Device_Demo/iot_link/network/lwm2m/wakaama_lwm2m/port\object_access_control.c ****     {
 484:g:/iot/IoT_Device_Demo/iot_link/network/lwm2m/wakaama_lwm2m/port\object_access_control.c ****         // first free acl (multiple resource!):
 485:g:/iot/IoT_Device_Demo/iot_link/network/lwm2m/wakaama_lwm2m/port\object_access_control.c ****         LWM2M_LIST_FREE(accCtrlOiP->accCtrlValList);
 1386              		.loc 1 485 9
 1387 0010 FB68     		ldr	r3, [r7, #12]
 1388 0012 DB68     		ldr	r3, [r3, #12]
 1389 0014 1846     		mov	r0, r3
 1390 0016 FFF7FEFF 		bl	lwm2m_list_free
 486:g:/iot/IoT_Device_Demo/iot_link/network/lwm2m/wakaama_lwm2m/port\object_access_control.c ****         accCtrlOiT = accCtrlOiP;
 1391              		.loc 1 486 20
 1392 001a FB68     		ldr	r3, [r7, #12]
 1393 001c BB60     		str	r3, [r7, #8]
 487:g:/iot/IoT_Device_Demo/iot_link/network/lwm2m/wakaama_lwm2m/port\object_access_control.c ****         accCtrlOiP = accCtrlOiP->next;
 1394              		.loc 1 487 20
 1395 001e FB68     		ldr	r3, [r7, #12]
 1396 0020 1B68     		ldr	r3, [r3]
 1397 0022 FB60     		str	r3, [r7, #12]
ARM GAS  C:\Users\ADMINI~1\AppData\Local\Temp\ccQvcA20.s 			page 35


 488:g:/iot/IoT_Device_Demo/iot_link/network/lwm2m/wakaama_lwm2m/port\object_access_control.c ****         lwm2m_free(accCtrlOiT);
 1398              		.loc 1 488 9
 1399 0024 B868     		ldr	r0, [r7, #8]
 1400 0026 FFF7FEFF 		bl	lwm2m_free
 1401              	.L90:
 482:g:/iot/IoT_Device_Demo/iot_link/network/lwm2m/wakaama_lwm2m/port\object_access_control.c ****     {
 1402              		.loc 1 482 11
 1403 002a FB68     		ldr	r3, [r7, #12]
 1404 002c 002B     		cmp	r3, #0
 1405 002e EFD1     		bne	.L91
 489:g:/iot/IoT_Device_Demo/iot_link/network/lwm2m/wakaama_lwm2m/port\object_access_control.c ****     }
 490:g:/iot/IoT_Device_Demo/iot_link/network/lwm2m/wakaama_lwm2m/port\object_access_control.c **** 
 491:g:/iot/IoT_Device_Demo/iot_link/network/lwm2m/wakaama_lwm2m/port\object_access_control.c ****     lwm2m_free(objectP);
 1406              		.loc 1 491 5
 1407 0030 7868     		ldr	r0, [r7, #4]
 1408 0032 FFF7FEFF 		bl	lwm2m_free
 492:g:/iot/IoT_Device_Demo/iot_link/network/lwm2m/wakaama_lwm2m/port\object_access_control.c **** }
 1409              		.loc 1 492 1
 1410 0036 00BF     		nop
 1411 0038 1037     		adds	r7, r7, #16
 1412              	.LCFI50:
 1413              		.cfi_def_cfa_offset 8
 1414 003a BD46     		mov	sp, r7
 1415              	.LCFI51:
 1416              		.cfi_def_cfa_register 13
 1417              		@ sp needed
 1418 003c 80BD     		pop	{r7, pc}
 1419              		.cfi_endproc
 1420              	.LFE21:
 1422              		.section	.text.acc_ctrl_obj_add_inst,"ax",%progbits
 1423              		.align	1
 1424              		.global	acc_ctrl_obj_add_inst
 1425              		.syntax unified
 1426              		.thumb
 1427              		.thumb_func
 1428              		.fpu fpv4-sp-d16
 1430              	acc_ctrl_obj_add_inst:
 1431              	.LFB22:
 493:g:/iot/IoT_Device_Demo/iot_link/network/lwm2m/wakaama_lwm2m/port\object_access_control.c **** 
 494:g:/iot/IoT_Device_Demo/iot_link/network/lwm2m/wakaama_lwm2m/port\object_access_control.c **** bool  acc_ctrl_obj_add_inst(lwm2m_object_t *accCtrlObjP, uint16_t instId,
 495:g:/iot/IoT_Device_Demo/iot_link/network/lwm2m/wakaama_lwm2m/port\object_access_control.c ****                             uint16_t acObjectId, uint16_t acObjInstId, uint16_t acOwner)
 496:g:/iot/IoT_Device_Demo/iot_link/network/lwm2m/wakaama_lwm2m/port\object_access_control.c **** {
 1432              		.loc 1 496 1
 1433              		.cfi_startproc
 1434              		@ args = 4, pretend = 0, frame = 24
 1435              		@ frame_needed = 1, uses_anonymous_args = 0
 1436 0000 80B5     		push	{r7, lr}
 1437              	.LCFI52:
 1438              		.cfi_def_cfa_offset 8
 1439              		.cfi_offset 7, -8
 1440              		.cfi_offset 14, -4
 1441 0002 86B0     		sub	sp, sp, #24
 1442              	.LCFI53:
 1443              		.cfi_def_cfa_offset 32
 1444 0004 00AF     		add	r7, sp, #0
 1445              	.LCFI54:
 1446              		.cfi_def_cfa_register 7
ARM GAS  C:\Users\ADMINI~1\AppData\Local\Temp\ccQvcA20.s 			page 36


 1447 0006 F860     		str	r0, [r7, #12]
 1448 0008 0846     		mov	r0, r1
 1449 000a 1146     		mov	r1, r2
 1450 000c 1A46     		mov	r2, r3
 1451 000e 0346     		mov	r3, r0	@ movhi
 1452 0010 7B81     		strh	r3, [r7, #10]	@ movhi
 1453 0012 0B46     		mov	r3, r1	@ movhi
 1454 0014 3B81     		strh	r3, [r7, #8]	@ movhi
 1455 0016 1346     		mov	r3, r2	@ movhi
 1456 0018 FB80     		strh	r3, [r7, #6]	@ movhi
 497:g:/iot/IoT_Device_Demo/iot_link/network/lwm2m/wakaama_lwm2m/port\object_access_control.c ****     bool ret = false;
 1457              		.loc 1 497 10
 1458 001a 0023     		movs	r3, #0
 1459 001c FB75     		strb	r3, [r7, #23]
 498:g:/iot/IoT_Device_Demo/iot_link/network/lwm2m/wakaama_lwm2m/port\object_access_control.c **** 
 499:g:/iot/IoT_Device_Demo/iot_link/network/lwm2m/wakaama_lwm2m/port\object_access_control.c ****     if (NULL == accCtrlObjP)
 1460              		.loc 1 499 8
 1461 001e FB68     		ldr	r3, [r7, #12]
 1462 0020 002B     		cmp	r3, #0
 1463 0022 01D1     		bne	.L93
 500:g:/iot/IoT_Device_Demo/iot_link/network/lwm2m/wakaama_lwm2m/port\object_access_control.c ****     {
 501:g:/iot/IoT_Device_Demo/iot_link/network/lwm2m/wakaama_lwm2m/port\object_access_control.c ****         return ret;
 1464              		.loc 1 501 16
 1465 0024 FB7D     		ldrb	r3, [r7, #23]	@ zero_extendqisi2
 1466 0026 25E0     		b	.L94
 1467              	.L93:
 1468              	.LBB7:
 502:g:/iot/IoT_Device_Demo/iot_link/network/lwm2m/wakaama_lwm2m/port\object_access_control.c ****     }
 503:g:/iot/IoT_Device_Demo/iot_link/network/lwm2m/wakaama_lwm2m/port\object_access_control.c ****     else
 504:g:/iot/IoT_Device_Demo/iot_link/network/lwm2m/wakaama_lwm2m/port\object_access_control.c ****     {
 505:g:/iot/IoT_Device_Demo/iot_link/network/lwm2m/wakaama_lwm2m/port\object_access_control.c ****         // create an access control object instance
 506:g:/iot/IoT_Device_Demo/iot_link/network/lwm2m/wakaama_lwm2m/port\object_access_control.c ****         acc_ctrl_oi_t *accCtrlOiP;
 507:g:/iot/IoT_Device_Demo/iot_link/network/lwm2m/wakaama_lwm2m/port\object_access_control.c ****         accCtrlOiP = (acc_ctrl_oi_t *)lwm2m_malloc(sizeof(acc_ctrl_oi_t));
 1469              		.loc 1 507 39
 1470 0028 1020     		movs	r0, #16
 1471 002a FFF7FEFF 		bl	lwm2m_malloc
 1472 002e 3861     		str	r0, [r7, #16]
 508:g:/iot/IoT_Device_Demo/iot_link/network/lwm2m/wakaama_lwm2m/port\object_access_control.c **** 
 509:g:/iot/IoT_Device_Demo/iot_link/network/lwm2m/wakaama_lwm2m/port\object_access_control.c ****         if (NULL == accCtrlOiP)
 1473              		.loc 1 509 12
 1474 0030 3B69     		ldr	r3, [r7, #16]
 1475 0032 002B     		cmp	r3, #0
 1476 0034 01D1     		bne	.L95
 510:g:/iot/IoT_Device_Demo/iot_link/network/lwm2m/wakaama_lwm2m/port\object_access_control.c ****         {
 511:g:/iot/IoT_Device_Demo/iot_link/network/lwm2m/wakaama_lwm2m/port\object_access_control.c ****             return ret;
 1477              		.loc 1 511 20
 1478 0036 FB7D     		ldrb	r3, [r7, #23]	@ zero_extendqisi2
 1479 0038 1CE0     		b	.L94
 1480              	.L95:
 512:g:/iot/IoT_Device_Demo/iot_link/network/lwm2m/wakaama_lwm2m/port\object_access_control.c ****         }
 513:g:/iot/IoT_Device_Demo/iot_link/network/lwm2m/wakaama_lwm2m/port\object_access_control.c ****         else
 514:g:/iot/IoT_Device_Demo/iot_link/network/lwm2m/wakaama_lwm2m/port\object_access_control.c ****         {
 515:g:/iot/IoT_Device_Demo/iot_link/network/lwm2m/wakaama_lwm2m/port\object_access_control.c ****             (void) memset(accCtrlOiP, 0, sizeof(acc_ctrl_oi_t));
 1481              		.loc 1 515 20
 1482 003a 1022     		movs	r2, #16
 1483 003c 0021     		movs	r1, #0
 1484 003e 3869     		ldr	r0, [r7, #16]
ARM GAS  C:\Users\ADMINI~1\AppData\Local\Temp\ccQvcA20.s 			page 37


 1485 0040 FFF7FEFF 		bl	memset
 516:g:/iot/IoT_Device_Demo/iot_link/network/lwm2m/wakaama_lwm2m/port\object_access_control.c ****             // list: key
 517:g:/iot/IoT_Device_Demo/iot_link/network/lwm2m/wakaama_lwm2m/port\object_access_control.c ****             accCtrlOiP->objInstId    = instId;
 1486              		.loc 1 517 38
 1487 0044 3B69     		ldr	r3, [r7, #16]
 1488 0046 7A89     		ldrh	r2, [r7, #10]	@ movhi
 1489 0048 9A80     		strh	r2, [r3, #4]	@ movhi
 518:g:/iot/IoT_Device_Demo/iot_link/network/lwm2m/wakaama_lwm2m/port\object_access_control.c ****             // object instance data:
 519:g:/iot/IoT_Device_Demo/iot_link/network/lwm2m/wakaama_lwm2m/port\object_access_control.c ****             accCtrlOiP->objectId     = acObjectId;
 1490              		.loc 1 519 38
 1491 004a 3B69     		ldr	r3, [r7, #16]
 1492 004c 3A89     		ldrh	r2, [r7, #8]	@ movhi
 1493 004e DA80     		strh	r2, [r3, #6]	@ movhi
 520:g:/iot/IoT_Device_Demo/iot_link/network/lwm2m/wakaama_lwm2m/port\object_access_control.c ****             accCtrlOiP->objectInstId = acObjInstId;
 1494              		.loc 1 520 38
 1495 0050 3B69     		ldr	r3, [r7, #16]
 1496 0052 FA88     		ldrh	r2, [r7, #6]	@ movhi
 1497 0054 1A81     		strh	r2, [r3, #8]	@ movhi
 521:g:/iot/IoT_Device_Demo/iot_link/network/lwm2m/wakaama_lwm2m/port\object_access_control.c ****             accCtrlOiP->accCtrlOwner = acOwner;
 1498              		.loc 1 521 38
 1499 0056 3B69     		ldr	r3, [r7, #16]
 1500 0058 3A8C     		ldrh	r2, [r7, #32]	@ movhi
 1501 005a 5A81     		strh	r2, [r3, #10]	@ movhi
 522:g:/iot/IoT_Device_Demo/iot_link/network/lwm2m/wakaama_lwm2m/port\object_access_control.c ****             accCtrlObjP->instanceList =
 523:g:/iot/IoT_Device_Demo/iot_link/network/lwm2m/wakaama_lwm2m/port\object_access_control.c ****                 LWM2M_LIST_ADD(accCtrlObjP->instanceList, accCtrlOiP);
 1502              		.loc 1 523 17
 1503 005c FB68     		ldr	r3, [r7, #12]
 1504 005e 9B68     		ldr	r3, [r3, #8]
 1505 0060 3969     		ldr	r1, [r7, #16]
 1506 0062 1846     		mov	r0, r3
 1507 0064 FFF7FEFF 		bl	lwm2m_list_add
 1508 0068 0246     		mov	r2, r0
 522:g:/iot/IoT_Device_Demo/iot_link/network/lwm2m/wakaama_lwm2m/port\object_access_control.c ****             accCtrlObjP->instanceList =
 1509              		.loc 1 522 39
 1510 006a FB68     		ldr	r3, [r7, #12]
 1511 006c 9A60     		str	r2, [r3, #8]
 524:g:/iot/IoT_Device_Demo/iot_link/network/lwm2m/wakaama_lwm2m/port\object_access_control.c ****             ret = true;
 1512              		.loc 1 524 17
 1513 006e 0123     		movs	r3, #1
 1514 0070 FB75     		strb	r3, [r7, #23]
 1515              	.LBE7:
 525:g:/iot/IoT_Device_Demo/iot_link/network/lwm2m/wakaama_lwm2m/port\object_access_control.c ****         }
 526:g:/iot/IoT_Device_Demo/iot_link/network/lwm2m/wakaama_lwm2m/port\object_access_control.c ****     }
 527:g:/iot/IoT_Device_Demo/iot_link/network/lwm2m/wakaama_lwm2m/port\object_access_control.c **** 
 528:g:/iot/IoT_Device_Demo/iot_link/network/lwm2m/wakaama_lwm2m/port\object_access_control.c ****     return ret;
 1516              		.loc 1 528 12
 1517 0072 FB7D     		ldrb	r3, [r7, #23]	@ zero_extendqisi2
 1518              	.L94:
 529:g:/iot/IoT_Device_Demo/iot_link/network/lwm2m/wakaama_lwm2m/port\object_access_control.c **** }
 1519              		.loc 1 529 1
 1520 0074 1846     		mov	r0, r3
 1521 0076 1837     		adds	r7, r7, #24
 1522              	.LCFI55:
 1523              		.cfi_def_cfa_offset 8
 1524 0078 BD46     		mov	sp, r7
 1525              	.LCFI56:
 1526              		.cfi_def_cfa_register 13
ARM GAS  C:\Users\ADMINI~1\AppData\Local\Temp\ccQvcA20.s 			page 38


 1527              		@ sp needed
 1528 007a 80BD     		pop	{r7, pc}
 1529              		.cfi_endproc
 1530              	.LFE22:
 1532              		.section	.text.acc_ctrl_oi_add_ac_val,"ax",%progbits
 1533              		.align	1
 1534              		.global	acc_ctrl_oi_add_ac_val
 1535              		.syntax unified
 1536              		.thumb
 1537              		.thumb_func
 1538              		.fpu fpv4-sp-d16
 1540              	acc_ctrl_oi_add_ac_val:
 1541              	.LFB23:
 530:g:/iot/IoT_Device_Demo/iot_link/network/lwm2m/wakaama_lwm2m/port\object_access_control.c **** 
 531:g:/iot/IoT_Device_Demo/iot_link/network/lwm2m/wakaama_lwm2m/port\object_access_control.c **** bool acc_ctrl_oi_add_ac_val(lwm2m_object_t *accCtrlObjP, uint16_t instId,
 532:g:/iot/IoT_Device_Demo/iot_link/network/lwm2m/wakaama_lwm2m/port\object_access_control.c ****                             uint16_t acResId, uint16_t acValue)
 533:g:/iot/IoT_Device_Demo/iot_link/network/lwm2m/wakaama_lwm2m/port\object_access_control.c **** {
 1542              		.loc 1 533 1
 1543              		.cfi_startproc
 1544              		@ args = 0, pretend = 0, frame = 24
 1545              		@ frame_needed = 1, uses_anonymous_args = 0
 1546 0000 80B5     		push	{r7, lr}
 1547              	.LCFI57:
 1548              		.cfi_def_cfa_offset 8
 1549              		.cfi_offset 7, -8
 1550              		.cfi_offset 14, -4
 1551 0002 86B0     		sub	sp, sp, #24
 1552              	.LCFI58:
 1553              		.cfi_def_cfa_offset 32
 1554 0004 00AF     		add	r7, sp, #0
 1555              	.LCFI59:
 1556              		.cfi_def_cfa_register 7
 1557 0006 F860     		str	r0, [r7, #12]
 1558 0008 0846     		mov	r0, r1
 1559 000a 1146     		mov	r1, r2
 1560 000c 1A46     		mov	r2, r3
 1561 000e 0346     		mov	r3, r0	@ movhi
 1562 0010 7B81     		strh	r3, [r7, #10]	@ movhi
 1563 0012 0B46     		mov	r3, r1	@ movhi
 1564 0014 3B81     		strh	r3, [r7, #8]	@ movhi
 1565 0016 1346     		mov	r3, r2	@ movhi
 1566 0018 FB80     		strh	r3, [r7, #6]	@ movhi
 534:g:/iot/IoT_Device_Demo/iot_link/network/lwm2m/wakaama_lwm2m/port\object_access_control.c ****     bool ret = false;
 1567              		.loc 1 534 10
 1568 001a 0023     		movs	r3, #0
 1569 001c FB75     		strb	r3, [r7, #23]
 535:g:/iot/IoT_Device_Demo/iot_link/network/lwm2m/wakaama_lwm2m/port\object_access_control.c ****     acc_ctrl_oi_t *accCtrlOiP = (acc_ctrl_oi_t *)
 536:g:/iot/IoT_Device_Demo/iot_link/network/lwm2m/wakaama_lwm2m/port\object_access_control.c ****                                 lwm2m_list_find(accCtrlObjP->instanceList, instId);
 1570              		.loc 1 536 33
 1571 001e FB68     		ldr	r3, [r7, #12]
 1572 0020 9B68     		ldr	r3, [r3, #8]
 1573 0022 7A89     		ldrh	r2, [r7, #10]
 1574 0024 1146     		mov	r1, r2
 1575 0026 1846     		mov	r0, r3
 1576 0028 FFF7FEFF 		bl	lwm2m_list_find
 1577 002c 3861     		str	r0, [r7, #16]
 537:g:/iot/IoT_Device_Demo/iot_link/network/lwm2m/wakaama_lwm2m/port\object_access_control.c **** 
ARM GAS  C:\Users\ADMINI~1\AppData\Local\Temp\ccQvcA20.s 			page 39


 538:g:/iot/IoT_Device_Demo/iot_link/network/lwm2m/wakaama_lwm2m/port\object_access_control.c ****     if (NULL == accCtrlOiP)
 1578              		.loc 1 538 8
 1579 002e 3B69     		ldr	r3, [r7, #16]
 1580 0030 002B     		cmp	r3, #0
 1581 0032 01D1     		bne	.L97
 539:g:/iot/IoT_Device_Demo/iot_link/network/lwm2m/wakaama_lwm2m/port\object_access_control.c ****         return ret;
 1582              		.loc 1 539 16
 1583 0034 FB7D     		ldrb	r3, [r7, #23]	@ zero_extendqisi2
 1584 0036 06E0     		b	.L98
 1585              	.L97:
 540:g:/iot/IoT_Device_Demo/iot_link/network/lwm2m/wakaama_lwm2m/port\object_access_control.c **** 
 541:g:/iot/IoT_Device_Demo/iot_link/network/lwm2m/wakaama_lwm2m/port\object_access_control.c ****     return prv_add_ac_val(accCtrlOiP, acResId, acValue);
 1586              		.loc 1 541 12
 1587 0038 FA88     		ldrh	r2, [r7, #6]
 1588 003a 3B89     		ldrh	r3, [r7, #8]
 1589 003c 1946     		mov	r1, r3
 1590 003e 3869     		ldr	r0, [r7, #16]
 1591 0040 FFF7FEFF 		bl	prv_add_ac_val
 1592 0044 0346     		mov	r3, r0
 1593              	.L98:
 542:g:/iot/IoT_Device_Demo/iot_link/network/lwm2m/wakaama_lwm2m/port\object_access_control.c **** }
 1594              		.loc 1 542 1
 1595 0046 1846     		mov	r0, r3
 1596 0048 1837     		adds	r7, r7, #24
 1597              	.LCFI60:
 1598              		.cfi_def_cfa_offset 8
 1599 004a BD46     		mov	sp, r7
 1600              	.LCFI61:
 1601              		.cfi_def_cfa_register 13
 1602              		@ sp needed
 1603 004c 80BD     		pop	{r7, pc}
 1604              		.cfi_endproc
 1605              	.LFE23:
 1607              		.section	.text.prv_get_acc_instance,"ax",%progbits
 1608              		.align	1
 1609              		.syntax unified
 1610              		.thumb
 1611              		.thumb_func
 1612              		.fpu fpv4-sp-d16
 1614              	prv_get_acc_instance:
 1615              	.LFB24:
 543:g:/iot/IoT_Device_Demo/iot_link/network/lwm2m/wakaama_lwm2m/port\object_access_control.c **** 
 544:g:/iot/IoT_Device_Demo/iot_link/network/lwm2m/wakaama_lwm2m/port\object_access_control.c **** static acc_ctrl_oi_t *prv_get_acc_instance(acc_ctrl_oi_t *accCtrlOiP, uint16_t objId, uint16_t inst
 545:g:/iot/IoT_Device_Demo/iot_link/network/lwm2m/wakaama_lwm2m/port\object_access_control.c **** {
 1616              		.loc 1 545 1
 1617              		.cfi_startproc
 1618              		@ args = 0, pretend = 0, frame = 16
 1619              		@ frame_needed = 1, uses_anonymous_args = 0
 1620              		@ link register save eliminated.
 1621 0000 80B4     		push	{r7}
 1622              	.LCFI62:
 1623              		.cfi_def_cfa_offset 4
 1624              		.cfi_offset 7, -4
 1625 0002 85B0     		sub	sp, sp, #20
 1626              	.LCFI63:
 1627              		.cfi_def_cfa_offset 24
 1628 0004 00AF     		add	r7, sp, #0
ARM GAS  C:\Users\ADMINI~1\AppData\Local\Temp\ccQvcA20.s 			page 40


 1629              	.LCFI64:
 1630              		.cfi_def_cfa_register 7
 1631 0006 7860     		str	r0, [r7, #4]
 1632 0008 0B46     		mov	r3, r1
 1633 000a 7B80     		strh	r3, [r7, #2]	@ movhi
 1634 000c 1346     		mov	r3, r2	@ movhi
 1635 000e 3B80     		strh	r3, [r7]	@ movhi
 546:g:/iot/IoT_Device_Demo/iot_link/network/lwm2m/wakaama_lwm2m/port\object_access_control.c ****     acc_ctrl_oi_t *itor = accCtrlOiP;
 1636              		.loc 1 546 20
 1637 0010 7B68     		ldr	r3, [r7, #4]
 1638 0012 FB60     		str	r3, [r7, #12]
 547:g:/iot/IoT_Device_Demo/iot_link/network/lwm2m/wakaama_lwm2m/port\object_access_control.c **** 
 548:g:/iot/IoT_Device_Demo/iot_link/network/lwm2m/wakaama_lwm2m/port\object_access_control.c ****     while (itor)
 1639              		.loc 1 548 11
 1640 0014 0EE0     		b	.L100
 1641              	.L103:
 549:g:/iot/IoT_Device_Demo/iot_link/network/lwm2m/wakaama_lwm2m/port\object_access_control.c ****     {
 550:g:/iot/IoT_Device_Demo/iot_link/network/lwm2m/wakaama_lwm2m/port\object_access_control.c ****         if (itor->objectId == objId && itor->objectInstId == instId)
 1642              		.loc 1 550 17
 1643 0016 FB68     		ldr	r3, [r7, #12]
 1644 0018 DB88     		ldrh	r3, [r3, #6]
 1645              		.loc 1 550 12
 1646 001a 7A88     		ldrh	r2, [r7, #2]
 1647 001c 9A42     		cmp	r2, r3
 1648 001e 06D1     		bne	.L101
 1649              		.loc 1 550 44 discriminator 1
 1650 0020 FB68     		ldr	r3, [r7, #12]
 1651 0022 1B89     		ldrh	r3, [r3, #8]
 1652              		.loc 1 550 37 discriminator 1
 1653 0024 3A88     		ldrh	r2, [r7]
 1654 0026 9A42     		cmp	r2, r3
 1655 0028 01D1     		bne	.L101
 551:g:/iot/IoT_Device_Demo/iot_link/network/lwm2m/wakaama_lwm2m/port\object_access_control.c ****         {
 552:g:/iot/IoT_Device_Demo/iot_link/network/lwm2m/wakaama_lwm2m/port\object_access_control.c ****             return itor;
 1656              		.loc 1 552 20
 1657 002a FB68     		ldr	r3, [r7, #12]
 1658 002c 06E0     		b	.L102
 1659              	.L101:
 553:g:/iot/IoT_Device_Demo/iot_link/network/lwm2m/wakaama_lwm2m/port\object_access_control.c ****         }
 554:g:/iot/IoT_Device_Demo/iot_link/network/lwm2m/wakaama_lwm2m/port\object_access_control.c **** 
 555:g:/iot/IoT_Device_Demo/iot_link/network/lwm2m/wakaama_lwm2m/port\object_access_control.c ****         itor = itor->next;
 1660              		.loc 1 555 14
 1661 002e FB68     		ldr	r3, [r7, #12]
 1662 0030 1B68     		ldr	r3, [r3]
 1663 0032 FB60     		str	r3, [r7, #12]
 1664              	.L100:
 548:g:/iot/IoT_Device_Demo/iot_link/network/lwm2m/wakaama_lwm2m/port\object_access_control.c ****     {
 1665              		.loc 1 548 11
 1666 0034 FB68     		ldr	r3, [r7, #12]
 1667 0036 002B     		cmp	r3, #0
 1668 0038 EDD1     		bne	.L103
 556:g:/iot/IoT_Device_Demo/iot_link/network/lwm2m/wakaama_lwm2m/port\object_access_control.c ****     }
 557:g:/iot/IoT_Device_Demo/iot_link/network/lwm2m/wakaama_lwm2m/port\object_access_control.c **** 
 558:g:/iot/IoT_Device_Demo/iot_link/network/lwm2m/wakaama_lwm2m/port\object_access_control.c ****     return NULL;
 1669              		.loc 1 558 12
 1670 003a 0023     		movs	r3, #0
 1671              	.L102:
ARM GAS  C:\Users\ADMINI~1\AppData\Local\Temp\ccQvcA20.s 			page 41


 559:g:/iot/IoT_Device_Demo/iot_link/network/lwm2m/wakaama_lwm2m/port\object_access_control.c **** }
 1672              		.loc 1 559 1
 1673 003c 1846     		mov	r0, r3
 1674 003e 1437     		adds	r7, r7, #20
 1675              	.LCFI65:
 1676              		.cfi_def_cfa_offset 4
 1677 0040 BD46     		mov	sp, r7
 1678              	.LCFI66:
 1679              		.cfi_def_cfa_register 13
 1680              		@ sp needed
 1681 0042 5DF8047B 		ldr	r7, [sp], #4
 1682              	.LCFI67:
 1683              		.cfi_restore 7
 1684              		.cfi_def_cfa_offset 0
 1685 0046 7047     		bx	lr
 1686              		.cfi_endproc
 1687              	.LFE24:
 1689              		.section	.text.prv_get_acl_instance,"ax",%progbits
 1690              		.align	1
 1691              		.syntax unified
 1692              		.thumb
 1693              		.thumb_func
 1694              		.fpu fpv4-sp-d16
 1696              	prv_get_acl_instance:
 1697              	.LFB25:
 560:g:/iot/IoT_Device_Demo/iot_link/network/lwm2m/wakaama_lwm2m/port\object_access_control.c **** 
 561:g:/iot/IoT_Device_Demo/iot_link/network/lwm2m/wakaama_lwm2m/port\object_access_control.c **** static acc_ctrl_ri_t *prv_get_acl_instance(acc_ctrl_ri_t *accCtrlRiP, uint16_t serverId)
 562:g:/iot/IoT_Device_Demo/iot_link/network/lwm2m/wakaama_lwm2m/port\object_access_control.c **** {
 1698              		.loc 1 562 1
 1699              		.cfi_startproc
 1700              		@ args = 0, pretend = 0, frame = 16
 1701              		@ frame_needed = 1, uses_anonymous_args = 0
 1702 0000 80B5     		push	{r7, lr}
 1703              	.LCFI68:
 1704              		.cfi_def_cfa_offset 8
 1705              		.cfi_offset 7, -8
 1706              		.cfi_offset 14, -4
 1707 0002 84B0     		sub	sp, sp, #16
 1708              	.LCFI69:
 1709              		.cfi_def_cfa_offset 24
 1710 0004 00AF     		add	r7, sp, #0
 1711              	.LCFI70:
 1712              		.cfi_def_cfa_register 7
 1713 0006 7860     		str	r0, [r7, #4]
 1714 0008 0B46     		mov	r3, r1
 1715 000a 7B80     		strh	r3, [r7, #2]	@ movhi
 563:g:/iot/IoT_Device_Demo/iot_link/network/lwm2m/wakaama_lwm2m/port\object_access_control.c ****     acc_ctrl_ri_t *targetP;
 564:g:/iot/IoT_Device_Demo/iot_link/network/lwm2m/wakaama_lwm2m/port\object_access_control.c ****     targetP = (acc_ctrl_ri_t *)LWM2M_LIST_FIND(accCtrlRiP, serverId);
 1716              		.loc 1 564 32
 1717 000c 7B88     		ldrh	r3, [r7, #2]
 1718 000e 1946     		mov	r1, r3
 1719 0010 7868     		ldr	r0, [r7, #4]
 1720 0012 FFF7FEFF 		bl	lwm2m_list_find
 1721 0016 F860     		str	r0, [r7, #12]
 565:g:/iot/IoT_Device_Demo/iot_link/network/lwm2m/wakaama_lwm2m/port\object_access_control.c **** 
 566:g:/iot/IoT_Device_Demo/iot_link/network/lwm2m/wakaama_lwm2m/port\object_access_control.c ****     if (NULL == targetP)
 1722              		.loc 1 566 8
ARM GAS  C:\Users\ADMINI~1\AppData\Local\Temp\ccQvcA20.s 			page 42


 1723 0018 FB68     		ldr	r3, [r7, #12]
 1724 001a 002B     		cmp	r3, #0
 1725 001c 04D1     		bne	.L105
 567:g:/iot/IoT_Device_Demo/iot_link/network/lwm2m/wakaama_lwm2m/port\object_access_control.c ****     {
 568:g:/iot/IoT_Device_Demo/iot_link/network/lwm2m/wakaama_lwm2m/port\object_access_control.c ****         targetP = (acc_ctrl_ri_t *)LWM2M_LIST_FIND(accCtrlRiP, 0);
 1726              		.loc 1 568 36
 1727 001e 0021     		movs	r1, #0
 1728 0020 7868     		ldr	r0, [r7, #4]
 1729 0022 FFF7FEFF 		bl	lwm2m_list_find
 1730 0026 F860     		str	r0, [r7, #12]
 1731              	.L105:
 569:g:/iot/IoT_Device_Demo/iot_link/network/lwm2m/wakaama_lwm2m/port\object_access_control.c ****     }
 570:g:/iot/IoT_Device_Demo/iot_link/network/lwm2m/wakaama_lwm2m/port\object_access_control.c **** 
 571:g:/iot/IoT_Device_Demo/iot_link/network/lwm2m/wakaama_lwm2m/port\object_access_control.c ****     return targetP;
 1732              		.loc 1 571 12
 1733 0028 FB68     		ldr	r3, [r7, #12]
 572:g:/iot/IoT_Device_Demo/iot_link/network/lwm2m/wakaama_lwm2m/port\object_access_control.c **** }
 1734              		.loc 1 572 1
 1735 002a 1846     		mov	r0, r3
 1736 002c 1037     		adds	r7, r7, #16
 1737              	.LCFI71:
 1738              		.cfi_def_cfa_offset 8
 1739 002e BD46     		mov	sp, r7
 1740              	.LCFI72:
 1741              		.cfi_def_cfa_register 13
 1742              		@ sp needed
 1743 0030 80BD     		pop	{r7, pc}
 1744              		.cfi_endproc
 1745              	.LFE25:
 1747              		.section	.text.prv_auth_match,"ax",%progbits
 1748              		.align	1
 1749              		.syntax unified
 1750              		.thumb
 1751              		.thumb_func
 1752              		.fpu fpv4-sp-d16
 1754              	prv_auth_match:
 1755              	.LFB26:
 573:g:/iot/IoT_Device_Demo/iot_link/network/lwm2m/wakaama_lwm2m/port\object_access_control.c **** 
 574:g:/iot/IoT_Device_Demo/iot_link/network/lwm2m/wakaama_lwm2m/port\object_access_control.c **** static inline bool prv_auth_match(OBJ_ACC_OPERATE op, uint16_t auth_op)
 575:g:/iot/IoT_Device_Demo/iot_link/network/lwm2m/wakaama_lwm2m/port\object_access_control.c **** {
 1756              		.loc 1 575 1
 1757              		.cfi_startproc
 1758              		@ args = 0, pretend = 0, frame = 8
 1759              		@ frame_needed = 1, uses_anonymous_args = 0
 1760              		@ link register save eliminated.
 1761 0000 80B4     		push	{r7}
 1762              	.LCFI73:
 1763              		.cfi_def_cfa_offset 4
 1764              		.cfi_offset 7, -4
 1765 0002 83B0     		sub	sp, sp, #12
 1766              	.LCFI74:
 1767              		.cfi_def_cfa_offset 16
 1768 0004 00AF     		add	r7, sp, #0
 1769              	.LCFI75:
 1770              		.cfi_def_cfa_register 7
 1771 0006 0346     		mov	r3, r0
 1772 0008 0A46     		mov	r2, r1
ARM GAS  C:\Users\ADMINI~1\AppData\Local\Temp\ccQvcA20.s 			page 43


 1773 000a FB71     		strb	r3, [r7, #7]
 1774 000c 1346     		mov	r3, r2	@ movhi
 1775 000e BB80     		strh	r3, [r7, #4]	@ movhi
 576:g:/iot/IoT_Device_Demo/iot_link/network/lwm2m/wakaama_lwm2m/port\object_access_control.c ****     return ((uint32_t)auth_op)& (0x01 << op);
 1776              		.loc 1 576 13
 1777 0010 BB88     		ldrh	r3, [r7, #4]
 1778              		.loc 1 576 39
 1779 0012 FA79     		ldrb	r2, [r7, #7]	@ zero_extendqisi2
 1780 0014 0121     		movs	r1, #1
 1781 0016 01FA02F2 		lsl	r2, r1, r2
 1782              		.loc 1 576 31
 1783 001a 1340     		ands	r3, r3, r2
 1784 001c 002B     		cmp	r3, #0
 1785 001e 14BF     		ite	ne
 1786 0020 0123     		movne	r3, #1
 1787 0022 0023     		moveq	r3, #0
 1788 0024 DBB2     		uxtb	r3, r3
 577:g:/iot/IoT_Device_Demo/iot_link/network/lwm2m/wakaama_lwm2m/port\object_access_control.c **** }
 1789              		.loc 1 577 1
 1790 0026 1846     		mov	r0, r3
 1791 0028 0C37     		adds	r7, r7, #12
 1792              	.LCFI76:
 1793              		.cfi_def_cfa_offset 4
 1794 002a BD46     		mov	sp, r7
 1795              	.LCFI77:
 1796              		.cfi_def_cfa_register 13
 1797              		@ sp needed
 1798 002c 5DF8047B 		ldr	r7, [sp], #4
 1799              	.LCFI78:
 1800              		.cfi_restore 7
 1801              		.cfi_def_cfa_offset 0
 1802 0030 7047     		bx	lr
 1803              		.cfi_endproc
 1804              	.LFE26:
 1806              		.section	.text.prv_check_instance_auth,"ax",%progbits
 1807              		.align	1
 1808              		.syntax unified
 1809              		.thumb
 1810              		.thumb_func
 1811              		.fpu fpv4-sp-d16
 1813              	prv_check_instance_auth:
 1814              	.LFB27:
 578:g:/iot/IoT_Device_Demo/iot_link/network/lwm2m/wakaama_lwm2m/port\object_access_control.c **** 
 579:g:/iot/IoT_Device_Demo/iot_link/network/lwm2m/wakaama_lwm2m/port\object_access_control.c **** static bool prv_check_instance_auth(acc_ctrl_oi_t *accCtrlOiP, uint16_t objId, uint16_t instId,
 580:g:/iot/IoT_Device_Demo/iot_link/network/lwm2m/wakaama_lwm2m/port\object_access_control.c ****                                     uint16_t serverId, OBJ_ACC_OPERATE op)
 581:g:/iot/IoT_Device_Demo/iot_link/network/lwm2m/wakaama_lwm2m/port\object_access_control.c **** {
 1815              		.loc 1 581 1
 1816              		.cfi_startproc
 1817              		@ args = 4, pretend = 0, frame = 24
 1818              		@ frame_needed = 1, uses_anonymous_args = 0
 1819 0000 80B5     		push	{r7, lr}
 1820              	.LCFI79:
 1821              		.cfi_def_cfa_offset 8
 1822              		.cfi_offset 7, -8
 1823              		.cfi_offset 14, -4
 1824 0002 86B0     		sub	sp, sp, #24
 1825              	.LCFI80:
ARM GAS  C:\Users\ADMINI~1\AppData\Local\Temp\ccQvcA20.s 			page 44


 1826              		.cfi_def_cfa_offset 32
 1827 0004 00AF     		add	r7, sp, #0
 1828              	.LCFI81:
 1829              		.cfi_def_cfa_register 7
 1830 0006 F860     		str	r0, [r7, #12]
 1831 0008 0846     		mov	r0, r1
 1832 000a 1146     		mov	r1, r2
 1833 000c 1A46     		mov	r2, r3
 1834 000e 0346     		mov	r3, r0	@ movhi
 1835 0010 7B81     		strh	r3, [r7, #10]	@ movhi
 1836 0012 0B46     		mov	r3, r1	@ movhi
 1837 0014 3B81     		strh	r3, [r7, #8]	@ movhi
 1838 0016 1346     		mov	r3, r2	@ movhi
 1839 0018 FB80     		strh	r3, [r7, #6]	@ movhi
 582:g:/iot/IoT_Device_Demo/iot_link/network/lwm2m/wakaama_lwm2m/port\object_access_control.c ****     acc_ctrl_oi_t *targetP;
 583:g:/iot/IoT_Device_Demo/iot_link/network/lwm2m/wakaama_lwm2m/port\object_access_control.c ****     acc_ctrl_ri_t *accCtrlRiP;
 584:g:/iot/IoT_Device_Demo/iot_link/network/lwm2m/wakaama_lwm2m/port\object_access_control.c ****     targetP = prv_get_acc_instance(accCtrlOiP, objId, instId);
 1840              		.loc 1 584 15
 1841 001a 3A89     		ldrh	r2, [r7, #8]
 1842 001c 7B89     		ldrh	r3, [r7, #10]
 1843 001e 1946     		mov	r1, r3
 1844 0020 F868     		ldr	r0, [r7, #12]
 1845 0022 FFF7FEFF 		bl	prv_get_acc_instance
 1846 0026 7861     		str	r0, [r7, #20]
 585:g:/iot/IoT_Device_Demo/iot_link/network/lwm2m/wakaama_lwm2m/port\object_access_control.c **** 
 586:g:/iot/IoT_Device_Demo/iot_link/network/lwm2m/wakaama_lwm2m/port\object_access_control.c ****     if (NULL == targetP)
 1847              		.loc 1 586 8
 1848 0028 7B69     		ldr	r3, [r7, #20]
 1849 002a 002B     		cmp	r3, #0
 1850 002c 01D1     		bne	.L110
 587:g:/iot/IoT_Device_Demo/iot_link/network/lwm2m/wakaama_lwm2m/port\object_access_control.c ****     {
 588:g:/iot/IoT_Device_Demo/iot_link/network/lwm2m/wakaama_lwm2m/port\object_access_control.c ****         return false;
 1851              		.loc 1 588 16
 1852 002e 0023     		movs	r3, #0
 1853 0030 1CE0     		b	.L111
 1854              	.L110:
 589:g:/iot/IoT_Device_Demo/iot_link/network/lwm2m/wakaama_lwm2m/port\object_access_control.c ****     }
 590:g:/iot/IoT_Device_Demo/iot_link/network/lwm2m/wakaama_lwm2m/port\object_access_control.c **** 
 591:g:/iot/IoT_Device_Demo/iot_link/network/lwm2m/wakaama_lwm2m/port\object_access_control.c ****     accCtrlRiP = prv_get_acl_instance(targetP->accCtrlValList, serverId);
 1855              		.loc 1 591 18
 1856 0032 7B69     		ldr	r3, [r7, #20]
 1857 0034 DB68     		ldr	r3, [r3, #12]
 1858 0036 FA88     		ldrh	r2, [r7, #6]
 1859 0038 1146     		mov	r1, r2
 1860 003a 1846     		mov	r0, r3
 1861 003c FFF7FEFF 		bl	prv_get_acl_instance
 1862 0040 3861     		str	r0, [r7, #16]
 592:g:/iot/IoT_Device_Demo/iot_link/network/lwm2m/wakaama_lwm2m/port\object_access_control.c **** 
 593:g:/iot/IoT_Device_Demo/iot_link/network/lwm2m/wakaama_lwm2m/port\object_access_control.c ****     if (NULL == accCtrlRiP)
 1863              		.loc 1 593 8
 1864 0042 3B69     		ldr	r3, [r7, #16]
 1865 0044 002B     		cmp	r3, #0
 1866 0046 08D1     		bne	.L112
 594:g:/iot/IoT_Device_Demo/iot_link/network/lwm2m/wakaama_lwm2m/port\object_access_control.c ****     {
 595:g:/iot/IoT_Device_Demo/iot_link/network/lwm2m/wakaama_lwm2m/port\object_access_control.c ****         return targetP->accCtrlOwner == serverId;
 1867              		.loc 1 595 23
 1868 0048 7B69     		ldr	r3, [r7, #20]
ARM GAS  C:\Users\ADMINI~1\AppData\Local\Temp\ccQvcA20.s 			page 45


 1869 004a 5B89     		ldrh	r3, [r3, #10]
 1870              		.loc 1 595 38
 1871 004c FA88     		ldrh	r2, [r7, #6]
 1872 004e 9A42     		cmp	r2, r3
 1873 0050 0CBF     		ite	eq
 1874 0052 0123     		moveq	r3, #1
 1875 0054 0023     		movne	r3, #0
 1876 0056 DBB2     		uxtb	r3, r3
 1877 0058 08E0     		b	.L111
 1878              	.L112:
 596:g:/iot/IoT_Device_Demo/iot_link/network/lwm2m/wakaama_lwm2m/port\object_access_control.c ****     }
 597:g:/iot/IoT_Device_Demo/iot_link/network/lwm2m/wakaama_lwm2m/port\object_access_control.c **** 
 598:g:/iot/IoT_Device_Demo/iot_link/network/lwm2m/wakaama_lwm2m/port\object_access_control.c ****     return prv_auth_match(op, accCtrlRiP->accCtrlValue);
 1879              		.loc 1 598 12
 1880 005a 3B69     		ldr	r3, [r7, #16]
 1881 005c DA88     		ldrh	r2, [r3, #6]
 1882 005e 97F82030 		ldrb	r3, [r7, #32]	@ zero_extendqisi2
 1883 0062 1146     		mov	r1, r2
 1884 0064 1846     		mov	r0, r3
 1885 0066 FFF7FEFF 		bl	prv_auth_match
 1886 006a 0346     		mov	r3, r0
 1887              	.L111:
 599:g:/iot/IoT_Device_Demo/iot_link/network/lwm2m/wakaama_lwm2m/port\object_access_control.c **** }
 1888              		.loc 1 599 1
 1889 006c 1846     		mov	r0, r3
 1890 006e 1837     		adds	r7, r7, #24
 1891              	.LCFI82:
 1892              		.cfi_def_cfa_offset 8
 1893 0070 BD46     		mov	sp, r7
 1894              	.LCFI83:
 1895              		.cfi_def_cfa_register 13
 1896              		@ sp needed
 1897 0072 80BD     		pop	{r7, pc}
 1898              		.cfi_endproc
 1899              	.LFE27:
 1901              		.section	.text.prv_acc_self_auth_check,"ax",%progbits
 1902              		.align	1
 1903              		.syntax unified
 1904              		.thumb
 1905              		.thumb_func
 1906              		.fpu fpv4-sp-d16
 1908              	prv_acc_self_auth_check:
 1909              	.LFB28:
 600:g:/iot/IoT_Device_Demo/iot_link/network/lwm2m/wakaama_lwm2m/port\object_access_control.c **** 
 601:g:/iot/IoT_Device_Demo/iot_link/network/lwm2m/wakaama_lwm2m/port\object_access_control.c **** static uint8_t prv_acc_self_auth_check(acc_ctrl_oi_t *accCtrlOiP, lwm2m_uri_t *uri,
 602:g:/iot/IoT_Device_Demo/iot_link/network/lwm2m/wakaama_lwm2m/port\object_access_control.c ****                                        OBJ_ACC_OPERATE op, uint16_t serverId)
 603:g:/iot/IoT_Device_Demo/iot_link/network/lwm2m/wakaama_lwm2m/port\object_access_control.c **** {
 1910              		.loc 1 603 1
 1911              		.cfi_startproc
 1912              		@ args = 0, pretend = 0, frame = 24
 1913              		@ frame_needed = 1, uses_anonymous_args = 0
 1914 0000 80B5     		push	{r7, lr}
 1915              	.LCFI84:
 1916              		.cfi_def_cfa_offset 8
 1917              		.cfi_offset 7, -8
 1918              		.cfi_offset 14, -4
 1919 0002 86B0     		sub	sp, sp, #24
ARM GAS  C:\Users\ADMINI~1\AppData\Local\Temp\ccQvcA20.s 			page 46


 1920              	.LCFI85:
 1921              		.cfi_def_cfa_offset 32
 1922 0004 00AF     		add	r7, sp, #0
 1923              	.LCFI86:
 1924              		.cfi_def_cfa_register 7
 1925 0006 F860     		str	r0, [r7, #12]
 1926 0008 B960     		str	r1, [r7, #8]
 1927 000a 1146     		mov	r1, r2
 1928 000c 1A46     		mov	r2, r3
 1929 000e 0B46     		mov	r3, r1
 1930 0010 FB71     		strb	r3, [r7, #7]
 1931 0012 1346     		mov	r3, r2	@ movhi
 1932 0014 BB80     		strh	r3, [r7, #4]	@ movhi
 604:g:/iot/IoT_Device_Demo/iot_link/network/lwm2m/wakaama_lwm2m/port\object_access_control.c ****     acc_ctrl_oi_t *targetP;
 605:g:/iot/IoT_Device_Demo/iot_link/network/lwm2m/wakaama_lwm2m/port\object_access_control.c **** 
 606:g:/iot/IoT_Device_Demo/iot_link/network/lwm2m/wakaama_lwm2m/port\object_access_control.c ****     if (LWM2M_URI_IS_SET_INSTANCE(uri))
 1933              		.loc 1 606 9
 1934 0016 BB68     		ldr	r3, [r7, #8]
 1935 0018 1B78     		ldrb	r3, [r3]	@ zero_extendqisi2
 1936 001a 03F00203 		and	r3, r3, #2
 1937              		.loc 1 606 8
 1938 001e 002B     		cmp	r3, #0
 1939 0020 12D0     		beq	.L114
 607:g:/iot/IoT_Device_Demo/iot_link/network/lwm2m/wakaama_lwm2m/port\object_access_control.c ****     {
 608:g:/iot/IoT_Device_Demo/iot_link/network/lwm2m/wakaama_lwm2m/port\object_access_control.c ****         targetP = (acc_ctrl_oi_t *)LWM2M_LIST_FIND(accCtrlOiP, uri->instanceId);
 1940              		.loc 1 608 36
 1941 0022 BB68     		ldr	r3, [r7, #8]
 1942 0024 9B88     		ldrh	r3, [r3, #4]
 1943 0026 1946     		mov	r1, r3
 1944 0028 F868     		ldr	r0, [r7, #12]
 1945 002a FFF7FEFF 		bl	lwm2m_list_find
 1946 002e 7861     		str	r0, [r7, #20]
 609:g:/iot/IoT_Device_Demo/iot_link/network/lwm2m/wakaama_lwm2m/port\object_access_control.c **** 
 610:g:/iot/IoT_Device_Demo/iot_link/network/lwm2m/wakaama_lwm2m/port\object_access_control.c ****         if (NULL != targetP && targetP->accCtrlOwner == serverId)
 1947              		.loc 1 610 12
 1948 0030 7B69     		ldr	r3, [r7, #20]
 1949 0032 002B     		cmp	r3, #0
 1950 0034 06D0     		beq	.L115
 1951              		.loc 1 610 39 discriminator 1
 1952 0036 7B69     		ldr	r3, [r7, #20]
 1953 0038 5B89     		ldrh	r3, [r3, #10]
 1954              		.loc 1 610 29 discriminator 1
 1955 003a BA88     		ldrh	r2, [r7, #4]
 1956 003c 9A42     		cmp	r2, r3
 1957 003e 01D1     		bne	.L115
 611:g:/iot/IoT_Device_Demo/iot_link/network/lwm2m/wakaama_lwm2m/port\object_access_control.c ****         {
 612:g:/iot/IoT_Device_Demo/iot_link/network/lwm2m/wakaama_lwm2m/port\object_access_control.c ****             return COAP_NO_ERROR;
 1958              		.loc 1 612 20
 1959 0040 0023     		movs	r3, #0
 1960 0042 12E0     		b	.L116
 1961              	.L115:
 613:g:/iot/IoT_Device_Demo/iot_link/network/lwm2m/wakaama_lwm2m/port\object_access_control.c ****         }
 614:g:/iot/IoT_Device_Demo/iot_link/network/lwm2m/wakaama_lwm2m/port\object_access_control.c ****         else
 615:g:/iot/IoT_Device_Demo/iot_link/network/lwm2m/wakaama_lwm2m/port\object_access_control.c ****         {
 616:g:/iot/IoT_Device_Demo/iot_link/network/lwm2m/wakaama_lwm2m/port\object_access_control.c ****             return COAP_401_UNAUTHORIZED;
 1962              		.loc 1 616 20
 1963 0044 8123     		movs	r3, #129
ARM GAS  C:\Users\ADMINI~1\AppData\Local\Temp\ccQvcA20.s 			page 47


 1964 0046 10E0     		b	.L116
 1965              	.L114:
 617:g:/iot/IoT_Device_Demo/iot_link/network/lwm2m/wakaama_lwm2m/port\object_access_control.c ****         }
 618:g:/iot/IoT_Device_Demo/iot_link/network/lwm2m/wakaama_lwm2m/port\object_access_control.c ****     }
 619:g:/iot/IoT_Device_Demo/iot_link/network/lwm2m/wakaama_lwm2m/port\object_access_control.c ****     else
 620:g:/iot/IoT_Device_Demo/iot_link/network/lwm2m/wakaama_lwm2m/port\object_access_control.c ****     {
 621:g:/iot/IoT_Device_Demo/iot_link/network/lwm2m/wakaama_lwm2m/port\object_access_control.c ****         targetP = accCtrlOiP;
 1966              		.loc 1 621 17
 1967 0048 FB68     		ldr	r3, [r7, #12]
 1968 004a 7B61     		str	r3, [r7, #20]
 622:g:/iot/IoT_Device_Demo/iot_link/network/lwm2m/wakaama_lwm2m/port\object_access_control.c **** 
 623:g:/iot/IoT_Device_Demo/iot_link/network/lwm2m/wakaama_lwm2m/port\object_access_control.c ****         while (targetP)
 1969              		.loc 1 623 15
 1970 004c 09E0     		b	.L117
 1971              	.L119:
 624:g:/iot/IoT_Device_Demo/iot_link/network/lwm2m/wakaama_lwm2m/port\object_access_control.c ****         {
 625:g:/iot/IoT_Device_Demo/iot_link/network/lwm2m/wakaama_lwm2m/port\object_access_control.c ****             if (targetP->accCtrlOwner != serverId)
 1972              		.loc 1 625 24
 1973 004e 7B69     		ldr	r3, [r7, #20]
 1974 0050 5B89     		ldrh	r3, [r3, #10]
 1975              		.loc 1 625 16
 1976 0052 BA88     		ldrh	r2, [r7, #4]
 1977 0054 9A42     		cmp	r2, r3
 1978 0056 01D0     		beq	.L118
 626:g:/iot/IoT_Device_Demo/iot_link/network/lwm2m/wakaama_lwm2m/port\object_access_control.c ****             {
 627:g:/iot/IoT_Device_Demo/iot_link/network/lwm2m/wakaama_lwm2m/port\object_access_control.c ****                 return COAP_401_UNAUTHORIZED;
 1979              		.loc 1 627 24
 1980 0058 8123     		movs	r3, #129
 1981 005a 06E0     		b	.L116
 1982              	.L118:
 628:g:/iot/IoT_Device_Demo/iot_link/network/lwm2m/wakaama_lwm2m/port\object_access_control.c ****             }
 629:g:/iot/IoT_Device_Demo/iot_link/network/lwm2m/wakaama_lwm2m/port\object_access_control.c **** 
 630:g:/iot/IoT_Device_Demo/iot_link/network/lwm2m/wakaama_lwm2m/port\object_access_control.c ****             targetP = targetP->next;
 1983              		.loc 1 630 21
 1984 005c 7B69     		ldr	r3, [r7, #20]
 1985 005e 1B68     		ldr	r3, [r3]
 1986 0060 7B61     		str	r3, [r7, #20]
 1987              	.L117:
 623:g:/iot/IoT_Device_Demo/iot_link/network/lwm2m/wakaama_lwm2m/port\object_access_control.c ****         {
 1988              		.loc 1 623 15
 1989 0062 7B69     		ldr	r3, [r7, #20]
 1990 0064 002B     		cmp	r3, #0
 1991 0066 F2D1     		bne	.L119
 631:g:/iot/IoT_Device_Demo/iot_link/network/lwm2m/wakaama_lwm2m/port\object_access_control.c ****         }
 632:g:/iot/IoT_Device_Demo/iot_link/network/lwm2m/wakaama_lwm2m/port\object_access_control.c **** 
 633:g:/iot/IoT_Device_Demo/iot_link/network/lwm2m/wakaama_lwm2m/port\object_access_control.c ****         return COAP_NO_ERROR;
 1992              		.loc 1 633 16
 1993 0068 0023     		movs	r3, #0
 1994              	.L116:
 634:g:/iot/IoT_Device_Demo/iot_link/network/lwm2m/wakaama_lwm2m/port\object_access_control.c ****     }
 635:g:/iot/IoT_Device_Demo/iot_link/network/lwm2m/wakaama_lwm2m/port\object_access_control.c **** }
 1995              		.loc 1 635 1
 1996 006a 1846     		mov	r0, r3
 1997 006c 1837     		adds	r7, r7, #24
 1998              	.LCFI87:
 1999              		.cfi_def_cfa_offset 8
 2000 006e BD46     		mov	sp, r7
ARM GAS  C:\Users\ADMINI~1\AppData\Local\Temp\ccQvcA20.s 			page 48


 2001              	.LCFI88:
 2002              		.cfi_def_cfa_register 13
 2003              		@ sp needed
 2004 0070 80BD     		pop	{r7, pc}
 2005              		.cfi_endproc
 2006              	.LFE28:
 2008              		.section	.text.prv_pre_auth_check,"ax",%progbits
 2009              		.align	1
 2010              		.syntax unified
 2011              		.thumb
 2012              		.thumb_func
 2013              		.fpu fpv4-sp-d16
 2015              	prv_pre_auth_check:
 2016              	.LFB29:
 636:g:/iot/IoT_Device_Demo/iot_link/network/lwm2m/wakaama_lwm2m/port\object_access_control.c **** 
 637:g:/iot/IoT_Device_Demo/iot_link/network/lwm2m/wakaama_lwm2m/port\object_access_control.c **** static uint8_t prv_pre_auth_check(acc_ctrl_oi_t *accCtrlOiP, lwm2m_uri_t *uri,
 638:g:/iot/IoT_Device_Demo/iot_link/network/lwm2m/wakaama_lwm2m/port\object_access_control.c ****                                   OBJ_ACC_OPERATE op, uint16_t serverId)
 639:g:/iot/IoT_Device_Demo/iot_link/network/lwm2m/wakaama_lwm2m/port\object_access_control.c **** {
 2017              		.loc 1 639 1
 2018              		.cfi_startproc
 2019              		@ args = 0, pretend = 0, frame = 16
 2020              		@ frame_needed = 1, uses_anonymous_args = 0
 2021 0000 80B5     		push	{r7, lr}
 2022              	.LCFI89:
 2023              		.cfi_def_cfa_offset 8
 2024              		.cfi_offset 7, -8
 2025              		.cfi_offset 14, -4
 2026 0002 86B0     		sub	sp, sp, #24
 2027              	.LCFI90:
 2028              		.cfi_def_cfa_offset 32
 2029 0004 02AF     		add	r7, sp, #8
 2030              	.LCFI91:
 2031              		.cfi_def_cfa 7, 24
 2032 0006 F860     		str	r0, [r7, #12]
 2033 0008 B960     		str	r1, [r7, #8]
 2034 000a 1146     		mov	r1, r2
 2035 000c 1A46     		mov	r2, r3
 2036 000e 0B46     		mov	r3, r1
 2037 0010 FB71     		strb	r3, [r7, #7]
 2038 0012 1346     		mov	r3, r2	@ movhi
 2039 0014 BB80     		strh	r3, [r7, #4]	@ movhi
 640:g:/iot/IoT_Device_Demo/iot_link/network/lwm2m/wakaama_lwm2m/port\object_access_control.c ****     if (OBJ_ACC_CREATE == op)
 2040              		.loc 1 640 8
 2041 0016 FB79     		ldrb	r3, [r7, #7]	@ zero_extendqisi2
 2042 0018 042B     		cmp	r3, #4
 2043 001a 14D1     		bne	.L121
 641:g:/iot/IoT_Device_Demo/iot_link/network/lwm2m/wakaama_lwm2m/port\object_access_control.c ****     {
 642:g:/iot/IoT_Device_Demo/iot_link/network/lwm2m/wakaama_lwm2m/port\object_access_control.c ****         if (!prv_check_instance_auth(accCtrlOiP, uri->objectId, MAX_DATA_VAL, serverId, op))
 2044              		.loc 1 642 14
 2045 001c BB68     		ldr	r3, [r7, #8]
 2046 001e 5988     		ldrh	r1, [r3, #2]
 2047 0020 BA88     		ldrh	r2, [r7, #4]
 2048 0022 FB79     		ldrb	r3, [r7, #7]	@ zero_extendqisi2
 2049 0024 0093     		str	r3, [sp]
 2050 0026 1346     		mov	r3, r2
 2051 0028 4FF6FF72 		movw	r2, #65535
 2052 002c F868     		ldr	r0, [r7, #12]
ARM GAS  C:\Users\ADMINI~1\AppData\Local\Temp\ccQvcA20.s 			page 49


 2053 002e FFF7FEFF 		bl	prv_check_instance_auth
 2054 0032 0346     		mov	r3, r0
 2055              		.loc 1 642 13
 2056 0034 83F00103 		eor	r3, r3, #1
 2057 0038 DBB2     		uxtb	r3, r3
 2058              		.loc 1 642 12
 2059 003a 002B     		cmp	r3, #0
 2060 003c 01D0     		beq	.L122
 643:g:/iot/IoT_Device_Demo/iot_link/network/lwm2m/wakaama_lwm2m/port\object_access_control.c ****         {
 644:g:/iot/IoT_Device_Demo/iot_link/network/lwm2m/wakaama_lwm2m/port\object_access_control.c ****             return COAP_401_UNAUTHORIZED;
 2061              		.loc 1 644 20
 2062 003e 8123     		movs	r3, #129
 2063 0040 2CE0     		b	.L123
 2064              	.L122:
 645:g:/iot/IoT_Device_Demo/iot_link/network/lwm2m/wakaama_lwm2m/port\object_access_control.c ****         }
 646:g:/iot/IoT_Device_Demo/iot_link/network/lwm2m/wakaama_lwm2m/port\object_access_control.c **** 
 647:g:/iot/IoT_Device_Demo/iot_link/network/lwm2m/wakaama_lwm2m/port\object_access_control.c ****         return COAP_NO_ERROR;
 2065              		.loc 1 647 16
 2066 0042 0023     		movs	r3, #0
 2067 0044 2AE0     		b	.L123
 2068              	.L121:
 648:g:/iot/IoT_Device_Demo/iot_link/network/lwm2m/wakaama_lwm2m/port\object_access_control.c ****     }
 649:g:/iot/IoT_Device_Demo/iot_link/network/lwm2m/wakaama_lwm2m/port\object_access_control.c ****     else if (OBJ_ACC_DISCOVER == op)
 2069              		.loc 1 649 13
 2070 0046 FB79     		ldrb	r3, [r7, #7]	@ zero_extendqisi2
 2071 0048 052B     		cmp	r3, #5
 2072 004a 01D1     		bne	.L124
 650:g:/iot/IoT_Device_Demo/iot_link/network/lwm2m/wakaama_lwm2m/port\object_access_control.c ****     {
 651:g:/iot/IoT_Device_Demo/iot_link/network/lwm2m/wakaama_lwm2m/port\object_access_control.c ****         return COAP_NO_ERROR;
 2073              		.loc 1 651 16
 2074 004c 0023     		movs	r3, #0
 2075 004e 25E0     		b	.L123
 2076              	.L124:
 652:g:/iot/IoT_Device_Demo/iot_link/network/lwm2m/wakaama_lwm2m/port\object_access_control.c ****     }
 653:g:/iot/IoT_Device_Demo/iot_link/network/lwm2m/wakaama_lwm2m/port\object_access_control.c ****     else if (LWM2M_ACL_OBJECT_ID == uri->objectId)
 2077              		.loc 1 653 40
 2078 0050 BB68     		ldr	r3, [r7, #8]
 2079 0052 5B88     		ldrh	r3, [r3, #2]
 2080              		.loc 1 653 13
 2081 0054 022B     		cmp	r3, #2
 2082 0056 07D1     		bne	.L125
 654:g:/iot/IoT_Device_Demo/iot_link/network/lwm2m/wakaama_lwm2m/port\object_access_control.c ****     {
 655:g:/iot/IoT_Device_Demo/iot_link/network/lwm2m/wakaama_lwm2m/port\object_access_control.c ****         return prv_acc_self_auth_check(accCtrlOiP, uri, op, serverId);
 2083              		.loc 1 655 16
 2084 0058 BB88     		ldrh	r3, [r7, #4]
 2085 005a FA79     		ldrb	r2, [r7, #7]	@ zero_extendqisi2
 2086 005c B968     		ldr	r1, [r7, #8]
 2087 005e F868     		ldr	r0, [r7, #12]
 2088 0060 FFF7FEFF 		bl	prv_acc_self_auth_check
 2089 0064 0346     		mov	r3, r0
 2090 0066 19E0     		b	.L123
 2091              	.L125:
 656:g:/iot/IoT_Device_Demo/iot_link/network/lwm2m/wakaama_lwm2m/port\object_access_control.c ****     }
 657:g:/iot/IoT_Device_Demo/iot_link/network/lwm2m/wakaama_lwm2m/port\object_access_control.c ****     else
 658:g:/iot/IoT_Device_Demo/iot_link/network/lwm2m/wakaama_lwm2m/port\object_access_control.c ****     {
 659:g:/iot/IoT_Device_Demo/iot_link/network/lwm2m/wakaama_lwm2m/port\object_access_control.c ****         if (LWM2M_URI_IS_SET_INSTANCE(uri))
 2092              		.loc 1 659 13
ARM GAS  C:\Users\ADMINI~1\AppData\Local\Temp\ccQvcA20.s 			page 50


 2093 0068 BB68     		ldr	r3, [r7, #8]
 2094 006a 1B78     		ldrb	r3, [r3]	@ zero_extendqisi2
 2095 006c 03F00203 		and	r3, r3, #2
 2096              		.loc 1 659 12
 2097 0070 002B     		cmp	r3, #0
 2098 0072 12D0     		beq	.L126
 660:g:/iot/IoT_Device_Demo/iot_link/network/lwm2m/wakaama_lwm2m/port\object_access_control.c ****         {
 661:g:/iot/IoT_Device_Demo/iot_link/network/lwm2m/wakaama_lwm2m/port\object_access_control.c ****             if (!prv_check_instance_auth(accCtrlOiP, uri->objectId, uri->instanceId, serverId, op))
 2099              		.loc 1 661 18
 2100 0074 BB68     		ldr	r3, [r7, #8]
 2101 0076 5988     		ldrh	r1, [r3, #2]
 2102 0078 BB68     		ldr	r3, [r7, #8]
 2103 007a 9A88     		ldrh	r2, [r3, #4]
 2104 007c B888     		ldrh	r0, [r7, #4]
 2105 007e FB79     		ldrb	r3, [r7, #7]	@ zero_extendqisi2
 2106 0080 0093     		str	r3, [sp]
 2107 0082 0346     		mov	r3, r0
 2108 0084 F868     		ldr	r0, [r7, #12]
 2109 0086 FFF7FEFF 		bl	prv_check_instance_auth
 2110 008a 0346     		mov	r3, r0
 2111              		.loc 1 661 17
 2112 008c 83F00103 		eor	r3, r3, #1
 2113 0090 DBB2     		uxtb	r3, r3
 2114              		.loc 1 661 16
 2115 0092 002B     		cmp	r3, #0
 2116 0094 01D0     		beq	.L126
 662:g:/iot/IoT_Device_Demo/iot_link/network/lwm2m/wakaama_lwm2m/port\object_access_control.c ****             {
 663:g:/iot/IoT_Device_Demo/iot_link/network/lwm2m/wakaama_lwm2m/port\object_access_control.c ****                 return COAP_401_UNAUTHORIZED;
 2117              		.loc 1 663 24
 2118 0096 8123     		movs	r3, #129
 2119 0098 00E0     		b	.L123
 2120              	.L126:
 664:g:/iot/IoT_Device_Demo/iot_link/network/lwm2m/wakaama_lwm2m/port\object_access_control.c ****             }
 665:g:/iot/IoT_Device_Demo/iot_link/network/lwm2m/wakaama_lwm2m/port\object_access_control.c ****         }
 666:g:/iot/IoT_Device_Demo/iot_link/network/lwm2m/wakaama_lwm2m/port\object_access_control.c ****     }
 667:g:/iot/IoT_Device_Demo/iot_link/network/lwm2m/wakaama_lwm2m/port\object_access_control.c **** 
 668:g:/iot/IoT_Device_Demo/iot_link/network/lwm2m/wakaama_lwm2m/port\object_access_control.c ****     return COAP_NO_ERROR;
 2121              		.loc 1 668 12
 2122 009a 0023     		movs	r3, #0
 2123              	.L123:
 669:g:/iot/IoT_Device_Demo/iot_link/network/lwm2m/wakaama_lwm2m/port\object_access_control.c **** }
 2124              		.loc 1 669 1
 2125 009c 1846     		mov	r0, r3
 2126 009e 1037     		adds	r7, r7, #16
 2127              	.LCFI92:
 2128              		.cfi_def_cfa_offset 8
 2129 00a0 BD46     		mov	sp, r7
 2130              	.LCFI93:
 2131              		.cfi_def_cfa_register 13
 2132              		@ sp needed
 2133 00a2 80BD     		pop	{r7, pc}
 2134              		.cfi_endproc
 2135              	.LFE29:
 2137              		.section	.text.prv_post_action_check,"ax",%progbits
 2138              		.align	1
 2139              		.syntax unified
 2140              		.thumb
ARM GAS  C:\Users\ADMINI~1\AppData\Local\Temp\ccQvcA20.s 			page 51


 2141              		.thumb_func
 2142              		.fpu fpv4-sp-d16
 2144              	prv_post_action_check:
 2145              	.LFB30:
 670:g:/iot/IoT_Device_Demo/iot_link/network/lwm2m/wakaama_lwm2m/port\object_access_control.c **** 
 671:g:/iot/IoT_Device_Demo/iot_link/network/lwm2m/wakaama_lwm2m/port\object_access_control.c **** static uint8_t prv_post_action_check(lwm2m_uri_t *uri, OBJ_ACC_OPERATE op)
 672:g:/iot/IoT_Device_Demo/iot_link/network/lwm2m/wakaama_lwm2m/port\object_access_control.c **** {
 2146              		.loc 1 672 1
 2147              		.cfi_startproc
 2148              		@ args = 0, pretend = 0, frame = 8
 2149              		@ frame_needed = 1, uses_anonymous_args = 0
 2150              		@ link register save eliminated.
 2151 0000 80B4     		push	{r7}
 2152              	.LCFI94:
 2153              		.cfi_def_cfa_offset 4
 2154              		.cfi_offset 7, -4
 2155 0002 83B0     		sub	sp, sp, #12
 2156              	.LCFI95:
 2157              		.cfi_def_cfa_offset 16
 2158 0004 00AF     		add	r7, sp, #0
 2159              	.LCFI96:
 2160              		.cfi_def_cfa_register 7
 2161 0006 7860     		str	r0, [r7, #4]
 2162 0008 0B46     		mov	r3, r1
 2163 000a FB70     		strb	r3, [r7, #3]
 673:g:/iot/IoT_Device_Demo/iot_link/network/lwm2m/wakaama_lwm2m/port\object_access_control.c ****     if (LWM2M_URI_IS_SET_RESOURCE(uri))
 2164              		.loc 1 673 9
 2165 000c 7B68     		ldr	r3, [r7, #4]
 2166 000e 1B78     		ldrb	r3, [r3]	@ zero_extendqisi2
 2167 0010 03F00103 		and	r3, r3, #1
 2168              		.loc 1 673 8
 2169 0014 002B     		cmp	r3, #0
 2170 0016 01D0     		beq	.L128
 674:g:/iot/IoT_Device_Demo/iot_link/network/lwm2m/wakaama_lwm2m/port\object_access_control.c ****     {
 675:g:/iot/IoT_Device_Demo/iot_link/network/lwm2m/wakaama_lwm2m/port\object_access_control.c ****         return COAP_NO_ERROR;
 2171              		.loc 1 675 16
 2172 0018 0023     		movs	r3, #0
 2173 001a 20E0     		b	.L129
 2174              	.L128:
 676:g:/iot/IoT_Device_Demo/iot_link/network/lwm2m/wakaama_lwm2m/port\object_access_control.c ****     }
 677:g:/iot/IoT_Device_Demo/iot_link/network/lwm2m/wakaama_lwm2m/port\object_access_control.c ****     else if (LWM2M_URI_IS_SET_INSTANCE(uri))
 2175              		.loc 1 677 14
 2176 001c 7B68     		ldr	r3, [r7, #4]
 2177 001e 1B78     		ldrb	r3, [r3]	@ zero_extendqisi2
 2178 0020 03F00203 		and	r3, r3, #2
 2179              		.loc 1 677 13
 2180 0024 002B     		cmp	r3, #0
 2181 0026 06D0     		beq	.L130
 678:g:/iot/IoT_Device_Demo/iot_link/network/lwm2m/wakaama_lwm2m/port\object_access_control.c ****     {
 679:g:/iot/IoT_Device_Demo/iot_link/network/lwm2m/wakaama_lwm2m/port\object_access_control.c ****         if (OBJ_ACC_EXCUTE == op)
 2182              		.loc 1 679 12
 2183 0028 FB78     		ldrb	r3, [r7, #3]	@ zero_extendqisi2
 2184 002a 022B     		cmp	r3, #2
 2185 002c 01D1     		bne	.L131
 680:g:/iot/IoT_Device_Demo/iot_link/network/lwm2m/wakaama_lwm2m/port\object_access_control.c ****         {
 681:g:/iot/IoT_Device_Demo/iot_link/network/lwm2m/wakaama_lwm2m/port\object_access_control.c ****             return COAP_405_METHOD_NOT_ALLOWED;
 2186              		.loc 1 681 20
ARM GAS  C:\Users\ADMINI~1\AppData\Local\Temp\ccQvcA20.s 			page 52


 2187 002e 8523     		movs	r3, #133
 2188 0030 15E0     		b	.L129
 2189              	.L131:
 682:g:/iot/IoT_Device_Demo/iot_link/network/lwm2m/wakaama_lwm2m/port\object_access_control.c ****         }
 683:g:/iot/IoT_Device_Demo/iot_link/network/lwm2m/wakaama_lwm2m/port\object_access_control.c ****         else
 684:g:/iot/IoT_Device_Demo/iot_link/network/lwm2m/wakaama_lwm2m/port\object_access_control.c ****         {
 685:g:/iot/IoT_Device_Demo/iot_link/network/lwm2m/wakaama_lwm2m/port\object_access_control.c ****             /*
 686:g:/iot/IoT_Device_Demo/iot_link/network/lwm2m/wakaama_lwm2m/port\object_access_control.c ****              * For the write operation, check whether the resources
 687:g:/iot/IoT_Device_Demo/iot_link/network/lwm2m/wakaama_lwm2m/port\object_access_control.c ****              * can be written or not, is in the write operation of
 688:g:/iot/IoT_Device_Demo/iot_link/network/lwm2m/wakaama_lwm2m/port\object_access_control.c ****              * the specific object.
 689:g:/iot/IoT_Device_Demo/iot_link/network/lwm2m/wakaama_lwm2m/port\object_access_control.c ****              */
 690:g:/iot/IoT_Device_Demo/iot_link/network/lwm2m/wakaama_lwm2m/port\object_access_control.c ****             return COAP_NO_ERROR;
 2190              		.loc 1 690 20
 2191 0032 0023     		movs	r3, #0
 2192 0034 13E0     		b	.L129
 2193              	.L130:
 691:g:/iot/IoT_Device_Demo/iot_link/network/lwm2m/wakaama_lwm2m/port\object_access_control.c ****         }
 692:g:/iot/IoT_Device_Demo/iot_link/network/lwm2m/wakaama_lwm2m/port\object_access_control.c ****     }
 693:g:/iot/IoT_Device_Demo/iot_link/network/lwm2m/wakaama_lwm2m/port\object_access_control.c ****     else
 694:g:/iot/IoT_Device_Demo/iot_link/network/lwm2m/wakaama_lwm2m/port\object_access_control.c ****     {
 695:g:/iot/IoT_Device_Demo/iot_link/network/lwm2m/wakaama_lwm2m/port\object_access_control.c ****         if (OBJ_ACC_WRITE_ATTR == op || OBJ_ACC_CREATE == op)
 2194              		.loc 1 695 12
 2195 0036 FB78     		ldrb	r3, [r7, #3]	@ zero_extendqisi2
 2196 0038 002B     		cmp	r3, #0
 2197 003a 02D0     		beq	.L132
 2198              		.loc 1 695 38 discriminator 1
 2199 003c FB78     		ldrb	r3, [r7, #3]	@ zero_extendqisi2
 2200 003e 042B     		cmp	r3, #4
 2201 0040 01D1     		bne	.L133
 2202              	.L132:
 696:g:/iot/IoT_Device_Demo/iot_link/network/lwm2m/wakaama_lwm2m/port\object_access_control.c ****         {
 697:g:/iot/IoT_Device_Demo/iot_link/network/lwm2m/wakaama_lwm2m/port\object_access_control.c ****             return COAP_NO_ERROR;
 2203              		.loc 1 697 20
 2204 0042 0023     		movs	r3, #0
 2205 0044 0BE0     		b	.L129
 2206              	.L133:
 698:g:/iot/IoT_Device_Demo/iot_link/network/lwm2m/wakaama_lwm2m/port\object_access_control.c ****         }
 699:g:/iot/IoT_Device_Demo/iot_link/network/lwm2m/wakaama_lwm2m/port\object_access_control.c ****         else if (OBJ_ACC_NOTIFY == op
 2207              		.loc 1 699 17
 2208 0046 FB78     		ldrb	r3, [r7, #3]	@ zero_extendqisi2
 2209 0048 002B     		cmp	r3, #0
 2210 004a 05D0     		beq	.L134
 700:g:/iot/IoT_Device_Demo/iot_link/network/lwm2m/wakaama_lwm2m/port\object_access_control.c ****                  || OBJ_ACC_READ == op || OBJ_ACC_OBSERVE == op)
 2211              		.loc 1 700 18
 2212 004c FB78     		ldrb	r3, [r7, #3]	@ zero_extendqisi2
 2213 004e 002B     		cmp	r3, #0
 2214 0050 02D0     		beq	.L134
 2215              		.loc 1 700 40 discriminator 1
 2216 0052 FB78     		ldrb	r3, [r7, #3]	@ zero_extendqisi2
 2217 0054 002B     		cmp	r3, #0
 2218 0056 01D1     		bne	.L135
 2219              	.L134:
 701:g:/iot/IoT_Device_Demo/iot_link/network/lwm2m/wakaama_lwm2m/port\object_access_control.c ****         {
 702:g:/iot/IoT_Device_Demo/iot_link/network/lwm2m/wakaama_lwm2m/port\object_access_control.c ****             /*
 703:g:/iot/IoT_Device_Demo/iot_link/network/lwm2m/wakaama_lwm2m/port\object_access_control.c ****              * We should do the auth check in object_read interface
 704:g:/iot/IoT_Device_Demo/iot_link/network/lwm2m/wakaama_lwm2m/port\object_access_control.c ****              * and just ignore here.
 705:g:/iot/IoT_Device_Demo/iot_link/network/lwm2m/wakaama_lwm2m/port\object_access_control.c ****              */
ARM GAS  C:\Users\ADMINI~1\AppData\Local\Temp\ccQvcA20.s 			page 53


 706:g:/iot/IoT_Device_Demo/iot_link/network/lwm2m/wakaama_lwm2m/port\object_access_control.c ****             return COAP_NO_ERROR;
 2220              		.loc 1 706 20
 2221 0058 0023     		movs	r3, #0
 2222 005a 00E0     		b	.L129
 2223              	.L135:
 707:g:/iot/IoT_Device_Demo/iot_link/network/lwm2m/wakaama_lwm2m/port\object_access_control.c ****         }
 708:g:/iot/IoT_Device_Demo/iot_link/network/lwm2m/wakaama_lwm2m/port\object_access_control.c ****         else
 709:g:/iot/IoT_Device_Demo/iot_link/network/lwm2m/wakaama_lwm2m/port\object_access_control.c ****         {
 710:g:/iot/IoT_Device_Demo/iot_link/network/lwm2m/wakaama_lwm2m/port\object_access_control.c ****             return COAP_405_METHOD_NOT_ALLOWED;
 2224              		.loc 1 710 20
 2225 005c 8523     		movs	r3, #133
 2226              	.L129:
 711:g:/iot/IoT_Device_Demo/iot_link/network/lwm2m/wakaama_lwm2m/port\object_access_control.c ****         }
 712:g:/iot/IoT_Device_Demo/iot_link/network/lwm2m/wakaama_lwm2m/port\object_access_control.c ****     }
 713:g:/iot/IoT_Device_Demo/iot_link/network/lwm2m/wakaama_lwm2m/port\object_access_control.c **** }
 2227              		.loc 1 713 1
 2228 005e 1846     		mov	r0, r3
 2229 0060 0C37     		adds	r7, r7, #12
 2230              	.LCFI97:
 2231              		.cfi_def_cfa_offset 4
 2232 0062 BD46     		mov	sp, r7
 2233              	.LCFI98:
 2234              		.cfi_def_cfa_register 13
 2235              		@ sp needed
 2236 0064 5DF8047B 		ldr	r7, [sp], #4
 2237              	.LCFI99:
 2238              		.cfi_restore 7
 2239              		.cfi_def_cfa_offset 0
 2240 0068 7047     		bx	lr
 2241              		.cfi_endproc
 2242              	.LFE30:
 2244              		.section	.text.prv_get_srv_cnt,"ax",%progbits
 2245              		.align	1
 2246              		.syntax unified
 2247              		.thumb
 2248              		.thumb_func
 2249              		.fpu fpv4-sp-d16
 2251              	prv_get_srv_cnt:
 2252              	.LFB31:
 714:g:/iot/IoT_Device_Demo/iot_link/network/lwm2m/wakaama_lwm2m/port\object_access_control.c **** 
 715:g:/iot/IoT_Device_Demo/iot_link/network/lwm2m/wakaama_lwm2m/port\object_access_control.c **** static int prv_get_srv_cnt(lwm2m_server_t *serverP)
 716:g:/iot/IoT_Device_Demo/iot_link/network/lwm2m/wakaama_lwm2m/port\object_access_control.c **** {
 2253              		.loc 1 716 1
 2254              		.cfi_startproc
 2255              		@ args = 0, pretend = 0, frame = 16
 2256              		@ frame_needed = 1, uses_anonymous_args = 0
 2257              		@ link register save eliminated.
 2258 0000 80B4     		push	{r7}
 2259              	.LCFI100:
 2260              		.cfi_def_cfa_offset 4
 2261              		.cfi_offset 7, -4
 2262 0002 85B0     		sub	sp, sp, #20
 2263              	.LCFI101:
 2264              		.cfi_def_cfa_offset 24
 2265 0004 00AF     		add	r7, sp, #0
 2266              	.LCFI102:
 2267              		.cfi_def_cfa_register 7
ARM GAS  C:\Users\ADMINI~1\AppData\Local\Temp\ccQvcA20.s 			page 54


 2268 0006 7860     		str	r0, [r7, #4]
 717:g:/iot/IoT_Device_Demo/iot_link/network/lwm2m/wakaama_lwm2m/port\object_access_control.c ****     lwm2m_server_t *itor = serverP;
 2269              		.loc 1 717 21
 2270 0008 7B68     		ldr	r3, [r7, #4]
 2271 000a FB60     		str	r3, [r7, #12]
 718:g:/iot/IoT_Device_Demo/iot_link/network/lwm2m/wakaama_lwm2m/port\object_access_control.c ****     int cnt = 0;
 2272              		.loc 1 718 9
 2273 000c 0023     		movs	r3, #0
 2274 000e BB60     		str	r3, [r7, #8]
 719:g:/iot/IoT_Device_Demo/iot_link/network/lwm2m/wakaama_lwm2m/port\object_access_control.c **** 
 720:g:/iot/IoT_Device_Demo/iot_link/network/lwm2m/wakaama_lwm2m/port\object_access_control.c ****     while (itor)
 2275              		.loc 1 720 11
 2276 0010 0DE0     		b	.L137
 2277              	.L139:
 721:g:/iot/IoT_Device_Demo/iot_link/network/lwm2m/wakaama_lwm2m/port\object_access_control.c ****     {
 722:g:/iot/IoT_Device_Demo/iot_link/network/lwm2m/wakaama_lwm2m/port\object_access_control.c ****         if (!itor->dirty)
 2278              		.loc 1 722 18
 2279 0012 FB68     		ldr	r3, [r7, #12]
 2280 0014 93F82830 		ldrb	r3, [r3, #40]	@ zero_extendqisi2
 2281              		.loc 1 722 13
 2282 0018 83F00103 		eor	r3, r3, #1
 2283 001c DBB2     		uxtb	r3, r3
 2284              		.loc 1 722 12
 2285 001e 002B     		cmp	r3, #0
 2286 0020 02D0     		beq	.L138
 723:g:/iot/IoT_Device_Demo/iot_link/network/lwm2m/wakaama_lwm2m/port\object_access_control.c ****         {
 724:g:/iot/IoT_Device_Demo/iot_link/network/lwm2m/wakaama_lwm2m/port\object_access_control.c ****             ++cnt;
 2287              		.loc 1 724 13
 2288 0022 BB68     		ldr	r3, [r7, #8]
 2289 0024 0133     		adds	r3, r3, #1
 2290 0026 BB60     		str	r3, [r7, #8]
 2291              	.L138:
 725:g:/iot/IoT_Device_Demo/iot_link/network/lwm2m/wakaama_lwm2m/port\object_access_control.c ****         }
 726:g:/iot/IoT_Device_Demo/iot_link/network/lwm2m/wakaama_lwm2m/port\object_access_control.c **** 
 727:g:/iot/IoT_Device_Demo/iot_link/network/lwm2m/wakaama_lwm2m/port\object_access_control.c ****         itor = itor->next;
 2292              		.loc 1 727 14
 2293 0028 FB68     		ldr	r3, [r7, #12]
 2294 002a 1B68     		ldr	r3, [r3]
 2295 002c FB60     		str	r3, [r7, #12]
 2296              	.L137:
 720:g:/iot/IoT_Device_Demo/iot_link/network/lwm2m/wakaama_lwm2m/port\object_access_control.c ****     {
 2297              		.loc 1 720 11
 2298 002e FB68     		ldr	r3, [r7, #12]
 2299 0030 002B     		cmp	r3, #0
 2300 0032 EED1     		bne	.L139
 728:g:/iot/IoT_Device_Demo/iot_link/network/lwm2m/wakaama_lwm2m/port\object_access_control.c ****     }
 729:g:/iot/IoT_Device_Demo/iot_link/network/lwm2m/wakaama_lwm2m/port\object_access_control.c **** 
 730:g:/iot/IoT_Device_Demo/iot_link/network/lwm2m/wakaama_lwm2m/port\object_access_control.c ****     return cnt;
 2301              		.loc 1 730 12
 2302 0034 BB68     		ldr	r3, [r7, #8]
 731:g:/iot/IoT_Device_Demo/iot_link/network/lwm2m/wakaama_lwm2m/port\object_access_control.c **** }
 2303              		.loc 1 731 1
 2304 0036 1846     		mov	r0, r3
 2305 0038 1437     		adds	r7, r7, #20
 2306              	.LCFI103:
 2307              		.cfi_def_cfa_offset 4
 2308 003a BD46     		mov	sp, r7
ARM GAS  C:\Users\ADMINI~1\AppData\Local\Temp\ccQvcA20.s 			page 55


 2309              	.LCFI104:
 2310              		.cfi_def_cfa_register 13
 2311              		@ sp needed
 2312 003c 5DF8047B 		ldr	r7, [sp], #4
 2313              	.LCFI105:
 2314              		.cfi_restore 7
 2315              		.cfi_def_cfa_offset 0
 2316 0040 7047     		bx	lr
 2317              		.cfi_endproc
 2318              	.LFE31:
 2320              		.section	.text.acc_auth_operate,"ax",%progbits
 2321              		.align	1
 2322              		.global	acc_auth_operate
 2323              		.syntax unified
 2324              		.thumb
 2325              		.thumb_func
 2326              		.fpu fpv4-sp-d16
 2328              	acc_auth_operate:
 2329              	.LFB32:
 732:g:/iot/IoT_Device_Demo/iot_link/network/lwm2m/wakaama_lwm2m/port\object_access_control.c **** 
 733:g:/iot/IoT_Device_Demo/iot_link/network/lwm2m/wakaama_lwm2m/port\object_access_control.c **** uint8_t acc_auth_operate(lwm2m_context_t *contextP, lwm2m_uri_t *uri,
 734:g:/iot/IoT_Device_Demo/iot_link/network/lwm2m/wakaama_lwm2m/port\object_access_control.c ****                          OBJ_ACC_OPERATE op, uint16_t serverId)
 735:g:/iot/IoT_Device_Demo/iot_link/network/lwm2m/wakaama_lwm2m/port\object_access_control.c **** {
 2330              		.loc 1 735 1
 2331              		.cfi_startproc
 2332              		@ args = 0, pretend = 0, frame = 32
 2333              		@ frame_needed = 1, uses_anonymous_args = 0
 2334 0000 80B5     		push	{r7, lr}
 2335              	.LCFI106:
 2336              		.cfi_def_cfa_offset 8
 2337              		.cfi_offset 7, -8
 2338              		.cfi_offset 14, -4
 2339 0002 88B0     		sub	sp, sp, #32
 2340              	.LCFI107:
 2341              		.cfi_def_cfa_offset 40
 2342 0004 00AF     		add	r7, sp, #0
 2343              	.LCFI108:
 2344              		.cfi_def_cfa_register 7
 2345 0006 F860     		str	r0, [r7, #12]
 2346 0008 B960     		str	r1, [r7, #8]
 2347 000a 1146     		mov	r1, r2
 2348 000c 1A46     		mov	r2, r3
 2349 000e 0B46     		mov	r3, r1
 2350 0010 FB71     		strb	r3, [r7, #7]
 2351 0012 1346     		mov	r3, r2	@ movhi
 2352 0014 BB80     		strh	r3, [r7, #4]	@ movhi
 736:g:/iot/IoT_Device_Demo/iot_link/network/lwm2m/wakaama_lwm2m/port\object_access_control.c ****     uint8_t ret;
 737:g:/iot/IoT_Device_Demo/iot_link/network/lwm2m/wakaama_lwm2m/port\object_access_control.c ****     lwm2m_object_t *accCtrlObjP;
 738:g:/iot/IoT_Device_Demo/iot_link/network/lwm2m/wakaama_lwm2m/port\object_access_control.c ****     acc_ctrl_oi_t *accCtrlOiP;
 739:g:/iot/IoT_Device_Demo/iot_link/network/lwm2m/wakaama_lwm2m/port\object_access_control.c **** 
 740:g:/iot/IoT_Device_Demo/iot_link/network/lwm2m/wakaama_lwm2m/port\object_access_control.c ****     if (prv_get_srv_cnt(contextP->serverList) <= 1)
 2353              		.loc 1 740 9
 2354 0016 FB68     		ldr	r3, [r7, #12]
 2355 0018 5B69     		ldr	r3, [r3, #20]
 2356 001a 1846     		mov	r0, r3
 2357 001c FFF7FEFF 		bl	prv_get_srv_cnt
 2358 0020 0346     		mov	r3, r0
ARM GAS  C:\Users\ADMINI~1\AppData\Local\Temp\ccQvcA20.s 			page 56


 2359              		.loc 1 740 8
 2360 0022 012B     		cmp	r3, #1
 2361 0024 01DC     		bgt	.L142
 741:g:/iot/IoT_Device_Demo/iot_link/network/lwm2m/wakaama_lwm2m/port\object_access_control.c ****     {
 742:g:/iot/IoT_Device_Demo/iot_link/network/lwm2m/wakaama_lwm2m/port\object_access_control.c ****         return COAP_NO_ERROR;
 2362              		.loc 1 742 16
 2363 0026 0023     		movs	r3, #0
 2364 0028 32E0     		b	.L143
 2365              	.L142:
 743:g:/iot/IoT_Device_Demo/iot_link/network/lwm2m/wakaama_lwm2m/port\object_access_control.c ****     }
 744:g:/iot/IoT_Device_Demo/iot_link/network/lwm2m/wakaama_lwm2m/port\object_access_control.c **** 
 745:g:/iot/IoT_Device_Demo/iot_link/network/lwm2m/wakaama_lwm2m/port\object_access_control.c ****     if (0 == serverId)
 2366              		.loc 1 745 8
 2367 002a BB88     		ldrh	r3, [r7, #4]
 2368 002c 002B     		cmp	r3, #0
 2369 002e 01D1     		bne	.L144
 746:g:/iot/IoT_Device_Demo/iot_link/network/lwm2m/wakaama_lwm2m/port\object_access_control.c ****     {
 747:g:/iot/IoT_Device_Demo/iot_link/network/lwm2m/wakaama_lwm2m/port\object_access_control.c ****         return COAP_NO_ERROR;
 2370              		.loc 1 747 16
 2371 0030 0023     		movs	r3, #0
 2372 0032 2DE0     		b	.L143
 2373              	.L144:
 748:g:/iot/IoT_Device_Demo/iot_link/network/lwm2m/wakaama_lwm2m/port\object_access_control.c ****     }
 749:g:/iot/IoT_Device_Demo/iot_link/network/lwm2m/wakaama_lwm2m/port\object_access_control.c **** 
 750:g:/iot/IoT_Device_Demo/iot_link/network/lwm2m/wakaama_lwm2m/port\object_access_control.c ****     accCtrlObjP = (lwm2m_object_t *)LWM2M_LIST_FIND(contextP->objectList, LWM2M_ACL_OBJECT_ID);
 2374              		.loc 1 750 37
 2375 0034 FB68     		ldr	r3, [r7, #12]
 2376 0036 9B69     		ldr	r3, [r3, #24]
 2377 0038 0221     		movs	r1, #2
 2378 003a 1846     		mov	r0, r3
 2379 003c FFF7FEFF 		bl	lwm2m_list_find
 2380 0040 F861     		str	r0, [r7, #28]
 751:g:/iot/IoT_Device_Demo/iot_link/network/lwm2m/wakaama_lwm2m/port\object_access_control.c **** 
 752:g:/iot/IoT_Device_Demo/iot_link/network/lwm2m/wakaama_lwm2m/port\object_access_control.c ****     if (NULL == accCtrlObjP)
 2381              		.loc 1 752 8
 2382 0042 FB69     		ldr	r3, [r7, #28]
 2383 0044 002B     		cmp	r3, #0
 2384 0046 01D1     		bne	.L145
 753:g:/iot/IoT_Device_Demo/iot_link/network/lwm2m/wakaama_lwm2m/port\object_access_control.c ****     {
 754:g:/iot/IoT_Device_Demo/iot_link/network/lwm2m/wakaama_lwm2m/port\object_access_control.c ****         return COAP_401_UNAUTHORIZED;
 2385              		.loc 1 754 16
 2386 0048 8123     		movs	r3, #129
 2387 004a 21E0     		b	.L143
 2388              	.L145:
 755:g:/iot/IoT_Device_Demo/iot_link/network/lwm2m/wakaama_lwm2m/port\object_access_control.c ****     }
 756:g:/iot/IoT_Device_Demo/iot_link/network/lwm2m/wakaama_lwm2m/port\object_access_control.c **** 
 757:g:/iot/IoT_Device_Demo/iot_link/network/lwm2m/wakaama_lwm2m/port\object_access_control.c ****     accCtrlOiP = (acc_ctrl_oi_t *)(accCtrlObjP->instanceList);
 2389              		.loc 1 757 16
 2390 004c FB69     		ldr	r3, [r7, #28]
 2391 004e 9B68     		ldr	r3, [r3, #8]
 2392 0050 BB61     		str	r3, [r7, #24]
 758:g:/iot/IoT_Device_Demo/iot_link/network/lwm2m/wakaama_lwm2m/port\object_access_control.c **** 
 759:g:/iot/IoT_Device_Demo/iot_link/network/lwm2m/wakaama_lwm2m/port\object_access_control.c ****     if (NULL == accCtrlOiP)
 2393              		.loc 1 759 8
 2394 0052 BB69     		ldr	r3, [r7, #24]
 2395 0054 002B     		cmp	r3, #0
 2396 0056 01D1     		bne	.L146
ARM GAS  C:\Users\ADMINI~1\AppData\Local\Temp\ccQvcA20.s 			page 57


 760:g:/iot/IoT_Device_Demo/iot_link/network/lwm2m/wakaama_lwm2m/port\object_access_control.c ****     {
 761:g:/iot/IoT_Device_Demo/iot_link/network/lwm2m/wakaama_lwm2m/port\object_access_control.c ****         return COAP_401_UNAUTHORIZED;
 2397              		.loc 1 761 16
 2398 0058 8123     		movs	r3, #129
 2399 005a 19E0     		b	.L143
 2400              	.L146:
 762:g:/iot/IoT_Device_Demo/iot_link/network/lwm2m/wakaama_lwm2m/port\object_access_control.c ****     }
 763:g:/iot/IoT_Device_Demo/iot_link/network/lwm2m/wakaama_lwm2m/port\object_access_control.c **** 
 764:g:/iot/IoT_Device_Demo/iot_link/network/lwm2m/wakaama_lwm2m/port\object_access_control.c ****     if (COAP_NO_ERROR != (ret = prv_pre_auth_check(accCtrlOiP, uri, op, serverId)))
 2401              		.loc 1 764 33
 2402 005c BB88     		ldrh	r3, [r7, #4]
 2403 005e FA79     		ldrb	r2, [r7, #7]	@ zero_extendqisi2
 2404 0060 B968     		ldr	r1, [r7, #8]
 2405 0062 B869     		ldr	r0, [r7, #24]
 2406 0064 FFF7FEFF 		bl	prv_pre_auth_check
 2407 0068 0346     		mov	r3, r0
 2408 006a FB75     		strb	r3, [r7, #23]
 2409              		.loc 1 764 8
 2410 006c FB7D     		ldrb	r3, [r7, #23]	@ zero_extendqisi2
 2411 006e 002B     		cmp	r3, #0
 2412 0070 01D0     		beq	.L147
 765:g:/iot/IoT_Device_Demo/iot_link/network/lwm2m/wakaama_lwm2m/port\object_access_control.c ****     {
 766:g:/iot/IoT_Device_Demo/iot_link/network/lwm2m/wakaama_lwm2m/port\object_access_control.c ****         return ret;
 2413              		.loc 1 766 16
 2414 0072 FB7D     		ldrb	r3, [r7, #23]	@ zero_extendqisi2
 2415 0074 0CE0     		b	.L143
 2416              	.L147:
 767:g:/iot/IoT_Device_Demo/iot_link/network/lwm2m/wakaama_lwm2m/port\object_access_control.c ****     }
 768:g:/iot/IoT_Device_Demo/iot_link/network/lwm2m/wakaama_lwm2m/port\object_access_control.c **** 
 769:g:/iot/IoT_Device_Demo/iot_link/network/lwm2m/wakaama_lwm2m/port\object_access_control.c ****     if (COAP_NO_ERROR != (ret = prv_post_action_check(uri, op)))
 2417              		.loc 1 769 33
 2418 0076 FB79     		ldrb	r3, [r7, #7]	@ zero_extendqisi2
 2419 0078 1946     		mov	r1, r3
 2420 007a B868     		ldr	r0, [r7, #8]
 2421 007c FFF7FEFF 		bl	prv_post_action_check
 2422 0080 0346     		mov	r3, r0
 2423 0082 FB75     		strb	r3, [r7, #23]
 2424              		.loc 1 769 8
 2425 0084 FB7D     		ldrb	r3, [r7, #23]	@ zero_extendqisi2
 2426 0086 002B     		cmp	r3, #0
 2427 0088 01D0     		beq	.L148
 770:g:/iot/IoT_Device_Demo/iot_link/network/lwm2m/wakaama_lwm2m/port\object_access_control.c ****     {
 771:g:/iot/IoT_Device_Demo/iot_link/network/lwm2m/wakaama_lwm2m/port\object_access_control.c ****         return ret;
 2428              		.loc 1 771 16
 2429 008a FB7D     		ldrb	r3, [r7, #23]	@ zero_extendqisi2
 2430 008c 00E0     		b	.L143
 2431              	.L148:
 772:g:/iot/IoT_Device_Demo/iot_link/network/lwm2m/wakaama_lwm2m/port\object_access_control.c ****     }
 773:g:/iot/IoT_Device_Demo/iot_link/network/lwm2m/wakaama_lwm2m/port\object_access_control.c **** 
 774:g:/iot/IoT_Device_Demo/iot_link/network/lwm2m/wakaama_lwm2m/port\object_access_control.c ****     return COAP_NO_ERROR;
 2432              		.loc 1 774 12
 2433 008e 0023     		movs	r3, #0
 2434              	.L143:
 775:g:/iot/IoT_Device_Demo/iot_link/network/lwm2m/wakaama_lwm2m/port\object_access_control.c **** }
 2435              		.loc 1 775 1
 2436 0090 1846     		mov	r0, r3
 2437 0092 2037     		adds	r7, r7, #32
ARM GAS  C:\Users\ADMINI~1\AppData\Local\Temp\ccQvcA20.s 			page 58


 2438              	.LCFI109:
 2439              		.cfi_def_cfa_offset 8
 2440 0094 BD46     		mov	sp, r7
 2441              	.LCFI110:
 2442              		.cfi_def_cfa_register 13
 2443              		@ sp needed
 2444 0096 80BD     		pop	{r7, pc}
 2445              		.cfi_endproc
 2446              	.LFE32:
 2448              		.text
 2449              	.Letext0:
 2450              		.file 2 "g:\\iot\\.huawei-liteos-studio\\tools\\arm-none-eabi\\arm-none-eabi\\include\\machine\\_d
 2451              		.file 3 "g:\\iot\\.huawei-liteos-studio\\tools\\arm-none-eabi\\arm-none-eabi\\include\\sys\\_stdin
 2452              		.file 4 "g:/iot/IoT_Device_Demo/iot_link/network/lwm2m/wakaama_lwm2m/wakaama-master/core/liblwm2m_
 2453              		.file 5 "g:\\iot\\.huawei-liteos-studio\\tools\\arm-none-eabi\\lib\\gcc\\arm-none-eabi\\9.2.1\\inc
 2454              		.file 6 "g:\\iot\\.huawei-liteos-studio\\tools\\arm-none-eabi\\arm-none-eabi\\include\\sys\\lock.h
 2455              		.file 7 "g:\\iot\\.huawei-liteos-studio\\tools\\arm-none-eabi\\arm-none-eabi\\include\\sys\\_types
 2456              		.file 8 "g:\\iot\\.huawei-liteos-studio\\tools\\arm-none-eabi\\arm-none-eabi\\include\\sys\\reent.
 2457              		.file 9 "g:\\iot\\.huawei-liteos-studio\\tools\\arm-none-eabi\\arm-none-eabi\\include\\sys\\_timev
 2458              		.file 10 "g:\\iot\\.huawei-liteos-studio\\tools\\arm-none-eabi\\arm-none-eabi\\include\\time.h"
 2459              		.file 11 "g:/iot/IoT_Device_Demo/iot_link/network/lwm2m/wakaama_lwm2m/wakaama-master/core/er-coap-
 2460              		.file 12 "g:/iot/IoT_Device_Demo/iot_link/network/lwm2m/wakaama_lwm2m/wakaama-master/core/liblwm2m
 2461              		.file 13 "g:\\iot\\.huawei-liteos-studio\\tools\\arm-none-eabi\\arm-none-eabi\\include\\stdlib.h"
 2462              		.file 14 "g:\\iot\\.huawei-liteos-studio\\tools\\arm-none-eabi\\arm-none-eabi\\include\\ctype.h"
 2463              		.file 15 "g:/iot/IoT_Device_Demo/iot_link/network/lwm2m/lwm2m_al/lwm2m_al.h"
 2464              		.file 16 "g:/iot/IoT_Device_Demo/iot_link/network/lwm2m/wakaama_lwm2m/port/object_comm.h"
ARM GAS  C:\Users\ADMINI~1\AppData\Local\Temp\ccQvcA20.s 			page 59

